
hello_world_mutex.sparc.x: formato do arquivo elf32-sparc

Disassembly of section .text:

00000000 <_start>:
       0:	40 00 00 40 	call  100 <main>
       4:	01 00 00 00 	nop 
       8:	40 00 1d 9c 	call  7678 <_exit>
       c:	01 00 00 00 	nop 
	...

00000100 <main>:
     100:	9d e3 bf 90 	save  %sp, -112, %sp
     104:	f0 27 a0 44 	st  %i0, [ %fp + 0x44 ]
     108:	f2 27 a0 48 	st  %i1, [ %fp + 0x48 ]
     10c:	03 00 00 29 	sethi  %hi(0xa400), %g1
     110:	9a 10 61 a8 	or  %g1, 0x1a8, %o5	! a5a8 <procCounter>
     114:	03 00 00 25 	sethi  %hi(0x9400), %g1
     118:	90 10 62 b0 	or  %g1, 0x2b0, %o0	! 96b0 <__CTOR_END__>
     11c:	d2 03 40 00 	ld  [ %o5 ], %o1
     120:	40 00 06 8b 	call  1b4c <printf>
     124:	01 00 00 00 	nop 
     128:	03 00 00 27 	sethi  %hi(0x9c00), %g1
     12c:	82 10 61 98 	or  %g1, 0x198, %g1	! 9d98 <_data_start>
     130:	c2 00 40 00 	ld  [ %g1 ], %g1
     134:	c2 00 40 00 	ld  [ %g1 ], %g1
     138:	80 a0 60 00 	cmp  %g1, 0
     13c:	12 bf ff fb 	bne  128 <main+0x28>
     140:	01 00 00 00 	nop 
     144:	03 00 00 29 	sethi  %hi(0xa400), %g1
     148:	98 10 61 a8 	or  %g1, 0x1a8, %o4	! a5a8 <procCounter>
     14c:	c2 03 00 00 	ld  [ %o4 ], %g1
     150:	9a 10 00 01 	mov  %g1, %o5
     154:	da 27 bf f4 	st  %o5, [ %fp + -12 ]
     158:	82 00 60 01 	inc  %g1
     15c:	c2 23 00 00 	st  %g1, [ %o4 ]
     160:	03 00 00 29 	sethi  %hi(0xa400), %g1
     164:	9a 10 61 a8 	or  %g1, 0x1a8, %o5	! a5a8 <procCounter>
     168:	03 00 00 25 	sethi  %hi(0x9400), %g1
     16c:	90 10 62 c8 	or  %g1, 0x2c8, %o0	! 96c8 <__CTOR_END__+0x18>
     170:	d2 03 40 00 	ld  [ %o5 ], %o1
     174:	40 00 06 76 	call  1b4c <printf>
     178:	01 00 00 00 	nop 
     17c:	03 00 00 27 	sethi  %hi(0x9c00), %g1
     180:	82 10 61 98 	or  %g1, 0x198, %g1	! 9d98 <_data_start>
     184:	c2 00 40 00 	ld  [ %g1 ], %g1
     188:	c0 20 40 00 	clr  [ %g1 ]
     18c:	c2 07 bf f4 	ld  [ %fp + -12 ], %g1
     190:	80 a0 60 00 	cmp  %g1, 0
     194:	12 80 00 5a 	bne  2fc <main+0x1fc>
     198:	01 00 00 00 	nop 
     19c:	03 00 00 2a 	sethi  %hi(0xa800), %g1
     1a0:	9a 10 60 ec 	or  %g1, 0xec, %o5	! a8ec <pthread_n_workers>
     1a4:	82 10 20 01 	mov  1, %g1
     1a8:	c2 23 40 00 	st  %g1, [ %o5 ]
     1ac:	03 00 00 29 	sethi  %hi(0xa400), %g1
     1b0:	9a 10 61 bc 	or  %g1, 0x1bc, %o5	! a5bc <m_argc>
     1b4:	82 10 20 03 	mov  3, %g1
     1b8:	c2 23 40 00 	st  %g1, [ %o5 ]
     1bc:	03 00 00 29 	sethi  %hi(0xa400), %g1
     1c0:	9a 10 61 b0 	or  %g1, 0x1b0, %o5	! a5b0 <m_argv>
     1c4:	03 00 00 25 	sethi  %hi(0x9400), %g1
     1c8:	82 10 62 d8 	or  %g1, 0x2d8, %g1	! 96d8 <__CTOR_END__+0x28>
     1cc:	c2 23 60 04 	st  %g1, [ %o5 + 4 ]
     1d0:	03 00 00 29 	sethi  %hi(0xa400), %g1
     1d4:	9a 10 61 b0 	or  %g1, 0x1b0, %o5	! a5b0 <m_argv>
     1d8:	03 00 00 25 	sethi  %hi(0x9400), %g1
     1dc:	82 10 62 e0 	or  %g1, 0x2e0, %g1	! 96e0 <__CTOR_END__+0x30>
     1e0:	c2 23 60 08 	st  %g1, [ %o5 + 8 ]
     1e4:	40 00 02 2f 	call  aa0 <pthread_init>
     1e8:	01 00 00 00 	nop 
     1ec:	03 00 00 29 	sethi  %hi(0xa400), %g1
     1f0:	90 10 61 dc 	or  %g1, 0x1dc, %o0	! a5dc <mutex_print>
     1f4:	92 10 20 00 	clr  %o1
     1f8:	40 00 01 bf 	call  8f4 <pthread_mutex_init>
     1fc:	01 00 00 00 	nop 
     200:	03 00 00 29 	sethi  %hi(0xa400), %g1
     204:	90 10 61 dc 	or  %g1, 0x1dc, %o0	! a5dc <mutex_print>
     208:	40 00 01 cd 	call  93c <pthread_mutex_lock>
     20c:	01 00 00 00 	nop 
     210:	03 00 00 25 	sethi  %hi(0x9400), %g1
     214:	90 10 62 e8 	or  %g1, 0x2e8, %o0	! 96e8 <__CTOR_END__+0x38>
     218:	40 00 06 4d 	call  1b4c <printf>
     21c:	01 00 00 00 	nop 
     220:	03 00 00 25 	sethi  %hi(0x9400), %g1
     224:	90 10 62 e8 	or  %g1, 0x2e8, %o0	! 96e8 <__CTOR_END__+0x38>
     228:	40 00 06 49 	call  1b4c <printf>
     22c:	01 00 00 00 	nop 
     230:	03 00 00 25 	sethi  %hi(0x9400), %g1
     234:	90 10 62 f0 	or  %g1, 0x2f0, %o0	! 96f0 <__CTOR_END__+0x40>
     238:	40 00 06 45 	call  1b4c <printf>
     23c:	01 00 00 00 	nop 
     240:	03 00 00 25 	sethi  %hi(0x9400), %g1
     244:	90 10 63 38 	or  %g1, 0x338, %o0	! 9738 <__CTOR_END__+0x88>
     248:	40 00 06 41 	call  1b4c <printf>
     24c:	01 00 00 00 	nop 
     250:	03 00 00 25 	sethi  %hi(0x9400), %g1
     254:	90 10 63 80 	or  %g1, 0x380, %o0	! 9780 <__CTOR_END__+0xd0>
     258:	40 00 06 3d 	call  1b4c <printf>
     25c:	01 00 00 00 	nop 
     260:	03 00 00 25 	sethi  %hi(0x9400), %g1
     264:	90 10 63 c8 	or  %g1, 0x3c8, %o0	! 97c8 <__CTOR_END__+0x118>
     268:	40 00 06 39 	call  1b4c <printf>
     26c:	01 00 00 00 	nop 
     270:	03 00 00 26 	sethi  %hi(0x9800), %g1
     274:	90 10 60 10 	or  %g1, 0x10, %o0	! 9810 <__CTOR_END__+0x160>
     278:	40 00 06 35 	call  1b4c <printf>
     27c:	01 00 00 00 	nop 
     280:	03 00 00 25 	sethi  %hi(0x9400), %g1
     284:	90 10 62 f0 	or  %g1, 0x2f0, %o0	! 96f0 <__CTOR_END__+0x40>
     288:	40 00 06 31 	call  1b4c <printf>
     28c:	01 00 00 00 	nop 
     290:	03 00 00 25 	sethi  %hi(0x9400), %g1
     294:	90 10 62 e8 	or  %g1, 0x2e8, %o0	! 96e8 <__CTOR_END__+0x38>
     298:	40 00 06 2d 	call  1b4c <printf>
     29c:	01 00 00 00 	nop 
     2a0:	03 00 00 29 	sethi  %hi(0xa400), %g1
     2a4:	90 10 61 dc 	or  %g1, 0x1dc, %o0	! a5dc <mutex_print>
     2a8:	40 00 01 d2 	call  9f0 <pthread_mutex_unlock>
     2ac:	01 00 00 00 	nop 
     2b0:	03 00 00 27 	sethi  %hi(0x9c00), %g1
     2b4:	82 10 61 98 	or  %g1, 0x198, %g1	! 9d98 <_data_start>
     2b8:	c2 00 40 00 	ld  [ %g1 ], %g1
     2bc:	c2 00 40 00 	ld  [ %g1 ], %g1
     2c0:	80 a0 60 00 	cmp  %g1, 0
     2c4:	12 bf ff fb 	bne  2b0 <main+0x1b0>
     2c8:	01 00 00 00 	nop 
     2cc:	03 00 00 29 	sethi  %hi(0xa400), %g1
     2d0:	9a 10 61 50 	or  %g1, 0x150, %o5	! a550 <_edata>
     2d4:	82 10 20 01 	mov  1, %g1
     2d8:	c2 23 40 00 	st  %g1, [ %o5 ]
     2dc:	03 00 00 27 	sethi  %hi(0x9c00), %g1
     2e0:	82 10 61 98 	or  %g1, 0x198, %g1	! 9d98 <_data_start>
     2e4:	c2 00 40 00 	ld  [ %g1 ], %g1
     2e8:	c0 20 40 00 	clr  [ %g1 ]
     2ec:	40 00 01 06 	call  704 <pthread_my_exit>
     2f0:	01 00 00 00 	nop 
     2f4:	10 80 00 0f 	b  330 <main+0x230>
     2f8:	01 00 00 00 	nop 
     2fc:	03 00 00 29 	sethi  %hi(0xa400), %g1
     300:	90 10 61 dc 	or  %g1, 0x1dc, %o0	! a5dc <mutex_print>
     304:	40 00 01 8e 	call  93c <pthread_mutex_lock>
     308:	01 00 00 00 	nop 
     30c:	03 00 00 26 	sethi  %hi(0x9800), %g1
     310:	90 10 60 58 	or  %g1, 0x58, %o0	! 9858 <__CTOR_END__+0x1a8>
     314:	d2 07 bf f4 	ld  [ %fp + -12 ], %o1
     318:	40 00 06 0d 	call  1b4c <printf>
     31c:	01 00 00 00 	nop 
     320:	03 00 00 29 	sethi  %hi(0xa400), %g1
     324:	90 10 61 dc 	or  %g1, 0x1dc, %o0	! a5dc <mutex_print>
     328:	40 00 01 b2 	call  9f0 <pthread_mutex_unlock>
     32c:	01 00 00 00 	nop 
     330:	90 10 20 00 	clr  %o0	! 0 <__DYNAMIC>
     334:	40 00 1c d1 	call  7678 <_exit>
     338:	01 00 00 00 	nop 
     33c:	01 00 00 00 	nop 

00000340 <initNode>:
     340:	9d e3 bf 98 	save  %sp, -104, %sp
     344:	f8 07 a0 40 	ld  [ %fp + 0x40 ], %i4
     348:	f0 27 a0 44 	st  %i0, [ %fp + 0x44 ]
     34c:	f2 27 a0 48 	st  %i1, [ %fp + 0x48 ]
     350:	f4 27 a0 4c 	st  %i2, [ %fp + 0x4c ]
     354:	fa 07 a0 44 	ld  [ %fp + 0x44 ], %i5
     358:	c2 07 a0 4c 	ld  [ %fp + 0x4c ], %g1
     35c:	c2 27 60 04 	st  %g1, [ %i5 + 4 ]
     360:	fa 07 a0 44 	ld  [ %fp + 0x44 ], %i5
     364:	c2 07 a0 48 	ld  [ %fp + 0x48 ], %g1
     368:	c2 27 40 00 	st  %g1, [ %i5 ]
     36c:	b0 10 00 1c 	mov  %i4, %i0
     370:	81 c7 e0 0c 	jmp  %i7 + 0xc
     374:	81 e8 00 00 	restore 

00000378 <initQueue>:
     378:	9d e3 bf 98 	save  %sp, -104, %sp
     37c:	f0 27 a0 44 	st  %i0, [ %fp + 0x44 ]
     380:	03 00 00 27 	sethi  %hi(0x9c00), %g1
     384:	82 10 61 98 	or  %g1, 0x198, %g1	! 9d98 <_data_start>
     388:	c2 00 40 00 	ld  [ %g1 ], %g1
     38c:	c2 00 40 00 	ld  [ %g1 ], %g1
     390:	80 a0 60 00 	cmp  %g1, 0
     394:	12 bf ff fb 	bne  380 <initQueue+0x8>
     398:	01 00 00 00 	nop 
     39c:	fa 07 a0 44 	ld  [ %fp + 0x44 ], %i5
     3a0:	82 10 3f ff 	mov  -1, %g1
     3a4:	c2 27 40 00 	st  %g1, [ %i5 ]
     3a8:	fa 07 a0 44 	ld  [ %fp + 0x44 ], %i5
     3ac:	82 10 3f ff 	mov  -1, %g1
     3b0:	c2 27 60 04 	st  %g1, [ %i5 + 4 ]
     3b4:	c2 07 a0 44 	ld  [ %fp + 0x44 ], %g1
     3b8:	c0 20 63 08 	clr  [ %g1 + 0x308 ]
     3bc:	03 00 00 27 	sethi  %hi(0x9c00), %g1
     3c0:	82 10 61 98 	or  %g1, 0x198, %g1	! 9d98 <_data_start>
     3c4:	c2 00 40 00 	ld  [ %g1 ], %g1
     3c8:	c0 20 40 00 	clr  [ %g1 ]
     3cc:	81 c7 e0 08 	ret 
     3d0:	81 e8 00 00 	restore 

000003d4 <printQueue>:
     3d4:	9d e3 bf 90 	save  %sp, -112, %sp
     3d8:	f0 27 a0 44 	st  %i0, [ %fp + 0x44 ]
     3dc:	03 00 00 29 	sethi  %hi(0xa400), %g1
     3e0:	90 10 61 dc 	or  %g1, 0x1dc, %o0	! a5dc <mutex_print>
     3e4:	40 00 01 56 	call  93c <pthread_mutex_lock>
     3e8:	01 00 00 00 	nop 
     3ec:	03 00 00 26 	sethi  %hi(0x9800), %g1
     3f0:	90 10 60 68 	or  %g1, 0x68, %o0	! 9868 <__CTOR_END__+0x1b8>
     3f4:	40 00 05 d6 	call  1b4c <printf>
     3f8:	01 00 00 00 	nop 
     3fc:	da 07 a0 44 	ld  [ %fp + 0x44 ], %o5
     400:	03 00 00 26 	sethi  %hi(0x9800), %g1
     404:	90 10 60 80 	or  %g1, 0x80, %o0	! 9880 <__CTOR_END__+0x1d0>
     408:	d2 03 63 08 	ld  [ %o5 + 0x308 ], %o1
     40c:	40 00 05 d0 	call  1b4c <printf>
     410:	01 00 00 00 	nop 
     414:	da 07 a0 44 	ld  [ %fp + 0x44 ], %o5
     418:	03 00 00 26 	sethi  %hi(0x9800), %g1
     41c:	90 10 60 98 	or  %g1, 0x98, %o0	! 9898 <__CTOR_END__+0x1e8>
     420:	d2 03 40 00 	ld  [ %o5 ], %o1
     424:	40 00 05 ca 	call  1b4c <printf>
     428:	01 00 00 00 	nop 
     42c:	da 07 a0 44 	ld  [ %fp + 0x44 ], %o5
     430:	03 00 00 26 	sethi  %hi(0x9800), %g1
     434:	90 10 60 a8 	or  %g1, 0xa8, %o0	! 98a8 <__CTOR_END__+0x1f8>
     438:	d2 03 60 04 	ld  [ %o5 + 4 ], %o1
     43c:	40 00 05 c4 	call  1b4c <printf>
     440:	01 00 00 00 	nop 
     444:	03 00 00 29 	sethi  %hi(0xa400), %g1
     448:	90 10 61 dc 	or  %g1, 0x1dc, %o0	! a5dc <mutex_print>
     44c:	40 00 01 69 	call  9f0 <pthread_mutex_unlock>
     450:	01 00 00 00 	nop 
     454:	01 00 00 00 	nop 
     458:	81 c7 e0 08 	ret 
     45c:	81 e8 00 00 	restore 

00000460 <isEmpty>:
     460:	9d e3 bf 90 	save  %sp, -112, %sp
     464:	f0 27 a0 44 	st  %i0, [ %fp + 0x44 ]
     468:	c2 07 a0 44 	ld  [ %fp + 0x44 ], %g1
     46c:	c2 00 63 08 	ld  [ %g1 + 0x308 ], %g1
     470:	80 a0 60 00 	cmp  %g1, 0
     474:	12 80 00 06 	bne  48c <isEmpty+0x2c>
     478:	01 00 00 00 	nop 
     47c:	82 10 20 01 	mov  1, %g1	! 1 <__DYNAMIC+0x1>
     480:	c2 27 bf f4 	st  %g1, [ %fp + -12 ]
     484:	10 80 00 03 	b  490 <isEmpty+0x30>
     488:	01 00 00 00 	nop 
     48c:	c0 27 bf f4 	clr  [ %fp + -12 ]
     490:	f0 07 bf f4 	ld  [ %fp + -12 ], %i0
     494:	81 c7 e0 08 	ret 
     498:	81 e8 00 00 	restore 

0000049c <enqueue>:
     49c:	9d e3 bf 98 	save  %sp, -104, %sp
     4a0:	f0 27 a0 44 	st  %i0, [ %fp + 0x44 ]
     4a4:	f2 27 a0 48 	st  %i1, [ %fp + 0x48 ]
     4a8:	d0 07 a0 44 	ld  [ %fp + 0x44 ], %o0
     4ac:	7f ff ff ed 	call  460 <isEmpty>
     4b0:	01 00 00 00 	nop 
     4b4:	82 10 00 08 	mov  %o0, %g1
     4b8:	80 a0 60 00 	cmp  %g1, 0
     4bc:	02 80 00 1d 	be  530 <enqueue+0x94>
     4c0:	01 00 00 00 	nop 
     4c4:	da 07 a0 44 	ld  [ %fp + 0x44 ], %o5
     4c8:	c2 07 a0 44 	ld  [ %fp + 0x44 ], %g1
     4cc:	c2 00 40 00 	ld  [ %g1 ], %g1
     4d0:	82 00 60 01 	inc  %g1
     4d4:	c2 23 40 00 	st  %g1, [ %o5 ]
     4d8:	da 07 a0 44 	ld  [ %fp + 0x44 ], %o5
     4dc:	c2 07 a0 44 	ld  [ %fp + 0x44 ], %g1
     4e0:	c2 00 60 04 	ld  [ %g1 + 4 ], %g1
     4e4:	82 00 60 01 	inc  %g1
     4e8:	c2 23 60 04 	st  %g1, [ %o5 + 4 ]
     4ec:	d8 07 a0 44 	ld  [ %fp + 0x44 ], %o4
     4f0:	c2 07 a0 44 	ld  [ %fp + 0x44 ], %g1
     4f4:	da 00 60 04 	ld  [ %g1 + 4 ], %o5
     4f8:	82 10 00 0d 	mov  %o5, %g1
     4fc:	82 00 40 01 	add  %g1, %g1, %g1
     500:	82 00 40 0d 	add  %g1, %o5, %g1
     504:	83 28 60 02 	sll  %g1, 2, %g1
     508:	98 00 40 0c 	add  %g1, %o4, %o4
     50c:	da 07 a0 48 	ld  [ %fp + 0x48 ], %o5
     510:	c2 03 40 00 	ld  [ %o5 ], %g1
     514:	c2 23 20 08 	st  %g1, [ %o4 + 8 ]
     518:	c2 03 60 04 	ld  [ %o5 + 4 ], %g1
     51c:	c2 23 20 0c 	st  %g1, [ %o4 + 0xc ]
     520:	c2 03 60 08 	ld  [ %o5 + 8 ], %g1
     524:	c2 23 20 10 	st  %g1, [ %o4 + 0x10 ]
     528:	10 80 00 16 	b  580 <enqueue+0xe4>
     52c:	01 00 00 00 	nop 
     530:	da 07 a0 44 	ld  [ %fp + 0x44 ], %o5
     534:	c2 07 a0 44 	ld  [ %fp + 0x44 ], %g1
     538:	c2 00 60 04 	ld  [ %g1 + 4 ], %g1
     53c:	82 00 60 01 	inc  %g1
     540:	c2 23 60 04 	st  %g1, [ %o5 + 4 ]
     544:	d8 07 a0 44 	ld  [ %fp + 0x44 ], %o4
     548:	c2 07 a0 44 	ld  [ %fp + 0x44 ], %g1
     54c:	da 00 60 04 	ld  [ %g1 + 4 ], %o5
     550:	82 10 00 0d 	mov  %o5, %g1
     554:	82 00 40 01 	add  %g1, %g1, %g1
     558:	82 00 40 0d 	add  %g1, %o5, %g1
     55c:	83 28 60 02 	sll  %g1, 2, %g1
     560:	98 00 40 0c 	add  %g1, %o4, %o4
     564:	da 07 a0 48 	ld  [ %fp + 0x48 ], %o5
     568:	c2 03 40 00 	ld  [ %o5 ], %g1
     56c:	c2 23 20 08 	st  %g1, [ %o4 + 8 ]
     570:	c2 03 60 04 	ld  [ %o5 + 4 ], %g1
     574:	c2 23 20 0c 	st  %g1, [ %o4 + 0xc ]
     578:	c2 03 60 08 	ld  [ %o5 + 8 ], %g1
     57c:	c2 23 20 10 	st  %g1, [ %o4 + 0x10 ]
     580:	da 07 a0 44 	ld  [ %fp + 0x44 ], %o5
     584:	c2 07 a0 44 	ld  [ %fp + 0x44 ], %g1
     588:	c2 00 63 08 	ld  [ %g1 + 0x308 ], %g1
     58c:	82 00 60 01 	inc  %g1
     590:	c2 23 63 08 	st  %g1, [ %o5 + 0x308 ]
     594:	81 c7 e0 08 	ret 
     598:	81 e8 00 00 	restore 

0000059c <dequeue>:
     59c:	9d e3 bf 90 	save  %sp, -112, %sp
     5a0:	f0 27 a0 44 	st  %i0, [ %fp + 0x44 ]
     5a4:	d0 07 a0 44 	ld  [ %fp + 0x44 ], %o0
     5a8:	7f ff ff ae 	call  460 <isEmpty>
     5ac:	01 00 00 00 	nop 
     5b0:	82 10 00 08 	mov  %o0, %g1
     5b4:	80 a0 60 00 	cmp  %g1, 0
     5b8:	12 80 00 29 	bne  65c <dequeue+0xc0>
     5bc:	01 00 00 00 	nop 
     5c0:	c2 07 a0 44 	ld  [ %fp + 0x44 ], %g1
     5c4:	c2 00 40 00 	ld  [ %g1 ], %g1
     5c8:	c2 27 bf f4 	st  %g1, [ %fp + -12 ]
     5cc:	c2 07 a0 44 	ld  [ %fp + 0x44 ], %g1
     5d0:	da 07 a0 44 	ld  [ %fp + 0x44 ], %o5
     5d4:	d8 00 40 00 	ld  [ %g1 ], %o4
     5d8:	c2 03 60 04 	ld  [ %o5 + 4 ], %g1
     5dc:	80 a3 00 01 	cmp  %o4, %g1
     5e0:	12 80 00 0a 	bne  608 <dequeue+0x6c>
     5e4:	01 00 00 00 	nop 
     5e8:	d8 07 a0 44 	ld  [ %fp + 0x44 ], %o4
     5ec:	da 07 a0 44 	ld  [ %fp + 0x44 ], %o5
     5f0:	82 10 3f ff 	mov  -1, %g1
     5f4:	c2 23 60 04 	st  %g1, [ %o5 + 4 ]
     5f8:	82 10 3f ff 	mov  -1, %g1
     5fc:	c2 23 00 00 	st  %g1, [ %o4 ]
     600:	10 80 00 07 	b  61c <dequeue+0x80>
     604:	01 00 00 00 	nop 
     608:	da 07 a0 44 	ld  [ %fp + 0x44 ], %o5
     60c:	c2 07 a0 44 	ld  [ %fp + 0x44 ], %g1
     610:	c2 00 40 00 	ld  [ %g1 ], %g1
     614:	82 00 60 01 	inc  %g1
     618:	c2 23 40 00 	st  %g1, [ %o5 ]
     61c:	da 07 a0 44 	ld  [ %fp + 0x44 ], %o5
     620:	c2 07 a0 44 	ld  [ %fp + 0x44 ], %g1
     624:	c2 00 63 08 	ld  [ %g1 + 0x308 ], %g1
     628:	82 00 7f ff 	add  %g1, -1, %g1
     62c:	c2 23 63 08 	st  %g1, [ %o5 + 0x308 ]
     630:	da 07 bf f4 	ld  [ %fp + -12 ], %o5
     634:	82 10 00 0d 	mov  %o5, %g1
     638:	82 00 40 01 	add  %g1, %g1, %g1
     63c:	82 00 40 0d 	add  %g1, %o5, %g1
     640:	9b 28 60 02 	sll  %g1, 2, %o5
     644:	c2 07 a0 44 	ld  [ %fp + 0x44 ], %g1
     648:	82 03 40 01 	add  %o5, %g1, %g1
     64c:	82 00 60 08 	add  %g1, 8, %g1
     650:	c2 27 bf f0 	st  %g1, [ %fp + -16 ]
     654:	10 80 00 07 	b  670 <dequeue+0xd4>
     658:	01 00 00 00 	nop 
     65c:	03 00 00 26 	sethi  %hi(0x9800), %g1
     660:	90 10 60 b8 	or  %g1, 0xb8, %o0	! 98b8 <__CTOR_END__+0x208>
     664:	40 00 05 3a 	call  1b4c <printf>
     668:	01 00 00 00 	nop 
     66c:	c0 27 bf f0 	clr  [ %fp + -16 ]
     670:	f0 07 bf f0 	ld  [ %fp + -16 ], %i0
     674:	81 c7 e0 08 	ret 
     678:	81 e8 00 00 	restore 

0000067c <destroy>:
     67c:	9d e3 bf 98 	save  %sp, -104, %sp
     680:	f0 27 a0 44 	st  %i0, [ %fp + 0x44 ]
     684:	81 c7 e0 08 	ret 
     688:	81 e8 00 00 	restore 

0000068c <size>:
     68c:	9d e3 bf 98 	save  %sp, -104, %sp
     690:	f0 27 a0 44 	st  %i0, [ %fp + 0x44 ]
     694:	c2 07 a0 44 	ld  [ %fp + 0x44 ], %g1
     698:	c2 00 63 08 	ld  [ %g1 + 0x308 ], %g1
     69c:	b0 10 00 01 	mov  %g1, %i0
     6a0:	81 c7 e0 08 	ret 
     6a4:	81 e8 00 00 	restore 

000006a8 <pthread_attr_setdetachstate>:
     6a8:	9d e3 bf 98 	save  %sp, -104, %sp
     6ac:	f0 27 a0 44 	st  %i0, [ %fp + 0x44 ]
     6b0:	f2 27 a0 48 	st  %i1, [ %fp + 0x48 ]
     6b4:	82 10 20 00 	clr  %g1
     6b8:	b0 10 00 01 	mov  %g1, %i0
     6bc:	81 c7 e0 08 	ret 
     6c0:	81 e8 00 00 	restore 

000006c4 <pthread_attr_getdetachstate>:
     6c4:	9d e3 bf 98 	save  %sp, -104, %sp
     6c8:	f0 27 a0 44 	st  %i0, [ %fp + 0x44 ]
     6cc:	f2 27 a0 48 	st  %i1, [ %fp + 0x48 ]
     6d0:	82 10 20 00 	clr  %g1
     6d4:	b0 10 00 01 	mov  %g1, %i0
     6d8:	81 c7 e0 08 	ret 
     6dc:	81 e8 00 00 	restore 

000006e0 <pthread_attr_init>:
     6e0:	9d e3 bf 98 	save  %sp, -104, %sp
     6e4:	f0 27 a0 44 	st  %i0, [ %fp + 0x44 ]
     6e8:	b0 10 00 01 	mov  %g1, %i0
     6ec:	81 c7 e0 08 	ret 
     6f0:	81 e8 00 00 	restore 

000006f4 <pthread_exit>:
     6f4:	9d e3 bf 98 	save  %sp, -104, %sp
     6f8:	f0 27 a0 44 	st  %i0, [ %fp + 0x44 ]
     6fc:	81 c7 e0 08 	ret 
     700:	81 e8 00 00 	restore 

00000704 <pthread_my_exit>:
     704:	9d e3 bf 98 	save  %sp, -104, %sp
     708:	01 00 00 00 	nop 
     70c:	03 00 00 27 	sethi  %hi(0x9c00), %g1
     710:	82 10 61 98 	or  %g1, 0x198, %g1	! 9d98 <_data_start>
     714:	c2 00 40 00 	ld  [ %g1 ], %g1
     718:	c2 00 40 00 	ld  [ %g1 ], %g1
     71c:	80 a0 60 00 	cmp  %g1, 0
     720:	12 bf ff fb 	bne  70c <pthread_my_exit+0x8>
     724:	01 00 00 00 	nop 
     728:	03 00 00 29 	sethi  %hi(0xa400), %g1
     72c:	9a 10 61 5c 	or  %g1, 0x15c, %o5	! a55c <pthread_finished>
     730:	82 10 20 01 	mov  1, %g1
     734:	c2 23 40 00 	st  %g1, [ %o5 ]
     738:	03 00 00 27 	sethi  %hi(0x9c00), %g1
     73c:	82 10 61 98 	or  %g1, 0x198, %g1	! 9d98 <_data_start>
     740:	c2 00 40 00 	ld  [ %g1 ], %g1
     744:	c0 20 40 00 	clr  [ %g1 ]
     748:	03 00 00 29 	sethi  %hi(0xa400), %g1
     74c:	90 10 61 dc 	or  %g1, 0x1dc, %o0	! a5dc <mutex_print>
     750:	40 00 00 7b 	call  93c <pthread_mutex_lock>
     754:	01 00 00 00 	nop 
     758:	03 00 00 26 	sethi  %hi(0x9800), %g1
     75c:	90 10 60 c8 	or  %g1, 0xc8, %o0	! 98c8 <__CTOR_END__+0x218>
     760:	40 00 04 fb 	call  1b4c <printf>
     764:	01 00 00 00 	nop 
     768:	03 00 00 29 	sethi  %hi(0xa400), %g1
     76c:	90 10 61 dc 	or  %g1, 0x1dc, %o0	! a5dc <mutex_print>
     770:	40 00 00 a0 	call  9f0 <pthread_mutex_unlock>
     774:	01 00 00 00 	nop 
     778:	01 00 00 00 	nop 
     77c:	81 c7 e0 08 	ret 
     780:	81 e8 00 00 	restore 

00000784 <pthread_join_init>:
     784:	9d e3 bf 98 	save  %sp, -104, %sp
     788:	f0 27 a0 44 	st  %i0, [ %fp + 0x44 ]
     78c:	03 00 00 27 	sethi  %hi(0x9c00), %g1
     790:	82 10 61 98 	or  %g1, 0x198, %g1	! 9d98 <_data_start>
     794:	c2 00 40 00 	ld  [ %g1 ], %g1
     798:	c2 00 40 00 	ld  [ %g1 ], %g1
     79c:	80 a0 60 00 	cmp  %g1, 0
     7a0:	12 bf ff fb 	bne  78c <pthread_join_init+0x8>
     7a4:	01 00 00 00 	nop 
     7a8:	fa 07 a0 44 	ld  [ %fp + 0x44 ], %i5
     7ac:	03 00 00 2a 	sethi  %hi(0xa800), %g1
     7b0:	82 10 60 ec 	or  %g1, 0xec, %g1	! a8ec <pthread_n_workers>
     7b4:	c2 00 40 00 	ld  [ %g1 ], %g1
     7b8:	c2 27 40 00 	st  %g1, [ %i5 ]
     7bc:	03 00 00 29 	sethi  %hi(0xa400), %g1
     7c0:	ba 10 61 d8 	or  %g1, 0x1d8, %i5	! a5d8 <pthread_ended>
     7c4:	03 00 00 2a 	sethi  %hi(0xa800), %g1
     7c8:	82 10 60 ec 	or  %g1, 0xec, %g1	! a8ec <pthread_n_workers>
     7cc:	c2 00 40 00 	ld  [ %g1 ], %g1
     7d0:	c2 27 40 00 	st  %g1, [ %i5 ]
     7d4:	03 00 00 27 	sethi  %hi(0x9c00), %g1
     7d8:	82 10 61 98 	or  %g1, 0x198, %g1	! 9d98 <_data_start>
     7dc:	c2 00 40 00 	ld  [ %g1 ], %g1
     7e0:	c0 20 40 00 	clr  [ %g1 ]
     7e4:	82 10 20 00 	clr  %g1
     7e8:	b0 10 00 01 	mov  %g1, %i0
     7ec:	81 c7 e0 08 	ret 
     7f0:	81 e8 00 00 	restore 

000007f4 <pthread_join_control>:
     7f4:	9d e3 bf 98 	save  %sp, -104, %sp
     7f8:	f0 27 a0 44 	st  %i0, [ %fp + 0x44 ]
     7fc:	03 00 00 27 	sethi  %hi(0x9c00), %g1
     800:	82 10 61 98 	or  %g1, 0x198, %g1	! 9d98 <_data_start>
     804:	c2 00 40 00 	ld  [ %g1 ], %g1
     808:	c2 00 40 00 	ld  [ %g1 ], %g1
     80c:	80 a0 60 00 	cmp  %g1, 0
     810:	12 bf ff fb 	bne  7fc <pthread_join_control+0x8>
     814:	01 00 00 00 	nop 
     818:	da 07 a0 44 	ld  [ %fp + 0x44 ], %o5
     81c:	c2 07 a0 44 	ld  [ %fp + 0x44 ], %g1
     820:	c2 00 40 00 	ld  [ %g1 ], %g1
     824:	82 00 7f ff 	add  %g1, -1, %g1
     828:	c2 23 40 00 	st  %g1, [ %o5 ]
     82c:	d8 07 a0 44 	ld  [ %fp + 0x44 ], %o4
     830:	03 00 00 2a 	sethi  %hi(0xa800), %g1
     834:	9a 10 60 ec 	or  %g1, 0xec, %o5	! a8ec <pthread_n_workers>
     838:	03 00 00 26 	sethi  %hi(0x9800), %g1
     83c:	90 10 60 f0 	or  %g1, 0xf0, %o0	! 98f0 <__CTOR_END__+0x240>
     840:	d2 03 00 00 	ld  [ %o4 ], %o1
     844:	d4 03 40 00 	ld  [ %o5 ], %o2
     848:	40 00 04 c1 	call  1b4c <printf>
     84c:	01 00 00 00 	nop 
     850:	c2 07 a0 44 	ld  [ %fp + 0x44 ], %g1
     854:	c2 00 40 00 	ld  [ %g1 ], %g1
     858:	80 a0 60 00 	cmp  %g1, 0
     85c:	12 80 00 06 	bne  874 <pthread_join_control+0x80>
     860:	01 00 00 00 	nop 
     864:	03 00 00 29 	sethi  %hi(0xa400), %g1
     868:	9a 10 61 64 	or  %g1, 0x164, %o5	! a564 <join_out>
     86c:	82 10 20 01 	mov  1, %g1
     870:	c2 23 40 00 	st  %g1, [ %o5 ]
     874:	03 00 00 27 	sethi  %hi(0x9c00), %g1
     878:	82 10 61 98 	or  %g1, 0x198, %g1	! 9d98 <_data_start>
     87c:	c2 00 40 00 	ld  [ %g1 ], %g1
     880:	c0 20 40 00 	clr  [ %g1 ]
     884:	03 00 00 29 	sethi  %hi(0xa400), %g1
     888:	82 10 61 64 	or  %g1, 0x164, %g1	! a564 <join_out>
     88c:	c2 00 40 00 	ld  [ %g1 ], %g1
     890:	80 a0 60 00 	cmp  %g1, 0
     894:	02 bf ff fc 	be  884 <pthread_join_control+0x90>
     898:	01 00 00 00 	nop 
     89c:	90 10 21 f4 	mov  0x1f4, %o0	! 1f4 <main+0xf4>
     8a0:	40 00 00 6f 	call  a5c <pthread_busywait>
     8a4:	01 00 00 00 	nop 
     8a8:	03 00 00 29 	sethi  %hi(0xa400), %g1
     8ac:	90 10 61 dc 	or  %g1, 0x1dc, %o0	! a5dc <mutex_print>
     8b0:	40 00 00 23 	call  93c <pthread_mutex_lock>
     8b4:	01 00 00 00 	nop 
     8b8:	03 00 00 26 	sethi  %hi(0x9800), %g1
     8bc:	90 10 61 28 	or  %g1, 0x128, %o0	! 9928 <__CTOR_END__+0x278>
     8c0:	40 00 04 a3 	call  1b4c <printf>
     8c4:	01 00 00 00 	nop 
     8c8:	03 00 00 29 	sethi  %hi(0xa400), %g1
     8cc:	90 10 61 dc 	or  %g1, 0x1dc, %o0	! a5dc <mutex_print>
     8d0:	40 00 00 48 	call  9f0 <pthread_mutex_unlock>
     8d4:	01 00 00 00 	nop 
     8d8:	01 00 00 00 	nop 
     8dc:	81 c7 e0 08 	ret 
     8e0:	81 e8 00 00 	restore 

000008e4 <pthread_join>:
     8e4:	9d e3 bf 98 	save  %sp, -104, %sp
     8e8:	f2 27 a0 48 	st  %i1, [ %fp + 0x48 ]
     8ec:	81 c7 e0 08 	ret 
     8f0:	81 e8 00 00 	restore 

000008f4 <pthread_mutex_init>:
     8f4:	9d e3 bf 98 	save  %sp, -104, %sp
     8f8:	f0 27 a0 44 	st  %i0, [ %fp + 0x44 ]
     8fc:	f2 27 a0 48 	st  %i1, [ %fp + 0x48 ]
     900:	03 00 00 27 	sethi  %hi(0x9c00), %g1
     904:	82 10 61 98 	or  %g1, 0x198, %g1	! 9d98 <_data_start>
     908:	c2 00 40 00 	ld  [ %g1 ], %g1
     90c:	c2 00 40 00 	ld  [ %g1 ], %g1
     910:	80 a0 60 00 	cmp  %g1, 0
     914:	12 bf ff fb 	bne  900 <pthread_mutex_init+0xc>
     918:	01 00 00 00 	nop 
     91c:	c2 07 a0 44 	ld  [ %fp + 0x44 ], %g1
     920:	c0 20 40 00 	clr  [ %g1 ]
     924:	03 00 00 27 	sethi  %hi(0x9c00), %g1
     928:	82 10 61 98 	or  %g1, 0x198, %g1	! 9d98 <_data_start>
     92c:	c2 00 40 00 	ld  [ %g1 ], %g1
     930:	c0 20 40 00 	clr  [ %g1 ]
     934:	81 c7 e0 08 	ret 
     938:	81 e8 00 00 	restore 

0000093c <pthread_mutex_lock>:
     93c:	9d e3 bf 90 	save  %sp, -112, %sp
     940:	f0 27 a0 44 	st  %i0, [ %fp + 0x44 ]
     944:	03 00 00 27 	sethi  %hi(0x9c00), %g1
     948:	82 10 61 98 	or  %g1, 0x198, %g1	! 9d98 <_data_start>
     94c:	c2 00 40 00 	ld  [ %g1 ], %g1
     950:	c2 00 40 00 	ld  [ %g1 ], %g1
     954:	80 a0 60 00 	cmp  %g1, 0
     958:	12 bf ff fb 	bne  944 <pthread_mutex_lock+0x8>
     95c:	01 00 00 00 	nop 
     960:	01 00 00 00 	nop 
     964:	c2 07 a0 44 	ld  [ %fp + 0x44 ], %g1
     968:	c2 00 40 00 	ld  [ %g1 ], %g1
     96c:	80 a0 60 01 	cmp  %g1, 1
     970:	02 80 00 04 	be  980 <pthread_mutex_lock+0x44>
     974:	01 00 00 00 	nop 
     978:	10 80 00 12 	b  9c0 <pthread_mutex_lock+0x84>
     97c:	01 00 00 00 	nop 
     980:	03 00 00 27 	sethi  %hi(0x9c00), %g1
     984:	82 10 61 98 	or  %g1, 0x198, %g1	! 9d98 <_data_start>
     988:	c2 00 40 00 	ld  [ %g1 ], %g1
     98c:	c0 20 40 00 	clr  [ %g1 ]
     990:	90 10 21 f4 	mov  0x1f4, %o0
     994:	40 00 00 32 	call  a5c <pthread_busywait>
     998:	01 00 00 00 	nop 
     99c:	03 00 00 27 	sethi  %hi(0x9c00), %g1
     9a0:	82 10 61 98 	or  %g1, 0x198, %g1	! 9d98 <_data_start>
     9a4:	c2 00 40 00 	ld  [ %g1 ], %g1
     9a8:	c2 00 40 00 	ld  [ %g1 ], %g1
     9ac:	80 a0 60 00 	cmp  %g1, 0
     9b0:	12 bf ff fb 	bne  99c <pthread_mutex_lock+0x60>
     9b4:	01 00 00 00 	nop 
     9b8:	10 bf ff eb 	b  964 <pthread_mutex_lock+0x28>
     9bc:	01 00 00 00 	nop 
     9c0:	da 07 a0 44 	ld  [ %fp + 0x44 ], %o5
     9c4:	82 10 20 01 	mov  1, %g1
     9c8:	c2 23 40 00 	st  %g1, [ %o5 ]
     9cc:	03 00 00 27 	sethi  %hi(0x9c00), %g1
     9d0:	82 10 61 98 	or  %g1, 0x198, %g1	! 9d98 <_data_start>
     9d4:	c2 00 40 00 	ld  [ %g1 ], %g1
     9d8:	c0 20 40 00 	clr  [ %g1 ]
     9dc:	c0 27 bf f4 	clr  [ %fp + -12 ]
     9e0:	c2 07 bf f4 	ld  [ %fp + -12 ], %g1
     9e4:	b0 10 00 01 	mov  %g1, %i0
     9e8:	81 c7 e0 08 	ret 
     9ec:	81 e8 00 00 	restore 

000009f0 <pthread_mutex_unlock>:
     9f0:	9d e3 bf 98 	save  %sp, -104, %sp
     9f4:	f0 27 a0 44 	st  %i0, [ %fp + 0x44 ]
     9f8:	03 00 00 27 	sethi  %hi(0x9c00), %g1
     9fc:	82 10 61 98 	or  %g1, 0x198, %g1	! 9d98 <_data_start>
     a00:	c2 00 40 00 	ld  [ %g1 ], %g1
     a04:	c2 00 40 00 	ld  [ %g1 ], %g1
     a08:	80 a0 60 00 	cmp  %g1, 0
     a0c:	12 bf ff fb 	bne  9f8 <pthread_mutex_unlock+0x8>
     a10:	01 00 00 00 	nop 
     a14:	c2 07 a0 44 	ld  [ %fp + 0x44 ], %g1
     a18:	c0 20 40 00 	clr  [ %g1 ]
     a1c:	03 00 00 27 	sethi  %hi(0x9c00), %g1
     a20:	82 10 61 98 	or  %g1, 0x198, %g1	! 9d98 <_data_start>
     a24:	c2 00 40 00 	ld  [ %g1 ], %g1
     a28:	c0 20 40 00 	clr  [ %g1 ]
     a2c:	82 10 20 00 	clr  %g1
     a30:	b0 10 00 01 	mov  %g1, %i0
     a34:	81 c7 e0 08 	ret 
     a38:	81 e8 00 00 	restore 

00000a3c <pthread_mutex_destroy>:
     a3c:	9d e3 bf 98 	save  %sp, -104, %sp
     a40:	f0 27 a0 44 	st  %i0, [ %fp + 0x44 ]
     a44:	d0 07 a0 44 	ld  [ %fp + 0x44 ], %o0
     a48:	40 00 02 34 	call  1318 <free>
     a4c:	01 00 00 00 	nop 
     a50:	01 00 00 00 	nop 
     a54:	81 c7 e0 08 	ret 
     a58:	81 e8 00 00 	restore 

00000a5c <pthread_busywait>:
     a5c:	9d e3 bf 90 	save  %sp, -112, %sp
     a60:	f0 27 a0 44 	st  %i0, [ %fp + 0x44 ]
     a64:	c0 27 bf f4 	clr  [ %fp + -12 ]
     a68:	fa 07 bf f4 	ld  [ %fp + -12 ], %i5
     a6c:	c2 07 a0 44 	ld  [ %fp + 0x44 ], %g1
     a70:	80 a7 40 01 	cmp  %i5, %g1
     a74:	06 80 00 04 	bl  a84 <pthread_busywait+0x28>
     a78:	01 00 00 00 	nop 
     a7c:	10 80 00 07 	b  a98 <pthread_busywait+0x3c>
     a80:	01 00 00 00 	nop 
     a84:	c2 07 bf f4 	ld  [ %fp + -12 ], %g1
     a88:	82 00 60 01 	inc  %g1
     a8c:	c2 27 bf f4 	st  %g1, [ %fp + -12 ]
     a90:	10 bf ff f6 	b  a68 <pthread_busywait+0xc>
     a94:	01 00 00 00 	nop 
     a98:	81 c7 e0 08 	ret 
     a9c:	81 e8 00 00 	restore 

00000aa0 <pthread_init>:
     aa0:	9d e3 bf 98 	save  %sp, -104, %sp
     aa4:	03 00 00 29 	sethi  %hi(0xa400), %g1
     aa8:	90 10 61 e0 	or  %g1, 0x1e0, %o0	! a5e0 <tQueue>
     aac:	7f ff fe 33 	call  378 <initQueue>
     ab0:	01 00 00 00 	nop 
     ab4:	03 00 00 29 	sethi  %hi(0xa400), %g1
     ab8:	90 10 61 cc 	or  %g1, 0x1cc, %o0	! a5cc <join>
     abc:	7f ff ff 32 	call  784 <pthread_join_init>
     ac0:	01 00 00 00 	nop 
     ac4:	03 00 00 27 	sethi  %hi(0x9c00), %g1
     ac8:	82 10 61 98 	or  %g1, 0x198, %g1	! 9d98 <_data_start>
     acc:	c2 00 40 00 	ld  [ %g1 ], %g1
     ad0:	c2 00 40 00 	ld  [ %g1 ], %g1
     ad4:	80 a0 60 00 	cmp  %g1, 0
     ad8:	12 bf ff fb 	bne  ac4 <pthread_init+0x24>
     adc:	01 00 00 00 	nop 
     ae0:	03 00 00 29 	sethi  %hi(0xa400), %g1
     ae4:	82 10 61 58 	or  %g1, 0x158, %g1	! a558 <pthread_numberOfActiveThreads>
     ae8:	c0 20 40 00 	clr  [ %g1 ]
     aec:	03 00 00 29 	sethi  %hi(0xa400), %g1
     af0:	82 10 61 60 	or  %g1, 0x160, %g1	! a560 <pthread_free_for_start>
     af4:	c0 20 40 00 	clr  [ %g1 ]
     af8:	03 00 00 29 	sethi  %hi(0xa400), %g1
     afc:	82 10 61 5c 	or  %g1, 0x15c, %g1	! a55c <pthread_finished>
     b00:	c0 20 40 00 	clr  [ %g1 ]
     b04:	03 00 00 27 	sethi  %hi(0x9c00), %g1
     b08:	82 10 61 98 	or  %g1, 0x198, %g1	! 9d98 <_data_start>
     b0c:	c2 00 40 00 	ld  [ %g1 ], %g1
     b10:	c0 20 40 00 	clr  [ %g1 ]
     b14:	b0 10 00 01 	mov  %g1, %i0
     b18:	81 c7 e0 08 	ret 
     b1c:	81 e8 00 00 	restore 

00000b20 <pthread_executeThread>:
     b20:	9d e3 bf 88 	save  %sp, -120, %sp
     b24:	01 00 00 00 	nop 
     b28:	03 00 00 27 	sethi  %hi(0x9c00), %g1
     b2c:	82 10 61 98 	or  %g1, 0x198, %g1	! 9d98 <_data_start>
     b30:	c2 00 40 00 	ld  [ %g1 ], %g1
     b34:	c2 00 40 00 	ld  [ %g1 ], %g1
     b38:	80 a0 60 00 	cmp  %g1, 0
     b3c:	12 bf ff fb 	bne  b28 <pthread_executeThread+0x8>
     b40:	01 00 00 00 	nop 
     b44:	03 00 00 29 	sethi  %hi(0xa400), %g1
     b48:	9a 10 61 58 	or  %g1, 0x158, %o5	! a558 <pthread_numberOfActiveThreads>
     b4c:	03 00 00 29 	sethi  %hi(0xa400), %g1
     b50:	82 10 61 58 	or  %g1, 0x158, %g1	! a558 <pthread_numberOfActiveThreads>
     b54:	c2 00 40 00 	ld  [ %g1 ], %g1
     b58:	82 00 60 01 	inc  %g1
     b5c:	c2 23 40 00 	st  %g1, [ %o5 ]
     b60:	03 00 00 29 	sethi  %hi(0xa400), %g1
     b64:	82 10 61 58 	or  %g1, 0x158, %g1	! a558 <pthread_numberOfActiveThreads>
     b68:	c2 00 40 00 	ld  [ %g1 ], %g1
     b6c:	c2 27 bf f4 	st  %g1, [ %fp + -12 ]
     b70:	03 00 00 29 	sethi  %hi(0xa400), %g1
     b74:	9a 10 61 58 	or  %g1, 0x158, %o5	! a558 <pthread_numberOfActiveThreads>
     b78:	03 00 00 2a 	sethi  %hi(0xa800), %g1
     b7c:	82 10 60 ec 	or  %g1, 0xec, %g1	! a8ec <pthread_n_workers>
     b80:	da 03 40 00 	ld  [ %o5 ], %o5
     b84:	c2 00 40 00 	ld  [ %g1 ], %g1
     b88:	80 a3 40 01 	cmp  %o5, %g1
     b8c:	12 80 00 13 	bne  bd8 <pthread_executeThread+0xb8>
     b90:	01 00 00 00 	nop 
     b94:	03 00 00 29 	sethi  %hi(0xa400), %g1
     b98:	9a 10 61 58 	or  %g1, 0x158, %o5	! a558 <pthread_numberOfActiveThreads>
     b9c:	03 00 00 26 	sethi  %hi(0x9800), %g1
     ba0:	90 10 61 48 	or  %g1, 0x148, %o0	! 9948 <__CTOR_END__+0x298>
     ba4:	d2 03 40 00 	ld  [ %o5 ], %o1
     ba8:	40 00 03 e9 	call  1b4c <printf>
     bac:	01 00 00 00 	nop 
     bb0:	03 00 00 29 	sethi  %hi(0xa400), %g1
     bb4:	82 10 61 58 	or  %g1, 0x158, %g1	! a558 <pthread_numberOfActiveThreads>
     bb8:	c0 20 40 00 	clr  [ %g1 ]
     bbc:	03 00 00 29 	sethi  %hi(0xa400), %g1
     bc0:	9a 10 61 60 	or  %g1, 0x160, %o5	! a560 <pthread_free_for_start>
     bc4:	82 10 20 01 	mov  1, %g1
     bc8:	c2 23 40 00 	st  %g1, [ %o5 ]
     bcc:	03 00 00 29 	sethi  %hi(0xa400), %g1
     bd0:	82 10 61 54 	or  %g1, 0x154, %g1	! a554 <pthread_created>
     bd4:	c0 20 40 00 	clr  [ %g1 ]
     bd8:	03 00 00 27 	sethi  %hi(0x9c00), %g1
     bdc:	82 10 61 98 	or  %g1, 0x198, %g1	! 9d98 <_data_start>
     be0:	c2 00 40 00 	ld  [ %g1 ], %g1
     be4:	c0 20 40 00 	clr  [ %g1 ]
     be8:	03 00 00 29 	sethi  %hi(0xa400), %g1
     bec:	82 10 61 60 	or  %g1, 0x160, %g1	! a560 <pthread_free_for_start>
     bf0:	c2 00 40 00 	ld  [ %g1 ], %g1
     bf4:	80 a0 60 00 	cmp  %g1, 0
     bf8:	02 bf ff fc 	be  be8 <pthread_executeThread+0xc8>
     bfc:	01 00 00 00 	nop 
     c00:	01 00 00 00 	nop 
     c04:	03 00 00 27 	sethi  %hi(0x9c00), %g1
     c08:	82 10 61 98 	or  %g1, 0x198, %g1	! 9d98 <_data_start>
     c0c:	c2 00 40 00 	ld  [ %g1 ], %g1
     c10:	c2 00 40 00 	ld  [ %g1 ], %g1
     c14:	80 a0 60 00 	cmp  %g1, 0
     c18:	12 bf ff fb 	bne  c04 <pthread_executeThread+0xe4>
     c1c:	01 00 00 00 	nop 
     c20:	03 00 00 29 	sethi  %hi(0xa400), %g1
     c24:	90 10 61 e0 	or  %g1, 0x1e0, %o0	! a5e0 <tQueue>
     c28:	7f ff fe 5d 	call  59c <dequeue>
     c2c:	01 00 00 00 	nop 
     c30:	82 10 00 08 	mov  %o0, %g1
     c34:	c2 27 bf f0 	st  %g1, [ %fp + -16 ]
     c38:	03 00 00 27 	sethi  %hi(0x9c00), %g1
     c3c:	82 10 61 98 	or  %g1, 0x198, %g1	! 9d98 <_data_start>
     c40:	c2 00 40 00 	ld  [ %g1 ], %g1
     c44:	c0 20 40 00 	clr  [ %g1 ]
     c48:	03 00 00 29 	sethi  %hi(0xa400), %g1
     c4c:	90 10 61 dc 	or  %g1, 0x1dc, %o0	! a5dc <mutex_print>
     c50:	7f ff ff 3b 	call  93c <pthread_mutex_lock>
     c54:	01 00 00 00 	nop 
     c58:	da 07 bf f0 	ld  [ %fp + -16 ], %o5
     c5c:	03 00 00 26 	sethi  %hi(0x9800), %g1
     c60:	90 10 61 68 	or  %g1, 0x168, %o0	! 9968 <__CTOR_END__+0x2b8>
     c64:	d2 03 40 00 	ld  [ %o5 ], %o1
     c68:	40 00 03 b9 	call  1b4c <printf>
     c6c:	01 00 00 00 	nop 
     c70:	da 07 bf f0 	ld  [ %fp + -16 ], %o5
     c74:	03 00 00 26 	sethi  %hi(0x9800), %g1
     c78:	90 10 61 a0 	or  %g1, 0x1a0, %o0	! 99a0 <__CTOR_END__+0x2f0>
     c7c:	d2 03 60 04 	ld  [ %o5 + 4 ], %o1
     c80:	40 00 03 b3 	call  1b4c <printf>
     c84:	01 00 00 00 	nop 
     c88:	03 00 00 29 	sethi  %hi(0xa400), %g1
     c8c:	90 10 61 dc 	or  %g1, 0x1dc, %o0	! a5dc <mutex_print>
     c90:	7f ff ff 58 	call  9f0 <pthread_mutex_unlock>
     c94:	01 00 00 00 	nop 
     c98:	c2 07 bf f0 	ld  [ %fp + -16 ], %g1
     c9c:	c2 00 40 00 	ld  [ %g1 ], %g1
     ca0:	c2 27 bf ec 	st  %g1, [ %fp + -20 ]
     ca4:	c2 07 bf f0 	ld  [ %fp + -16 ], %g1
     ca8:	c2 00 60 04 	ld  [ %g1 + 4 ], %g1
     cac:	c2 27 bf e8 	st  %g1, [ %fp + -24 ]
     cb0:	c2 07 bf ec 	ld  [ %fp + -20 ], %g1
     cb4:	d0 07 bf e8 	ld  [ %fp + -24 ], %o0
     cb8:	9f c0 40 00 	call  %g1
     cbc:	01 00 00 00 	nop 
     cc0:	03 00 00 29 	sethi  %hi(0xa400), %g1
     cc4:	90 10 61 dc 	or  %g1, 0x1dc, %o0	! a5dc <mutex_print>
     cc8:	7f ff ff 1d 	call  93c <pthread_mutex_lock>
     ccc:	01 00 00 00 	nop 
     cd0:	da 07 bf f0 	ld  [ %fp + -16 ], %o5
     cd4:	03 00 00 26 	sethi  %hi(0x9800), %g1
     cd8:	90 10 61 c8 	or  %g1, 0x1c8, %o0	! 99c8 <__CTOR_END__+0x318>
     cdc:	d2 03 40 00 	ld  [ %o5 ], %o1
     ce0:	40 00 03 9b 	call  1b4c <printf>
     ce4:	01 00 00 00 	nop 
     ce8:	da 07 bf f0 	ld  [ %fp + -16 ], %o5
     cec:	03 00 00 26 	sethi  %hi(0x9800), %g1
     cf0:	90 10 61 a0 	or  %g1, 0x1a0, %o0	! 99a0 <__CTOR_END__+0x2f0>
     cf4:	d2 03 60 04 	ld  [ %o5 + 4 ], %o1
     cf8:	40 00 03 95 	call  1b4c <printf>
     cfc:	01 00 00 00 	nop 
     d00:	03 00 00 29 	sethi  %hi(0xa400), %g1
     d04:	90 10 61 dc 	or  %g1, 0x1dc, %o0	! a5dc <mutex_print>
     d08:	7f ff ff 3a 	call  9f0 <pthread_mutex_unlock>
     d0c:	01 00 00 00 	nop 
     d10:	03 00 00 29 	sethi  %hi(0xa400), %g1
     d14:	90 10 61 cc 	or  %g1, 0x1cc, %o0	! a5cc <join>
     d18:	7f ff fe b7 	call  7f4 <pthread_join_control>
     d1c:	01 00 00 00 	nop 
     d20:	03 00 00 27 	sethi  %hi(0x9c00), %g1
     d24:	82 10 61 98 	or  %g1, 0x198, %g1	! 9d98 <_data_start>
     d28:	c2 00 40 00 	ld  [ %g1 ], %g1
     d2c:	c2 00 40 00 	ld  [ %g1 ], %g1
     d30:	80 a0 60 00 	cmp  %g1, 0
     d34:	12 bf ff fb 	bne  d20 <pthread_executeThread+0x200>
     d38:	01 00 00 00 	nop 
     d3c:	03 00 00 29 	sethi  %hi(0xa400), %g1
     d40:	9a 10 61 d8 	or  %g1, 0x1d8, %o5	! a5d8 <pthread_ended>
     d44:	03 00 00 29 	sethi  %hi(0xa400), %g1
     d48:	82 10 61 d8 	or  %g1, 0x1d8, %g1	! a5d8 <pthread_ended>
     d4c:	c2 00 40 00 	ld  [ %g1 ], %g1
     d50:	82 00 7f ff 	add  %g1, -1, %g1
     d54:	c2 23 40 00 	st  %g1, [ %o5 ]
     d58:	03 00 00 29 	sethi  %hi(0xa400), %g1
     d5c:	82 10 61 d8 	or  %g1, 0x1d8, %g1	! a5d8 <pthread_ended>
     d60:	c2 00 40 00 	ld  [ %g1 ], %g1
     d64:	c2 27 bf f4 	st  %g1, [ %fp + -12 ]
     d68:	03 00 00 27 	sethi  %hi(0x9c00), %g1
     d6c:	82 10 61 98 	or  %g1, 0x198, %g1	! 9d98 <_data_start>
     d70:	c2 00 40 00 	ld  [ %g1 ], %g1
     d74:	c0 20 40 00 	clr  [ %g1 ]
     d78:	c2 07 bf f4 	ld  [ %fp + -12 ], %g1
     d7c:	80 a0 60 00 	cmp  %g1, 0
     d80:	12 80 00 1f 	bne  dfc <pthread_executeThread+0x2dc>
     d84:	01 00 00 00 	nop 
     d88:	03 00 00 27 	sethi  %hi(0x9c00), %g1
     d8c:	82 10 61 98 	or  %g1, 0x198, %g1	! 9d98 <_data_start>
     d90:	c2 00 40 00 	ld  [ %g1 ], %g1
     d94:	c2 00 40 00 	ld  [ %g1 ], %g1
     d98:	80 a0 60 00 	cmp  %g1, 0
     d9c:	12 bf ff fb 	bne  d88 <pthread_executeThread+0x268>
     da0:	01 00 00 00 	nop 
     da4:	03 00 00 29 	sethi  %hi(0xa400), %g1
     da8:	9a 10 61 cc 	or  %g1, 0x1cc, %o5	! a5cc <join>
     dac:	03 00 00 2a 	sethi  %hi(0xa800), %g1
     db0:	82 10 60 ec 	or  %g1, 0xec, %g1	! a8ec <pthread_n_workers>
     db4:	c2 00 40 00 	ld  [ %g1 ], %g1
     db8:	c2 23 40 00 	st  %g1, [ %o5 ]
     dbc:	03 00 00 29 	sethi  %hi(0xa400), %g1
     dc0:	82 10 61 60 	or  %g1, 0x160, %g1	! a560 <pthread_free_for_start>
     dc4:	c0 20 40 00 	clr  [ %g1 ]
     dc8:	03 00 00 29 	sethi  %hi(0xa400), %g1
     dcc:	82 10 61 64 	or  %g1, 0x164, %g1	! a564 <join_out>
     dd0:	c0 20 40 00 	clr  [ %g1 ]
     dd4:	03 00 00 29 	sethi  %hi(0xa400), %g1
     dd8:	9a 10 61 d8 	or  %g1, 0x1d8, %o5	! a5d8 <pthread_ended>
     ddc:	03 00 00 2a 	sethi  %hi(0xa800), %g1
     de0:	82 10 60 ec 	or  %g1, 0xec, %g1	! a8ec <pthread_n_workers>
     de4:	c2 00 40 00 	ld  [ %g1 ], %g1
     de8:	c2 23 40 00 	st  %g1, [ %o5 ]
     dec:	03 00 00 27 	sethi  %hi(0x9c00), %g1
     df0:	82 10 61 98 	or  %g1, 0x198, %g1	! 9d98 <_data_start>
     df4:	c2 00 40 00 	ld  [ %g1 ], %g1
     df8:	c0 20 40 00 	clr  [ %g1 ]
     dfc:	81 c7 e0 08 	ret 
     e00:	81 e8 00 00 	restore 

00000e04 <pthread_create>:
     e04:	9d e3 bf 70 	save  %sp, -144, %sp
     e08:	f0 27 a0 44 	st  %i0, [ %fp + 0x44 ]
     e0c:	f2 27 a0 48 	st  %i1, [ %fp + 0x48 ]
     e10:	f4 27 a0 4c 	st  %i2, [ %fp + 0x4c ]
     e14:	f6 27 a0 50 	st  %i3, [ %fp + 0x50 ]
     e18:	9a 07 bf e8 	add  %fp, -24, %o5
     e1c:	82 07 bf d8 	add  %fp, -40, %g1
     e20:	c2 23 a0 40 	st  %g1, [ %sp + 0x40 ]
     e24:	90 10 00 0d 	mov  %o5, %o0
     e28:	d2 07 a0 4c 	ld  [ %fp + 0x4c ], %o1
     e2c:	d4 07 a0 50 	ld  [ %fp + 0x50 ], %o2
     e30:	7f ff fd 44 	call  340 <initNode>
     e34:	01 00 00 00 	nop 
     e38:	00 00 00 0c 	unimp  0xc
     e3c:	03 00 00 27 	sethi  %hi(0x9c00), %g1
     e40:	82 10 61 98 	or  %g1, 0x198, %g1	! 9d98 <_data_start>
     e44:	c2 00 40 00 	ld  [ %g1 ], %g1
     e48:	c2 00 40 00 	ld  [ %g1 ], %g1
     e4c:	80 a0 60 00 	cmp  %g1, 0
     e50:	12 bf ff fb 	bne  e3c <pthread_create+0x38>
     e54:	01 00 00 00 	nop 
     e58:	9a 07 bf e8 	add  %fp, -24, %o5
     e5c:	03 00 00 29 	sethi  %hi(0xa400), %g1
     e60:	90 10 61 e0 	or  %g1, 0x1e0, %o0	! a5e0 <tQueue>
     e64:	92 10 00 0d 	mov  %o5, %o1
     e68:	7f ff fd 8d 	call  49c <enqueue>
     e6c:	01 00 00 00 	nop 
     e70:	03 00 00 27 	sethi  %hi(0x9c00), %g1
     e74:	82 10 61 98 	or  %g1, 0x198, %g1	! 9d98 <_data_start>
     e78:	c2 00 40 00 	ld  [ %g1 ], %g1
     e7c:	c0 20 40 00 	clr  [ %g1 ]
     e80:	03 00 00 29 	sethi  %hi(0xa400), %g1
     e84:	90 10 61 e0 	or  %g1, 0x1e0, %o0	! a5e0 <tQueue>
     e88:	7f ff fe 01 	call  68c <size>
     e8c:	01 00 00 00 	nop 
     e90:	82 10 00 08 	mov  %o0, %g1
     e94:	c2 27 bf d4 	st  %g1, [ %fp + -44 ]
     e98:	03 00 00 2a 	sethi  %hi(0xa800), %g1
     e9c:	82 10 60 ec 	or  %g1, 0xec, %g1	! a8ec <pthread_n_workers>
     ea0:	da 07 bf d4 	ld  [ %fp + -44 ], %o5
     ea4:	c2 00 40 00 	ld  [ %g1 ], %g1
     ea8:	80 a3 40 01 	cmp  %o5, %g1
     eac:	12 80 00 13 	bne  ef8 <pthread_create+0xf4>
     eb0:	01 00 00 00 	nop 
     eb4:	03 00 00 27 	sethi  %hi(0x9c00), %g1
     eb8:	82 10 61 98 	or  %g1, 0x198, %g1	! 9d98 <_data_start>
     ebc:	c2 00 40 00 	ld  [ %g1 ], %g1
     ec0:	c2 00 40 00 	ld  [ %g1 ], %g1
     ec4:	80 a0 60 00 	cmp  %g1, 0
     ec8:	12 bf ff fb 	bne  eb4 <pthread_create+0xb0>
     ecc:	01 00 00 00 	nop 
     ed0:	03 00 00 29 	sethi  %hi(0xa400), %g1
     ed4:	9a 10 61 54 	or  %g1, 0x154, %o5	! a554 <pthread_created>
     ed8:	82 10 20 01 	mov  1, %g1
     edc:	c2 23 40 00 	st  %g1, [ %o5 ]
     ee0:	03 00 00 27 	sethi  %hi(0x9c00), %g1
     ee4:	82 10 61 98 	or  %g1, 0x198, %g1	! 9d98 <_data_start>
     ee8:	c2 00 40 00 	ld  [ %g1 ], %g1
     eec:	c0 20 40 00 	clr  [ %g1 ]
     ef0:	7f ff ff 0c 	call  b20 <pthread_executeThread>
     ef4:	01 00 00 00 	nop 
     ef8:	82 10 20 00 	clr  %g1	! 0 <__DYNAMIC>
     efc:	b0 10 00 01 	mov  %g1, %i0
     f00:	81 c7 e0 08 	ret 
     f04:	81 e8 00 00 	restore 

00000f08 <pthread_cond_init>:
     f08:	9d e3 bf 98 	save  %sp, -104, %sp
     f0c:	f0 27 a0 44 	st  %i0, [ %fp + 0x44 ]
     f10:	f2 27 a0 48 	st  %i1, [ %fp + 0x48 ]
     f14:	c2 07 a0 44 	ld  [ %fp + 0x44 ], %g1
     f18:	c0 20 40 00 	clr  [ %g1 ]
     f1c:	b0 10 00 01 	mov  %g1, %i0
     f20:	81 c7 e0 08 	ret 
     f24:	81 e8 00 00 	restore 

00000f28 <pthread_cond_wait>:
     f28:	9d e3 bf 98 	save  %sp, -104, %sp
     f2c:	f0 27 a0 44 	st  %i0, [ %fp + 0x44 ]
     f30:	f2 27 a0 48 	st  %i1, [ %fp + 0x48 ]
     f34:	d0 07 a0 48 	ld  [ %fp + 0x48 ], %o0
     f38:	7f ff fe ae 	call  9f0 <pthread_mutex_unlock>
     f3c:	01 00 00 00 	nop 
     f40:	c2 07 a0 44 	ld  [ %fp + 0x44 ], %g1
     f44:	c2 00 40 00 	ld  [ %g1 ], %g1
     f48:	80 a0 60 00 	cmp  %g1, 0
     f4c:	02 bf ff fd 	be  f40 <pthread_cond_wait+0x18>
     f50:	01 00 00 00 	nop 
     f54:	b0 10 00 01 	mov  %g1, %i0
     f58:	81 c7 e0 08 	ret 
     f5c:	81 e8 00 00 	restore 

00000f60 <pthread_cond_broadcast>:
     f60:	9d e3 bf 90 	save  %sp, -112, %sp
     f64:	f0 27 a0 44 	st  %i0, [ %fp + 0x44 ]
     f68:	fa 07 a0 44 	ld  [ %fp + 0x44 ], %i5
     f6c:	82 10 20 01 	mov  1, %g1
     f70:	c2 27 40 00 	st  %g1, [ %i5 ]
     f74:	c0 27 bf f4 	clr  [ %fp + -12 ]
     f78:	c2 07 bf f4 	ld  [ %fp + -12 ], %g1
     f7c:	80 a0 65 dc 	cmp  %g1, 0x5dc
     f80:	04 80 00 04 	ble  f90 <pthread_cond_broadcast+0x30>
     f84:	01 00 00 00 	nop 
     f88:	10 80 00 07 	b  fa4 <pthread_cond_broadcast+0x44>
     f8c:	01 00 00 00 	nop 
     f90:	c2 07 bf f4 	ld  [ %fp + -12 ], %g1
     f94:	82 00 60 01 	inc  %g1
     f98:	c2 27 bf f4 	st  %g1, [ %fp + -12 ]
     f9c:	10 bf ff f7 	b  f78 <pthread_cond_broadcast+0x18>
     fa0:	01 00 00 00 	nop 
     fa4:	c2 07 a0 44 	ld  [ %fp + 0x44 ], %g1
     fa8:	c0 20 40 00 	clr  [ %g1 ]
     fac:	b0 10 00 01 	mov  %g1, %i0
     fb0:	81 c7 e0 08 	ret 
     fb4:	81 e8 00 00 	restore 

00000fb8 <pthread_barrier_init>:
     fb8:	9d e3 bf 98 	save  %sp, -104, %sp
     fbc:	f0 27 a0 44 	st  %i0, [ %fp + 0x44 ]
     fc0:	f2 27 a0 48 	st  %i1, [ %fp + 0x48 ]
     fc4:	03 00 00 27 	sethi  %hi(0x9c00), %g1
     fc8:	82 10 61 98 	or  %g1, 0x198, %g1	! 9d98 <_data_start>
     fcc:	c2 00 40 00 	ld  [ %g1 ], %g1
     fd0:	c2 00 40 00 	ld  [ %g1 ], %g1
     fd4:	80 a0 60 00 	cmp  %g1, 0
     fd8:	12 bf ff fb 	bne  fc4 <pthread_barrier_init+0xc>
     fdc:	01 00 00 00 	nop 
     fe0:	c2 07 a0 44 	ld  [ %fp + 0x44 ], %g1
     fe4:	c0 20 60 0c 	clr  [ %g1 + 0xc ]
     fe8:	f8 07 a0 44 	ld  [ %fp + 0x44 ], %i4
     fec:	fa 07 a0 44 	ld  [ %fp + 0x44 ], %i5
     ff0:	c2 07 a0 48 	ld  [ %fp + 0x48 ], %g1
     ff4:	c2 27 60 04 	st  %g1, [ %i5 + 4 ]
     ff8:	c2 27 20 08 	st  %g1, [ %i4 + 8 ]
     ffc:	03 00 00 27 	sethi  %hi(0x9c00), %g1
    1000:	82 10 61 98 	or  %g1, 0x198, %g1	! 9d98 <_data_start>
    1004:	c2 00 40 00 	ld  [ %g1 ], %g1
    1008:	c0 20 40 00 	clr  [ %g1 ]
    100c:	81 c7 e0 08 	ret 
    1010:	81 e8 00 00 	restore 

00001014 <pthread_barrier_wait>:
    1014:	9d e3 bf 90 	save  %sp, -112, %sp
    1018:	f0 27 a0 44 	st  %i0, [ %fp + 0x44 ]
    101c:	03 00 00 27 	sethi  %hi(0x9c00), %g1
    1020:	82 10 61 98 	or  %g1, 0x198, %g1	! 9d98 <_data_start>
    1024:	c2 00 40 00 	ld  [ %g1 ], %g1
    1028:	c2 00 40 00 	ld  [ %g1 ], %g1
    102c:	80 a0 60 00 	cmp  %g1, 0
    1030:	12 bf ff fb 	bne  101c <pthread_barrier_wait+0x8>
    1034:	01 00 00 00 	nop 
    1038:	c2 07 a0 44 	ld  [ %fp + 0x44 ], %g1
    103c:	c2 00 60 0c 	ld  [ %g1 + 0xc ], %g1
    1040:	c2 27 bf f0 	st  %g1, [ %fp + -16 ]
    1044:	fa 07 a0 44 	ld  [ %fp + 0x44 ], %i5
    1048:	c2 07 a0 44 	ld  [ %fp + 0x44 ], %g1
    104c:	c2 00 60 08 	ld  [ %g1 + 8 ], %g1
    1050:	82 00 7f ff 	add  %g1, -1, %g1
    1054:	c2 27 60 08 	st  %g1, [ %i5 + 8 ]
    1058:	80 a0 60 00 	cmp  %g1, 0
    105c:	12 80 00 15 	bne  10b0 <pthread_barrier_wait+0x9c>
    1060:	01 00 00 00 	nop 
    1064:	fa 07 a0 44 	ld  [ %fp + 0x44 ], %i5
    1068:	c2 07 a0 44 	ld  [ %fp + 0x44 ], %g1
    106c:	c2 00 60 0c 	ld  [ %g1 + 0xc ], %g1
    1070:	82 18 60 00 	xor  %g1, 0, %g1
    1074:	80 a0 00 01 	cmp  %g0, %g1
    1078:	82 60 3f ff 	subx  %g0, -1, %g1
    107c:	c2 27 60 0c 	st  %g1, [ %i5 + 0xc ]
    1080:	fa 07 a0 44 	ld  [ %fp + 0x44 ], %i5
    1084:	c2 07 a0 44 	ld  [ %fp + 0x44 ], %g1
    1088:	c2 00 60 04 	ld  [ %g1 + 4 ], %g1
    108c:	c2 27 60 08 	st  %g1, [ %i5 + 8 ]
    1090:	03 00 00 27 	sethi  %hi(0x9c00), %g1
    1094:	82 10 61 98 	or  %g1, 0x198, %g1	! 9d98 <_data_start>
    1098:	c2 00 40 00 	ld  [ %g1 ], %g1
    109c:	c0 20 40 00 	clr  [ %g1 ]
    10a0:	82 10 20 01 	mov  1, %g1
    10a4:	c2 27 bf f4 	st  %g1, [ %fp + -12 ]
    10a8:	10 80 00 0e 	b  10e0 <pthread_barrier_wait+0xcc>
    10ac:	01 00 00 00 	nop 
    10b0:	03 00 00 27 	sethi  %hi(0x9c00), %g1
    10b4:	82 10 61 98 	or  %g1, 0x198, %g1	! 9d98 <_data_start>
    10b8:	c2 00 40 00 	ld  [ %g1 ], %g1
    10bc:	c0 20 40 00 	clr  [ %g1 ]
    10c0:	c2 07 a0 44 	ld  [ %fp + 0x44 ], %g1
    10c4:	fa 07 bf f0 	ld  [ %fp + -16 ], %i5
    10c8:	c2 00 60 0c 	ld  [ %g1 + 0xc ], %g1
    10cc:	80 a7 40 01 	cmp  %i5, %g1
    10d0:	02 bf ff fc 	be  10c0 <pthread_barrier_wait+0xac>
    10d4:	01 00 00 00 	nop 
    10d8:	82 10 20 01 	mov  1, %g1	! 1 <__DYNAMIC+0x1>
    10dc:	c2 27 bf f4 	st  %g1, [ %fp + -12 ]
    10e0:	c2 07 bf f4 	ld  [ %fp + -12 ], %g1
    10e4:	b0 10 00 01 	mov  %g1, %i0
    10e8:	81 c7 e0 08 	ret 
    10ec:	81 e8 00 00 	restore 

000010f0 <acPthread_malloc>:
    10f0:	9d e3 bf 90 	save  %sp, -112, %sp
    10f4:	f0 27 a0 44 	st  %i0, [ %fp + 0x44 ]
    10f8:	03 00 00 29 	sethi  %hi(0xa400), %g1
    10fc:	90 10 61 d4 	or  %g1, 0x1d4, %o0	! a5d4 <mutex_malloc>
    1100:	7f ff fe 0f 	call  93c <pthread_mutex_lock>
    1104:	01 00 00 00 	nop 
    1108:	d0 07 a0 44 	ld  [ %fp + 0x44 ], %o0
    110c:	40 00 00 7b 	call  12f8 <malloc>
    1110:	01 00 00 00 	nop 
    1114:	82 10 00 08 	mov  %o0, %g1
    1118:	c2 27 bf f4 	st  %g1, [ %fp + -12 ]
    111c:	03 00 00 29 	sethi  %hi(0xa400), %g1
    1120:	90 10 61 d4 	or  %g1, 0x1d4, %o0	! a5d4 <mutex_malloc>
    1124:	7f ff fe 33 	call  9f0 <pthread_mutex_unlock>
    1128:	01 00 00 00 	nop 
    112c:	c2 07 bf f4 	ld  [ %fp + -12 ], %g1
    1130:	b0 10 00 01 	mov  %g1, %i0
    1134:	81 c7 e0 08 	ret 
    1138:	81 e8 00 00 	restore 

0000113c <acPthread_realloc>:
    113c:	9d e3 bf 90 	save  %sp, -112, %sp
    1140:	f0 27 a0 44 	st  %i0, [ %fp + 0x44 ]
    1144:	f2 27 a0 48 	st  %i1, [ %fp + 0x48 ]
    1148:	03 00 00 29 	sethi  %hi(0xa400), %g1
    114c:	90 10 61 d4 	or  %g1, 0x1d4, %o0	! a5d4 <mutex_malloc>
    1150:	7f ff fd fb 	call  93c <pthread_mutex_lock>
    1154:	01 00 00 00 	nop 
    1158:	d0 07 a0 44 	ld  [ %fp + 0x44 ], %o0
    115c:	d2 07 a0 48 	ld  [ %fp + 0x48 ], %o1
    1160:	40 00 02 8a 	call  1b88 <realloc>
    1164:	01 00 00 00 	nop 
    1168:	d0 27 bf f4 	st  %o0, [ %fp + -12 ]
    116c:	03 00 00 29 	sethi  %hi(0xa400), %g1
    1170:	90 10 61 d4 	or  %g1, 0x1d4, %o0	! a5d4 <mutex_malloc>
    1174:	7f ff fe 1f 	call  9f0 <pthread_mutex_unlock>
    1178:	01 00 00 00 	nop 
    117c:	c2 07 bf f4 	ld  [ %fp + -12 ], %g1
    1180:	b0 10 00 01 	mov  %g1, %i0
    1184:	81 c7 e0 08 	ret 
    1188:	81 e8 00 00 	restore 

0000118c <acPthread_calloc>:
    118c:	9d e3 bf 90 	save  %sp, -112, %sp
    1190:	f0 27 a0 44 	st  %i0, [ %fp + 0x44 ]
    1194:	f2 27 a0 48 	st  %i1, [ %fp + 0x48 ]
    1198:	03 00 00 29 	sethi  %hi(0xa400), %g1
    119c:	90 10 61 d4 	or  %g1, 0x1d4, %o0	! a5d4 <mutex_malloc>
    11a0:	7f ff fd e7 	call  93c <pthread_mutex_lock>
    11a4:	01 00 00 00 	nop 
    11a8:	d0 07 a0 44 	ld  [ %fp + 0x44 ], %o0
    11ac:	d2 07 a0 48 	ld  [ %fp + 0x48 ], %o1
    11b0:	40 00 00 1c 	call  1220 <calloc>
    11b4:	01 00 00 00 	nop 
    11b8:	82 10 00 08 	mov  %o0, %g1
    11bc:	c2 27 bf f4 	st  %g1, [ %fp + -12 ]
    11c0:	03 00 00 29 	sethi  %hi(0xa400), %g1
    11c4:	90 10 61 d4 	or  %g1, 0x1d4, %o0	! a5d4 <mutex_malloc>
    11c8:	7f ff fe 0a 	call  9f0 <pthread_mutex_unlock>
    11cc:	01 00 00 00 	nop 
    11d0:	c2 07 bf f4 	ld  [ %fp + -12 ], %g1
    11d4:	b0 10 00 01 	mov  %g1, %i0
    11d8:	81 c7 e0 08 	ret 
    11dc:	81 e8 00 00 	restore 

000011e0 <acPthread_free>:
    11e0:	9d e3 bf 98 	save  %sp, -104, %sp
    11e4:	f0 27 a0 44 	st  %i0, [ %fp + 0x44 ]
    11e8:	03 00 00 29 	sethi  %hi(0xa400), %g1
    11ec:	90 10 61 d4 	or  %g1, 0x1d4, %o0	! a5d4 <mutex_malloc>
    11f0:	7f ff fd d3 	call  93c <pthread_mutex_lock>
    11f4:	01 00 00 00 	nop 
    11f8:	d0 07 a0 44 	ld  [ %fp + 0x44 ], %o0
    11fc:	40 00 00 47 	call  1318 <free>
    1200:	01 00 00 00 	nop 
    1204:	03 00 00 29 	sethi  %hi(0xa400), %g1
    1208:	90 10 61 d4 	or  %g1, 0x1d4, %o0	! a5d4 <mutex_malloc>
    120c:	7f ff fd f9 	call  9f0 <pthread_mutex_unlock>
    1210:	01 00 00 00 	nop 
    1214:	01 00 00 00 	nop 
    1218:	81 c7 e0 08 	ret 
    121c:	81 e8 00 00 	restore 

00001220 <calloc>:
    1220:	03 00 00 28 	sethi  %hi(0xa000), %g1
    1224:	da 00 61 20 	ld  [ %g1 + 0x120 ], %o5	! a120 <_impure_ptr>
    1228:	98 10 00 08 	mov  %o0, %o4
    122c:	94 10 00 09 	mov  %o1, %o2
    1230:	90 10 00 0d 	mov  %o5, %o0
    1234:	92 10 00 0c 	mov  %o4, %o1
    1238:	82 13 c0 00 	mov  %o7, %g1
    123c:	40 00 00 03 	call  1248 <_calloc_r>
    1240:	9e 10 40 00 	mov  %g1, %o7
    1244:	01 00 00 00 	nop 

00001248 <_calloc_r>:
    1248:	9d e3 bf 98 	save  %sp, -104, %sp
    124c:	92 10 00 1a 	mov  %i2, %o1
    1250:	40 00 19 12 	call  7698 <.umul>
    1254:	90 10 00 19 	mov  %i1, %o0
    1258:	92 10 00 08 	mov  %o0, %o1
    125c:	90 10 00 18 	mov  %i0, %o0
    1260:	40 00 00 ab 	call  150c <_malloc_r>
    1264:	b0 10 20 00 	clr  %i0
    1268:	b4 92 20 00 	orcc  %o0, 0, %i2
    126c:	02 80 00 21 	be  12f0 <_calloc_r+0xa8>
    1270:	9a 10 00 1a 	mov  %i2, %o5
    1274:	c2 06 bf fc 	ld  [ %i2 + -4 ], %g1
    1278:	82 08 7f fc 	and  %g1, -4, %g1
    127c:	92 10 20 00 	clr  %o1
    1280:	82 00 7f fc 	add  %g1, -4, %g1
    1284:	80 a0 60 24 	cmp  %g1, 0x24
    1288:	18 80 00 18 	bgu  12e8 <_calloc_r+0xa0>
    128c:	94 10 00 01 	mov  %g1, %o2
    1290:	80 a0 60 13 	cmp  %g1, 0x13
    1294:	28 80 00 10 	bleu,a   12d4 <_calloc_r+0x8c>
    1298:	c0 23 40 00 	clr  [ %o5 ]
    129c:	c0 26 80 00 	clr  [ %i2 ]
    12a0:	c0 26 a0 04 	clr  [ %i2 + 4 ]
    12a4:	80 a0 60 1b 	cmp  %g1, 0x1b
    12a8:	08 80 00 0a 	bleu  12d0 <_calloc_r+0x88>
    12ac:	9a 06 a0 08 	add  %i2, 8, %o5
    12b0:	80 a0 60 23 	cmp  %g1, 0x23
    12b4:	c0 26 a0 08 	clr  [ %i2 + 8 ]
    12b8:	c0 26 a0 0c 	clr  [ %i2 + 0xc ]
    12bc:	08 80 00 05 	bleu  12d0 <_calloc_r+0x88>
    12c0:	9a 06 a0 10 	add  %i2, 0x10, %o5
    12c4:	c0 26 a0 10 	clr  [ %i2 + 0x10 ]
    12c8:	c0 26 a0 14 	clr  [ %i2 + 0x14 ]
    12cc:	9a 06 a0 18 	add  %i2, 0x18, %o5
    12d0:	c0 23 40 00 	clr  [ %o5 ]
    12d4:	9a 03 60 04 	add  %o5, 4, %o5
    12d8:	c0 23 60 04 	clr  [ %o5 + 4 ]
    12dc:	c0 23 40 00 	clr  [ %o5 ]
    12e0:	10 80 00 04 	b  12f0 <_calloc_r+0xa8>
    12e4:	b0 10 00 1a 	mov  %i2, %i0
    12e8:	40 00 01 dc 	call  1a58 <memset>
    12ec:	b0 10 00 1a 	mov  %i2, %i0
    12f0:	81 c7 e0 08 	ret 
    12f4:	81 e8 00 00 	restore 

000012f8 <malloc>:
    12f8:	03 00 00 28 	sethi  %hi(0xa000), %g1
    12fc:	da 00 61 20 	ld  [ %g1 + 0x120 ], %o5	! a120 <_impure_ptr>
    1300:	92 10 00 08 	mov  %o0, %o1
    1304:	90 10 00 0d 	mov  %o5, %o0
    1308:	82 13 c0 00 	mov  %o7, %g1
    130c:	40 00 00 80 	call  150c <_malloc_r>
    1310:	9e 10 40 00 	mov  %g1, %o7
    1314:	01 00 00 00 	nop 

00001318 <free>:
    1318:	03 00 00 28 	sethi  %hi(0xa000), %g1
    131c:	da 00 61 20 	ld  [ %g1 + 0x120 ], %o5	! a120 <_impure_ptr>
    1320:	92 10 00 08 	mov  %o0, %o1
    1324:	90 10 00 0d 	mov  %o5, %o0
    1328:	82 13 c0 00 	mov  %o7, %g1
    132c:	40 00 10 ba 	call  5614 <_free_r>
    1330:	9e 10 40 00 	mov  %g1, %o7
    1334:	01 00 00 00 	nop 

00001338 <malloc_extend_top>:
    1338:	9d e3 bf 98 	save  %sp, -104, %sp
    133c:	2f 00 00 28 	sethi  %hi(0xa000), %l7
    1340:	ac 15 e1 28 	or  %l7, 0x128, %l6	! a128 <__malloc_av_>
    1344:	e4 05 a0 08 	ld  [ %l6 + 8 ], %l2
    1348:	03 00 00 29 	sethi  %hi(0xa400), %g1
    134c:	d8 04 a0 04 	ld  [ %l2 + 4 ], %o4
    1350:	da 00 61 68 	ld  [ %g1 + 0x168 ], %o5
    1354:	29 00 00 29 	sethi  %hi(0xa400), %l4
    1358:	c2 05 21 34 	ld  [ %l4 + 0x134 ], %g1	! a534 <__malloc_sbrk_base>
    135c:	b2 06 40 0d 	add  %i1, %o5, %i1
    1360:	a6 0b 3f fc 	and  %o4, -4, %l3
    1364:	80 a0 7f ff 	cmp  %g1, -1
    1368:	b2 06 60 10 	add  %i1, 0x10, %i1
    136c:	02 80 00 04 	be  137c <malloc_extend_top+0x44>
    1370:	a2 04 80 13 	add  %l2, %l3, %l1
    1374:	82 06 6f ff 	add  %i1, 0xfff, %g1
    1378:	b2 08 70 00 	and  %g1, -4096, %i1
    137c:	90 10 00 18 	mov  %i0, %o0
    1380:	40 00 03 46 	call  2098 <_sbrk_r>
    1384:	92 10 00 19 	mov  %i1, %o1
    1388:	80 a2 3f ff 	cmp  %o0, -1
    138c:	02 80 00 5e 	be  1504 <malloc_extend_top+0x1cc>
    1390:	a0 10 00 08 	mov  %o0, %l0
    1394:	80 a2 00 11 	cmp  %o0, %l1
    1398:	1a 80 00 05 	bcc  13ac <malloc_extend_top+0x74>
    139c:	2b 00 00 29 	sethi  %hi(0xa400), %l5
    13a0:	80 a4 80 16 	cmp  %l2, %l6
    13a4:	12 80 00 58 	bne  1504 <malloc_extend_top+0x1cc>
    13a8:	01 00 00 00 	nop 
    13ac:	c2 05 61 74 	ld  [ %l5 + 0x174 ], %g1
    13b0:	80 a4 00 11 	cmp  %l0, %l1
    13b4:	82 00 40 19 	add  %g1, %i1, %g1
    13b8:	02 80 00 4b 	be  14e4 <malloc_extend_top+0x1ac>
    13bc:	c2 25 61 74 	st  %g1, [ %l5 + 0x174 ]
    13c0:	c2 05 21 34 	ld  [ %l4 + 0x134 ], %g1
    13c4:	80 a0 7f ff 	cmp  %g1, -1
    13c8:	02 80 00 45 	be  14dc <malloc_extend_top+0x1a4>
    13cc:	c2 05 61 74 	ld  [ %l5 + 0x174 ], %g1
    13d0:	9a 24 00 11 	sub  %l0, %l1, %o5
    13d4:	82 00 40 0d 	add  %g1, %o5, %g1
    13d8:	c2 25 61 74 	st  %g1, [ %l5 + 0x174 ]
    13dc:	9a 8c 20 07 	andcc  %l0, 7, %o5
    13e0:	02 80 00 05 	be  13f4 <malloc_extend_top+0xbc>
    13e4:	a2 10 20 00 	clr  %l1
    13e8:	82 10 20 08 	mov  8, %g1
    13ec:	a2 20 40 0d 	sub  %g1, %o5, %l1
    13f0:	a0 04 00 11 	add  %l0, %l1, %l0
    13f4:	9a 04 00 19 	add  %l0, %i1, %o5
    13f8:	9a 0b 6f ff 	and  %o5, 0xfff, %o5
    13fc:	03 00 00 04 	sethi  %hi(0x1000), %g1
    1400:	90 10 00 18 	mov  %i0, %o0
    1404:	82 20 40 0d 	sub  %g1, %o5, %g1
    1408:	a2 04 40 01 	add  %l1, %g1, %l1
    140c:	40 00 03 23 	call  2098 <_sbrk_r>
    1410:	92 10 00 11 	mov  %l1, %o1
    1414:	80 a2 3f ff 	cmp  %o0, -1
    1418:	22 80 00 2f 	be,a   14d4 <malloc_extend_top+0x19c>
    141c:	a2 10 20 00 	clr  %l1
    1420:	c2 05 61 74 	ld  [ %l5 + 0x174 ], %g1
    1424:	9a 15 e1 28 	or  %l7, 0x128, %o5
    1428:	82 00 40 11 	add  %g1, %l1, %g1
    142c:	c2 25 61 74 	st  %g1, [ %l5 + 0x174 ]
    1430:	80 a4 80 0d 	cmp  %l2, %o5
    1434:	82 22 00 10 	sub  %o0, %l0, %g1
    1438:	e0 23 60 08 	st  %l0, [ %o5 + 8 ]
    143c:	82 00 40 11 	add  %g1, %l1, %g1
    1440:	82 10 60 01 	or  %g1, 1, %g1
    1444:	02 80 00 13 	be  1490 <malloc_extend_top+0x158>
    1448:	c2 24 20 04 	st  %g1, [ %l0 + 4 ]
    144c:	80 a4 e0 0f 	cmp  %l3, 0xf
    1450:	38 80 00 05 	bgu,a   1464 <malloc_extend_top+0x12c>
    1454:	c2 04 a0 04 	ld  [ %l2 + 4 ], %g1
    1458:	82 10 20 01 	mov  1, %g1
    145c:	10 80 00 2a 	b  1504 <malloc_extend_top+0x1cc>
    1460:	c2 24 20 04 	st  %g1, [ %l0 + 4 ]
    1464:	9a 04 ff f4 	add  %l3, -12, %o5
    1468:	82 08 60 01 	and  %g1, 1, %g1
    146c:	a6 0b 7f f8 	and  %o5, -8, %l3
    1470:	82 10 40 13 	or  %g1, %l3, %g1
    1474:	c2 24 a0 04 	st  %g1, [ %l2 + 4 ]
    1478:	9a 04 80 13 	add  %l2, %l3, %o5
    147c:	82 10 20 05 	mov  5, %g1
    1480:	80 a4 e0 0f 	cmp  %l3, 0xf
    1484:	c2 23 60 08 	st  %g1, [ %o5 + 8 ]
    1488:	18 80 00 0e 	bgu  14c0 <malloc_extend_top+0x188>
    148c:	c2 23 60 04 	st  %g1, [ %o5 + 4 ]
    1490:	da 05 61 74 	ld  [ %l5 + 0x174 ], %o5
    1494:	19 00 00 29 	sethi  %hi(0xa400), %o4
    1498:	c2 03 21 6c 	ld  [ %o4 + 0x16c ], %g1	! a56c <__malloc_max_sbrked_mem>
    149c:	80 a3 40 01 	cmp  %o5, %g1
    14a0:	38 80 00 02 	bgu,a   14a8 <malloc_extend_top+0x170>
    14a4:	da 23 21 6c 	st  %o5, [ %o4 + 0x16c ]
    14a8:	19 00 00 29 	sethi  %hi(0xa400), %o4
    14ac:	c2 03 21 70 	ld  [ %o4 + 0x170 ], %g1	! a570 <__malloc_max_total_mem>
    14b0:	80 a3 40 01 	cmp  %o5, %g1
    14b4:	38 80 00 14 	bgu,a   1504 <malloc_extend_top+0x1cc>
    14b8:	da 23 21 70 	st  %o5, [ %o4 + 0x170 ]
    14bc:	30 80 00 12 	b,a   1504 <malloc_extend_top+0x1cc>
    14c0:	92 04 a0 08 	add  %l2, 8, %o1
    14c4:	40 00 10 54 	call  5614 <_free_r>
    14c8:	90 10 00 18 	mov  %i0, %o0
    14cc:	10 bf ff f2 	b  1494 <malloc_extend_top+0x15c>
    14d0:	da 05 61 74 	ld  [ %l5 + 0x174 ], %o5
    14d4:	10 bf ff d3 	b  1420 <malloc_extend_top+0xe8>
    14d8:	90 10 00 10 	mov  %l0, %o0
    14dc:	10 bf ff c0 	b  13dc <malloc_extend_top+0xa4>
    14e0:	e0 25 21 34 	st  %l0, [ %l4 + 0x134 ]
    14e4:	80 8c 2f ff 	btst  0xfff, %l0
    14e8:	12 bf ff b7 	bne  13c4 <malloc_extend_top+0x8c>
    14ec:	c2 05 21 34 	ld  [ %l4 + 0x134 ], %g1
    14f0:	da 05 a0 08 	ld  [ %l6 + 8 ], %o5
    14f4:	82 06 40 13 	add  %i1, %l3, %g1
    14f8:	82 10 60 01 	or  %g1, 1, %g1
    14fc:	10 bf ff e5 	b  1490 <malloc_extend_top+0x158>
    1500:	c2 23 60 04 	st  %g1, [ %o5 + 4 ]
    1504:	81 c7 e0 08 	ret 
    1508:	81 e8 00 00 	restore 

0000150c <_malloc_r>:
    150c:	9d e3 bf 98 	save  %sp, -104, %sp
    1510:	b2 06 60 0b 	add  %i1, 0xb, %i1
    1514:	a2 10 00 18 	mov  %i0, %l1
    1518:	80 a6 60 16 	cmp  %i1, 0x16
    151c:	18 80 00 03 	bgu  1528 <_malloc_r+0x1c>
    1520:	b2 0e 7f f8 	and  %i1, -8, %i1
    1524:	b2 10 20 10 	mov  0x10, %i1
    1528:	80 a6 60 00 	cmp  %i1, 0
    152c:	06 80 01 49 	bl  1a50 <_malloc_r+0x544>
    1530:	b0 10 20 00 	clr  %i0
    1534:	40 00 01 76 	call  1b0c <__malloc_lock>
    1538:	90 10 00 11 	mov  %l1, %o0
    153c:	80 a6 61 f7 	cmp  %i1, 0x1f7
    1540:	18 80 01 15 	bgu  1994 <_malloc_r+0x488>
    1544:	99 36 60 09 	srl  %i1, 9, %o4
    1548:	25 00 00 28 	sethi  %hi(0xa000), %l2
    154c:	82 14 a1 28 	or  %l2, 0x128, %g1	! a128 <__malloc_av_>
    1550:	98 06 40 01 	add  %i1, %g1, %o4
    1554:	f0 03 20 0c 	ld  [ %o4 + 0xc ], %i0
    1558:	80 a6 00 0c 	cmp  %i0, %o4
    155c:	02 80 00 10 	be  159c <_malloc_r+0x90>
    1560:	a1 36 60 03 	srl  %i1, 3, %l0
    1564:	c2 06 20 04 	ld  [ %i0 + 4 ], %g1
    1568:	de 06 20 0c 	ld  [ %i0 + 0xc ], %o7
    156c:	92 08 7f fc 	and  %g1, -4, %o1
    1570:	9a 06 00 09 	add  %i0, %o1, %o5
    1574:	d0 06 20 08 	ld  [ %i0 + 8 ], %o0
    1578:	c2 03 60 04 	ld  [ %o5 + 4 ], %g1
    157c:	d0 23 e0 08 	st  %o0, [ %o7 + 8 ]
    1580:	82 10 60 01 	or  %g1, 1, %g1
    1584:	c2 23 60 04 	st  %g1, [ %o5 + 4 ]
    1588:	de 22 20 0c 	st  %o7, [ %o0 + 0xc ]
    158c:	90 10 00 11 	mov  %l1, %o0
    1590:	40 00 01 61 	call  1b14 <__malloc_unlock>
    1594:	b0 06 20 08 	add  %i0, 8, %i0
    1598:	30 80 01 2e 	b,a   1a50 <_malloc_r+0x544>
    159c:	98 06 20 08 	add  %i0, 8, %o4
    15a0:	f0 03 20 0c 	ld  [ %o4 + 0xc ], %i0
    15a4:	80 a6 00 0c 	cmp  %i0, %o4
    15a8:	32 bf ff f0 	bne,a   1568 <_malloc_r+0x5c>
    15ac:	c2 06 20 04 	ld  [ %i0 + 4 ], %g1
    15b0:	a0 04 20 02 	add  %l0, 2, %l0
    15b4:	27 00 00 28 	sethi  %hi(0xa000), %l3
    15b8:	96 14 e1 30 	or  %l3, 0x130, %o3	! a130 <__malloc_av_+0x8>
    15bc:	f0 02 e0 08 	ld  [ %o3 + 8 ], %i0
    15c0:	80 a6 00 0b 	cmp  %i0, %o3
    15c4:	22 80 00 24 	be,a   1654 <_malloc_r+0x148>
    15c8:	25 00 00 28 	sethi  %hi(0xa000), %l2
    15cc:	c2 06 20 04 	ld  [ %i0 + 4 ], %g1
    15d0:	92 08 7f fc 	and  %g1, -4, %o1
    15d4:	94 22 40 19 	sub  %o1, %i1, %o2
    15d8:	80 a2 a0 0f 	cmp  %o2, 0xf
    15dc:	14 80 00 e5 	bg  1970 <_malloc_r+0x464>
    15e0:	80 a2 a0 00 	cmp  %o2, 0
    15e4:	d6 22 e0 0c 	st  %o3, [ %o3 + 0xc ]
    15e8:	06 80 00 08 	bl  1608 <_malloc_r+0xfc>
    15ec:	d6 22 e0 08 	st  %o3, [ %o3 + 8 ]
    15f0:	9a 06 00 09 	add  %i0, %o1, %o5
    15f4:	c2 03 60 04 	ld  [ %o5 + 4 ], %g1
    15f8:	90 10 00 11 	mov  %l1, %o0
    15fc:	82 10 60 01 	or  %g1, 1, %g1
    1600:	10 bf ff e4 	b  1590 <_malloc_r+0x84>
    1604:	c2 23 60 04 	st  %g1, [ %o5 + 4 ]
    1608:	80 a2 61 ff 	cmp  %o1, 0x1ff
    160c:	38 80 00 a1 	bgu,a   1890 <_malloc_r+0x384>
    1610:	97 32 60 09 	srl  %o1, 9, %o3
    1614:	96 02 ff f8 	add  %o3, -8, %o3
    1618:	9b 32 60 03 	srl  %o1, 3, %o5
    161c:	83 2b 60 03 	sll  %o5, 3, %g1
    1620:	9e 00 40 0b 	add  %g1, %o3, %o7
    1624:	d0 03 e0 08 	ld  [ %o7 + 8 ], %o0
    1628:	d8 02 e0 04 	ld  [ %o3 + 4 ], %o4
    162c:	de 26 20 0c 	st  %o7, [ %i0 + 0xc ]
    1630:	d0 26 20 08 	st  %o0, [ %i0 + 8 ]
    1634:	9b 33 60 02 	srl  %o5, 2, %o5
    1638:	82 10 20 01 	mov  1, %g1
    163c:	f0 22 20 0c 	st  %i0, [ %o0 + 0xc ]
    1640:	83 28 40 0d 	sll  %g1, %o5, %g1
    1644:	f0 23 e0 08 	st  %i0, [ %o7 + 8 ]
    1648:	98 13 00 01 	or  %o4, %g1, %o4
    164c:	d8 22 e0 04 	st  %o4, [ %o3 + 4 ]
    1650:	25 00 00 28 	sethi  %hi(0xa000), %l2
    1654:	82 14 a1 28 	or  %l2, 0x128, %g1	! a128 <__malloc_av_>
    1658:	d8 00 60 04 	ld  [ %g1 + 4 ], %o4
    165c:	9b 3c 20 1f 	sra  %l0, 0x1f, %o5
    1660:	82 10 20 01 	mov  1, %g1
    1664:	9b 33 60 1e 	srl  %o5, 0x1e, %o5
    1668:	9a 04 00 0d 	add  %l0, %o5, %o5
    166c:	9b 3b 60 02 	sra  %o5, 2, %o5
    1670:	97 28 40 0d 	sll  %g1, %o5, %o3
    1674:	80 a2 c0 0c 	cmp  %o3, %o4
    1678:	38 80 00 42 	bgu,a   1780 <_malloc_r+0x274>
    167c:	a0 14 a1 28 	or  %l2, 0x128, %l0
    1680:	80 8a c0 0c 	btst  %o3, %o4
    1684:	12 80 00 0d 	bne  16b8 <_malloc_r+0x1ac>
    1688:	03 00 00 28 	sethi  %hi(0xa000), %g1
    168c:	82 0c 3f fc 	and  %l0, -4, %g1
    1690:	96 02 c0 0b 	add  %o3, %o3, %o3
    1694:	80 8a c0 0c 	btst  %o3, %o4
    1698:	12 80 00 07 	bne  16b4 <_malloc_r+0x1a8>
    169c:	a0 00 60 04 	add  %g1, 4, %l0
    16a0:	82 10 00 0c 	mov  %o4, %g1
    16a4:	96 02 c0 0b 	add  %o3, %o3, %o3
    16a8:	80 8a c0 01 	btst  %o3, %g1
    16ac:	02 bf ff fe 	be  16a4 <_malloc_r+0x198>
    16b0:	a0 04 20 04 	add  %l0, 4, %l0
    16b4:	03 00 00 28 	sethi  %hi(0xa000), %g1
    16b8:	9e 10 61 28 	or  %g1, 0x128, %o7	! a128 <__malloc_av_>
    16bc:	83 2c 20 03 	sll  %l0, 3, %g1
    16c0:	90 10 00 10 	mov  %l0, %o0
    16c4:	98 00 40 0f 	add  %g1, %o7, %o4
    16c8:	9a 10 00 0c 	mov  %o4, %o5
    16cc:	f0 03 60 0c 	ld  [ %o5 + 0xc ], %i0
    16d0:	80 a6 00 0d 	cmp  %i0, %o5
    16d4:	22 80 00 0f 	be,a   1710 <_malloc_r+0x204>
    16d8:	a0 04 20 01 	inc  %l0
    16dc:	c2 06 20 04 	ld  [ %i0 + 4 ], %g1
    16e0:	92 08 7f fc 	and  %g1, -4, %o1
    16e4:	94 22 40 19 	sub  %o1, %i1, %o2
    16e8:	80 a2 a0 0f 	cmp  %o2, 0xf
    16ec:	14 80 00 58 	bg  184c <_malloc_r+0x340>
    16f0:	80 a2 a0 00 	cmp  %o2, 0
    16f4:	36 80 00 50 	bge,a   1834 <_malloc_r+0x328>
    16f8:	9a 06 00 09 	add  %i0, %o1, %o5
    16fc:	f0 06 20 0c 	ld  [ %i0 + 0xc ], %i0
    1700:	80 a6 00 0d 	cmp  %i0, %o5
    1704:	32 bf ff f7 	bne,a   16e0 <_malloc_r+0x1d4>
    1708:	c2 06 20 04 	ld  [ %i0 + 4 ], %g1
    170c:	a0 04 20 01 	inc  %l0
    1710:	80 8c 20 03 	btst  3, %l0
    1714:	12 bf ff ee 	bne  16cc <_malloc_r+0x1c0>
    1718:	9a 03 60 08 	add  %o5, 8, %o5
    171c:	80 8a 20 03 	btst  3, %o0
    1720:	02 80 00 41 	be  1824 <_malloc_r+0x318>
    1724:	98 03 3f f8 	add  %o4, -8, %o4
    1728:	c2 03 20 08 	ld  [ %o4 + 8 ], %g1
    172c:	80 a0 40 0c 	cmp  %g1, %o4
    1730:	02 bf ff fb 	be  171c <_malloc_r+0x210>
    1734:	90 02 3f ff 	add  %o0, -1, %o0
    1738:	25 00 00 28 	sethi  %hi(0xa000), %l2
    173c:	82 14 a1 28 	or  %l2, 0x128, %g1	! a128 <__malloc_av_>
    1740:	c2 00 60 04 	ld  [ %g1 + 4 ], %g1
    1744:	96 02 c0 0b 	add  %o3, %o3, %o3
    1748:	80 a2 c0 01 	cmp  %o3, %g1
    174c:	18 80 00 0c 	bgu  177c <_malloc_r+0x270>
    1750:	80 a2 e0 00 	cmp  %o3, 0
    1754:	02 80 00 0a 	be  177c <_malloc_r+0x270>
    1758:	80 8a c0 01 	btst  %o3, %g1
    175c:	32 bf ff d9 	bne,a   16c0 <_malloc_r+0x1b4>
    1760:	83 2c 20 03 	sll  %l0, 3, %g1
    1764:	96 02 c0 0b 	add  %o3, %o3, %o3
    1768:	80 8a c0 01 	btst  %o3, %g1
    176c:	02 bf ff fe 	be  1764 <_malloc_r+0x258>
    1770:	a0 04 20 04 	add  %l0, 4, %l0
    1774:	10 bf ff d3 	b  16c0 <_malloc_r+0x1b4>
    1778:	83 2c 20 03 	sll  %l0, 3, %g1
    177c:	a0 14 a1 28 	or  %l2, 0x128, %l0
    1780:	da 04 20 08 	ld  [ %l0 + 8 ], %o5
    1784:	c2 03 60 04 	ld  [ %o5 + 4 ], %g1
    1788:	82 08 7f fc 	and  %g1, -4, %g1
    178c:	80 a0 40 19 	cmp  %g1, %i1
    1790:	94 20 40 19 	sub  %g1, %i1, %o2
    1794:	9a 40 20 00 	addx  %g0, 0, %o5
    1798:	80 a2 a0 0f 	cmp  %o2, 0xf
    179c:	04 80 00 03 	ble  17a8 <_malloc_r+0x29c>
    17a0:	98 10 20 01 	mov  1, %o4
    17a4:	98 10 20 00 	clr  %o4
    17a8:	80 93 40 0c 	orcc  %o5, %o4, %g0
    17ac:	02 80 00 12 	be  17f4 <_malloc_r+0x2e8>
    17b0:	98 14 a1 28 	or  %l2, 0x128, %o4
    17b4:	90 10 00 11 	mov  %l1, %o0
    17b8:	7f ff fe e0 	call  1338 <malloc_extend_top>
    17bc:	92 10 00 19 	mov  %i1, %o1
    17c0:	da 04 20 08 	ld  [ %l0 + 8 ], %o5
    17c4:	c2 03 60 04 	ld  [ %o5 + 4 ], %g1
    17c8:	82 08 7f fc 	and  %g1, -4, %g1
    17cc:	80 a0 40 19 	cmp  %g1, %i1
    17d0:	94 20 40 19 	sub  %g1, %i1, %o2
    17d4:	9a 40 20 00 	addx  %g0, 0, %o5
    17d8:	80 a2 a0 0f 	cmp  %o2, 0xf
    17dc:	04 80 00 03 	ble  17e8 <_malloc_r+0x2dc>
    17e0:	98 10 20 01 	mov  1, %o4
    17e4:	98 10 20 00 	clr  %o4
    17e8:	80 93 40 0c 	orcc  %o5, %o4, %g0
    17ec:	12 80 00 0a 	bne  1814 <_malloc_r+0x308>
    17f0:	98 14 a1 28 	or  %l2, 0x128, %o4
    17f4:	f0 03 20 08 	ld  [ %o4 + 8 ], %i0
    17f8:	82 16 60 01 	or  %i1, 1, %g1
    17fc:	c2 26 20 04 	st  %g1, [ %i0 + 4 ]
    1800:	9a 06 00 19 	add  %i0, %i1, %o5
    1804:	82 12 a0 01 	or  %o2, 1, %g1
    1808:	da 23 20 08 	st  %o5, [ %o4 + 8 ]
    180c:	10 bf ff 60 	b  158c <_malloc_r+0x80>
    1810:	c2 23 60 04 	st  %g1, [ %o5 + 4 ]
    1814:	90 10 00 11 	mov  %l1, %o0
    1818:	40 00 00 bf 	call  1b14 <__malloc_unlock>
    181c:	b0 10 20 00 	clr  %i0
    1820:	30 80 00 8c 	b,a   1a50 <_malloc_r+0x544>
    1824:	c2 03 e0 04 	ld  [ %o7 + 4 ], %g1
    1828:	82 28 40 0b 	andn  %g1, %o3, %g1
    182c:	10 bf ff c3 	b  1738 <_malloc_r+0x22c>
    1830:	c2 23 e0 04 	st  %g1, [ %o7 + 4 ]
    1834:	de 06 20 0c 	ld  [ %i0 + 0xc ], %o7
    1838:	c2 03 60 04 	ld  [ %o5 + 4 ], %g1
    183c:	d0 06 20 08 	ld  [ %i0 + 8 ], %o0
    1840:	82 10 60 01 	or  %g1, 1, %g1
    1844:	10 bf ff 50 	b  1584 <_malloc_r+0x78>
    1848:	d0 23 e0 08 	st  %o0, [ %o7 + 8 ]
    184c:	de 06 20 0c 	ld  [ %i0 + 0xc ], %o7
    1850:	d0 06 20 08 	ld  [ %i0 + 8 ], %o0
    1854:	92 06 00 19 	add  %i0, %i1, %o1
    1858:	d0 23 e0 08 	st  %o0, [ %o7 + 8 ]
    185c:	de 22 20 0c 	st  %o7, [ %o0 + 0xc ]
    1860:	82 14 e1 30 	or  %l3, 0x130, %g1
    1864:	d2 20 60 0c 	st  %o1, [ %g1 + 0xc ]
    1868:	d2 20 60 08 	st  %o1, [ %g1 + 8 ]
    186c:	9a 16 60 01 	or  %i1, 1, %o5
    1870:	d4 22 40 0a 	st  %o2, [ %o1 + %o2 ]
    1874:	da 26 20 04 	st  %o5, [ %i0 + 4 ]
    1878:	c2 22 60 08 	st  %g1, [ %o1 + 8 ]
    187c:	c2 22 60 0c 	st  %g1, [ %o1 + 0xc ]
    1880:	82 12 a0 01 	or  %o2, 1, %g1
    1884:	90 10 00 11 	mov  %l1, %o0
    1888:	10 bf ff 42 	b  1590 <_malloc_r+0x84>
    188c:	c2 22 60 04 	st  %g1, [ %o1 + 4 ]
    1890:	80 a2 e0 00 	cmp  %o3, 0
    1894:	02 80 00 16 	be  18ec <_malloc_r+0x3e0>
    1898:	9b 32 60 03 	srl  %o1, 3, %o5
    189c:	83 32 60 06 	srl  %o1, 6, %g1
    18a0:	80 a2 e0 04 	cmp  %o3, 4
    18a4:	08 80 00 12 	bleu  18ec <_malloc_r+0x3e0>
    18a8:	9a 00 60 38 	add  %g1, 0x38, %o5
    18ac:	80 a2 e0 14 	cmp  %o3, 0x14
    18b0:	08 80 00 0f 	bleu  18ec <_malloc_r+0x3e0>
    18b4:	9a 02 e0 5b 	add  %o3, 0x5b, %o5
    18b8:	83 32 60 0c 	srl  %o1, 0xc, %g1
    18bc:	80 a2 e0 54 	cmp  %o3, 0x54
    18c0:	08 80 00 0b 	bleu  18ec <_malloc_r+0x3e0>
    18c4:	9a 00 60 6e 	add  %g1, 0x6e, %o5
    18c8:	83 32 60 0f 	srl  %o1, 0xf, %g1
    18cc:	80 a2 e1 54 	cmp  %o3, 0x154
    18d0:	08 80 00 07 	bleu  18ec <_malloc_r+0x3e0>
    18d4:	9a 00 60 77 	add  %g1, 0x77, %o5
    18d8:	83 32 60 12 	srl  %o1, 0x12, %g1
    18dc:	80 a2 e5 54 	cmp  %o3, 0x554
    18e0:	08 80 00 03 	bleu  18ec <_malloc_r+0x3e0>
    18e4:	9a 00 60 7c 	add  %g1, 0x7c, %o5
    18e8:	9a 10 20 7e 	mov  0x7e, %o5
    18ec:	96 14 a1 28 	or  %l2, 0x128, %o3
    18f0:	83 2b 60 03 	sll  %o5, 3, %g1
    18f4:	9e 00 40 0b 	add  %g1, %o3, %o7
    18f8:	d0 03 e0 08 	ld  [ %o7 + 8 ], %o0
    18fc:	80 a2 00 0f 	cmp  %o0, %o7
    1900:	22 80 00 16 	be,a   1958 <_malloc_r+0x44c>
    1904:	c2 02 e0 04 	ld  [ %o3 + 4 ], %g1
    1908:	c2 02 20 04 	ld  [ %o0 + 4 ], %g1
    190c:	82 08 7f fc 	and  %g1, -4, %g1
    1910:	80 a2 40 01 	cmp  %o1, %g1
    1914:	3a 80 00 0c 	bcc,a   1944 <_malloc_r+0x438>
    1918:	de 02 20 0c 	ld  [ %o0 + 0xc ], %o7
    191c:	d0 02 20 08 	ld  [ %o0 + 8 ], %o0
    1920:	80 a2 00 0f 	cmp  %o0, %o7
    1924:	22 80 00 08 	be,a   1944 <_malloc_r+0x438>
    1928:	de 02 20 0c 	ld  [ %o0 + 0xc ], %o7
    192c:	c2 02 20 04 	ld  [ %o0 + 4 ], %g1
    1930:	82 08 7f fc 	and  %g1, -4, %g1
    1934:	80 a2 40 01 	cmp  %o1, %g1
    1938:	2a bf ff fa 	bcs,a   1920 <_malloc_r+0x414>
    193c:	d0 02 20 08 	ld  [ %o0 + 8 ], %o0
    1940:	de 02 20 0c 	ld  [ %o0 + 0xc ], %o7
    1944:	de 26 20 0c 	st  %o7, [ %i0 + 0xc ]
    1948:	d0 26 20 08 	st  %o0, [ %i0 + 8 ]
    194c:	f0 22 20 0c 	st  %i0, [ %o0 + 0xc ]
    1950:	10 bf ff 40 	b  1650 <_malloc_r+0x144>
    1954:	f0 23 e0 08 	st  %i0, [ %o7 + 8 ]
    1958:	99 33 60 02 	srl  %o5, 2, %o4
    195c:	9a 10 20 01 	mov  1, %o5
    1960:	9b 2b 40 0c 	sll  %o5, %o4, %o5
    1964:	82 10 40 0d 	or  %g1, %o5, %g1
    1968:	10 bf ff f7 	b  1944 <_malloc_r+0x438>
    196c:	c2 22 e0 04 	st  %g1, [ %o3 + 4 ]
    1970:	92 06 00 19 	add  %i0, %i1, %o1
    1974:	d2 22 e0 0c 	st  %o1, [ %o3 + 0xc ]
    1978:	d2 22 e0 08 	st  %o1, [ %o3 + 8 ]
    197c:	82 16 60 01 	or  %i1, 1, %g1
    1980:	d4 22 40 0a 	st  %o2, [ %o1 + %o2 ]
    1984:	c2 26 20 04 	st  %g1, [ %i0 + 4 ]
    1988:	d6 22 60 08 	st  %o3, [ %o1 + 8 ]
    198c:	10 bf ff bd 	b  1880 <_malloc_r+0x374>
    1990:	d6 22 60 0c 	st  %o3, [ %o1 + 0xc ]
    1994:	80 a3 20 00 	cmp  %o4, 0
    1998:	02 80 00 16 	be  19f0 <_malloc_r+0x4e4>
    199c:	a1 36 60 03 	srl  %i1, 3, %l0
    19a0:	83 36 60 06 	srl  %i1, 6, %g1
    19a4:	80 a3 20 04 	cmp  %o4, 4
    19a8:	08 80 00 12 	bleu  19f0 <_malloc_r+0x4e4>
    19ac:	a0 00 60 38 	add  %g1, 0x38, %l0
    19b0:	80 a3 20 14 	cmp  %o4, 0x14
    19b4:	08 80 00 0f 	bleu  19f0 <_malloc_r+0x4e4>
    19b8:	a0 03 20 5b 	add  %o4, 0x5b, %l0
    19bc:	83 36 60 0c 	srl  %i1, 0xc, %g1
    19c0:	80 a3 20 54 	cmp  %o4, 0x54
    19c4:	08 80 00 0b 	bleu  19f0 <_malloc_r+0x4e4>
    19c8:	a0 00 60 6e 	add  %g1, 0x6e, %l0
    19cc:	83 36 60 0f 	srl  %i1, 0xf, %g1
    19d0:	80 a3 21 54 	cmp  %o4, 0x154
    19d4:	08 80 00 07 	bleu  19f0 <_malloc_r+0x4e4>
    19d8:	a0 00 60 77 	add  %g1, 0x77, %l0
    19dc:	83 36 60 12 	srl  %i1, 0x12, %g1
    19e0:	80 a3 25 54 	cmp  %o4, 0x554
    19e4:	08 80 00 03 	bleu  19f0 <_malloc_r+0x4e4>
    19e8:	a0 00 60 7c 	add  %g1, 0x7c, %l0
    19ec:	a0 10 20 7e 	mov  0x7e, %l0
    19f0:	9b 2c 20 03 	sll  %l0, 3, %o5
    19f4:	25 00 00 28 	sethi  %hi(0xa000), %l2
    19f8:	82 14 a1 28 	or  %l2, 0x128, %g1	! a128 <__malloc_av_>
    19fc:	9a 03 40 01 	add  %o5, %g1, %o5
    1a00:	f0 03 60 0c 	ld  [ %o5 + 0xc ], %i0
    1a04:	80 a6 00 0d 	cmp  %i0, %o5
    1a08:	22 bf fe eb 	be,a   15b4 <_malloc_r+0xa8>
    1a0c:	a0 04 20 01 	inc  %l0
    1a10:	c2 06 20 04 	ld  [ %i0 + 4 ], %g1
    1a14:	92 08 7f fc 	and  %g1, -4, %o1
    1a18:	94 22 40 19 	sub  %o1, %i1, %o2
    1a1c:	80 a2 a0 0f 	cmp  %o2, 0xf
    1a20:	14 80 00 0a 	bg  1a48 <_malloc_r+0x53c>
    1a24:	80 a2 a0 00 	cmp  %o2, 0
    1a28:	36 bf fe d2 	bge,a   1570 <_malloc_r+0x64>
    1a2c:	de 06 20 0c 	ld  [ %i0 + 0xc ], %o7
    1a30:	f0 06 20 0c 	ld  [ %i0 + 0xc ], %i0
    1a34:	80 a6 00 0d 	cmp  %i0, %o5
    1a38:	32 bf ff f7 	bne,a   1a14 <_malloc_r+0x508>
    1a3c:	c2 06 20 04 	ld  [ %i0 + 4 ], %g1
    1a40:	10 bf fe dd 	b  15b4 <_malloc_r+0xa8>
    1a44:	a0 04 20 01 	inc  %l0
    1a48:	10 bf ff fe 	b  1a40 <_malloc_r+0x534>
    1a4c:	a0 04 3f ff 	add  %l0, -1, %l0
    1a50:	81 c7 e0 08 	ret 
    1a54:	81 e8 00 00 	restore 

00001a58 <memset>:
    1a58:	92 0a 60 ff 	and  %o1, 0xff, %o1
    1a5c:	80 a2 a0 03 	cmp  %o2, 3
    1a60:	08 80 00 20 	bleu  1ae0 <memset+0x88>
    1a64:	82 10 00 08 	mov  %o0, %g1
    1a68:	80 8a 20 03 	btst  3, %o0
    1a6c:	32 80 00 1e 	bne,a   1ae4 <memset+0x8c>
    1a70:	94 02 bf ff 	add  %o2, -1, %o2
    1a74:	83 2a 60 08 	sll  %o1, 8, %g1
    1a78:	9a 10 00 08 	mov  %o0, %o5
    1a7c:	98 10 40 09 	or  %g1, %o1, %o4
    1a80:	83 2b 20 10 	sll  %o4, 0x10, %g1
    1a84:	80 a2 a0 0f 	cmp  %o2, 0xf
    1a88:	08 80 00 0d 	bleu  1abc <memset+0x64>
    1a8c:	98 13 00 01 	or  %o4, %g1, %o4
    1a90:	d8 23 40 00 	st  %o4, [ %o5 ]
    1a94:	9a 03 60 04 	add  %o5, 4, %o5
    1a98:	d8 23 40 00 	st  %o4, [ %o5 ]
    1a9c:	9a 03 60 04 	add  %o5, 4, %o5
    1aa0:	d8 23 40 00 	st  %o4, [ %o5 ]
    1aa4:	94 02 bf f0 	add  %o2, -16, %o2
    1aa8:	9a 03 60 04 	add  %o5, 4, %o5
    1aac:	80 a2 a0 0f 	cmp  %o2, 0xf
    1ab0:	d8 23 40 00 	st  %o4, [ %o5 ]
    1ab4:	18 bf ff f7 	bgu  1a90 <memset+0x38>
    1ab8:	9a 03 60 04 	add  %o5, 4, %o5
    1abc:	80 a2 a0 03 	cmp  %o2, 3
    1ac0:	28 80 00 08 	bleu,a   1ae0 <memset+0x88>
    1ac4:	82 10 00 0d 	mov  %o5, %g1
    1ac8:	d8 23 40 00 	st  %o4, [ %o5 ]
    1acc:	94 02 bf fc 	add  %o2, -4, %o2
    1ad0:	80 a2 a0 03 	cmp  %o2, 3
    1ad4:	18 bf ff fd 	bgu  1ac8 <memset+0x70>
    1ad8:	9a 03 60 04 	add  %o5, 4, %o5
    1adc:	82 10 00 0d 	mov  %o5, %g1
    1ae0:	94 02 bf ff 	add  %o2, -1, %o2
    1ae4:	80 a2 bf ff 	cmp  %o2, -1
    1ae8:	02 80 00 07 	be  1b04 <memset+0xac>
    1aec:	01 00 00 00 	nop 
    1af0:	d2 28 40 00 	stb  %o1, [ %g1 ]
    1af4:	94 02 bf ff 	add  %o2, -1, %o2
    1af8:	80 a2 bf ff 	cmp  %o2, -1
    1afc:	12 bf ff fd 	bne  1af0 <memset+0x98>
    1b00:	82 00 60 01 	inc  %g1
    1b04:	81 c3 e0 08 	retl 
    1b08:	01 00 00 00 	nop 

00001b0c <__malloc_lock>:
    1b0c:	81 c3 e0 08 	retl 
    1b10:	01 00 00 00 	nop 

00001b14 <__malloc_unlock>:
    1b14:	81 c3 e0 08 	retl 
    1b18:	01 00 00 00 	nop 

00001b1c <_printf_r>:
    1b1c:	9d e3 bf 98 	save  %sp, -104, %sp
    1b20:	d2 06 20 08 	ld  [ %i0 + 8 ], %o1
    1b24:	90 10 00 18 	mov  %i0, %o0
    1b28:	f4 27 a0 4c 	st  %i2, [ %fp + 0x4c ]
    1b2c:	f6 27 a0 50 	st  %i3, [ %fp + 0x50 ]
    1b30:	f8 27 a0 54 	st  %i4, [ %fp + 0x54 ]
    1b34:	fa 27 a0 58 	st  %i5, [ %fp + 0x58 ]
    1b38:	94 10 00 19 	mov  %i1, %o2
    1b3c:	40 00 02 0d 	call  2370 <_vfprintf_r>
    1b40:	96 07 a0 4c 	add  %fp, 0x4c, %o3
    1b44:	81 c7 e0 08 	ret 
    1b48:	91 e8 00 08 	restore  %g0, %o0, %o0

00001b4c <printf>:
    1b4c:	9d e3 bf 98 	save  %sp, -104, %sp
    1b50:	03 00 00 28 	sethi  %hi(0xa000), %g1
    1b54:	da 00 61 20 	ld  [ %g1 + 0x120 ], %o5	! a120 <_impure_ptr>
    1b58:	f2 27 a0 48 	st  %i1, [ %fp + 0x48 ]
    1b5c:	f4 27 a0 4c 	st  %i2, [ %fp + 0x4c ]
    1b60:	f6 27 a0 50 	st  %i3, [ %fp + 0x50 ]
    1b64:	f8 27 a0 54 	st  %i4, [ %fp + 0x54 ]
    1b68:	fa 27 a0 58 	st  %i5, [ %fp + 0x58 ]
    1b6c:	d0 03 60 08 	ld  [ %o5 + 8 ], %o0
    1b70:	92 10 00 18 	mov  %i0, %o1
    1b74:	da 22 20 54 	st  %o5, [ %o0 + 0x54 ]
    1b78:	40 00 01 e7 	call  2314 <vfprintf>
    1b7c:	94 07 a0 48 	add  %fp, 0x48, %o2
    1b80:	81 c7 e0 08 	ret 
    1b84:	91 e8 00 08 	restore  %g0, %o0, %o0

00001b88 <realloc>:
    1b88:	03 00 00 28 	sethi  %hi(0xa000), %g1
    1b8c:	da 00 61 20 	ld  [ %g1 + 0x120 ], %o5	! a120 <_impure_ptr>
    1b90:	98 10 00 08 	mov  %o0, %o4
    1b94:	94 10 00 09 	mov  %o1, %o2
    1b98:	90 10 00 0d 	mov  %o5, %o0
    1b9c:	92 10 00 0c 	mov  %o4, %o1
    1ba0:	82 13 c0 00 	mov  %o7, %g1
    1ba4:	40 00 00 03 	call  1bb0 <_realloc_r>
    1ba8:	9e 10 40 00 	mov  %g1, %o7
    1bac:	01 00 00 00 	nop 

00001bb0 <_realloc_r>:
    1bb0:	9d e3 bf 98 	save  %sp, -104, %sp
    1bb4:	80 a6 60 00 	cmp  %i1, 0
    1bb8:	02 80 01 34 	be  2088 <_realloc_r+0x4d8>
    1bbc:	aa 10 00 18 	mov  %i0, %l5
    1bc0:	a0 06 7f f8 	add  %i1, -8, %l0
    1bc4:	7f ff ff d2 	call  1b0c <__malloc_lock>
    1bc8:	90 10 00 18 	mov  %i0, %o0
    1bcc:	d2 04 20 04 	ld  [ %l0 + 4 ], %o1
    1bd0:	82 06 a0 0b 	add  %i2, 0xb, %g1
    1bd4:	a4 0a 7f fc 	and  %o1, -4, %l2
    1bd8:	80 a0 60 16 	cmp  %g1, 0x16
    1bdc:	a6 10 00 10 	mov  %l0, %l3
    1be0:	a2 10 00 12 	mov  %l2, %l1
    1be4:	18 80 00 03 	bgu  1bf0 <_realloc_r+0x40>
    1be8:	a8 08 7f f8 	and  %g1, -8, %l4
    1bec:	a8 10 20 10 	mov  0x10, %l4
    1bf0:	80 a5 20 00 	cmp  %l4, 0
    1bf4:	06 80 01 27 	bl  2090 <_realloc_r+0x4e0>
    1bf8:	90 10 20 00 	clr  %o0
    1bfc:	80 a4 40 14 	cmp  %l1, %l4
    1c00:	16 80 00 6d 	bge  1db4 <_realloc_r+0x204>
    1c04:	9a 24 80 14 	sub  %l2, %l4, %o5
    1c08:	2d 00 00 28 	sethi  %hi(0xa000), %l6
    1c0c:	90 15 a1 28 	or  %l6, 0x128, %o0	! a128 <__malloc_av_>
    1c10:	d4 02 20 08 	ld  [ %o0 + 8 ], %o2
    1c14:	96 04 c0 11 	add  %l3, %l1, %o3
    1c18:	80 a2 c0 0a 	cmp  %o3, %o2
    1c1c:	02 80 00 09 	be  1c40 <_realloc_r+0x90>
    1c20:	d8 02 e0 04 	ld  [ %o3 + 4 ], %o4
    1c24:	82 0b 3f fe 	and  %o4, -2, %g1
    1c28:	82 02 c0 01 	add  %o3, %g1, %g1
    1c2c:	da 00 60 04 	ld  [ %g1 + 4 ], %o5
    1c30:	80 8b 60 01 	btst  1, %o5
    1c34:	32 80 01 13 	bne,a   2080 <_realloc_r+0x4d0>
    1c38:	96 10 20 00 	clr  %o3
    1c3c:	80 a2 c0 0a 	cmp  %o3, %o2
    1c40:	02 80 00 fe 	be  2038 <_realloc_r+0x488>
    1c44:	94 0b 3f fc 	and  %o4, -4, %o2
    1c48:	98 02 80 11 	add  %o2, %l1, %o4
    1c4c:	80 a3 00 14 	cmp  %o4, %l4
    1c50:	36 80 00 f5 	bge,a   2024 <_realloc_r+0x474>
    1c54:	da 02 e0 08 	ld  [ %o3 + 8 ], %o5
    1c58:	80 8a 60 01 	btst  1, %o1
    1c5c:	12 80 00 16 	bne  1cb4 <_realloc_r+0x104>
    1c60:	80 a2 e0 00 	cmp  %o3, 0
    1c64:	da 04 c0 00 	ld  [ %l3 ], %o5
    1c68:	a4 24 c0 0d 	sub  %l3, %o5, %l2
    1c6c:	c2 04 a0 04 	ld  [ %l2 + 4 ], %g1
    1c70:	02 80 00 0b 	be  1c9c <_realloc_r+0xec>
    1c74:	98 08 7f fc 	and  %g1, -4, %o4
    1c78:	82 15 a1 28 	or  %l6, 0x128, %g1
    1c7c:	da 00 60 08 	ld  [ %g1 + 8 ], %o5
    1c80:	80 a2 c0 0d 	cmp  %o3, %o5
    1c84:	02 80 00 a9 	be  1f28 <_realloc_r+0x378>
    1c88:	82 02 80 0c 	add  %o2, %o4, %g1
    1c8c:	92 00 40 11 	add  %g1, %l1, %o1
    1c90:	80 a2 40 14 	cmp  %o1, %l4
    1c94:	36 80 00 9a 	bge,a   1efc <_realloc_r+0x34c>
    1c98:	da 02 e0 08 	ld  [ %o3 + 8 ], %o5
    1c9c:	80 a4 a0 00 	cmp  %l2, 0
    1ca0:	02 80 00 05 	be  1cb4 <_realloc_r+0x104>
    1ca4:	98 03 00 11 	add  %o4, %l1, %o4
    1ca8:	80 a3 00 14 	cmp  %o4, %l4
    1cac:	36 80 00 63 	bge,a   1e38 <_realloc_r+0x288>
    1cb0:	c2 04 a0 0c 	ld  [ %l2 + 0xc ], %g1
    1cb4:	92 10 00 1a 	mov  %i2, %o1
    1cb8:	7f ff fe 15 	call  150c <_malloc_r>
    1cbc:	90 10 00 15 	mov  %l5, %o0
    1cc0:	b0 92 20 00 	orcc  %o0, 0, %i0
    1cc4:	02 80 00 59 	be  1e28 <_realloc_r+0x278>
    1cc8:	a0 06 3f f8 	add  %i0, -8, %l0
    1ccc:	c2 04 e0 04 	ld  [ %l3 + 4 ], %g1
    1cd0:	82 08 7f fe 	and  %g1, -2, %g1
    1cd4:	82 04 c0 01 	add  %l3, %g1, %g1
    1cd8:	80 a4 00 01 	cmp  %l0, %g1
    1cdc:	02 80 00 31 	be  1da0 <_realloc_r+0x1f0>
    1ce0:	94 04 7f fc 	add  %l1, -4, %o2
    1ce4:	80 a2 a0 24 	cmp  %o2, 0x24
    1ce8:	18 80 00 2a 	bgu  1d90 <_realloc_r+0x1e0>
    1cec:	80 a2 a0 13 	cmp  %o2, 0x13
    1cf0:	96 10 00 19 	mov  %i1, %o3
    1cf4:	08 80 00 18 	bleu  1d54 <_realloc_r+0x1a4>
    1cf8:	98 10 00 18 	mov  %i0, %o4
    1cfc:	c2 06 40 00 	ld  [ %i1 ], %g1
    1d00:	80 a2 a0 1b 	cmp  %o2, 0x1b
    1d04:	c2 26 00 00 	st  %g1, [ %i0 ]
    1d08:	da 06 60 04 	ld  [ %i1 + 4 ], %o5
    1d0c:	96 06 60 08 	add  %i1, 8, %o3
    1d10:	da 26 20 04 	st  %o5, [ %i0 + 4 ]
    1d14:	08 80 00 10 	bleu  1d54 <_realloc_r+0x1a4>
    1d18:	98 06 20 08 	add  %i0, 8, %o4
    1d1c:	c2 06 60 08 	ld  [ %i1 + 8 ], %g1
    1d20:	80 a2 a0 23 	cmp  %o2, 0x23
    1d24:	c2 26 20 08 	st  %g1, [ %i0 + 8 ]
    1d28:	da 06 60 0c 	ld  [ %i1 + 0xc ], %o5
    1d2c:	96 06 60 10 	add  %i1, 0x10, %o3
    1d30:	da 26 20 0c 	st  %o5, [ %i0 + 0xc ]
    1d34:	08 80 00 08 	bleu  1d54 <_realloc_r+0x1a4>
    1d38:	98 06 20 10 	add  %i0, 0x10, %o4
    1d3c:	c2 06 60 10 	ld  [ %i1 + 0x10 ], %g1
    1d40:	96 06 60 18 	add  %i1, 0x18, %o3
    1d44:	c2 26 20 10 	st  %g1, [ %i0 + 0x10 ]
    1d48:	da 06 60 14 	ld  [ %i1 + 0x14 ], %o5
    1d4c:	98 06 20 18 	add  %i0, 0x18, %o4
    1d50:	da 26 20 14 	st  %o5, [ %i0 + 0x14 ]
    1d54:	c2 02 c0 00 	ld  [ %o3 ], %g1
    1d58:	96 02 e0 04 	add  %o3, 4, %o3
    1d5c:	c2 23 00 00 	st  %g1, [ %o4 ]
    1d60:	da 02 c0 00 	ld  [ %o3 ], %o5
    1d64:	98 03 20 04 	add  %o4, 4, %o4
    1d68:	da 23 00 00 	st  %o5, [ %o4 ]
    1d6c:	c2 02 e0 04 	ld  [ %o3 + 4 ], %g1
    1d70:	c2 23 20 04 	st  %g1, [ %o4 + 4 ]
    1d74:	92 10 00 19 	mov  %i1, %o1
    1d78:	40 00 0e 27 	call  5614 <_free_r>
    1d7c:	90 10 00 15 	mov  %l5, %o0
    1d80:	7f ff ff 65 	call  1b14 <__malloc_unlock>
    1d84:	90 10 00 15 	mov  %l5, %o0
    1d88:	10 80 00 c2 	b  2090 <_realloc_r+0x4e0>
    1d8c:	90 10 00 18 	mov  %i0, %o0
    1d90:	40 00 10 f4 	call  6160 <memcpy>
    1d94:	92 10 00 19 	mov  %i1, %o1
    1d98:	10 bf ff f8 	b  1d78 <_realloc_r+0x1c8>
    1d9c:	92 10 00 19 	mov  %i1, %o1
    1da0:	c2 04 20 04 	ld  [ %l0 + 4 ], %g1
    1da4:	a0 10 00 13 	mov  %l3, %l0
    1da8:	82 08 7f fc 	and  %g1, -4, %g1
    1dac:	a4 04 40 01 	add  %l1, %g1, %l2
    1db0:	9a 24 80 14 	sub  %l2, %l4, %o5
    1db4:	80 a3 60 0f 	cmp  %o5, 0xf
    1db8:	18 80 00 0d 	bgu  1dec <_realloc_r+0x23c>
    1dbc:	98 04 00 12 	add  %l0, %l2, %o4
    1dc0:	c2 04 20 04 	ld  [ %l0 + 4 ], %g1
    1dc4:	82 08 60 01 	and  %g1, 1, %g1
    1dc8:	82 10 40 12 	or  %g1, %l2, %g1
    1dcc:	c2 24 20 04 	st  %g1, [ %l0 + 4 ]
    1dd0:	da 03 20 04 	ld  [ %o4 + 4 ], %o5
    1dd4:	9a 13 60 01 	or  %o5, 1, %o5
    1dd8:	da 23 20 04 	st  %o5, [ %o4 + 4 ]
    1ddc:	7f ff ff 4e 	call  1b14 <__malloc_unlock>
    1de0:	90 10 00 15 	mov  %l5, %o0
    1de4:	10 80 00 ab 	b  2090 <_realloc_r+0x4e0>
    1de8:	90 04 20 08 	add  %l0, 8, %o0
    1dec:	c2 04 20 04 	ld  [ %l0 + 4 ], %g1
    1df0:	92 04 00 14 	add  %l0, %l4, %o1
    1df4:	82 08 60 01 	and  %g1, 1, %g1
    1df8:	82 10 40 14 	or  %g1, %l4, %g1
    1dfc:	c2 24 20 04 	st  %g1, [ %l0 + 4 ]
    1e00:	98 02 40 0d 	add  %o1, %o5, %o4
    1e04:	9a 13 60 01 	or  %o5, 1, %o5
    1e08:	da 22 60 04 	st  %o5, [ %o1 + 4 ]
    1e0c:	c2 03 20 04 	ld  [ %o4 + 4 ], %g1
    1e10:	92 02 60 08 	add  %o1, 8, %o1
    1e14:	82 10 60 01 	or  %g1, 1, %g1
    1e18:	90 10 00 15 	mov  %l5, %o0
    1e1c:	40 00 0d fe 	call  5614 <_free_r>
    1e20:	c2 23 20 04 	st  %g1, [ %o4 + 4 ]
    1e24:	30 bf ff ee 	b,a   1ddc <_realloc_r+0x22c>
    1e28:	7f ff ff 3b 	call  1b14 <__malloc_unlock>
    1e2c:	90 10 00 15 	mov  %l5, %o0
    1e30:	10 80 00 98 	b  2090 <_realloc_r+0x4e0>
    1e34:	90 10 20 00 	clr  %o0
    1e38:	da 04 a0 08 	ld  [ %l2 + 8 ], %o5
    1e3c:	a0 10 00 12 	mov  %l2, %l0
    1e40:	da 20 60 08 	st  %o5, [ %g1 + 8 ]
    1e44:	94 04 7f fc 	add  %l1, -4, %o2
    1e48:	c2 23 60 0c 	st  %g1, [ %o5 + 0xc ]
    1e4c:	a4 10 00 0c 	mov  %o4, %l2
    1e50:	80 a2 a0 24 	cmp  %o2, 0x24
    1e54:	18 80 00 25 	bgu  1ee8 <_realloc_r+0x338>
    1e58:	b0 04 20 08 	add  %l0, 8, %i0
    1e5c:	90 10 00 18 	mov  %i0, %o0
    1e60:	80 a2 a0 13 	cmp  %o2, 0x13
    1e64:	08 80 00 18 	bleu  1ec4 <_realloc_r+0x314>
    1e68:	98 10 00 19 	mov  %i1, %o4
    1e6c:	c2 06 40 00 	ld  [ %i1 ], %g1
    1e70:	80 a2 a0 1b 	cmp  %o2, 0x1b
    1e74:	c2 24 20 08 	st  %g1, [ %l0 + 8 ]
    1e78:	da 06 60 04 	ld  [ %i1 + 4 ], %o5
    1e7c:	98 06 60 08 	add  %i1, 8, %o4
    1e80:	da 24 20 0c 	st  %o5, [ %l0 + 0xc ]
    1e84:	08 80 00 10 	bleu  1ec4 <_realloc_r+0x314>
    1e88:	90 04 20 10 	add  %l0, 0x10, %o0
    1e8c:	c2 06 60 08 	ld  [ %i1 + 8 ], %g1
    1e90:	80 a2 a0 23 	cmp  %o2, 0x23
    1e94:	c2 24 20 10 	st  %g1, [ %l0 + 0x10 ]
    1e98:	da 06 60 0c 	ld  [ %i1 + 0xc ], %o5
    1e9c:	98 06 60 10 	add  %i1, 0x10, %o4
    1ea0:	da 24 20 14 	st  %o5, [ %l0 + 0x14 ]
    1ea4:	08 80 00 08 	bleu  1ec4 <_realloc_r+0x314>
    1ea8:	90 04 20 18 	add  %l0, 0x18, %o0
    1eac:	c2 06 60 10 	ld  [ %i1 + 0x10 ], %g1
    1eb0:	98 06 60 18 	add  %i1, 0x18, %o4
    1eb4:	c2 24 20 18 	st  %g1, [ %l0 + 0x18 ]
    1eb8:	da 06 60 14 	ld  [ %i1 + 0x14 ], %o5
    1ebc:	90 04 20 20 	add  %l0, 0x20, %o0
    1ec0:	da 24 20 1c 	st  %o5, [ %l0 + 0x1c ]
    1ec4:	c2 03 00 00 	ld  [ %o4 ], %g1
    1ec8:	98 03 20 04 	add  %o4, 4, %o4
    1ecc:	c2 22 00 00 	st  %g1, [ %o0 ]
    1ed0:	da 03 00 00 	ld  [ %o4 ], %o5
    1ed4:	90 02 20 04 	add  %o0, 4, %o0
    1ed8:	da 22 00 00 	st  %o5, [ %o0 ]
    1edc:	c2 03 20 04 	ld  [ %o4 + 4 ], %g1
    1ee0:	10 bf ff b4 	b  1db0 <_realloc_r+0x200>
    1ee4:	c2 22 20 04 	st  %g1, [ %o0 + 4 ]
    1ee8:	90 10 00 18 	mov  %i0, %o0
    1eec:	40 00 10 9d 	call  6160 <memcpy>
    1ef0:	92 10 00 19 	mov  %i1, %o1
    1ef4:	10 bf ff b0 	b  1db4 <_realloc_r+0x204>
    1ef8:	9a 24 80 14 	sub  %l2, %l4, %o5
    1efc:	c2 02 e0 0c 	ld  [ %o3 + 0xc ], %g1
    1f00:	a0 10 00 12 	mov  %l2, %l0
    1f04:	da 20 60 08 	st  %o5, [ %g1 + 8 ]
    1f08:	c2 23 60 0c 	st  %g1, [ %o5 + 0xc ]
    1f0c:	da 04 a0 08 	ld  [ %l2 + 8 ], %o5
    1f10:	c2 04 a0 0c 	ld  [ %l2 + 0xc ], %g1
    1f14:	94 04 7f fc 	add  %l1, -4, %o2
    1f18:	da 20 60 08 	st  %o5, [ %g1 + 8 ]
    1f1c:	c2 23 60 0c 	st  %g1, [ %o5 + 0xc ]
    1f20:	10 bf ff cc 	b  1e50 <_realloc_r+0x2a0>
    1f24:	a4 10 00 09 	mov  %o1, %l2
    1f28:	9a 05 20 10 	add  %l4, 0x10, %o5
    1f2c:	ae 00 40 11 	add  %g1, %l1, %l7
    1f30:	80 a5 c0 0d 	cmp  %l7, %o5
    1f34:	06 bf ff 5b 	bl  1ca0 <_realloc_r+0xf0>
    1f38:	80 a4 a0 00 	cmp  %l2, 0
    1f3c:	c2 04 a0 0c 	ld  [ %l2 + 0xc ], %g1
    1f40:	da 04 a0 08 	ld  [ %l2 + 8 ], %o5
    1f44:	94 04 7f fc 	add  %l1, -4, %o2
    1f48:	da 20 60 08 	st  %o5, [ %g1 + 8 ]
    1f4c:	c2 23 60 0c 	st  %g1, [ %o5 + 0xc ]
    1f50:	80 a2 a0 24 	cmp  %o2, 0x24
    1f54:	18 80 00 2f 	bgu  2010 <_realloc_r+0x460>
    1f58:	b0 04 a0 08 	add  %l2, 8, %i0
    1f5c:	80 a2 a0 13 	cmp  %o2, 0x13
    1f60:	96 10 00 19 	mov  %i1, %o3
    1f64:	08 80 00 18 	bleu  1fc4 <_realloc_r+0x414>
    1f68:	98 10 00 18 	mov  %i0, %o4
    1f6c:	c2 06 40 00 	ld  [ %i1 ], %g1
    1f70:	80 a2 a0 1b 	cmp  %o2, 0x1b
    1f74:	c2 24 a0 08 	st  %g1, [ %l2 + 8 ]
    1f78:	da 06 60 04 	ld  [ %i1 + 4 ], %o5
    1f7c:	96 06 60 08 	add  %i1, 8, %o3
    1f80:	da 24 a0 0c 	st  %o5, [ %l2 + 0xc ]
    1f84:	08 80 00 10 	bleu  1fc4 <_realloc_r+0x414>
    1f88:	98 04 a0 10 	add  %l2, 0x10, %o4
    1f8c:	c2 06 60 08 	ld  [ %i1 + 8 ], %g1
    1f90:	80 a2 a0 23 	cmp  %o2, 0x23
    1f94:	c2 24 a0 10 	st  %g1, [ %l2 + 0x10 ]
    1f98:	da 06 60 0c 	ld  [ %i1 + 0xc ], %o5
    1f9c:	96 06 60 10 	add  %i1, 0x10, %o3
    1fa0:	da 24 a0 14 	st  %o5, [ %l2 + 0x14 ]
    1fa4:	08 80 00 08 	bleu  1fc4 <_realloc_r+0x414>
    1fa8:	98 04 a0 18 	add  %l2, 0x18, %o4
    1fac:	c2 06 60 10 	ld  [ %i1 + 0x10 ], %g1
    1fb0:	96 06 60 18 	add  %i1, 0x18, %o3
    1fb4:	c2 24 a0 18 	st  %g1, [ %l2 + 0x18 ]
    1fb8:	da 06 60 14 	ld  [ %i1 + 0x14 ], %o5
    1fbc:	98 04 a0 20 	add  %l2, 0x20, %o4
    1fc0:	da 24 a0 1c 	st  %o5, [ %l2 + 0x1c ]
    1fc4:	c2 02 c0 00 	ld  [ %o3 ], %g1
    1fc8:	96 02 e0 04 	add  %o3, 4, %o3
    1fcc:	c2 23 00 00 	st  %g1, [ %o4 ]
    1fd0:	da 02 c0 00 	ld  [ %o3 ], %o5
    1fd4:	98 03 20 04 	add  %o4, 4, %o4
    1fd8:	da 23 00 00 	st  %o5, [ %o4 ]
    1fdc:	c2 02 e0 04 	ld  [ %o3 + 4 ], %g1
    1fe0:	c2 23 20 04 	st  %g1, [ %o4 + 4 ]
    1fe4:	98 04 80 14 	add  %l2, %l4, %o4
    1fe8:	82 25 c0 14 	sub  %l7, %l4, %g1
    1fec:	82 10 60 01 	or  %g1, 1, %g1
    1ff0:	c2 23 20 04 	st  %g1, [ %o4 + 4 ]
    1ff4:	da 04 a0 04 	ld  [ %l2 + 4 ], %o5
    1ff8:	82 15 a1 28 	or  %l6, 0x128, %g1
    1ffc:	9a 0b 60 01 	and  %o5, 1, %o5
    2000:	d8 20 60 08 	st  %o4, [ %g1 + 8 ]
    2004:	9a 13 40 14 	or  %o5, %l4, %o5
    2008:	10 bf ff 5e 	b  1d80 <_realloc_r+0x1d0>
    200c:	da 24 a0 04 	st  %o5, [ %l2 + 4 ]
    2010:	92 10 00 19 	mov  %i1, %o1
    2014:	40 00 10 53 	call  6160 <memcpy>
    2018:	90 10 00 18 	mov  %i0, %o0
    201c:	10 bf ff f3 	b  1fe8 <_realloc_r+0x438>
    2020:	98 04 80 14 	add  %l2, %l4, %o4
    2024:	c2 02 e0 0c 	ld  [ %o3 + 0xc ], %g1
    2028:	a4 10 00 0c 	mov  %o4, %l2
    202c:	da 20 60 08 	st  %o5, [ %g1 + 8 ]
    2030:	10 bf ff 60 	b  1db0 <_realloc_r+0x200>
    2034:	c2 23 60 0c 	st  %g1, [ %o5 + 0xc ]
    2038:	9a 02 80 11 	add  %o2, %l1, %o5
    203c:	82 05 20 10 	add  %l4, 0x10, %g1
    2040:	80 a3 40 01 	cmp  %o5, %g1
    2044:	06 bf ff 06 	bl  1c5c <_realloc_r+0xac>
    2048:	80 8a 60 01 	btst  1, %o1
    204c:	98 04 c0 14 	add  %l3, %l4, %o4
    2050:	82 23 40 14 	sub  %o5, %l4, %g1
    2054:	82 10 60 01 	or  %g1, 1, %g1
    2058:	c2 23 20 04 	st  %g1, [ %o4 + 4 ]
    205c:	da 04 e0 04 	ld  [ %l3 + 4 ], %o5
    2060:	d8 22 20 08 	st  %o4, [ %o0 + 8 ]
    2064:	9a 0b 60 01 	and  %o5, 1, %o5
    2068:	90 10 00 15 	mov  %l5, %o0
    206c:	9a 13 40 14 	or  %o5, %l4, %o5
    2070:	7f ff fe a9 	call  1b14 <__malloc_unlock>
    2074:	da 24 e0 04 	st  %o5, [ %l3 + 4 ]
    2078:	10 80 00 06 	b  2090 <_realloc_r+0x4e0>
    207c:	90 04 e0 08 	add  %l3, 8, %o0
    2080:	10 bf fe f6 	b  1c58 <_realloc_r+0xa8>
    2084:	94 10 20 00 	clr  %o2
    2088:	7f ff fd 21 	call  150c <_malloc_r>
    208c:	93 e8 00 1a 	restore  %g0, %i2, %o1
    2090:	81 c7 e0 08 	ret 
    2094:	91 e8 00 08 	restore  %g0, %o0, %o0

00002098 <_sbrk_r>:
    2098:	9d e3 bf 98 	save  %sp, -104, %sp
    209c:	90 10 00 19 	mov  %i1, %o0
    20a0:	33 00 00 2a 	sethi  %hi(0xa800), %i1
    20a4:	40 00 15 6f 	call  7660 <sbrk>
    20a8:	c0 26 60 f0 	clr  [ %i1 + 0xf0 ]	! a8f0 <errno>
    20ac:	80 a2 3f ff 	cmp  %o0, -1
    20b0:	12 80 00 06 	bne  20c8 <_sbrk_r+0x30>
    20b4:	c2 06 60 f0 	ld  [ %i1 + 0xf0 ], %g1
    20b8:	80 a0 60 00 	cmp  %g1, 0
    20bc:	02 80 00 03 	be  20c8 <_sbrk_r+0x30>
    20c0:	01 00 00 00 	nop 
    20c4:	c2 26 00 00 	st  %g1, [ %i0 ]
    20c8:	81 c7 e0 08 	ret 
    20cc:	91 e8 00 08 	restore  %g0, %o0, %o0
    20d0:	00 00 24 e0 	unimp  0x24e0
    20d4:	00 00 3a 00 	unimp  0x3a00
    20d8:	00 00 3a 00 	unimp  0x3a00
    20dc:	00 00 25 00 	unimp  0x2500
    20e0:	00 00 3a 00 	unimp  0x3a00
    20e4:	00 00 3a 00 	unimp  0x3a00
    20e8:	00 00 3a 00 	unimp  0x3a00
    20ec:	00 00 3a 00 	unimp  0x3a00
    20f0:	00 00 3a 00 	unimp  0x3a00
    20f4:	00 00 3a 00 	unimp  0x3a00
    20f8:	00 00 25 0c 	unimp  0x250c
    20fc:	00 00 25 34 	unimp  0x2534
    2100:	00 00 3a 00 	unimp  0x3a00
    2104:	00 00 25 28 	unimp  0x2528
    2108:	00 00 25 3c 	unimp  0x253c
    210c:	00 00 3a 00 	unimp  0x3a00
    2110:	00 00 25 b0 	unimp  0x25b0
    2114:	00 00 25 bc 	unimp  0x25bc
    2118:	00 00 25 bc 	unimp  0x25bc
    211c:	00 00 25 bc 	unimp  0x25bc
    2120:	00 00 25 bc 	unimp  0x25bc
    2124:	00 00 25 bc 	unimp  0x25bc
    2128:	00 00 25 bc 	unimp  0x25bc
    212c:	00 00 25 bc 	unimp  0x25bc
    2130:	00 00 25 bc 	unimp  0x25bc
    2134:	00 00 25 bc 	unimp  0x25bc
    2138:	00 00 3a 00 	unimp  0x3a00
    213c:	00 00 3a 00 	unimp  0x3a00
    2140:	00 00 3a 00 	unimp  0x3a00
    2144:	00 00 3a 00 	unimp  0x3a00
    2148:	00 00 3a 00 	unimp  0x3a00
    214c:	00 00 3a 00 	unimp  0x3a00
    2150:	00 00 3a 00 	unimp  0x3a00
    2154:	00 00 3a 00 	unimp  0x3a00
    2158:	00 00 3a 00 	unimp  0x3a00
    215c:	00 00 3a 00 	unimp  0x3a00
    2160:	00 00 25 f4 	unimp  0x25f4
    2164:	00 00 36 ac 	unimp  0x36ac
    2168:	00 00 3a 00 	unimp  0x3a00
    216c:	00 00 36 ac 	unimp  0x36ac
    2170:	00 00 3a 00 	unimp  0x3a00
    2174:	00 00 3a 00 	unimp  0x3a00
    2178:	00 00 3a 00 	unimp  0x3a00
    217c:	00 00 3a 00 	unimp  0x3a00
    2180:	00 00 35 28 	unimp  0x3528
    2184:	00 00 3a 00 	unimp  0x3a00
    2188:	00 00 3a 00 	unimp  0x3a00
    218c:	00 00 35 34 	unimp  0x3534
    2190:	00 00 3a 00 	unimp  0x3a00
    2194:	00 00 3a 00 	unimp  0x3a00
    2198:	00 00 3a 00 	unimp  0x3a00
    219c:	00 00 3a 00 	unimp  0x3a00
    21a0:	00 00 3a 00 	unimp  0x3a00
    21a4:	00 00 35 9c 	unimp  0x359c
    21a8:	00 00 3a 00 	unimp  0x3a00
    21ac:	00 00 3a 00 	unimp  0x3a00
    21b0:	00 00 36 00 	unimp  0x3600
    21b4:	00 00 3a 00 	unimp  0x3a00
    21b8:	00 00 3a 00 	unimp  0x3a00
    21bc:	00 00 3a 00 	unimp  0x3a00
    21c0:	00 00 3a 00 	unimp  0x3a00
    21c4:	00 00 3a 00 	unimp  0x3a00
    21c8:	00 00 3a 00 	unimp  0x3a00
    21cc:	00 00 3a 00 	unimp  0x3a00
    21d0:	00 00 3a 00 	unimp  0x3a00
    21d4:	00 00 3a 00 	unimp  0x3a00
    21d8:	00 00 3a 00 	unimp  0x3a00
    21dc:	00 00 36 90 	unimp  0x3690
    21e0:	00 00 25 f8 	unimp  0x25f8
    21e4:	00 00 36 ac 	unimp  0x36ac
    21e8:	00 00 36 ac 	unimp  0x36ac
    21ec:	00 00 36 ac 	unimp  0x36ac
    21f0:	00 00 38 e0 	unimp  0x38e0
    21f4:	00 00 25 f8 	unimp  0x25f8
    21f8:	00 00 3a 00 	unimp  0x3a00
    21fc:	00 00 3a 00 	unimp  0x3a00
    2200:	00 00 38 ec 	unimp  0x38ec
    2204:	00 00 3a 00 	unimp  0x3a00
    2208:	00 00 39 14 	unimp  0x3914
    220c:	00 00 35 38 	unimp  0x3538
    2210:	00 00 39 68 	unimp  0x3968
    2214:	00 00 39 08 	unimp  0x3908
    2218:	00 00 3a 00 	unimp  0x3a00
    221c:	00 00 39 94 	unimp  0x3994
    2220:	00 00 3a 00 	unimp  0x3a00
    2224:	00 00 35 a0 	unimp  0x35a0
    2228:	00 00 3a 00 	unimp  0x3a00
    222c:	00 00 3a 00 	unimp  0x3a00
    2230:	00 00 3a 4c 	unimp  0x3a4c

00002234 <__sprint>:
    2234:	9d e3 bf 98 	save  %sp, -104, %sp
    2238:	c2 06 60 08 	ld  [ %i1 + 8 ], %g1
    223c:	80 a0 60 00 	cmp  %g1, 0
    2240:	12 80 00 05 	bne  2254 <__sprint+0x20>
    2244:	90 10 00 18 	mov  %i0, %o0
    2248:	c0 26 60 04 	clr  [ %i1 + 4 ]
    224c:	10 80 00 06 	b  2264 <__sprint+0x30>
    2250:	90 10 20 00 	clr  %o0
    2254:	40 00 0d d5 	call  59a8 <__sfvwrite>
    2258:	92 10 00 19 	mov  %i1, %o1
    225c:	c0 26 60 04 	clr  [ %i1 + 4 ]
    2260:	c0 26 60 08 	clr  [ %i1 + 8 ]
    2264:	81 c7 e0 08 	ret 
    2268:	91 e8 00 08 	restore  %g0, %o0, %o0

0000226c <__sbprintf>:
    226c:	9d e3 bb 38 	save  %sp, -1224, %sp
    2270:	c2 16 20 0c 	lduh  [ %i0 + 0xc ], %g1
    2274:	da 16 20 0e 	lduh  [ %i0 + 0xe ], %o5
    2278:	d4 06 20 54 	ld  [ %i0 + 0x54 ], %o2
    227c:	d8 06 20 1c 	ld  [ %i0 + 0x1c ], %o4
    2280:	d6 06 20 24 	ld  [ %i0 + 0x24 ], %o3
    2284:	82 08 7f fd 	and  %g1, -3, %g1
    2288:	da 37 bf a6 	sth  %o5, [ %fp + -90 ]
    228c:	c2 37 bf a4 	sth  %g1, [ %fp + -92 ]
    2290:	9a 10 24 00 	mov  0x400, %o5
    2294:	82 07 bb 98 	add  %fp, -1128, %g1
    2298:	d4 27 bf ec 	st  %o2, [ %fp + -20 ]
    229c:	a0 10 00 18 	mov  %i0, %l0
    22a0:	94 10 00 1a 	mov  %i2, %o2
    22a4:	d8 27 bf b4 	st  %o4, [ %fp + -76 ]
    22a8:	d6 27 bf bc 	st  %o3, [ %fp + -68 ]
    22ac:	92 10 00 19 	mov  %i1, %o1
    22b0:	c0 27 bf b0 	clr  [ %fp + -80 ]
    22b4:	c2 27 bf a8 	st  %g1, [ %fp + -88 ]
    22b8:	c2 27 bf 98 	st  %g1, [ %fp + -104 ]
    22bc:	da 27 bf ac 	st  %o5, [ %fp + -84 ]
    22c0:	da 27 bf a0 	st  %o5, [ %fp + -96 ]
    22c4:	b4 07 bf 98 	add  %fp, -104, %i2
    22c8:	40 00 00 13 	call  2314 <vfprintf>
    22cc:	90 10 00 1a 	mov  %i2, %o0
    22d0:	b0 92 20 00 	orcc  %o0, 0, %i0
    22d4:	06 80 00 08 	bl  22f4 <__sbprintf+0x88>
    22d8:	c2 17 bf a4 	lduh  [ %fp + -92 ], %g1
    22dc:	40 00 0c 06 	call  52f4 <fflush>
    22e0:	90 10 00 1a 	mov  %i2, %o0
    22e4:	80 a2 20 00 	cmp  %o0, 0
    22e8:	32 80 00 02 	bne,a   22f0 <__sbprintf+0x84>
    22ec:	b0 10 3f ff 	mov  -1, %i0
    22f0:	c2 17 bf a4 	lduh  [ %fp + -92 ], %g1
    22f4:	80 88 60 40 	btst  0x40, %g1
    22f8:	02 80 00 05 	be  230c <__sbprintf+0xa0>
    22fc:	01 00 00 00 	nop 
    2300:	c2 14 20 0c 	lduh  [ %l0 + 0xc ], %g1
    2304:	82 10 60 40 	or  %g1, 0x40, %g1
    2308:	c2 34 20 0c 	sth  %g1, [ %l0 + 0xc ]
    230c:	81 c7 e0 08 	ret 
    2310:	81 e8 00 00 	restore 

00002314 <vfprintf>:
    2314:	9d e3 bf 98 	save  %sp, -104, %sp
    2318:	a0 10 00 18 	mov  %i0, %l0
    231c:	f0 06 20 54 	ld  [ %i0 + 0x54 ], %i0
    2320:	98 10 00 19 	mov  %i1, %o4
    2324:	80 a6 20 00 	cmp  %i0, 0
    2328:	12 80 00 06 	bne  2340 <vfprintf+0x2c>
    232c:	b6 10 00 1a 	mov  %i2, %i3
    2330:	03 00 00 28 	sethi  %hi(0xa000), %g1
    2334:	da 00 61 20 	ld  [ %g1 + 0x120 ], %o5	! a120 <_impure_ptr>
    2338:	b0 10 00 0d 	mov  %o5, %i0
    233c:	da 24 20 54 	st  %o5, [ %l0 + 0x54 ]
    2340:	c2 06 20 38 	ld  [ %i0 + 0x38 ], %g1
    2344:	b2 10 00 10 	mov  %l0, %i1
    2348:	b4 10 00 0c 	mov  %o4, %i2
    234c:	80 a0 60 00 	cmp  %g1, 0
    2350:	02 80 00 04 	be  2360 <vfprintf+0x4c>
    2354:	90 10 00 18 	mov  %i0, %o0
    2358:	40 00 00 06 	call  2370 <_vfprintf_r>
    235c:	81 e8 00 00 	restore 
    2360:	40 00 0c 92 	call  55a8 <__sinit>
    2364:	01 00 00 00 	nop 
    2368:	10 bf ff fc 	b  2358 <vfprintf+0x44>
    236c:	f0 04 20 54 	ld  [ %l0 + 0x54 ], %i0

00002370 <_vfprintf_r>:
    2370:	9d e3 bd 78 	save  %sp, -648, %sp
    2374:	40 00 0e d3 	call  5ec0 <localeconv>
    2378:	01 00 00 00 	nop 
    237c:	d0 02 00 00 	ld  [ %o0 ], %o0
    2380:	92 10 20 00 	clr  %o1
    2384:	d0 27 bd fc 	st  %o0, [ %fp + -516 ]
    2388:	94 10 20 08 	mov  8, %o2
    238c:	7f ff fd b3 	call  1a58 <memset>
    2390:	90 07 be 30 	add  %fp, -464, %o0
    2394:	c2 16 60 0c 	lduh  [ %i1 + 0xc ], %g1
    2398:	f0 27 a0 44 	st  %i0, [ %fp + 0x44 ]
    239c:	80 88 60 08 	btst  8, %g1
    23a0:	c0 27 bd f0 	clr  [ %fp + -528 ]
    23a4:	c0 27 bd f4 	clr  [ %fp + -524 ]
    23a8:	c0 27 bd ec 	clr  [ %fp + -532 ]
    23ac:	c0 27 bd e8 	clr  [ %fp + -536 ]
    23b0:	02 80 00 06 	be  23c8 <_vfprintf_r+0x58>
    23b4:	da 16 60 0c 	lduh  [ %i1 + 0xc ], %o5
    23b8:	c2 06 60 10 	ld  [ %i1 + 0x10 ], %g1
    23bc:	80 a0 60 00 	cmp  %g1, 0
    23c0:	12 80 00 09 	bne  23e4 <_vfprintf_r+0x74>
    23c4:	82 0b 60 1a 	and  %o5, 0x1a, %g1
    23c8:	40 00 06 49 	call  3cec <__swsetup>
    23cc:	90 10 00 19 	mov  %i1, %o0
    23d0:	80 a2 20 00 	cmp  %o0, 0
    23d4:	12 80 05 af 	bne  3a90 <_vfprintf_r+0x1720>
    23d8:	90 10 3f ff 	mov  -1, %o0
    23dc:	da 16 60 0c 	lduh  [ %i1 + 0xc ], %o5
    23e0:	82 0b 60 1a 	and  %o5, 0x1a, %g1
    23e4:	80 a0 60 0a 	cmp  %g1, 0xa
    23e8:	22 80 05 a4 	be,a   3a78 <_vfprintf_r+0x1708>
    23ec:	c2 56 60 0e 	ldsh  [ %i1 + 0xe ], %g1
    23f0:	a4 07 bf a0 	add  %fp, -96, %l2
    23f4:	c0 27 bf e8 	clr  [ %fp + -24 ]
    23f8:	c0 27 bf e4 	clr  [ %fp + -28 ]
    23fc:	e4 27 bf e0 	st  %l2, [ %fp + -32 ]
    2400:	b0 10 00 12 	mov  %l2, %i0
    2404:	c0 27 be 04 	clr  [ %fp + -508 ]
    2408:	a6 10 00 1a 	mov  %i2, %l3
    240c:	03 00 00 28 	sethi  %hi(0xa000), %g1
    2410:	19 00 00 29 	sethi  %hi(0xa400), %o4
    2414:	d0 00 61 20 	ld  [ %g1 + 0x120 ], %o0
    2418:	d6 03 21 38 	ld  [ %o4 + 0x138 ], %o3
    241c:	92 07 be 14 	add  %fp, -492, %o1
    2420:	94 10 00 1a 	mov  %i2, %o2
    2424:	40 00 0f 00 	call  6024 <_mbtowc_r>
    2428:	98 07 be 30 	add  %fp, -464, %o4
    242c:	a0 92 20 00 	orcc  %o0, 0, %l0
    2430:	04 80 00 06 	ble  2448 <_vfprintf_r+0xd8>
    2434:	c2 07 be 14 	ld  [ %fp + -492 ], %g1
    2438:	80 a0 60 25 	cmp  %g1, 0x25
    243c:	12 bf ff f4 	bne  240c <_vfprintf_r+0x9c>
    2440:	b4 06 80 10 	add  %i2, %l0, %i2
    2444:	b4 06 bf ff 	add  %i2, -1, %i2
    2448:	a2 a6 80 13 	subcc  %i2, %l3, %l1
    244c:	02 80 00 11 	be  2490 <_vfprintf_r+0x120>
    2450:	80 a4 20 00 	cmp  %l0, 0
    2454:	e2 24 a0 04 	st  %l1, [ %l2 + 4 ]
    2458:	da 07 bf e4 	ld  [ %fp + -28 ], %o5
    245c:	c2 07 bf e8 	ld  [ %fp + -24 ], %g1
    2460:	9a 03 60 01 	inc  %o5
    2464:	e6 24 80 00 	st  %l3, [ %l2 ]
    2468:	82 00 40 11 	add  %g1, %l1, %g1
    246c:	80 a3 60 07 	cmp  %o5, 7
    2470:	c2 27 bf e8 	st  %g1, [ %fp + -24 ]
    2474:	da 27 bf e4 	st  %o5, [ %fp + -28 ]
    2478:	14 80 05 78 	bg  3a58 <_vfprintf_r+0x16e8>
    247c:	a4 04 a0 08 	add  %l2, 8, %l2
    2480:	da 07 be 04 	ld  [ %fp + -508 ], %o5
    2484:	9a 03 40 11 	add  %o5, %l1, %o5
    2488:	da 27 be 04 	st  %o5, [ %fp + -508 ]
    248c:	80 a4 20 00 	cmp  %l0, 0
    2490:	04 80 05 62 	ble  3a18 <_vfprintf_r+0x16a8>
    2494:	b4 06 a0 01 	inc  %i2
    2498:	c0 2f be 0a 	clrb  [ %fp + -502 ]
    249c:	da 0e 80 00 	ldub  [ %i2 ], %o5
    24a0:	ba 10 20 00 	clr  %i5
    24a4:	b8 10 20 00 	clr  %i4
    24a8:	c0 27 be 00 	clr  [ %fp + -512 ]
    24ac:	ac 10 3f ff 	mov  -1, %l6
    24b0:	83 2b 60 18 	sll  %o5, 0x18, %g1
    24b4:	b4 06 a0 01 	inc  %i2
    24b8:	a9 38 60 18 	sra  %g1, 0x18, %l4
    24bc:	82 05 3f e0 	add  %l4, -32, %g1
    24c0:	80 a0 60 58 	cmp  %g1, 0x58
    24c4:	18 80 05 4f 	bgu  3a00 <_vfprintf_r+0x1690>
    24c8:	83 28 60 02 	sll  %g1, 2, %g1
    24cc:	1b 00 00 08 	sethi  %hi(0x2000), %o5
    24d0:	9a 13 60 d0 	or  %o5, 0xd0, %o5	! 20d0 <_sbrk_r+0x38>
    24d4:	d8 03 40 01 	ld  [ %o5 + %g1 ], %o4
    24d8:	81 c3 00 00 	jmp  %o4
    24dc:	01 00 00 00 	nop 
    24e0:	c2 4f be 0a 	ldsb  [ %fp + -502 ], %g1
    24e4:	80 a0 60 00 	cmp  %g1, 0
    24e8:	02 80 00 04 	be  24f8 <_vfprintf_r+0x188>
    24ec:	9a 10 20 20 	mov  0x20, %o5
    24f0:	10 bf ff f0 	b  24b0 <_vfprintf_r+0x140>
    24f4:	da 0e 80 00 	ldub  [ %i2 ], %o5
    24f8:	10 bf ff fe 	b  24f0 <_vfprintf_r+0x180>
    24fc:	da 2f be 0a 	stb  %o5, [ %fp + -502 ]
    2500:	da 0e 80 00 	ldub  [ %i2 ], %o5
    2504:	10 bf ff eb 	b  24b0 <_vfprintf_r+0x140>
    2508:	ba 17 60 01 	or  %i5, 1, %i5
    250c:	c2 06 c0 00 	ld  [ %i3 ], %g1
    2510:	b6 06 e0 04 	add  %i3, 4, %i3
    2514:	80 a0 60 00 	cmp  %g1, 0
    2518:	16 bf ff f6 	bge  24f0 <_vfprintf_r+0x180>
    251c:	c2 27 be 00 	st  %g1, [ %fp + -512 ]
    2520:	82 20 00 01 	neg  %g1
    2524:	c2 27 be 00 	st  %g1, [ %fp + -512 ]
    2528:	da 0e 80 00 	ldub  [ %i2 ], %o5
    252c:	10 bf ff e1 	b  24b0 <_vfprintf_r+0x140>
    2530:	ba 17 60 04 	or  %i5, 4, %i5
    2534:	10 bf ff f1 	b  24f8 <_vfprintf_r+0x188>
    2538:	9a 10 20 2b 	mov  0x2b, %o5
    253c:	e8 4e 80 00 	ldsb  [ %i2 ], %l4
    2540:	80 a5 20 2a 	cmp  %l4, 0x2a
    2544:	02 80 00 15 	be  2598 <_vfprintf_r+0x228>
    2548:	b4 06 a0 01 	inc  %i2
    254c:	82 05 3f d0 	add  %l4, -48, %g1
    2550:	80 a0 60 09 	cmp  %g1, 9
    2554:	18 80 00 0c 	bgu  2584 <_vfprintf_r+0x214>
    2558:	a0 10 20 00 	clr  %l0
    255c:	83 2c 20 02 	sll  %l0, 2, %g1
    2560:	82 00 40 10 	add  %g1, %l0, %g1
    2564:	82 00 40 01 	add  %g1, %g1, %g1
    2568:	82 00 40 14 	add  %g1, %l4, %g1
    256c:	e8 4e 80 00 	ldsb  [ %i2 ], %l4
    2570:	a0 00 7f d0 	add  %g1, -48, %l0
    2574:	9a 05 3f d0 	add  %l4, -48, %o5
    2578:	80 a3 60 09 	cmp  %o5, 9
    257c:	08 bf ff f8 	bleu  255c <_vfprintf_r+0x1ec>
    2580:	b4 06 a0 01 	inc  %i2
    2584:	80 a4 3f ff 	cmp  %l0, -1
    2588:	16 bf ff cd 	bge  24bc <_vfprintf_r+0x14c>
    258c:	ac 10 00 10 	mov  %l0, %l6
    2590:	10 bf ff cb 	b  24bc <_vfprintf_r+0x14c>
    2594:	ac 10 3f ff 	mov  -1, %l6
    2598:	ec 06 c0 00 	ld  [ %i3 ], %l6
    259c:	80 a5 a0 00 	cmp  %l6, 0
    25a0:	16 bf ff d4 	bge  24f0 <_vfprintf_r+0x180>
    25a4:	b6 06 e0 04 	add  %i3, 4, %i3
    25a8:	10 bf ff c1 	b  24ac <_vfprintf_r+0x13c>
    25ac:	da 0e 80 00 	ldub  [ %i2 ], %o5
    25b0:	da 0e 80 00 	ldub  [ %i2 ], %o5
    25b4:	10 bf ff bf 	b  24b0 <_vfprintf_r+0x140>
    25b8:	ba 17 60 80 	or  %i5, 0x80, %i5
    25bc:	a0 10 20 00 	clr  %l0
    25c0:	83 2c 20 02 	sll  %l0, 2, %g1
    25c4:	82 00 40 10 	add  %g1, %l0, %g1
    25c8:	82 00 40 01 	add  %g1, %g1, %g1
    25cc:	82 00 40 14 	add  %g1, %l4, %g1
    25d0:	e8 4e 80 00 	ldsb  [ %i2 ], %l4
    25d4:	a0 00 7f d0 	add  %g1, -48, %l0
    25d8:	9a 05 3f d0 	add  %l4, -48, %o5
    25dc:	b4 06 a0 01 	inc  %i2
    25e0:	80 a3 60 09 	cmp  %o5, 9
    25e4:	08 bf ff f7 	bleu  25c0 <_vfprintf_r+0x250>
    25e8:	e0 27 be 00 	st  %l0, [ %fp + -512 ]
    25ec:	10 bf ff b5 	b  24c0 <_vfprintf_r+0x150>
    25f0:	82 05 3f e0 	add  %l4, -32, %g1
    25f4:	ba 17 60 10 	or  %i5, 0x10, %i5
    25f8:	80 8f 60 20 	btst  0x20, %i5
    25fc:	02 80 03 bd 	be  34f0 <_vfprintf_r+0x1180>
    2600:	80 8f 60 10 	btst  0x10, %i5
    2604:	da 06 e0 04 	ld  [ %i3 + 4 ], %o5
    2608:	d8 06 c0 00 	ld  [ %i3 ], %o4
    260c:	b6 06 e0 08 	add  %i3, 8, %i3
    2610:	d8 3f be 28 	std  %o4, [ %fp + -472 ]
    2614:	e0 1f be 28 	ldd  [ %fp + -472 ], %l0
    2618:	80 a4 20 00 	cmp  %l0, 0
    261c:	26 80 03 b1 	bl,a   34e0 <_vfprintf_r+0x1170>
    2620:	a2 a0 00 11 	subcc  %g0, %l1, %l1
    2624:	98 10 20 01 	mov  1, %o4
    2628:	b8 95 a0 00 	orcc  %l6, 0, %i4
    262c:	36 80 00 02 	bge,a   2634 <_vfprintf_r+0x2c4>
    2630:	ba 0f 7f 7f 	and  %i5, -129, %i5
    2634:	80 94 00 11 	orcc  %l0, %l1, %g0
    2638:	a6 07 bf 9c 	add  %fp, -100, %l3
    263c:	02 80 00 03 	be  2648 <_vfprintf_r+0x2d8>
    2640:	9a 10 20 00 	clr  %o5
    2644:	9a 10 20 01 	mov  1, %o5
    2648:	80 a0 00 1c 	cmp  %g0, %i4
    264c:	82 40 20 00 	addx  %g0, 0, %g1
    2650:	80 93 40 01 	orcc  %o5, %g1, %g0
    2654:	02 80 03 9a 	be  34bc <_vfprintf_r+0x114c>
    2658:	80 8b 20 ff 	btst  0xff, %o4
    265c:	82 0b 20 ff 	and  %o4, 0xff, %g1
    2660:	80 a0 60 01 	cmp  %g1, 1
    2664:	22 80 03 74 	be,a   3434 <_vfprintf_r+0x10c4>
    2668:	80 a4 20 00 	cmp  %l0, 0
    266c:	04 80 03 5a 	ble  33d4 <_vfprintf_r+0x1064>
    2670:	80 a0 60 02 	cmp  %g1, 2
    2674:	02 80 03 49 	be  3398 <_vfprintf_r+0x1028>
    2678:	da 07 bd e8 	ld  [ %fp + -536 ], %o5
    267c:	03 00 00 26 	sethi  %hi(0x9800), %g1
    2680:	a6 10 62 18 	or  %g1, 0x218, %l3	! 9a18 <zeroes.1+0x10>
    2684:	40 00 13 7e 	call  747c <strlen>
    2688:	90 10 00 13 	mov  %l3, %o0
    268c:	aa 10 00 08 	mov  %o0, %l5
    2690:	80 a5 40 1c 	cmp  %l5, %i4
    2694:	16 80 00 03 	bge  26a0 <_vfprintf_r+0x330>
    2698:	ae 10 00 15 	mov  %l5, %l7
    269c:	ae 10 00 1c 	mov  %i4, %l7
    26a0:	c2 4f be 0a 	ldsb  [ %fp + -502 ], %g1
    26a4:	80 a0 60 00 	cmp  %g1, 0
    26a8:	02 80 03 36 	be  3380 <_vfprintf_r+0x1010>
    26ac:	da 0f be 0a 	ldub  [ %fp + -502 ], %o5
    26b0:	ae 05 e0 01 	inc  %l7
    26b4:	ac 8f 60 84 	andcc  %i5, 0x84, %l6
    26b8:	12 80 00 29 	bne  275c <_vfprintf_r+0x3ec>
    26bc:	83 2b 60 18 	sll  %o5, 0x18, %g1
    26c0:	c2 07 be 00 	ld  [ %fp + -512 ], %g1
    26c4:	a0 20 40 17 	sub  %g1, %l7, %l0
    26c8:	80 a4 20 00 	cmp  %l0, 0
    26cc:	04 80 00 23 	ble  2758 <_vfprintf_r+0x3e8>
    26d0:	80 a4 20 10 	cmp  %l0, 0x10
    26d4:	04 80 00 13 	ble  2720 <_vfprintf_r+0x3b0>
    26d8:	19 00 00 26 	sethi  %hi(0x9800), %o4
    26dc:	a2 13 21 f8 	or  %o4, 0x1f8, %l1	! 99f8 <blanks.0>
    26e0:	82 10 20 10 	mov  0x10, %g1
    26e4:	c2 24 a0 04 	st  %g1, [ %l2 + 4 ]
    26e8:	da 07 bf e4 	ld  [ %fp + -28 ], %o5
    26ec:	c2 07 bf e8 	ld  [ %fp + -24 ], %g1
    26f0:	9a 03 60 01 	inc  %o5
    26f4:	e2 24 80 00 	st  %l1, [ %l2 ]
    26f8:	82 00 60 10 	add  %g1, 0x10, %g1
    26fc:	80 a3 60 07 	cmp  %o5, 7
    2700:	c2 27 bf e8 	st  %g1, [ %fp + -24 ]
    2704:	da 27 bf e4 	st  %o5, [ %fp + -28 ]
    2708:	14 80 03 16 	bg  3360 <_vfprintf_r+0xff0>
    270c:	a4 04 a0 08 	add  %l2, 8, %l2
    2710:	a0 04 3f f0 	add  %l0, -16, %l0
    2714:	80 a4 20 10 	cmp  %l0, 0x10
    2718:	14 bf ff f3 	bg  26e4 <_vfprintf_r+0x374>
    271c:	82 10 20 10 	mov  0x10, %g1
    2720:	e0 24 a0 04 	st  %l0, [ %l2 + 4 ]
    2724:	c2 07 bf e8 	ld  [ %fp + -24 ], %g1
    2728:	da 07 bf e4 	ld  [ %fp + -28 ], %o5
    272c:	82 00 40 10 	add  %g1, %l0, %g1
    2730:	9a 03 60 01 	inc  %o5
    2734:	c2 27 bf e8 	st  %g1, [ %fp + -24 ]
    2738:	19 00 00 26 	sethi  %hi(0x9800), %o4
    273c:	80 a3 60 07 	cmp  %o5, 7
    2740:	82 13 21 f8 	or  %o4, 0x1f8, %g1
    2744:	da 27 bf e4 	st  %o5, [ %fp + -28 ]
    2748:	c2 24 80 00 	st  %g1, [ %l2 ]
    274c:	14 80 02 fd 	bg  3340 <_vfprintf_r+0xfd0>
    2750:	a4 04 a0 08 	add  %l2, 8, %l2
    2754:	da 0f be 0a 	ldub  [ %fp + -502 ], %o5
    2758:	83 2b 60 18 	sll  %o5, 0x18, %g1
    275c:	80 a0 60 00 	cmp  %g1, 0
    2760:	02 80 02 de 	be  32d8 <_vfprintf_r+0xf68>
    2764:	80 8f 60 02 	btst  2, %i5
    2768:	9a 10 20 01 	mov  1, %o5
    276c:	da 24 a0 04 	st  %o5, [ %l2 + 4 ]
    2770:	c2 07 bf e8 	ld  [ %fp + -24 ], %g1
    2774:	da 07 bf e4 	ld  [ %fp + -28 ], %o5
    2778:	82 00 60 01 	inc  %g1
    277c:	9a 03 60 01 	inc  %o5
    2780:	c2 27 bf e8 	st  %g1, [ %fp + -24 ]
    2784:	80 a3 60 07 	cmp  %o5, 7
    2788:	82 07 be 0a 	add  %fp, -502, %g1
    278c:	da 27 bf e4 	st  %o5, [ %fp + -28 ]
    2790:	c2 24 80 00 	st  %g1, [ %l2 ]
    2794:	14 80 02 c8 	bg  32b4 <_vfprintf_r+0xf44>
    2798:	a4 04 a0 08 	add  %l2, 8, %l2
    279c:	80 a5 a0 80 	cmp  %l6, 0x80
    27a0:	02 80 02 92 	be  31e8 <_vfprintf_r+0xe78>
    27a4:	da 07 be 00 	ld  [ %fp + -512 ], %o5
    27a8:	a0 27 00 15 	sub  %i4, %l5, %l0
    27ac:	80 a4 20 00 	cmp  %l0, 0
    27b0:	04 80 00 21 	ble  2834 <_vfprintf_r+0x4c4>
    27b4:	80 a4 20 10 	cmp  %l0, 0x10
    27b8:	04 80 00 13 	ble  2804 <_vfprintf_r+0x494>
    27bc:	2d 00 00 26 	sethi  %hi(0x9800), %l6
    27c0:	a2 15 a2 08 	or  %l6, 0x208, %l1	! 9a08 <zeroes.1>
    27c4:	82 10 20 10 	mov  0x10, %g1
    27c8:	c2 24 a0 04 	st  %g1, [ %l2 + 4 ]
    27cc:	da 07 bf e4 	ld  [ %fp + -28 ], %o5
    27d0:	c2 07 bf e8 	ld  [ %fp + -24 ], %g1
    27d4:	9a 03 60 01 	inc  %o5
    27d8:	e2 24 80 00 	st  %l1, [ %l2 ]
    27dc:	82 00 60 10 	add  %g1, 0x10, %g1
    27e0:	80 a3 60 07 	cmp  %o5, 7
    27e4:	c2 27 bf e8 	st  %g1, [ %fp + -24 ]
    27e8:	da 27 bf e4 	st  %o5, [ %fp + -28 ]
    27ec:	14 80 02 77 	bg  31c8 <_vfprintf_r+0xe58>
    27f0:	a4 04 a0 08 	add  %l2, 8, %l2
    27f4:	a0 04 3f f0 	add  %l0, -16, %l0
    27f8:	80 a4 20 10 	cmp  %l0, 0x10
    27fc:	14 bf ff f3 	bg  27c8 <_vfprintf_r+0x458>
    2800:	82 10 20 10 	mov  0x10, %g1
    2804:	e0 24 a0 04 	st  %l0, [ %l2 + 4 ]
    2808:	c2 07 bf e8 	ld  [ %fp + -24 ], %g1
    280c:	da 07 bf e4 	ld  [ %fp + -28 ], %o5
    2810:	82 00 40 10 	add  %g1, %l0, %g1
    2814:	9a 03 60 01 	inc  %o5
    2818:	c2 27 bf e8 	st  %g1, [ %fp + -24 ]
    281c:	80 a3 60 07 	cmp  %o5, 7
    2820:	82 15 a2 08 	or  %l6, 0x208, %g1
    2824:	da 27 bf e4 	st  %o5, [ %fp + -28 ]
    2828:	c2 24 80 00 	st  %g1, [ %l2 ]
    282c:	14 80 02 5f 	bg  31a8 <_vfprintf_r+0xe38>
    2830:	a4 04 a0 08 	add  %l2, 8, %l2
    2834:	80 8f 61 00 	btst  0x100, %i5
    2838:	12 80 00 66 	bne  29d0 <_vfprintf_r+0x660>
    283c:	80 a5 20 65 	cmp  %l4, 0x65
    2840:	ea 24 a0 04 	st  %l5, [ %l2 + 4 ]
    2844:	c2 07 bf e8 	ld  [ %fp + -24 ], %g1
    2848:	e6 24 80 00 	st  %l3, [ %l2 ]
    284c:	82 00 40 15 	add  %g1, %l5, %g1
    2850:	da 07 bf e4 	ld  [ %fp + -28 ], %o5
    2854:	c2 27 bf e8 	st  %g1, [ %fp + -24 ]
    2858:	9a 03 60 01 	inc  %o5
    285c:	80 a3 60 07 	cmp  %o5, 7
    2860:	da 27 bf e4 	st  %o5, [ %fp + -28 ]
    2864:	14 80 00 52 	bg  29ac <_vfprintf_r+0x63c>
    2868:	a4 04 a0 08 	add  %l2, 8, %l2
    286c:	80 8f 60 04 	btst  4, %i5
    2870:	02 80 00 26 	be  2908 <_vfprintf_r+0x598>
    2874:	da 07 be 00 	ld  [ %fp + -512 ], %o5
    2878:	a0 23 40 17 	sub  %o5, %l7, %l0
    287c:	80 a4 20 00 	cmp  %l0, 0
    2880:	04 80 00 22 	ble  2908 <_vfprintf_r+0x598>
    2884:	80 a4 20 10 	cmp  %l0, 0x10
    2888:	04 80 00 13 	ble  28d4 <_vfprintf_r+0x564>
    288c:	03 00 00 26 	sethi  %hi(0x9800), %g1
    2890:	a2 10 61 f8 	or  %g1, 0x1f8, %l1	! 99f8 <blanks.0>
    2894:	82 10 20 10 	mov  0x10, %g1
    2898:	c2 24 a0 04 	st  %g1, [ %l2 + 4 ]
    289c:	da 07 bf e4 	ld  [ %fp + -28 ], %o5
    28a0:	c2 07 bf e8 	ld  [ %fp + -24 ], %g1
    28a4:	9a 03 60 01 	inc  %o5
    28a8:	e2 24 80 00 	st  %l1, [ %l2 ]
    28ac:	82 00 60 10 	add  %g1, 0x10, %g1
    28b0:	80 a3 60 07 	cmp  %o5, 7
    28b4:	c2 27 bf e8 	st  %g1, [ %fp + -24 ]
    28b8:	da 27 bf e4 	st  %o5, [ %fp + -28 ]
    28bc:	14 80 00 34 	bg  298c <_vfprintf_r+0x61c>
    28c0:	a4 04 a0 08 	add  %l2, 8, %l2
    28c4:	a0 04 3f f0 	add  %l0, -16, %l0
    28c8:	80 a4 20 10 	cmp  %l0, 0x10
    28cc:	14 bf ff f3 	bg  2898 <_vfprintf_r+0x528>
    28d0:	82 10 20 10 	mov  0x10, %g1
    28d4:	e0 24 a0 04 	st  %l0, [ %l2 + 4 ]
    28d8:	c2 07 bf e8 	ld  [ %fp + -24 ], %g1
    28dc:	da 07 bf e4 	ld  [ %fp + -28 ], %o5
    28e0:	82 00 40 10 	add  %g1, %l0, %g1
    28e4:	9a 03 60 01 	inc  %o5
    28e8:	c2 27 bf e8 	st  %g1, [ %fp + -24 ]
    28ec:	19 00 00 26 	sethi  %hi(0x9800), %o4
    28f0:	80 a3 60 07 	cmp  %o5, 7
    28f4:	82 13 21 f8 	or  %o4, 0x1f8, %g1
    28f8:	da 27 bf e4 	st  %o5, [ %fp + -28 ]
    28fc:	14 80 00 1c 	bg  296c <_vfprintf_r+0x5fc>
    2900:	c2 24 80 00 	st  %g1, [ %l2 ]
    2904:	da 07 be 00 	ld  [ %fp + -512 ], %o5
    2908:	80 a5 c0 0d 	cmp  %l7, %o5
    290c:	16 80 00 03 	bge  2918 <_vfprintf_r+0x5a8>
    2910:	82 10 00 17 	mov  %l7, %g1
    2914:	82 10 00 0d 	mov  %o5, %g1
    2918:	d8 07 be 04 	ld  [ %fp + -508 ], %o4
    291c:	98 03 00 01 	add  %o4, %g1, %o4
    2920:	c2 07 bf e8 	ld  [ %fp + -24 ], %g1
    2924:	80 a0 60 00 	cmp  %g1, 0
    2928:	12 80 00 05 	bne  293c <_vfprintf_r+0x5cc>
    292c:	d8 27 be 04 	st  %o4, [ %fp + -508 ]
    2930:	c0 27 bf e4 	clr  [ %fp + -28 ]
    2934:	10 bf fe b5 	b  2408 <_vfprintf_r+0x98>
    2938:	a4 10 00 18 	mov  %i0, %l2
    293c:	92 07 bf e0 	add  %fp, -32, %o1
    2940:	7f ff fe 3d 	call  2234 <__sprint>
    2944:	90 10 00 19 	mov  %i1, %o0
    2948:	80 a2 20 00 	cmp  %o0, 0
    294c:	22 bf ff fa 	be,a   2934 <_vfprintf_r+0x5c4>
    2950:	c0 27 bf e4 	clr  [ %fp + -28 ]
    2954:	c2 16 60 0c 	lduh  [ %i1 + 0xc ], %g1
    2958:	80 88 60 40 	btst  0x40, %g1
    295c:	02 80 04 4d 	be  3a90 <_vfprintf_r+0x1720>
    2960:	d0 07 be 04 	ld  [ %fp + -508 ], %o0
    2964:	10 80 04 4b 	b  3a90 <_vfprintf_r+0x1720>
    2968:	90 10 3f ff 	mov  -1, %o0
    296c:	92 07 bf e0 	add  %fp, -32, %o1
    2970:	7f ff fe 31 	call  2234 <__sprint>
    2974:	90 10 00 19 	mov  %i1, %o0
    2978:	80 a2 20 00 	cmp  %o0, 0
    297c:	02 bf ff e3 	be  2908 <_vfprintf_r+0x598>
    2980:	da 07 be 00 	ld  [ %fp + -512 ], %o5
    2984:	10 bf ff f5 	b  2958 <_vfprintf_r+0x5e8>
    2988:	c2 16 60 0c 	lduh  [ %i1 + 0xc ], %g1
    298c:	90 10 00 19 	mov  %i1, %o0
    2990:	7f ff fe 29 	call  2234 <__sprint>
    2994:	92 07 bf e0 	add  %fp, -32, %o1
    2998:	80 a2 20 00 	cmp  %o0, 0
    299c:	12 bf ff ee 	bne  2954 <_vfprintf_r+0x5e4>
    29a0:	a4 10 00 18 	mov  %i0, %l2
    29a4:	10 bf ff c9 	b  28c8 <_vfprintf_r+0x558>
    29a8:	a0 04 3f f0 	add  %l0, -16, %l0
    29ac:	92 07 bf e0 	add  %fp, -32, %o1
    29b0:	90 10 00 19 	mov  %i1, %o0
    29b4:	7f ff fe 20 	call  2234 <__sprint>
    29b8:	a4 10 00 18 	mov  %i0, %l2
    29bc:	80 a2 20 00 	cmp  %o0, 0
    29c0:	02 bf ff ac 	be  2870 <_vfprintf_r+0x500>
    29c4:	80 8f 60 04 	btst  4, %i5
    29c8:	10 bf ff e4 	b  2958 <_vfprintf_r+0x5e8>
    29cc:	c2 16 60 0c 	lduh  [ %i1 + 0xc ], %g1
    29d0:	04 80 01 66 	ble  2f68 <_vfprintf_r+0xbf8>
    29d4:	c2 07 be 0c 	ld  [ %fp + -500 ], %g1
    29d8:	03 00 00 26 	sethi  %hi(0x9800), %g1
    29dc:	d0 1f bd f0 	ldd  [ %fp + -528 ], %o0
    29e0:	40 00 18 b1 	call  8ca4 <__eqdf2>
    29e4:	d4 18 62 90 	ldd  [ %g1 + 0x290 ], %o2
    29e8:	80 a2 20 00 	cmp  %o0, 0
    29ec:	12 80 00 5e 	bne  2b64 <_vfprintf_r+0x7f4>
    29f0:	d2 07 be 10 	ld  [ %fp + -496 ], %o1
    29f4:	a0 10 20 01 	mov  1, %l0
    29f8:	e0 24 a0 04 	st  %l0, [ %l2 + 4 ]
    29fc:	c2 07 bf e8 	ld  [ %fp + -24 ], %g1
    2a00:	da 07 bf e4 	ld  [ %fp + -28 ], %o5
    2a04:	82 00 60 01 	inc  %g1
    2a08:	9a 03 60 01 	inc  %o5
    2a0c:	c2 27 bf e8 	st  %g1, [ %fp + -24 ]
    2a10:	80 a3 60 07 	cmp  %o5, 7
    2a14:	03 00 00 26 	sethi  %hi(0x9800), %g1
    2a18:	da 27 bf e4 	st  %o5, [ %fp + -28 ]
    2a1c:	82 10 62 38 	or  %g1, 0x238, %g1
    2a20:	c2 24 80 00 	st  %g1, [ %l2 ]
    2a24:	14 80 00 48 	bg  2b44 <_vfprintf_r+0x7d4>
    2a28:	a4 04 a0 08 	add  %l2, 8, %l2
    2a2c:	da 07 be 10 	ld  [ %fp + -496 ], %o5
    2a30:	c2 07 be 0c 	ld  [ %fp + -500 ], %g1
    2a34:	80 a3 40 01 	cmp  %o5, %g1
    2a38:	26 80 00 06 	bl,a   2a50 <_vfprintf_r+0x6e0>
    2a3c:	e0 24 a0 04 	st  %l0, [ %l2 + 4 ]
    2a40:	80 8f 60 01 	btst  1, %i5
    2a44:	02 bf ff 8b 	be  2870 <_vfprintf_r+0x500>
    2a48:	80 8f 60 04 	btst  4, %i5
    2a4c:	e0 24 a0 04 	st  %l0, [ %l2 + 4 ]
    2a50:	d8 07 bd fc 	ld  [ %fp + -516 ], %o4
    2a54:	da 07 bf e4 	ld  [ %fp + -28 ], %o5
    2a58:	c2 07 bf e8 	ld  [ %fp + -24 ], %g1
    2a5c:	9a 03 60 01 	inc  %o5
    2a60:	d8 24 80 00 	st  %o4, [ %l2 ]
    2a64:	82 00 60 01 	inc  %g1
    2a68:	80 a3 60 07 	cmp  %o5, 7
    2a6c:	c2 27 bf e8 	st  %g1, [ %fp + -24 ]
    2a70:	da 27 bf e4 	st  %o5, [ %fp + -28 ]
    2a74:	14 80 00 2c 	bg  2b24 <_vfprintf_r+0x7b4>
    2a78:	a4 04 a0 08 	add  %l2, 8, %l2
    2a7c:	c2 07 be 0c 	ld  [ %fp + -500 ], %g1
    2a80:	a0 00 7f ff 	add  %g1, -1, %l0
    2a84:	80 a4 20 00 	cmp  %l0, 0
    2a88:	04 bf ff 79 	ble  286c <_vfprintf_r+0x4fc>
    2a8c:	80 a4 20 10 	cmp  %l0, 0x10
    2a90:	04 80 00 13 	ble  2adc <_vfprintf_r+0x76c>
    2a94:	2d 00 00 26 	sethi  %hi(0x9800), %l6
    2a98:	a2 15 a2 08 	or  %l6, 0x208, %l1	! 9a08 <zeroes.1>
    2a9c:	82 10 20 10 	mov  0x10, %g1
    2aa0:	c2 24 a0 04 	st  %g1, [ %l2 + 4 ]
    2aa4:	da 07 bf e4 	ld  [ %fp + -28 ], %o5
    2aa8:	c2 07 bf e8 	ld  [ %fp + -24 ], %g1
    2aac:	9a 03 60 01 	inc  %o5
    2ab0:	e2 24 80 00 	st  %l1, [ %l2 ]
    2ab4:	82 00 60 10 	add  %g1, 0x10, %g1
    2ab8:	80 a3 60 07 	cmp  %o5, 7
    2abc:	c2 27 bf e8 	st  %g1, [ %fp + -24 ]
    2ac0:	da 27 bf e4 	st  %o5, [ %fp + -28 ]
    2ac4:	14 80 00 10 	bg  2b04 <_vfprintf_r+0x794>
    2ac8:	a4 04 a0 08 	add  %l2, 8, %l2
    2acc:	a0 04 3f f0 	add  %l0, -16, %l0
    2ad0:	80 a4 20 10 	cmp  %l0, 0x10
    2ad4:	14 bf ff f3 	bg  2aa0 <_vfprintf_r+0x730>
    2ad8:	82 10 20 10 	mov  0x10, %g1
    2adc:	e0 24 a0 04 	st  %l0, [ %l2 + 4 ]
    2ae0:	c2 07 bf e8 	ld  [ %fp + -24 ], %g1
    2ae4:	da 07 bf e4 	ld  [ %fp + -28 ], %o5
    2ae8:	82 00 40 10 	add  %g1, %l0, %g1
    2aec:	9a 03 60 01 	inc  %o5
    2af0:	c2 27 bf e8 	st  %g1, [ %fp + -24 ]
    2af4:	80 a3 60 07 	cmp  %o5, 7
    2af8:	82 15 a2 08 	or  %l6, 0x208, %g1
    2afc:	10 bf ff 59 	b  2860 <_vfprintf_r+0x4f0>
    2b00:	c2 24 80 00 	st  %g1, [ %l2 ]
    2b04:	90 10 00 19 	mov  %i1, %o0
    2b08:	7f ff fd cb 	call  2234 <__sprint>
    2b0c:	92 07 bf e0 	add  %fp, -32, %o1
    2b10:	80 a2 20 00 	cmp  %o0, 0
    2b14:	12 bf ff 90 	bne  2954 <_vfprintf_r+0x5e4>
    2b18:	a4 10 00 18 	mov  %i0, %l2
    2b1c:	10 bf ff ed 	b  2ad0 <_vfprintf_r+0x760>
    2b20:	a0 04 3f f0 	add  %l0, -16, %l0
    2b24:	92 07 bf e0 	add  %fp, -32, %o1
    2b28:	7f ff fd c3 	call  2234 <__sprint>
    2b2c:	90 10 00 19 	mov  %i1, %o0
    2b30:	80 a2 20 00 	cmp  %o0, 0
    2b34:	12 bf ff 88 	bne  2954 <_vfprintf_r+0x5e4>
    2b38:	a4 10 00 18 	mov  %i0, %l2
    2b3c:	10 bf ff d1 	b  2a80 <_vfprintf_r+0x710>
    2b40:	c2 07 be 0c 	ld  [ %fp + -500 ], %g1
    2b44:	92 07 bf e0 	add  %fp, -32, %o1
    2b48:	7f ff fd bb 	call  2234 <__sprint>
    2b4c:	90 10 00 19 	mov  %i1, %o0
    2b50:	80 a2 20 00 	cmp  %o0, 0
    2b54:	12 bf ff 80 	bne  2954 <_vfprintf_r+0x5e4>
    2b58:	a4 10 00 18 	mov  %i0, %l2
    2b5c:	10 bf ff b5 	b  2a30 <_vfprintf_r+0x6c0>
    2b60:	da 07 be 10 	ld  [ %fp + -496 ], %o5
    2b64:	80 a2 60 00 	cmp  %o1, 0
    2b68:	04 80 00 8e 	ble  2da0 <_vfprintf_r+0xa30>
    2b6c:	c2 07 be 0c 	ld  [ %fp + -500 ], %g1
    2b70:	80 a2 40 01 	cmp  %o1, %g1
    2b74:	26 80 00 5a 	bl,a   2cdc <_vfprintf_r+0x96c>
    2b78:	d2 24 a0 04 	st  %o1, [ %l2 + 4 ]
    2b7c:	c2 24 a0 04 	st  %g1, [ %l2 + 4 ]
    2b80:	90 10 00 01 	mov  %g1, %o0
    2b84:	da 07 bf e4 	ld  [ %fp + -28 ], %o5
    2b88:	c2 07 bf e8 	ld  [ %fp + -24 ], %g1
    2b8c:	9a 03 60 01 	inc  %o5
    2b90:	e6 24 80 00 	st  %l3, [ %l2 ]
    2b94:	82 00 40 08 	add  %g1, %o0, %g1
    2b98:	80 a3 60 07 	cmp  %o5, 7
    2b9c:	da 27 bf e4 	st  %o5, [ %fp + -28 ]
    2ba0:	c2 27 bf e8 	st  %g1, [ %fp + -24 ]
    2ba4:	14 80 00 46 	bg  2cbc <_vfprintf_r+0x94c>
    2ba8:	a4 04 a0 08 	add  %l2, 8, %l2
    2bac:	c2 07 be 10 	ld  [ %fp + -496 ], %g1
    2bb0:	a0 20 40 08 	sub  %g1, %o0, %l0
    2bb4:	80 a4 20 00 	cmp  %l0, 0
    2bb8:	04 80 00 21 	ble  2c3c <_vfprintf_r+0x8cc>
    2bbc:	80 a4 20 10 	cmp  %l0, 0x10
    2bc0:	04 80 00 13 	ble  2c0c <_vfprintf_r+0x89c>
    2bc4:	2d 00 00 26 	sethi  %hi(0x9800), %l6
    2bc8:	a2 15 a2 08 	or  %l6, 0x208, %l1	! 9a08 <zeroes.1>
    2bcc:	82 10 20 10 	mov  0x10, %g1
    2bd0:	c2 24 a0 04 	st  %g1, [ %l2 + 4 ]
    2bd4:	da 07 bf e4 	ld  [ %fp + -28 ], %o5
    2bd8:	c2 07 bf e8 	ld  [ %fp + -24 ], %g1
    2bdc:	9a 03 60 01 	inc  %o5
    2be0:	e2 24 80 00 	st  %l1, [ %l2 ]
    2be4:	82 00 60 10 	add  %g1, 0x10, %g1
    2be8:	80 a3 60 07 	cmp  %o5, 7
    2bec:	c2 27 bf e8 	st  %g1, [ %fp + -24 ]
    2bf0:	da 27 bf e4 	st  %o5, [ %fp + -28 ]
    2bf4:	14 80 00 2a 	bg  2c9c <_vfprintf_r+0x92c>
    2bf8:	a4 04 a0 08 	add  %l2, 8, %l2
    2bfc:	a0 04 3f f0 	add  %l0, -16, %l0
    2c00:	80 a4 20 10 	cmp  %l0, 0x10
    2c04:	14 bf ff f3 	bg  2bd0 <_vfprintf_r+0x860>
    2c08:	82 10 20 10 	mov  0x10, %g1
    2c0c:	e0 24 a0 04 	st  %l0, [ %l2 + 4 ]
    2c10:	c2 07 bf e8 	ld  [ %fp + -24 ], %g1
    2c14:	da 07 bf e4 	ld  [ %fp + -28 ], %o5
    2c18:	82 00 40 10 	add  %g1, %l0, %g1
    2c1c:	9a 03 60 01 	inc  %o5
    2c20:	c2 27 bf e8 	st  %g1, [ %fp + -24 ]
    2c24:	80 a3 60 07 	cmp  %o5, 7
    2c28:	82 15 a2 08 	or  %l6, 0x208, %g1
    2c2c:	da 27 bf e4 	st  %o5, [ %fp + -28 ]
    2c30:	c2 24 80 00 	st  %g1, [ %l2 ]
    2c34:	14 80 00 12 	bg  2c7c <_vfprintf_r+0x90c>
    2c38:	a4 04 a0 08 	add  %l2, 8, %l2
    2c3c:	80 8f 60 01 	btst  1, %i5
    2c40:	22 bf ff 0c 	be,a   2870 <_vfprintf_r+0x500>
    2c44:	80 8f 60 04 	btst  4, %i5
    2c48:	9a 10 20 01 	mov  1, %o5
    2c4c:	da 24 a0 04 	st  %o5, [ %l2 + 4 ]
    2c50:	c2 07 bf e8 	ld  [ %fp + -24 ], %g1
    2c54:	da 07 bf e4 	ld  [ %fp + -28 ], %o5
    2c58:	82 00 60 01 	inc  %g1
    2c5c:	9a 03 60 01 	inc  %o5
    2c60:	c2 27 bf e8 	st  %g1, [ %fp + -24 ]
    2c64:	80 a3 60 07 	cmp  %o5, 7
    2c68:	03 00 00 26 	sethi  %hi(0x9800), %g1
    2c6c:	da 27 bf e4 	st  %o5, [ %fp + -28 ]
    2c70:	82 10 62 40 	or  %g1, 0x240, %g1
    2c74:	10 bf fe fc 	b  2864 <_vfprintf_r+0x4f4>
    2c78:	c2 24 80 00 	st  %g1, [ %l2 ]
    2c7c:	92 07 bf e0 	add  %fp, -32, %o1
    2c80:	7f ff fd 6d 	call  2234 <__sprint>
    2c84:	90 10 00 19 	mov  %i1, %o0
    2c88:	80 a2 20 00 	cmp  %o0, 0
    2c8c:	12 bf ff 32 	bne  2954 <_vfprintf_r+0x5e4>
    2c90:	a4 10 00 18 	mov  %i0, %l2
    2c94:	10 bf ff eb 	b  2c40 <_vfprintf_r+0x8d0>
    2c98:	80 8f 60 01 	btst  1, %i5
    2c9c:	90 10 00 19 	mov  %i1, %o0
    2ca0:	7f ff fd 65 	call  2234 <__sprint>
    2ca4:	92 07 bf e0 	add  %fp, -32, %o1
    2ca8:	80 a2 20 00 	cmp  %o0, 0
    2cac:	12 bf ff 2a 	bne  2954 <_vfprintf_r+0x5e4>
    2cb0:	a4 10 00 18 	mov  %i0, %l2
    2cb4:	10 bf ff d3 	b  2c00 <_vfprintf_r+0x890>
    2cb8:	a0 04 3f f0 	add  %l0, -16, %l0
    2cbc:	92 07 bf e0 	add  %fp, -32, %o1
    2cc0:	7f ff fd 5d 	call  2234 <__sprint>
    2cc4:	90 10 00 19 	mov  %i1, %o0
    2cc8:	80 a2 20 00 	cmp  %o0, 0
    2ccc:	12 bf ff 22 	bne  2954 <_vfprintf_r+0x5e4>
    2cd0:	d0 07 be 0c 	ld  [ %fp + -500 ], %o0
    2cd4:	10 bf ff b6 	b  2bac <_vfprintf_r+0x83c>
    2cd8:	a4 10 00 18 	mov  %i0, %l2
    2cdc:	da 07 bf e4 	ld  [ %fp + -28 ], %o5
    2ce0:	c2 07 bf e8 	ld  [ %fp + -24 ], %g1
    2ce4:	9a 03 60 01 	inc  %o5
    2ce8:	e6 24 80 00 	st  %l3, [ %l2 ]
    2cec:	82 00 40 09 	add  %g1, %o1, %g1
    2cf0:	80 a3 60 07 	cmp  %o5, 7
    2cf4:	da 27 bf e4 	st  %o5, [ %fp + -28 ]
    2cf8:	c2 27 bf e8 	st  %g1, [ %fp + -24 ]
    2cfc:	14 80 00 21 	bg  2d80 <_vfprintf_r+0xa10>
    2d00:	a4 04 a0 08 	add  %l2, 8, %l2
    2d04:	9a 10 20 01 	mov  1, %o5
    2d08:	da 24 a0 04 	st  %o5, [ %l2 + 4 ]
    2d0c:	c2 07 bf e8 	ld  [ %fp + -24 ], %g1
    2d10:	da 07 bf e4 	ld  [ %fp + -28 ], %o5
    2d14:	82 00 60 01 	inc  %g1
    2d18:	9a 03 60 01 	inc  %o5
    2d1c:	c2 27 bf e8 	st  %g1, [ %fp + -24 ]
    2d20:	80 a3 60 07 	cmp  %o5, 7
    2d24:	03 00 00 26 	sethi  %hi(0x9800), %g1
    2d28:	a6 04 c0 09 	add  %l3, %o1, %l3
    2d2c:	82 10 62 40 	or  %g1, 0x240, %g1
    2d30:	da 27 bf e4 	st  %o5, [ %fp + -28 ]
    2d34:	c2 24 80 00 	st  %g1, [ %l2 ]
    2d38:	14 80 00 0a 	bg  2d60 <_vfprintf_r+0x9f0>
    2d3c:	a4 04 a0 08 	add  %l2, 8, %l2
    2d40:	c2 07 be 10 	ld  [ %fp + -496 ], %g1
    2d44:	da 07 be 0c 	ld  [ %fp + -500 ], %o5
    2d48:	e6 24 80 00 	st  %l3, [ %l2 ]
    2d4c:	9a 23 40 01 	sub  %o5, %g1, %o5
    2d50:	da 24 a0 04 	st  %o5, [ %l2 + 4 ]
    2d54:	c2 07 bf e8 	ld  [ %fp + -24 ], %g1
    2d58:	10 bf fe be 	b  2850 <_vfprintf_r+0x4e0>
    2d5c:	82 00 40 0d 	add  %g1, %o5, %g1
    2d60:	92 07 bf e0 	add  %fp, -32, %o1
    2d64:	7f ff fd 34 	call  2234 <__sprint>
    2d68:	90 10 00 19 	mov  %i1, %o0
    2d6c:	80 a2 20 00 	cmp  %o0, 0
    2d70:	12 bf fe f9 	bne  2954 <_vfprintf_r+0x5e4>
    2d74:	a4 10 00 18 	mov  %i0, %l2
    2d78:	10 bf ff f3 	b  2d44 <_vfprintf_r+0x9d4>
    2d7c:	c2 07 be 10 	ld  [ %fp + -496 ], %g1
    2d80:	92 07 bf e0 	add  %fp, -32, %o1
    2d84:	7f ff fd 2c 	call  2234 <__sprint>
    2d88:	90 10 00 19 	mov  %i1, %o0
    2d8c:	80 a2 20 00 	cmp  %o0, 0
    2d90:	12 bf fe f1 	bne  2954 <_vfprintf_r+0x5e4>
    2d94:	d2 07 be 10 	ld  [ %fp + -496 ], %o1
    2d98:	10 bf ff db 	b  2d04 <_vfprintf_r+0x994>
    2d9c:	a4 10 00 18 	mov  %i0, %l2
    2da0:	a0 10 20 01 	mov  1, %l0
    2da4:	e0 24 a0 04 	st  %l0, [ %l2 + 4 ]
    2da8:	c2 07 bf e8 	ld  [ %fp + -24 ], %g1
    2dac:	da 07 bf e4 	ld  [ %fp + -28 ], %o5
    2db0:	82 00 60 01 	inc  %g1
    2db4:	9a 03 60 01 	inc  %o5
    2db8:	c2 27 bf e8 	st  %g1, [ %fp + -24 ]
    2dbc:	80 a3 60 07 	cmp  %o5, 7
    2dc0:	03 00 00 26 	sethi  %hi(0x9800), %g1
    2dc4:	da 27 bf e4 	st  %o5, [ %fp + -28 ]
    2dc8:	82 10 62 38 	or  %g1, 0x238, %g1
    2dcc:	c2 24 80 00 	st  %g1, [ %l2 ]
    2dd0:	14 80 00 5e 	bg  2f48 <_vfprintf_r+0xbd8>
    2dd4:	a4 04 a0 08 	add  %l2, 8, %l2
    2dd8:	c2 07 be 10 	ld  [ %fp + -496 ], %g1
    2ddc:	80 a0 60 00 	cmp  %g1, 0
    2de0:	12 80 00 07 	bne  2dfc <_vfprintf_r+0xa8c>
    2de4:	da 07 bd fc 	ld  [ %fp + -516 ], %o5
    2de8:	c2 07 be 0c 	ld  [ %fp + -500 ], %g1
    2dec:	80 a0 60 00 	cmp  %g1, 0
    2df0:	02 bf fe a0 	be  2870 <_vfprintf_r+0x500>
    2df4:	80 8f 60 04 	btst  4, %i5
    2df8:	da 07 bd fc 	ld  [ %fp + -516 ], %o5
    2dfc:	e0 24 a0 04 	st  %l0, [ %l2 + 4 ]
    2e00:	da 24 80 00 	st  %o5, [ %l2 ]
    2e04:	c2 07 bf e8 	ld  [ %fp + -24 ], %g1
    2e08:	da 07 bf e4 	ld  [ %fp + -28 ], %o5
    2e0c:	82 00 60 01 	inc  %g1
    2e10:	9a 03 60 01 	inc  %o5
    2e14:	c2 27 bf e8 	st  %g1, [ %fp + -24 ]
    2e18:	80 a3 60 07 	cmp  %o5, 7
    2e1c:	da 27 bf e4 	st  %o5, [ %fp + -28 ]
    2e20:	14 80 00 42 	bg  2f28 <_vfprintf_r+0xbb8>
    2e24:	a4 04 a0 08 	add  %l2, 8, %l2
    2e28:	c2 07 be 10 	ld  [ %fp + -496 ], %g1
    2e2c:	a0 20 00 01 	neg  %g1, %l0
    2e30:	80 a4 20 00 	cmp  %l0, 0
    2e34:	04 80 00 23 	ble  2ec0 <_vfprintf_r+0xb50>
    2e38:	c2 07 be 0c 	ld  [ %fp + -500 ], %g1
    2e3c:	80 a4 20 10 	cmp  %l0, 0x10
    2e40:	04 80 00 13 	ble  2e8c <_vfprintf_r+0xb1c>
    2e44:	2d 00 00 26 	sethi  %hi(0x9800), %l6
    2e48:	a2 15 a2 08 	or  %l6, 0x208, %l1	! 9a08 <zeroes.1>
    2e4c:	82 10 20 10 	mov  0x10, %g1
    2e50:	c2 24 a0 04 	st  %g1, [ %l2 + 4 ]
    2e54:	da 07 bf e4 	ld  [ %fp + -28 ], %o5
    2e58:	c2 07 bf e8 	ld  [ %fp + -24 ], %g1
    2e5c:	9a 03 60 01 	inc  %o5
    2e60:	e2 24 80 00 	st  %l1, [ %l2 ]
    2e64:	82 00 60 10 	add  %g1, 0x10, %g1
    2e68:	80 a3 60 07 	cmp  %o5, 7
    2e6c:	c2 27 bf e8 	st  %g1, [ %fp + -24 ]
    2e70:	da 27 bf e4 	st  %o5, [ %fp + -28 ]
    2e74:	14 80 00 25 	bg  2f08 <_vfprintf_r+0xb98>
    2e78:	a4 04 a0 08 	add  %l2, 8, %l2
    2e7c:	a0 04 3f f0 	add  %l0, -16, %l0
    2e80:	80 a4 20 10 	cmp  %l0, 0x10
    2e84:	14 bf ff f3 	bg  2e50 <_vfprintf_r+0xae0>
    2e88:	82 10 20 10 	mov  0x10, %g1
    2e8c:	e0 24 a0 04 	st  %l0, [ %l2 + 4 ]
    2e90:	c2 07 bf e8 	ld  [ %fp + -24 ], %g1
    2e94:	da 07 bf e4 	ld  [ %fp + -28 ], %o5
    2e98:	82 00 40 10 	add  %g1, %l0, %g1
    2e9c:	9a 03 60 01 	inc  %o5
    2ea0:	c2 27 bf e8 	st  %g1, [ %fp + -24 ]
    2ea4:	80 a3 60 07 	cmp  %o5, 7
    2ea8:	82 15 a2 08 	or  %l6, 0x208, %g1
    2eac:	da 27 bf e4 	st  %o5, [ %fp + -28 ]
    2eb0:	c2 24 80 00 	st  %g1, [ %l2 ]
    2eb4:	14 80 00 0d 	bg  2ee8 <_vfprintf_r+0xb78>
    2eb8:	a4 04 a0 08 	add  %l2, 8, %l2
    2ebc:	c2 07 be 0c 	ld  [ %fp + -500 ], %g1
    2ec0:	e6 24 80 00 	st  %l3, [ %l2 ]
    2ec4:	c2 24 a0 04 	st  %g1, [ %l2 + 4 ]
    2ec8:	da 07 bf e8 	ld  [ %fp + -24 ], %o5
    2ecc:	9a 03 40 01 	add  %o5, %g1, %o5
    2ed0:	c2 07 bf e4 	ld  [ %fp + -28 ], %g1
    2ed4:	da 27 bf e8 	st  %o5, [ %fp + -24 ]
    2ed8:	82 00 60 01 	inc  %g1
    2edc:	80 a0 60 07 	cmp  %g1, 7
    2ee0:	10 bf fe 61 	b  2864 <_vfprintf_r+0x4f4>
    2ee4:	c2 27 bf e4 	st  %g1, [ %fp + -28 ]
    2ee8:	92 07 bf e0 	add  %fp, -32, %o1
    2eec:	7f ff fc d2 	call  2234 <__sprint>
    2ef0:	90 10 00 19 	mov  %i1, %o0
    2ef4:	80 a2 20 00 	cmp  %o0, 0
    2ef8:	12 bf fe 97 	bne  2954 <_vfprintf_r+0x5e4>
    2efc:	a4 10 00 18 	mov  %i0, %l2
    2f00:	10 bf ff f0 	b  2ec0 <_vfprintf_r+0xb50>
    2f04:	c2 07 be 0c 	ld  [ %fp + -500 ], %g1
    2f08:	90 10 00 19 	mov  %i1, %o0
    2f0c:	7f ff fc ca 	call  2234 <__sprint>
    2f10:	92 07 bf e0 	add  %fp, -32, %o1
    2f14:	80 a2 20 00 	cmp  %o0, 0
    2f18:	12 bf fe 8f 	bne  2954 <_vfprintf_r+0x5e4>
    2f1c:	a4 10 00 18 	mov  %i0, %l2
    2f20:	10 bf ff d8 	b  2e80 <_vfprintf_r+0xb10>
    2f24:	a0 04 3f f0 	add  %l0, -16, %l0
    2f28:	92 07 bf e0 	add  %fp, -32, %o1
    2f2c:	7f ff fc c2 	call  2234 <__sprint>
    2f30:	90 10 00 19 	mov  %i1, %o0
    2f34:	80 a2 20 00 	cmp  %o0, 0
    2f38:	12 bf fe 87 	bne  2954 <_vfprintf_r+0x5e4>
    2f3c:	a4 10 00 18 	mov  %i0, %l2
    2f40:	10 bf ff bb 	b  2e2c <_vfprintf_r+0xabc>
    2f44:	c2 07 be 10 	ld  [ %fp + -496 ], %g1
    2f48:	92 07 bf e0 	add  %fp, -32, %o1
    2f4c:	7f ff fc ba 	call  2234 <__sprint>
    2f50:	90 10 00 19 	mov  %i1, %o0
    2f54:	80 a2 20 00 	cmp  %o0, 0
    2f58:	12 bf fe 7f 	bne  2954 <_vfprintf_r+0x5e4>
    2f5c:	a4 10 00 18 	mov  %i0, %l2
    2f60:	10 bf ff 9f 	b  2ddc <_vfprintf_r+0xa6c>
    2f64:	c2 07 be 10 	ld  [ %fp + -496 ], %g1
    2f68:	80 a0 60 01 	cmp  %g1, 1
    2f6c:	04 80 00 79 	ble  3150 <_vfprintf_r+0xde0>
    2f70:	80 8f 60 01 	btst  1, %i5
    2f74:	c2 0c c0 00 	ldub  [ %l3 ], %g1
    2f78:	9a 10 20 2e 	mov  0x2e, %o5
    2f7c:	c2 2f be 38 	stb  %g1, [ %fp + -456 ]
    2f80:	da 2f be 39 	stb  %o5, [ %fp + -455 ]
    2f84:	98 10 20 02 	mov  2, %o4
    2f88:	d8 24 a0 04 	st  %o4, [ %l2 + 4 ]
    2f8c:	c2 07 bf e8 	ld  [ %fp + -24 ], %g1
    2f90:	da 07 bf e4 	ld  [ %fp + -28 ], %o5
    2f94:	82 00 60 02 	add  %g1, 2, %g1
    2f98:	9a 03 60 01 	inc  %o5
    2f9c:	c2 27 bf e8 	st  %g1, [ %fp + -24 ]
    2fa0:	80 a3 60 07 	cmp  %o5, 7
    2fa4:	82 07 be 38 	add  %fp, -456, %g1
    2fa8:	da 27 bf e4 	st  %o5, [ %fp + -28 ]
    2fac:	c2 24 80 00 	st  %g1, [ %l2 ]
    2fb0:	a6 04 e0 01 	inc  %l3
    2fb4:	14 80 00 5f 	bg  3130 <_vfprintf_r+0xdc0>
    2fb8:	a4 04 a0 08 	add  %l2, 8, %l2
    2fbc:	03 00 00 26 	sethi  %hi(0x9800), %g1
    2fc0:	d0 1f bd f0 	ldd  [ %fp + -528 ], %o0
    2fc4:	40 00 17 51 	call  8d08 <__nedf2>
    2fc8:	d4 18 62 90 	ldd  [ %g1 + 0x290 ], %o2
    2fcc:	80 a2 20 00 	cmp  %o0, 0
    2fd0:	02 80 00 2e 	be  3088 <_vfprintf_r+0xd18>
    2fd4:	c2 07 be 0c 	ld  [ %fp + -500 ], %g1
    2fd8:	d8 07 be 0c 	ld  [ %fp + -500 ], %o4
    2fdc:	e6 24 80 00 	st  %l3, [ %l2 ]
    2fe0:	82 03 3f ff 	add  %o4, -1, %g1
    2fe4:	c2 24 a0 04 	st  %g1, [ %l2 + 4 ]
    2fe8:	da 07 bf e8 	ld  [ %fp + -24 ], %o5
    2fec:	c2 07 bf e4 	ld  [ %fp + -28 ], %g1
    2ff0:	9a 03 40 0c 	add  %o5, %o4, %o5
    2ff4:	82 00 60 01 	inc  %g1
    2ff8:	9a 03 7f ff 	add  %o5, -1, %o5
    2ffc:	80 a0 60 07 	cmp  %g1, 7
    3000:	da 27 bf e8 	st  %o5, [ %fp + -24 ]
    3004:	c2 27 bf e4 	st  %g1, [ %fp + -28 ]
    3008:	14 80 00 17 	bg  3064 <_vfprintf_r+0xcf4>
    300c:	a4 04 a0 08 	add  %l2, 8, %l2
    3010:	d8 07 bd ec 	ld  [ %fp + -532 ], %o4
    3014:	d8 24 a0 04 	st  %o4, [ %l2 + 4 ]
    3018:	c2 07 bf e8 	ld  [ %fp + -24 ], %g1
    301c:	da 07 bf e4 	ld  [ %fp + -28 ], %o5
    3020:	82 00 40 0c 	add  %g1, %o4, %g1
    3024:	9a 03 60 01 	inc  %o5
    3028:	c2 27 bf e8 	st  %g1, [ %fp + -24 ]
    302c:	80 a3 60 07 	cmp  %o5, 7
    3030:	82 07 bf f0 	add  %fp, -16, %g1
    3034:	da 27 bf e4 	st  %o5, [ %fp + -28 ]
    3038:	c2 24 80 00 	st  %g1, [ %l2 ]
    303c:	04 bf fe 0c 	ble  286c <_vfprintf_r+0x4fc>
    3040:	a4 04 a0 08 	add  %l2, 8, %l2
    3044:	92 07 bf e0 	add  %fp, -32, %o1
    3048:	7f ff fc 7b 	call  2234 <__sprint>
    304c:	90 10 00 19 	mov  %i1, %o0
    3050:	80 a2 20 00 	cmp  %o0, 0
    3054:	12 bf fe 40 	bne  2954 <_vfprintf_r+0x5e4>
    3058:	a4 10 00 18 	mov  %i0, %l2
    305c:	10 bf fe 05 	b  2870 <_vfprintf_r+0x500>
    3060:	80 8f 60 04 	btst  4, %i5
    3064:	92 07 bf e0 	add  %fp, -32, %o1
    3068:	90 10 00 19 	mov  %i1, %o0
    306c:	7f ff fc 72 	call  2234 <__sprint>
    3070:	a4 10 00 18 	mov  %i0, %l2
    3074:	80 a2 20 00 	cmp  %o0, 0
    3078:	02 bf ff e7 	be  3014 <_vfprintf_r+0xca4>
    307c:	d8 07 bd ec 	ld  [ %fp + -532 ], %o4
    3080:	10 bf fe 36 	b  2958 <_vfprintf_r+0x5e8>
    3084:	c2 16 60 0c 	lduh  [ %i1 + 0xc ], %g1
    3088:	a0 00 7f ff 	add  %g1, -1, %l0
    308c:	80 a4 20 00 	cmp  %l0, 0
    3090:	04 bf ff e0 	ble  3010 <_vfprintf_r+0xca0>
    3094:	80 a4 20 10 	cmp  %l0, 0x10
    3098:	04 80 00 13 	ble  30e4 <_vfprintf_r+0xd74>
    309c:	2d 00 00 26 	sethi  %hi(0x9800), %l6
    30a0:	a2 15 a2 08 	or  %l6, 0x208, %l1	! 9a08 <zeroes.1>
    30a4:	82 10 20 10 	mov  0x10, %g1
    30a8:	c2 24 a0 04 	st  %g1, [ %l2 + 4 ]
    30ac:	da 07 bf e4 	ld  [ %fp + -28 ], %o5
    30b0:	c2 07 bf e8 	ld  [ %fp + -24 ], %g1
    30b4:	9a 03 60 01 	inc  %o5
    30b8:	e2 24 80 00 	st  %l1, [ %l2 ]
    30bc:	82 00 60 10 	add  %g1, 0x10, %g1
    30c0:	80 a3 60 07 	cmp  %o5, 7
    30c4:	c2 27 bf e8 	st  %g1, [ %fp + -24 ]
    30c8:	da 27 bf e4 	st  %o5, [ %fp + -28 ]
    30cc:	14 80 00 11 	bg  3110 <_vfprintf_r+0xda0>
    30d0:	a4 04 a0 08 	add  %l2, 8, %l2
    30d4:	a0 04 3f f0 	add  %l0, -16, %l0
    30d8:	80 a4 20 10 	cmp  %l0, 0x10
    30dc:	14 bf ff f3 	bg  30a8 <_vfprintf_r+0xd38>
    30e0:	82 10 20 10 	mov  0x10, %g1
    30e4:	e0 24 a0 04 	st  %l0, [ %l2 + 4 ]
    30e8:	c2 07 bf e8 	ld  [ %fp + -24 ], %g1
    30ec:	da 07 bf e4 	ld  [ %fp + -28 ], %o5
    30f0:	82 00 40 10 	add  %g1, %l0, %g1
    30f4:	9a 03 60 01 	inc  %o5
    30f8:	c2 27 bf e8 	st  %g1, [ %fp + -24 ]
    30fc:	80 a3 60 07 	cmp  %o5, 7
    3100:	82 15 a2 08 	or  %l6, 0x208, %g1
    3104:	da 27 bf e4 	st  %o5, [ %fp + -28 ]
    3108:	10 bf ff c0 	b  3008 <_vfprintf_r+0xc98>
    310c:	c2 24 80 00 	st  %g1, [ %l2 ]
    3110:	90 10 00 19 	mov  %i1, %o0
    3114:	7f ff fc 48 	call  2234 <__sprint>
    3118:	92 07 bf e0 	add  %fp, -32, %o1
    311c:	80 a2 20 00 	cmp  %o0, 0
    3120:	12 bf fe 0d 	bne  2954 <_vfprintf_r+0x5e4>
    3124:	a4 10 00 18 	mov  %i0, %l2
    3128:	10 bf ff ec 	b  30d8 <_vfprintf_r+0xd68>
    312c:	a0 04 3f f0 	add  %l0, -16, %l0
    3130:	92 07 bf e0 	add  %fp, -32, %o1
    3134:	7f ff fc 40 	call  2234 <__sprint>
    3138:	90 10 00 19 	mov  %i1, %o0
    313c:	80 a2 20 00 	cmp  %o0, 0
    3140:	12 bf fe 05 	bne  2954 <_vfprintf_r+0x5e4>
    3144:	a4 10 00 18 	mov  %i0, %l2
    3148:	10 bf ff 9e 	b  2fc0 <_vfprintf_r+0xc50>
    314c:	03 00 00 26 	sethi  %hi(0x9800), %g1
    3150:	32 bf ff 8a 	bne,a   2f78 <_vfprintf_r+0xc08>
    3154:	c2 0c c0 00 	ldub  [ %l3 ], %g1
    3158:	82 10 20 01 	mov  1, %g1
    315c:	c2 24 a0 04 	st  %g1, [ %l2 + 4 ]
    3160:	da 07 bf e4 	ld  [ %fp + -28 ], %o5
    3164:	c2 07 bf e8 	ld  [ %fp + -24 ], %g1
    3168:	9a 03 60 01 	inc  %o5
    316c:	e6 24 80 00 	st  %l3, [ %l2 ]
    3170:	82 00 60 01 	inc  %g1
    3174:	80 a3 60 07 	cmp  %o5, 7
    3178:	c2 27 bf e8 	st  %g1, [ %fp + -24 ]
    317c:	da 27 bf e4 	st  %o5, [ %fp + -28 ]
    3180:	04 bf ff a4 	ble  3010 <_vfprintf_r+0xca0>
    3184:	a4 04 a0 08 	add  %l2, 8, %l2
    3188:	92 07 bf e0 	add  %fp, -32, %o1
    318c:	7f ff fc 2a 	call  2234 <__sprint>
    3190:	90 10 00 19 	mov  %i1, %o0
    3194:	80 a2 20 00 	cmp  %o0, 0
    3198:	12 bf fd ef 	bne  2954 <_vfprintf_r+0x5e4>
    319c:	a4 10 00 18 	mov  %i0, %l2
    31a0:	10 bf ff 9d 	b  3014 <_vfprintf_r+0xca4>
    31a4:	d8 07 bd ec 	ld  [ %fp + -532 ], %o4
    31a8:	92 07 bf e0 	add  %fp, -32, %o1
    31ac:	7f ff fc 22 	call  2234 <__sprint>
    31b0:	90 10 00 19 	mov  %i1, %o0
    31b4:	80 a2 20 00 	cmp  %o0, 0
    31b8:	12 bf fd e7 	bne  2954 <_vfprintf_r+0x5e4>
    31bc:	a4 10 00 18 	mov  %i0, %l2
    31c0:	10 bf fd 9e 	b  2838 <_vfprintf_r+0x4c8>
    31c4:	80 8f 61 00 	btst  0x100, %i5
    31c8:	90 10 00 19 	mov  %i1, %o0
    31cc:	7f ff fc 1a 	call  2234 <__sprint>
    31d0:	92 07 bf e0 	add  %fp, -32, %o1
    31d4:	80 a2 20 00 	cmp  %o0, 0
    31d8:	12 bf fd df 	bne  2954 <_vfprintf_r+0x5e4>
    31dc:	a4 10 00 18 	mov  %i0, %l2
    31e0:	10 bf fd 86 	b  27f8 <_vfprintf_r+0x488>
    31e4:	a0 04 3f f0 	add  %l0, -16, %l0
    31e8:	a0 23 40 17 	sub  %o5, %l7, %l0
    31ec:	80 a4 20 00 	cmp  %l0, 0
    31f0:	04 bf fd 6e 	ble  27a8 <_vfprintf_r+0x438>
    31f4:	80 a4 20 10 	cmp  %l0, 0x10
    31f8:	04 80 00 13 	ble  3244 <_vfprintf_r+0xed4>
    31fc:	2d 00 00 26 	sethi  %hi(0x9800), %l6
    3200:	a2 15 a2 08 	or  %l6, 0x208, %l1	! 9a08 <zeroes.1>
    3204:	82 10 20 10 	mov  0x10, %g1
    3208:	c2 24 a0 04 	st  %g1, [ %l2 + 4 ]
    320c:	da 07 bf e4 	ld  [ %fp + -28 ], %o5
    3210:	c2 07 bf e8 	ld  [ %fp + -24 ], %g1
    3214:	9a 03 60 01 	inc  %o5
    3218:	e2 24 80 00 	st  %l1, [ %l2 ]
    321c:	82 00 60 10 	add  %g1, 0x10, %g1
    3220:	80 a3 60 07 	cmp  %o5, 7
    3224:	c2 27 bf e8 	st  %g1, [ %fp + -24 ]
    3228:	da 27 bf e4 	st  %o5, [ %fp + -28 ]
    322c:	14 80 00 1a 	bg  3294 <_vfprintf_r+0xf24>
    3230:	a4 04 a0 08 	add  %l2, 8, %l2
    3234:	a0 04 3f f0 	add  %l0, -16, %l0
    3238:	80 a4 20 10 	cmp  %l0, 0x10
    323c:	14 bf ff f3 	bg  3208 <_vfprintf_r+0xe98>
    3240:	82 10 20 10 	mov  0x10, %g1
    3244:	e0 24 a0 04 	st  %l0, [ %l2 + 4 ]
    3248:	c2 07 bf e8 	ld  [ %fp + -24 ], %g1
    324c:	da 07 bf e4 	ld  [ %fp + -28 ], %o5
    3250:	82 00 40 10 	add  %g1, %l0, %g1
    3254:	9a 03 60 01 	inc  %o5
    3258:	c2 27 bf e8 	st  %g1, [ %fp + -24 ]
    325c:	80 a3 60 07 	cmp  %o5, 7
    3260:	82 15 a2 08 	or  %l6, 0x208, %g1
    3264:	da 27 bf e4 	st  %o5, [ %fp + -28 ]
    3268:	c2 24 80 00 	st  %g1, [ %l2 ]
    326c:	04 bf fd 4f 	ble  27a8 <_vfprintf_r+0x438>
    3270:	a4 04 a0 08 	add  %l2, 8, %l2
    3274:	92 07 bf e0 	add  %fp, -32, %o1
    3278:	7f ff fb ef 	call  2234 <__sprint>
    327c:	90 10 00 19 	mov  %i1, %o0
    3280:	80 a2 20 00 	cmp  %o0, 0
    3284:	12 bf fd b4 	bne  2954 <_vfprintf_r+0x5e4>
    3288:	a4 10 00 18 	mov  %i0, %l2
    328c:	10 bf fd 48 	b  27ac <_vfprintf_r+0x43c>
    3290:	a0 27 00 15 	sub  %i4, %l5, %l0
    3294:	90 10 00 19 	mov  %i1, %o0
    3298:	7f ff fb e7 	call  2234 <__sprint>
    329c:	92 07 bf e0 	add  %fp, -32, %o1
    32a0:	80 a2 20 00 	cmp  %o0, 0
    32a4:	12 bf fd ac 	bne  2954 <_vfprintf_r+0x5e4>
    32a8:	a4 10 00 18 	mov  %i0, %l2
    32ac:	10 bf ff e3 	b  3238 <_vfprintf_r+0xec8>
    32b0:	a0 04 3f f0 	add  %l0, -16, %l0
    32b4:	92 07 bf e0 	add  %fp, -32, %o1
    32b8:	90 10 00 19 	mov  %i1, %o0
    32bc:	7f ff fb de 	call  2234 <__sprint>
    32c0:	a4 10 00 18 	mov  %i0, %l2
    32c4:	80 a2 20 00 	cmp  %o0, 0
    32c8:	02 bf fd 36 	be  27a0 <_vfprintf_r+0x430>
    32cc:	80 a5 a0 80 	cmp  %l6, 0x80
    32d0:	10 bf fd a2 	b  2958 <_vfprintf_r+0x5e8>
    32d4:	c2 16 60 0c 	lduh  [ %i1 + 0xc ], %g1
    32d8:	02 bf fd 32 	be  27a0 <_vfprintf_r+0x430>
    32dc:	80 a5 a0 80 	cmp  %l6, 0x80
    32e0:	e8 2f be 39 	stb  %l4, [ %fp + -455 ]
    32e4:	82 10 20 30 	mov  0x30, %g1
    32e8:	c2 2f be 38 	stb  %g1, [ %fp + -456 ]
    32ec:	9a 10 20 02 	mov  2, %o5
    32f0:	da 24 a0 04 	st  %o5, [ %l2 + 4 ]
    32f4:	c2 07 bf e8 	ld  [ %fp + -24 ], %g1
    32f8:	da 07 bf e4 	ld  [ %fp + -28 ], %o5
    32fc:	82 00 60 02 	add  %g1, 2, %g1
    3300:	9a 03 60 01 	inc  %o5
    3304:	c2 27 bf e8 	st  %g1, [ %fp + -24 ]
    3308:	80 a3 60 07 	cmp  %o5, 7
    330c:	82 07 be 38 	add  %fp, -456, %g1
    3310:	da 27 bf e4 	st  %o5, [ %fp + -28 ]
    3314:	c2 24 80 00 	st  %g1, [ %l2 ]
    3318:	04 bf fd 21 	ble  279c <_vfprintf_r+0x42c>
    331c:	a4 04 a0 08 	add  %l2, 8, %l2
    3320:	92 07 bf e0 	add  %fp, -32, %o1
    3324:	7f ff fb c4 	call  2234 <__sprint>
    3328:	90 10 00 19 	mov  %i1, %o0
    332c:	80 a2 20 00 	cmp  %o0, 0
    3330:	12 bf fd 89 	bne  2954 <_vfprintf_r+0x5e4>
    3334:	a4 10 00 18 	mov  %i0, %l2
    3338:	10 bf fd 1a 	b  27a0 <_vfprintf_r+0x430>
    333c:	80 a5 a0 80 	cmp  %l6, 0x80
    3340:	92 07 bf e0 	add  %fp, -32, %o1
    3344:	7f ff fb bc 	call  2234 <__sprint>
    3348:	90 10 00 19 	mov  %i1, %o0
    334c:	80 a2 20 00 	cmp  %o0, 0
    3350:	12 bf fd 81 	bne  2954 <_vfprintf_r+0x5e4>
    3354:	da 0f be 0a 	ldub  [ %fp + -502 ], %o5
    3358:	10 bf fd 00 	b  2758 <_vfprintf_r+0x3e8>
    335c:	a4 10 00 18 	mov  %i0, %l2
    3360:	90 10 00 19 	mov  %i1, %o0
    3364:	7f ff fb b4 	call  2234 <__sprint>
    3368:	92 07 bf e0 	add  %fp, -32, %o1
    336c:	80 a2 20 00 	cmp  %o0, 0
    3370:	12 bf fd 79 	bne  2954 <_vfprintf_r+0x5e4>
    3374:	a4 10 00 18 	mov  %i0, %l2
    3378:	10 bf fc e7 	b  2714 <_vfprintf_r+0x3a4>
    337c:	a0 04 3f f0 	add  %l0, -16, %l0
    3380:	80 8f 60 02 	btst  2, %i5
    3384:	32 bf fc cc 	bne,a   26b4 <_vfprintf_r+0x344>
    3388:	ae 05 e0 02 	add  %l7, 2, %l7
    338c:	10 bf fc cb 	b  26b8 <_vfprintf_r+0x348>
    3390:	ac 8f 60 84 	andcc  %i5, 0x84, %l6
    3394:	da 07 bd e8 	ld  [ %fp + -536 ], %o5
    3398:	82 0c 60 0f 	and  %l1, 0xf, %g1
    339c:	d4 0b 40 01 	ldub  [ %o5 + %g1 ], %o2
    33a0:	97 2c 20 1c 	sll  %l0, 0x1c, %o3
    33a4:	83 34 60 04 	srl  %l1, 4, %g1
    33a8:	99 34 20 04 	srl  %l0, 4, %o4
    33ac:	9a 12 c0 01 	or  %o3, %g1, %o5
    33b0:	a6 04 ff ff 	add  %l3, -1, %l3
    33b4:	a0 10 00 0c 	mov  %o4, %l0
    33b8:	d4 2c c0 00 	stb  %o2, [ %l3 ]
    33bc:	80 93 00 0d 	orcc  %o4, %o5, %g0
    33c0:	12 bf ff f5 	bne  3394 <_vfprintf_r+0x1024>
    33c4:	a2 10 00 0d 	mov  %o5, %l1
    33c8:	82 27 80 13 	sub  %fp, %l3, %g1
    33cc:	10 bf fc b1 	b  2690 <_vfprintf_r+0x320>
    33d0:	aa 00 7f 9c 	add  %g1, -100, %l5
    33d4:	80 a0 60 00 	cmp  %g1, 0
    33d8:	12 bf fc aa 	bne  2680 <_vfprintf_r+0x310>
    33dc:	03 00 00 26 	sethi  %hi(0x9800), %g1
    33e0:	95 2c 20 1d 	sll  %l0, 0x1d, %o2
    33e4:	97 34 60 03 	srl  %l1, 3, %o3
    33e8:	82 0c 60 07 	and  %l1, 7, %g1
    33ec:	9a 12 80 0b 	or  %o2, %o3, %o5
    33f0:	99 34 20 03 	srl  %l0, 3, %o4
    33f4:	82 00 60 30 	add  %g1, 0x30, %g1
    33f8:	a6 04 ff ff 	add  %l3, -1, %l3
    33fc:	a0 10 00 0c 	mov  %o4, %l0
    3400:	a2 10 00 0d 	mov  %o5, %l1
    3404:	80 93 00 0d 	orcc  %o4, %o5, %g0
    3408:	12 bf ff f6 	bne  33e0 <_vfprintf_r+0x1070>
    340c:	c2 2c c0 00 	stb  %g1, [ %l3 ]
    3410:	80 8f 60 01 	btst  1, %i5
    3414:	22 bf ff ee 	be,a   33cc <_vfprintf_r+0x105c>
    3418:	82 27 80 13 	sub  %fp, %l3, %g1
    341c:	80 a0 60 30 	cmp  %g1, 0x30
    3420:	02 bf ff ea 	be  33c8 <_vfprintf_r+0x1058>
    3424:	82 10 20 30 	mov  0x30, %g1
    3428:	a6 04 ff ff 	add  %l3, -1, %l3
    342c:	10 bf ff e7 	b  33c8 <_vfprintf_r+0x1058>
    3430:	c2 2c c0 00 	stb  %g1, [ %l3 ]
    3434:	08 80 00 1c 	bleu  34a4 <_vfprintf_r+0x1134>
    3438:	80 a4 20 00 	cmp  %l0, 0
    343c:	90 10 00 10 	mov  %l0, %o0
    3440:	92 10 00 11 	mov  %l1, %o1
    3444:	94 10 20 00 	clr  %o2
    3448:	40 00 12 f7 	call  8024 <__umoddi3>
    344c:	96 10 20 0a 	mov  0xa, %o3
    3450:	9a 10 00 09 	mov  %o1, %o5
    3454:	90 10 00 10 	mov  %l0, %o0
    3458:	92 10 00 11 	mov  %l1, %o1
    345c:	82 03 60 30 	add  %o5, 0x30, %g1
    3460:	a6 04 ff ff 	add  %l3, -1, %l3
    3464:	94 10 20 00 	clr  %o2
    3468:	c2 2c c0 00 	stb  %g1, [ %l3 ]
    346c:	40 00 12 1d 	call  7ce0 <__udivdi3>
    3470:	96 10 20 0a 	mov  0xa, %o3
    3474:	a0 10 00 08 	mov  %o0, %l0
    3478:	80 a4 20 00 	cmp  %l0, 0
    347c:	18 bf ff f0 	bgu  343c <_vfprintf_r+0x10cc>
    3480:	a2 10 00 09 	mov  %o1, %l1
    3484:	80 a4 20 00 	cmp  %l0, 0
    3488:	12 80 00 04 	bne  3498 <_vfprintf_r+0x1128>
    348c:	80 a2 60 09 	cmp  %o1, 9
    3490:	18 bf ff ec 	bgu  3440 <_vfprintf_r+0x10d0>
    3494:	90 10 00 10 	mov  %l0, %o0
    3498:	82 04 60 30 	add  %l1, 0x30, %g1
    349c:	10 bf ff e4 	b  342c <_vfprintf_r+0x10bc>
    34a0:	a6 04 ff ff 	add  %l3, -1, %l3
    34a4:	12 bf ff fd 	bne  3498 <_vfprintf_r+0x1128>
    34a8:	80 a4 60 09 	cmp  %l1, 9
    34ac:	18 bf ff e5 	bgu  3440 <_vfprintf_r+0x10d0>
    34b0:	90 10 00 10 	mov  %l0, %o0
    34b4:	10 bf ff fa 	b  349c <_vfprintf_r+0x112c>
    34b8:	82 04 60 30 	add  %l1, 0x30, %g1
    34bc:	12 bf ff c4 	bne  33cc <_vfprintf_r+0x105c>
    34c0:	82 27 80 13 	sub  %fp, %l3, %g1
    34c4:	80 8f 60 01 	btst  1, %i5
    34c8:	22 bf fc 72 	be,a   2690 <_vfprintf_r+0x320>
    34cc:	aa 00 7f 9c 	add  %g1, -100, %l5
    34d0:	82 10 20 30 	mov  0x30, %g1
    34d4:	a6 07 bf 9b 	add  %fp, -101, %l3
    34d8:	10 bf ff bc 	b  33c8 <_vfprintf_r+0x1058>
    34dc:	c2 2f bf 9b 	stb  %g1, [ %fp + -101 ]
    34e0:	9a 10 20 2d 	mov  0x2d, %o5
    34e4:	a0 60 00 10 	subx  %g0, %l0, %l0
    34e8:	10 bf fc 4f 	b  2624 <_vfprintf_r+0x2b4>
    34ec:	da 2f be 0a 	stb  %o5, [ %fp + -502 ]
    34f0:	32 80 00 0b 	bne,a   351c <_vfprintf_r+0x11ac>
    34f4:	da 06 c0 00 	ld  [ %i3 ], %o5
    34f8:	80 8f 60 40 	btst  0x40, %i5
    34fc:	22 80 00 08 	be,a   351c <_vfprintf_r+0x11ac>
    3500:	da 06 c0 00 	ld  [ %i3 ], %o5
    3504:	da 16 e0 02 	lduh  [ %i3 + 2 ], %o5
    3508:	b6 06 e0 04 	add  %i3, 4, %i3
    350c:	9b 2b 60 10 	sll  %o5, 0x10, %o5
    3510:	a3 3b 60 10 	sra  %o5, 0x10, %l1
    3514:	10 bf fc 41 	b  2618 <_vfprintf_r+0x2a8>
    3518:	a1 3b 60 1f 	sra  %o5, 0x1f, %l0
    351c:	b6 06 e0 04 	add  %i3, 4, %i3
    3520:	10 bf ff fd 	b  3514 <_vfprintf_r+0x11a4>
    3524:	a2 10 00 0d 	mov  %o5, %l1
    3528:	da 0e 80 00 	ldub  [ %i2 ], %o5
    352c:	10 bf fb e1 	b  24b0 <_vfprintf_r+0x140>
    3530:	ba 17 60 08 	or  %i5, 8, %i5
    3534:	ba 17 60 10 	or  %i5, 0x10, %i5
    3538:	80 8f 60 20 	btst  0x20, %i5
    353c:	02 80 00 0a 	be  3564 <_vfprintf_r+0x11f4>
    3540:	80 8f 60 10 	btst  0x10, %i5
    3544:	da 06 e0 04 	ld  [ %i3 + 4 ], %o5
    3548:	d8 06 c0 00 	ld  [ %i3 ], %o4
    354c:	b6 06 e0 08 	add  %i3, 8, %i3
    3550:	d8 3f be 28 	std  %o4, [ %fp + -472 ]
    3554:	e0 1f be 28 	ldd  [ %fp + -472 ], %l0
    3558:	98 10 20 00 	clr  %o4
    355c:	10 bf fc 33 	b  2628 <_vfprintf_r+0x2b8>
    3560:	c0 2f be 0a 	clrb  [ %fp + -502 ]
    3564:	32 80 00 0a 	bne,a   358c <_vfprintf_r+0x121c>
    3568:	da 06 c0 00 	ld  [ %i3 ], %o5
    356c:	80 8f 60 40 	btst  0x40, %i5
    3570:	22 80 00 07 	be,a   358c <_vfprintf_r+0x121c>
    3574:	da 06 c0 00 	ld  [ %i3 ], %o5
    3578:	82 10 00 1b 	mov  %i3, %g1
    357c:	e2 10 60 02 	lduh  [ %g1 + 2 ], %l1
    3580:	b6 06 e0 04 	add  %i3, 4, %i3
    3584:	10 bf ff f5 	b  3558 <_vfprintf_r+0x11e8>
    3588:	a0 10 20 00 	clr  %l0
    358c:	a0 10 20 00 	clr  %l0
    3590:	b6 06 e0 04 	add  %i3, 4, %i3
    3594:	10 bf ff f1 	b  3558 <_vfprintf_r+0x11e8>
    3598:	a2 10 00 0d 	mov  %o5, %l1
    359c:	ba 17 60 10 	or  %i5, 0x10, %i5
    35a0:	80 8f 60 20 	btst  0x20, %i5
    35a4:	02 80 00 09 	be  35c8 <_vfprintf_r+0x1258>
    35a8:	80 8f 60 10 	btst  0x10, %i5
    35ac:	da 06 e0 04 	ld  [ %i3 + 4 ], %o5
    35b0:	d8 06 c0 00 	ld  [ %i3 ], %o4
    35b4:	b6 06 e0 08 	add  %i3, 8, %i3
    35b8:	d8 3f be 28 	std  %o4, [ %fp + -472 ]
    35bc:	e0 1f be 28 	ldd  [ %fp + -472 ], %l0
    35c0:	10 bf ff e7 	b  355c <_vfprintf_r+0x11ec>
    35c4:	98 10 20 01 	mov  1, %o4
    35c8:	32 80 00 0a 	bne,a   35f0 <_vfprintf_r+0x1280>
    35cc:	da 06 c0 00 	ld  [ %i3 ], %o5
    35d0:	80 8f 60 40 	btst  0x40, %i5
    35d4:	22 80 00 07 	be,a   35f0 <_vfprintf_r+0x1280>
    35d8:	da 06 c0 00 	ld  [ %i3 ], %o5
    35dc:	82 10 00 1b 	mov  %i3, %g1
    35e0:	e2 10 60 02 	lduh  [ %g1 + 2 ], %l1
    35e4:	b6 06 e0 04 	add  %i3, 4, %i3
    35e8:	10 bf ff f6 	b  35c0 <_vfprintf_r+0x1250>
    35ec:	a0 10 20 00 	clr  %l0
    35f0:	a0 10 20 00 	clr  %l0
    35f4:	b6 06 e0 04 	add  %i3, 4, %i3
    35f8:	10 bf ff f2 	b  35c0 <_vfprintf_r+0x1250>
    35fc:	a2 10 00 0d 	mov  %o5, %l1
    3600:	03 00 00 26 	sethi  %hi(0x9800), %g1
    3604:	82 10 62 48 	or  %g1, 0x248, %g1	! 9a48 <zeroes.1+0x40>
    3608:	80 8f 60 20 	btst  0x20, %i5
    360c:	02 80 00 12 	be  3654 <_vfprintf_r+0x12e4>
    3610:	c2 27 bd e8 	st  %g1, [ %fp + -536 ]
    3614:	da 06 e0 04 	ld  [ %i3 + 4 ], %o5
    3618:	d8 06 c0 00 	ld  [ %i3 ], %o4
    361c:	b6 06 e0 08 	add  %i3, 8, %i3
    3620:	d8 3f be 28 	std  %o4, [ %fp + -472 ]
    3624:	e0 1f be 28 	ldd  [ %fp + -472 ], %l0
    3628:	80 94 00 11 	orcc  %l0, %l1, %g0
    362c:	98 10 20 02 	mov  2, %o4
    3630:	82 0f 60 01 	and  %i5, 1, %g1
    3634:	02 80 00 03 	be  3640 <_vfprintf_r+0x12d0>
    3638:	9a 10 20 00 	clr  %o5
    363c:	9a 10 20 01 	mov  1, %o5
    3640:	80 88 40 0d 	btst  %g1, %o5
    3644:	32 bf ff c6 	bne,a   355c <_vfprintf_r+0x11ec>
    3648:	ba 17 60 02 	or  %i5, 2, %i5
    364c:	10 bf fb f7 	b  2628 <_vfprintf_r+0x2b8>
    3650:	c0 2f be 0a 	clrb  [ %fp + -502 ]
    3654:	80 8f 60 10 	btst  0x10, %i5
    3658:	32 80 00 0a 	bne,a   3680 <_vfprintf_r+0x1310>
    365c:	da 06 c0 00 	ld  [ %i3 ], %o5
    3660:	80 8f 60 40 	btst  0x40, %i5
    3664:	22 80 00 07 	be,a   3680 <_vfprintf_r+0x1310>
    3668:	da 06 c0 00 	ld  [ %i3 ], %o5
    366c:	82 10 00 1b 	mov  %i3, %g1
    3670:	e2 10 60 02 	lduh  [ %g1 + 2 ], %l1
    3674:	b6 06 e0 04 	add  %i3, 4, %i3
    3678:	10 bf ff ec 	b  3628 <_vfprintf_r+0x12b8>
    367c:	a0 10 20 00 	clr  %l0
    3680:	a0 10 20 00 	clr  %l0
    3684:	b6 06 e0 04 	add  %i3, 4, %i3
    3688:	10 bf ff e8 	b  3628 <_vfprintf_r+0x12b8>
    368c:	a2 10 00 0d 	mov  %o5, %l1
    3690:	da 0e e0 03 	ldub  [ %i3 + 3 ], %o5
    3694:	a6 07 be 40 	add  %fp, -448, %l3
    3698:	c0 2f be 0a 	clrb  [ %fp + -502 ]
    369c:	da 2f be 40 	stb  %o5, [ %fp + -448 ]
    36a0:	b6 06 e0 04 	add  %i3, 4, %i3
    36a4:	10 bf fb fb 	b  2690 <_vfprintf_r+0x320>
    36a8:	aa 10 20 01 	mov  1, %l5
    36ac:	80 a5 bf ff 	cmp  %l6, -1
    36b0:	02 80 00 8a 	be  38d8 <_vfprintf_r+0x1568>
    36b4:	82 1d 20 67 	xor  %l4, 0x67, %g1
    36b8:	80 a0 00 01 	cmp  %g0, %g1
    36bc:	82 1d 20 47 	xor  %l4, 0x47, %g1
    36c0:	98 60 3f ff 	subx  %g0, -1, %o4
    36c4:	80 a0 00 01 	cmp  %g0, %g1
    36c8:	9a 60 3f ff 	subx  %g0, -1, %o5
    36cc:	80 93 00 0d 	orcc  %o4, %o5, %g0
    36d0:	02 80 00 06 	be  36e8 <_vfprintf_r+0x1378>
    36d4:	80 8f 60 08 	btst  8, %i5
    36d8:	80 a5 a0 00 	cmp  %l6, 0
    36dc:	22 80 00 02 	be,a   36e4 <_vfprintf_r+0x1374>
    36e0:	ac 10 20 01 	mov  1, %l6
    36e4:	80 8f 60 08 	btst  8, %i5
    36e8:	02 80 00 78 	be  38c8 <_vfprintf_r+0x1558>
    36ec:	da 06 e0 04 	ld  [ %i3 + 4 ], %o5
    36f0:	d8 06 c0 00 	ld  [ %i3 ], %o4
    36f4:	d8 3f be 20 	std  %o4, [ %fp + -480 ]
    36f8:	d8 1f be 20 	ldd  [ %fp + -480 ], %o4
    36fc:	d8 3f bd f0 	std  %o4, [ %fp + -528 ]
    3700:	d0 1f bd f0 	ldd  [ %fp + -528 ], %o0
    3704:	40 00 0e ce 	call  723c <isinf>
    3708:	b6 06 e0 08 	add  %i3, 8, %i3
    370c:	80 a2 20 00 	cmp  %o0, 0
    3710:	02 80 00 0e 	be  3748 <_vfprintf_r+0x13d8>
    3714:	1b 00 00 26 	sethi  %hi(0x9800), %o5
    3718:	d0 1f bd f0 	ldd  [ %fp + -528 ], %o0
    371c:	40 00 15 c6 	call  8e34 <__ltdf2>
    3720:	d4 1b 62 90 	ldd  [ %o5 + 0x290 ], %o2
    3724:	80 a2 20 00 	cmp  %o0, 0
    3728:	06 80 00 06 	bl  3740 <_vfprintf_r+0x13d0>
    372c:	9a 10 20 2d 	mov  0x2d, %o5
    3730:	03 00 00 26 	sethi  %hi(0x9800), %g1
    3734:	aa 10 20 03 	mov  3, %l5
    3738:	10 bf fb d6 	b  2690 <_vfprintf_r+0x320>
    373c:	a6 10 62 60 	or  %g1, 0x260, %l3
    3740:	10 bf ff fc 	b  3730 <_vfprintf_r+0x13c0>
    3744:	da 2f be 0a 	stb  %o5, [ %fp + -502 ]
    3748:	d0 1f bd f0 	ldd  [ %fp + -528 ], %o0
    374c:	40 00 0e ca 	call  7274 <isnan>
    3750:	aa 10 20 03 	mov  3, %l5
    3754:	03 00 00 26 	sethi  %hi(0x9800), %g1
    3758:	80 a2 20 00 	cmp  %o0, 0
    375c:	12 bf fb cd 	bne  2690 <_vfprintf_r+0x320>
    3760:	a6 10 62 68 	or  %g1, 0x268, %l3
    3764:	9a 07 be 0c 	add  %fp, -500, %o5
    3768:	d0 07 a0 44 	ld  [ %fp + 0x44 ], %o0
    376c:	da 23 a0 64 	st  %o5, [ %sp + 0x64 ]
    3770:	d8 1f bd f0 	ldd  [ %fp + -528 ], %o4
    3774:	82 07 be 10 	add  %fp, -496, %g1
    3778:	92 10 00 0c 	mov  %o4, %o1
    377c:	c2 23 a0 5c 	st  %g1, [ %sp + 0x5c ]
    3780:	94 10 00 0d 	mov  %o5, %o2
    3784:	96 10 00 16 	mov  %l6, %o3
    3788:	9a 07 be 0b 	add  %fp, -501, %o5
    378c:	e8 23 a0 60 	st  %l4, [ %sp + 0x60 ]
    3790:	ba 17 61 00 	or  %i5, 0x100, %i5
    3794:	40 00 00 c1 	call  3a98 <cvt>
    3798:	98 10 00 1d 	mov  %i5, %o4
    379c:	96 1d 20 67 	xor  %l4, 0x67, %o3
    37a0:	80 a0 00 0b 	cmp  %g0, %o3
    37a4:	82 1d 20 47 	xor  %l4, 0x47, %g1
    37a8:	98 60 3f ff 	subx  %g0, -1, %o4
    37ac:	80 a0 00 01 	cmp  %g0, %g1
    37b0:	9a 60 3f ff 	subx  %g0, -1, %o5
    37b4:	80 93 00 0d 	orcc  %o4, %o5, %g0
    37b8:	02 80 00 42 	be  38c0 <_vfprintf_r+0x1550>
    37bc:	a6 10 00 08 	mov  %o0, %l3
    37c0:	d2 07 be 10 	ld  [ %fp + -496 ], %o1
    37c4:	80 a2 7f fc 	cmp  %o1, -4
    37c8:	04 80 00 06 	ble  37e0 <_vfprintf_r+0x1470>
    37cc:	80 a0 00 0b 	cmp  %g0, %o3
    37d0:	80 a2 40 16 	cmp  %o1, %l6
    37d4:	04 80 00 0b 	ble  3800 <_vfprintf_r+0x1490>
    37d8:	a8 10 20 67 	mov  0x67, %l4
    37dc:	80 a0 00 0b 	cmp  %g0, %o3
    37e0:	82 60 20 00 	subx  %g0, 0, %g1
    37e4:	82 08 7f e0 	and  %g1, -32, %g1
    37e8:	a8 00 60 65 	add  %g1, 0x65, %l4
    37ec:	80 a5 20 65 	cmp  %l4, 0x65
    37f0:	04 80 00 23 	ble  387c <_vfprintf_r+0x150c>
    37f4:	80 a5 20 66 	cmp  %l4, 0x66
    37f8:	02 80 00 16 	be  3850 <_vfprintf_r+0x14e0>
    37fc:	80 a2 60 00 	cmp  %o1, 0
    3800:	da 07 be 0c 	ld  [ %fp + -500 ], %o5
    3804:	80 a2 40 0d 	cmp  %o1, %o5
    3808:	06 80 00 0d 	bl  383c <_vfprintf_r+0x14cc>
    380c:	82 23 40 09 	sub  %o5, %o1, %g1
    3810:	80 8f 60 01 	btst  1, %i5
    3814:	02 80 00 03 	be  3820 <_vfprintf_r+0x14b0>
    3818:	aa 10 00 09 	mov  %o1, %l5
    381c:	aa 02 60 01 	add  %o1, 1, %l5
    3820:	c2 4f be 0b 	ldsb  [ %fp + -501 ], %g1
    3824:	80 a0 60 00 	cmp  %g1, 0
    3828:	02 bf fb 9b 	be  2694 <_vfprintf_r+0x324>
    382c:	80 a5 40 1c 	cmp  %l5, %i4
    3830:	9a 10 20 2d 	mov  0x2d, %o5
    3834:	10 bf fb 98 	b  2694 <_vfprintf_r+0x324>
    3838:	da 2f be 0a 	stb  %o5, [ %fp + -502 ]
    383c:	80 a2 60 00 	cmp  %o1, 0
    3840:	04 bf ff f8 	ble  3820 <_vfprintf_r+0x14b0>
    3844:	aa 00 60 02 	add  %g1, 2, %l5
    3848:	10 bf ff f6 	b  3820 <_vfprintf_r+0x14b0>
    384c:	aa 03 60 01 	add  %o5, 1, %l5
    3850:	04 bf ff f4 	ble  3820 <_vfprintf_r+0x14b0>
    3854:	aa 05 a0 02 	add  %l6, 2, %l5
    3858:	80 a5 a0 00 	cmp  %l6, 0
    385c:	12 80 00 05 	bne  3870 <_vfprintf_r+0x1500>
    3860:	aa 10 00 09 	mov  %o1, %l5
    3864:	80 8f 60 01 	btst  1, %i5
    3868:	02 bf ff ef 	be  3824 <_vfprintf_r+0x14b4>
    386c:	c2 4f be 0b 	ldsb  [ %fp + -501 ], %g1
    3870:	82 02 40 16 	add  %o1, %l6, %g1
    3874:	10 bf ff eb 	b  3820 <_vfprintf_r+0x14b0>
    3878:	aa 00 60 01 	add  %g1, 1, %l5
    387c:	92 02 7f ff 	add  %o1, -1, %o1
    3880:	90 07 bf f0 	add  %fp, -16, %o0
    3884:	d2 27 be 10 	st  %o1, [ %fp + -496 ]
    3888:	40 00 00 e6 	call  3c20 <exponent>
    388c:	94 10 00 14 	mov  %l4, %o2
    3890:	c2 07 be 0c 	ld  [ %fp + -500 ], %g1
    3894:	d0 27 bd ec 	st  %o0, [ %fp + -532 ]
    3898:	80 a0 60 01 	cmp  %g1, 1
    389c:	04 80 00 04 	ble  38ac <_vfprintf_r+0x153c>
    38a0:	aa 02 00 01 	add  %o0, %g1, %l5
    38a4:	10 bf ff df 	b  3820 <_vfprintf_r+0x14b0>
    38a8:	aa 05 60 01 	inc  %l5
    38ac:	80 8f 60 01 	btst  1, %i5
    38b0:	02 bf ff dd 	be  3824 <_vfprintf_r+0x14b4>
    38b4:	c2 4f be 0b 	ldsb  [ %fp + -501 ], %g1
    38b8:	10 bf ff db 	b  3824 <_vfprintf_r+0x14b4>
    38bc:	aa 05 60 01 	inc  %l5
    38c0:	10 bf ff cb 	b  37ec <_vfprintf_r+0x147c>
    38c4:	d2 07 be 10 	ld  [ %fp + -496 ], %o1
    38c8:	d8 06 c0 00 	ld  [ %i3 ], %o4
    38cc:	d8 3f be 18 	std  %o4, [ %fp + -488 ]
    38d0:	10 bf ff 8b 	b  36fc <_vfprintf_r+0x138c>
    38d4:	d8 1f be 18 	ldd  [ %fp + -488 ], %o4
    38d8:	10 bf ff 83 	b  36e4 <_vfprintf_r+0x1374>
    38dc:	ac 10 20 06 	mov  6, %l6
    38e0:	da 0e 80 00 	ldub  [ %i2 ], %o5
    38e4:	10 bf fa f3 	b  24b0 <_vfprintf_r+0x140>
    38e8:	ba 17 60 40 	or  %i5, 0x40, %i5
    38ec:	c2 4e 80 00 	ldsb  [ %i2 ], %g1
    38f0:	80 a0 60 6c 	cmp  %g1, 0x6c
    38f4:	02 80 00 04 	be  3904 <_vfprintf_r+0x1594>
    38f8:	da 0e 80 00 	ldub  [ %i2 ], %o5
    38fc:	10 bf fa ed 	b  24b0 <_vfprintf_r+0x140>
    3900:	ba 17 60 10 	or  %i5, 0x10, %i5
    3904:	b4 06 a0 01 	inc  %i2
    3908:	da 0e 80 00 	ldub  [ %i2 ], %o5
    390c:	10 bf fa e9 	b  24b0 <_vfprintf_r+0x140>
    3910:	ba 17 60 20 	or  %i5, 0x20, %i5
    3914:	80 8f 60 20 	btst  0x20, %i5
    3918:	02 80 00 07 	be  3934 <_vfprintf_r+0x15c4>
    391c:	80 8f 60 10 	btst  0x10, %i5
    3920:	da 06 c0 00 	ld  [ %i3 ], %o5
    3924:	c2 07 be 04 	ld  [ %fp + -508 ], %g1
    3928:	b6 06 e0 04 	add  %i3, 4, %i3
    392c:	10 bf fa b7 	b  2408 <_vfprintf_r+0x98>
    3930:	c2 23 40 00 	st  %g1, [ %o5 ]
    3934:	12 80 00 09 	bne  3958 <_vfprintf_r+0x15e8>
    3938:	da 06 c0 00 	ld  [ %i3 ], %o5
    393c:	80 8f 60 40 	btst  0x40, %i5
    3940:	02 80 00 06 	be  3958 <_vfprintf_r+0x15e8>
    3944:	01 00 00 00 	nop 
    3948:	c2 07 be 04 	ld  [ %fp + -508 ], %g1
    394c:	b6 06 e0 04 	add  %i3, 4, %i3
    3950:	10 bf fa ae 	b  2408 <_vfprintf_r+0x98>
    3954:	c2 33 40 00 	sth  %g1, [ %o5 ]
    3958:	d8 07 be 04 	ld  [ %fp + -508 ], %o4
    395c:	b6 06 e0 04 	add  %i3, 4, %i3
    3960:	10 bf fa aa 	b  2408 <_vfprintf_r+0x98>
    3964:	d8 23 40 00 	st  %o4, [ %o5 ]
    3968:	da 06 c0 00 	ld  [ %i3 ], %o5
    396c:	03 00 00 26 	sethi  %hi(0x9800), %g1
    3970:	a0 10 20 00 	clr  %l0
    3974:	82 10 62 70 	or  %g1, 0x270, %g1
    3978:	a2 10 00 0d 	mov  %o5, %l1
    397c:	c2 27 bd e8 	st  %g1, [ %fp + -536 ]
    3980:	b6 06 e0 04 	add  %i3, 4, %i3
    3984:	98 10 20 02 	mov  2, %o4
    3988:	ba 17 60 02 	or  %i5, 2, %i5
    398c:	10 bf fe f4 	b  355c <_vfprintf_r+0x11ec>
    3990:	a8 10 20 78 	mov  0x78, %l4
    3994:	e6 06 c0 00 	ld  [ %i3 ], %l3
    3998:	80 a4 e0 00 	cmp  %l3, 0
    399c:	02 80 00 16 	be  39f4 <_vfprintf_r+0x1684>
    39a0:	b6 06 e0 04 	add  %i3, 4, %i3
    39a4:	80 a5 a0 00 	cmp  %l6, 0
    39a8:	06 80 00 0f 	bl  39e4 <_vfprintf_r+0x1674>
    39ac:	90 10 00 13 	mov  %l3, %o0
    39b0:	92 10 20 00 	clr  %o1
    39b4:	94 10 00 16 	mov  %l6, %o2
    39b8:	40 00 09 b0 	call  6078 <memchr>
    39bc:	aa 10 00 16 	mov  %l6, %l5
    39c0:	80 a2 20 00 	cmp  %o0, 0
    39c4:	22 bf fb 33 	be,a   2690 <_vfprintf_r+0x320>
    39c8:	c0 2f be 0a 	clrb  [ %fp + -502 ]
    39cc:	aa 22 00 13 	sub  %o0, %l3, %l5
    39d0:	80 a5 40 16 	cmp  %l5, %l6
    39d4:	34 80 00 02 	bg,a   39dc <_vfprintf_r+0x166c>
    39d8:	aa 10 00 16 	mov  %l6, %l5
    39dc:	10 bf fb 2d 	b  2690 <_vfprintf_r+0x320>
    39e0:	c0 2f be 0a 	clrb  [ %fp + -502 ]
    39e4:	40 00 0e a6 	call  747c <strlen>
    39e8:	90 10 00 13 	mov  %l3, %o0
    39ec:	10 bf ff fc 	b  39dc <_vfprintf_r+0x166c>
    39f0:	aa 10 00 08 	mov  %o0, %l5
    39f4:	03 00 00 26 	sethi  %hi(0x9800), %g1
    39f8:	10 bf ff eb 	b  39a4 <_vfprintf_r+0x1634>
    39fc:	a6 10 62 88 	or  %g1, 0x288, %l3	! 9a88 <zeroes.1+0x80>
    3a00:	80 a5 20 00 	cmp  %l4, 0
    3a04:	02 80 00 05 	be  3a18 <_vfprintf_r+0x16a8>
    3a08:	a6 07 be 40 	add  %fp, -448, %l3
    3a0c:	e8 2f be 40 	stb  %l4, [ %fp + -448 ]
    3a10:	10 bf ff 25 	b  36a4 <_vfprintf_r+0x1334>
    3a14:	c0 2f be 0a 	clrb  [ %fp + -502 ]
    3a18:	c2 07 bf e8 	ld  [ %fp + -24 ], %g1
    3a1c:	80 a0 60 00 	cmp  %g1, 0
    3a20:	12 80 00 04 	bne  3a30 <_vfprintf_r+0x16c0>
    3a24:	92 07 bf e0 	add  %fp, -32, %o1
    3a28:	10 bf fb cb 	b  2954 <_vfprintf_r+0x5e4>
    3a2c:	c0 27 bf e4 	clr  [ %fp + -28 ]
    3a30:	7f ff fa 01 	call  2234 <__sprint>
    3a34:	90 10 00 19 	mov  %i1, %o0
    3a38:	80 a2 20 00 	cmp  %o0, 0
    3a3c:	22 bf fb c6 	be,a   2954 <_vfprintf_r+0x5e4>
    3a40:	c0 27 bf e4 	clr  [ %fp + -28 ]
    3a44:	10 bf fb c5 	b  2958 <_vfprintf_r+0x5e8>
    3a48:	c2 16 60 0c 	lduh  [ %i1 + 0xc ], %g1
    3a4c:	03 00 00 26 	sethi  %hi(0x9800), %g1
    3a50:	10 bf fe ee 	b  3608 <_vfprintf_r+0x1298>
    3a54:	82 10 62 70 	or  %g1, 0x270, %g1	! 9a70 <zeroes.1+0x68>
    3a58:	92 07 bf e0 	add  %fp, -32, %o1
    3a5c:	7f ff f9 f6 	call  2234 <__sprint>
    3a60:	90 10 00 19 	mov  %i1, %o0
    3a64:	80 a2 20 00 	cmp  %o0, 0
    3a68:	12 bf fb bb 	bne  2954 <_vfprintf_r+0x5e4>
    3a6c:	a4 10 00 18 	mov  %i0, %l2
    3a70:	10 bf fa 85 	b  2484 <_vfprintf_r+0x114>
    3a74:	da 07 be 04 	ld  [ %fp + -508 ], %o5
    3a78:	80 a0 60 00 	cmp  %g1, 0
    3a7c:	06 bf fa 5d 	bl  23f0 <_vfprintf_r+0x80>
    3a80:	90 10 00 19 	mov  %i1, %o0
    3a84:	92 10 00 1a 	mov  %i2, %o1
    3a88:	7f ff f9 f9 	call  226c <__sbprintf>
    3a8c:	94 10 00 1b 	mov  %i3, %o2
    3a90:	81 c7 e0 08 	ret 
    3a94:	91 e8 00 08 	restore  %g0, %o0, %o0

00003a98 <cvt>:
    3a98:	9d e3 bf 88 	save  %sp, -120, %sp
    3a9c:	e4 07 a0 60 	ld  [ %fp + 0x60 ], %l2
    3aa0:	a0 10 00 19 	mov  %i1, %l0
    3aa4:	a2 10 00 1a 	mov  %i2, %l1
    3aa8:	80 a4 a0 66 	cmp  %l2, 0x66
    3aac:	f2 07 a0 5c 	ld  [ %fp + 0x5c ], %i1
    3ab0:	02 80 00 0b 	be  3adc <cvt+0x44>
    3ab4:	b4 10 20 03 	mov  3, %i2
    3ab8:	82 1c a0 65 	xor  %l2, 0x65, %g1
    3abc:	80 a0 00 01 	cmp  %g0, %g1
    3ac0:	b4 10 20 02 	mov  2, %i2
    3ac4:	98 60 3f ff 	subx  %g0, -1, %o4
    3ac8:	82 1c a0 45 	xor  %l2, 0x45, %g1
    3acc:	80 a0 00 01 	cmp  %g0, %g1
    3ad0:	9a 60 3f ff 	subx  %g0, -1, %o5
    3ad4:	98 13 00 0d 	or  %o4, %o5, %o4
    3ad8:	b6 06 c0 0c 	add  %i3, %o4, %i3
    3adc:	80 a4 20 00 	cmp  %l0, 0
    3ae0:	06 80 00 44 	bl  3bf0 <cvt+0x158>
    3ae4:	90 10 00 10 	mov  %l0, %o0
    3ae8:	c0 2f 40 00 	clrb  [ %i5 ]
    3aec:	82 07 bf f4 	add  %fp, -12, %g1
    3af0:	9a 07 bf f0 	add  %fp, -16, %o5
    3af4:	90 10 00 18 	mov  %i0, %o0
    3af8:	c2 23 a0 5c 	st  %g1, [ %sp + 0x5c ]
    3afc:	da 23 a0 60 	st  %o5, [ %sp + 0x60 ]
    3b00:	98 10 00 1b 	mov  %i3, %o4
    3b04:	9a 10 00 19 	mov  %i1, %o5
    3b08:	96 10 00 1a 	mov  %i2, %o3
    3b0c:	92 10 00 10 	mov  %l0, %o1
    3b10:	40 00 01 4d 	call  4044 <_dtoa_r>
    3b14:	94 10 00 11 	mov  %l1, %o2
    3b18:	82 1c a0 67 	xor  %l2, 0x67, %g1
    3b1c:	80 a0 00 01 	cmp  %g0, %g1
    3b20:	82 1c a0 47 	xor  %l2, 0x47, %g1
    3b24:	98 40 20 00 	addx  %g0, 0, %o4
    3b28:	80 a0 00 01 	cmp  %g0, %g1
    3b2c:	9a 40 20 00 	addx  %g0, 0, %o5
    3b30:	80 8b 00 0d 	btst  %o4, %o5
    3b34:	12 80 00 05 	bne  3b48 <cvt+0xb0>
    3b38:	b0 10 00 08 	mov  %o0, %i0
    3b3c:	80 8f 20 01 	btst  1, %i4
    3b40:	02 80 00 33 	be  3c0c <cvt+0x174>
    3b44:	da 07 bf f0 	ld  [ %fp + -16 ], %o5
    3b48:	80 a4 a0 66 	cmp  %l2, 0x66
    3b4c:	02 80 00 17 	be  3ba8 <cvt+0x110>
    3b50:	ba 06 00 1b 	add  %i0, %i3, %i5
    3b54:	03 00 00 26 	sethi  %hi(0x9800), %g1
    3b58:	d4 18 62 90 	ldd  [ %g1 + 0x290 ], %o2	! 9a90 <zeroes.1+0x88>
    3b5c:	90 10 00 10 	mov  %l0, %o0
    3b60:	40 00 14 51 	call  8ca4 <__eqdf2>
    3b64:	92 10 00 11 	mov  %l1, %o1
    3b68:	80 a2 20 00 	cmp  %o0, 0
    3b6c:	22 80 00 02 	be,a   3b74 <cvt+0xdc>
    3b70:	fa 27 bf f0 	st  %i5, [ %fp + -16 ]
    3b74:	da 07 bf f0 	ld  [ %fp + -16 ], %o5
    3b78:	80 a3 40 1d 	cmp  %o5, %i5
    3b7c:	1a 80 00 24 	bcc  3c0c <cvt+0x174>
    3b80:	82 10 00 0d 	mov  %o5, %g1
    3b84:	98 10 20 30 	mov  0x30, %o4
    3b88:	d8 28 40 00 	stb  %o4, [ %g1 ]
    3b8c:	9a 00 60 01 	add  %g1, 1, %o5
    3b90:	da 27 bf f0 	st  %o5, [ %fp + -16 ]
    3b94:	80 a3 40 1d 	cmp  %o5, %i5
    3b98:	0a bf ff fc 	bcs  3b88 <cvt+0xf0>
    3b9c:	82 10 00 0d 	mov  %o5, %g1
    3ba0:	10 80 00 1c 	b  3c10 <cvt+0x178>
    3ba4:	c2 07 a0 64 	ld  [ %fp + 0x64 ], %g1
    3ba8:	c2 4e 00 00 	ldsb  [ %i0 ], %g1
    3bac:	80 a0 60 30 	cmp  %g1, 0x30
    3bb0:	02 80 00 05 	be  3bc4 <cvt+0x12c>
    3bb4:	03 00 00 26 	sethi  %hi(0x9800), %g1
    3bb8:	c2 06 40 00 	ld  [ %i1 ], %g1
    3bbc:	10 bf ff e6 	b  3b54 <cvt+0xbc>
    3bc0:	ba 07 40 01 	add  %i5, %g1, %i5
    3bc4:	d4 18 62 90 	ldd  [ %g1 + 0x290 ], %o2
    3bc8:	90 10 00 10 	mov  %l0, %o0
    3bcc:	40 00 14 4f 	call  8d08 <__nedf2>
    3bd0:	92 10 00 11 	mov  %l1, %o1
    3bd4:	80 a2 20 00 	cmp  %o0, 0
    3bd8:	22 bf ff f9 	be,a   3bbc <cvt+0x124>
    3bdc:	c2 06 40 00 	ld  [ %i1 ], %g1
    3be0:	82 10 20 01 	mov  1, %g1
    3be4:	82 20 40 1b 	sub  %g1, %i3, %g1
    3be8:	10 bf ff f4 	b  3bb8 <cvt+0x120>
    3bec:	c2 26 40 00 	st  %g1, [ %i1 ]
    3bf0:	40 00 15 0a 	call  9018 <__negdf2>
    3bf4:	92 10 00 11 	mov  %l1, %o1
    3bf8:	82 10 20 2d 	mov  0x2d, %g1
    3bfc:	a0 10 00 08 	mov  %o0, %l0
    3c00:	a2 10 00 09 	mov  %o1, %l1
    3c04:	10 bf ff ba 	b  3aec <cvt+0x54>
    3c08:	c2 2f 40 00 	stb  %g1, [ %i5 ]
    3c0c:	c2 07 a0 64 	ld  [ %fp + 0x64 ], %g1
    3c10:	9a 23 40 18 	sub  %o5, %i0, %o5
    3c14:	da 20 40 00 	st  %o5, [ %g1 ]
    3c18:	81 c7 e0 08 	ret 
    3c1c:	81 e8 00 00 	restore 

00003c20 <exponent>:
    3c20:	9d e3 bf 70 	save  %sp, -144, %sp
    3c24:	a0 10 00 18 	mov  %i0, %l0
    3c28:	80 a6 60 00 	cmp  %i1, 0
    3c2c:	06 80 00 2a 	bl  3cd4 <exponent+0xb4>
    3c30:	f4 2e 00 00 	stb  %i2, [ %i0 ]
    3c34:	82 10 20 2b 	mov  0x2b, %g1
    3c38:	c2 2e 20 01 	stb  %g1, [ %i0 + 1 ]
    3c3c:	b4 07 bf f8 	add  %fp, -8, %i2
    3c40:	b0 04 20 02 	add  %l0, 2, %i0
    3c44:	80 a6 60 09 	cmp  %i1, 9
    3c48:	04 80 00 1c 	ble  3cb8 <exponent+0x98>
    3c4c:	a2 10 00 1a 	mov  %i2, %l1
    3c50:	90 10 00 19 	mov  %i1, %o0
    3c54:	40 00 0f 79 	call  7a38 <.rem>
    3c58:	92 10 20 0a 	mov  0xa, %o1
    3c5c:	82 10 00 08 	mov  %o0, %g1
    3c60:	82 00 60 30 	add  %g1, 0x30, %g1
    3c64:	90 10 00 19 	mov  %i1, %o0
    3c68:	b4 06 bf ff 	add  %i2, -1, %i2
    3c6c:	92 10 20 0a 	mov  0xa, %o1
    3c70:	40 00 0e c6 	call  7788 <.div>
    3c74:	c2 2e 80 00 	stb  %g1, [ %i2 ]
    3c78:	80 a2 20 09 	cmp  %o0, 9
    3c7c:	14 bf ff f5 	bg  3c50 <exponent+0x30>
    3c80:	b2 10 00 08 	mov  %o0, %i1
    3c84:	b4 06 bf ff 	add  %i2, -1, %i2
    3c88:	82 02 20 30 	add  %o0, 0x30, %g1
    3c8c:	80 a6 80 11 	cmp  %i2, %l1
    3c90:	1a 80 00 14 	bcc  3ce0 <exponent+0xc0>
    3c94:	c2 2e 80 00 	stb  %g1, [ %i2 ]
    3c98:	c2 0e 80 00 	ldub  [ %i2 ], %g1
    3c9c:	b4 06 a0 01 	inc  %i2
    3ca0:	c2 2e 00 00 	stb  %g1, [ %i0 ]
    3ca4:	80 a6 80 11 	cmp  %i2, %l1
    3ca8:	0a bf ff fc 	bcs  3c98 <exponent+0x78>
    3cac:	b0 06 20 01 	inc  %i0
    3cb0:	10 80 00 0d 	b  3ce4 <exponent+0xc4>
    3cb4:	b0 26 00 10 	sub  %i0, %l0, %i0
    3cb8:	82 10 20 30 	mov  0x30, %g1
    3cbc:	c2 2e 00 00 	stb  %g1, [ %i0 ]
    3cc0:	9a 06 60 30 	add  %i1, 0x30, %o5
    3cc4:	b0 06 20 01 	inc  %i0
    3cc8:	da 2e 00 00 	stb  %o5, [ %i0 ]
    3ccc:	10 80 00 05 	b  3ce0 <exponent+0xc0>
    3cd0:	b0 06 20 01 	inc  %i0
    3cd4:	82 10 20 2d 	mov  0x2d, %g1
    3cd8:	10 bf ff d8 	b  3c38 <exponent+0x18>
    3cdc:	b2 20 00 19 	neg  %i1
    3ce0:	b0 26 00 10 	sub  %i0, %l0, %i0
    3ce4:	81 c7 e0 08 	ret 
    3ce8:	81 e8 00 00 	restore 

00003cec <__swsetup>:
    3cec:	9d e3 bf 98 	save  %sp, -104, %sp
    3cf0:	d0 06 20 54 	ld  [ %i0 + 0x54 ], %o0
    3cf4:	80 a2 20 00 	cmp  %o0, 0
    3cf8:	32 80 00 07 	bne,a   3d14 <__swsetup+0x28>
    3cfc:	c2 02 20 38 	ld  [ %o0 + 0x38 ], %g1
    3d00:	03 00 00 28 	sethi  %hi(0xa000), %g1
    3d04:	da 00 61 20 	ld  [ %g1 + 0x120 ], %o5	! a120 <_impure_ptr>
    3d08:	da 26 20 54 	st  %o5, [ %i0 + 0x54 ]
    3d0c:	90 10 00 0d 	mov  %o5, %o0
    3d10:	c2 02 20 38 	ld  [ %o0 + 0x38 ], %g1
    3d14:	80 a0 60 00 	cmp  %g1, 0
    3d18:	02 80 00 38 	be  3df8 <__swsetup+0x10c>
    3d1c:	01 00 00 00 	nop 
    3d20:	c2 16 20 0c 	lduh  [ %i0 + 0xc ], %g1
    3d24:	80 88 60 08 	btst  8, %g1
    3d28:	12 80 00 32 	bne  3df0 <__swsetup+0x104>
    3d2c:	d8 16 20 0c 	lduh  [ %i0 + 0xc ], %o4
    3d30:	80 88 60 10 	btst  0x10, %g1
    3d34:	02 80 00 35 	be  3e08 <__swsetup+0x11c>
    3d38:	9a 10 3f ff 	mov  -1, %o5
    3d3c:	80 88 60 04 	btst  4, %g1
    3d40:	22 80 00 14 	be,a   3d90 <__swsetup+0xa4>
    3d44:	da 06 20 10 	ld  [ %i0 + 0x10 ], %o5
    3d48:	d2 06 20 30 	ld  [ %i0 + 0x30 ], %o1
    3d4c:	80 a2 60 00 	cmp  %o1, 0
    3d50:	22 80 00 0b 	be,a   3d7c <__swsetup+0x90>
    3d54:	da 06 20 10 	ld  [ %i0 + 0x10 ], %o5
    3d58:	82 06 20 40 	add  %i0, 0x40, %g1
    3d5c:	80 a2 40 01 	cmp  %o1, %g1
    3d60:	22 80 00 06 	be,a   3d78 <__swsetup+0x8c>
    3d64:	c0 26 20 30 	clr  [ %i0 + 0x30 ]
    3d68:	40 00 06 2b 	call  5614 <_free_r>
    3d6c:	d0 06 20 54 	ld  [ %i0 + 0x54 ], %o0
    3d70:	d8 16 20 0c 	lduh  [ %i0 + 0xc ], %o4
    3d74:	c0 26 20 30 	clr  [ %i0 + 0x30 ]
    3d78:	da 06 20 10 	ld  [ %i0 + 0x10 ], %o5
    3d7c:	82 0b 3f db 	and  %o4, -37, %g1
    3d80:	c0 26 20 04 	clr  [ %i0 + 4 ]
    3d84:	c2 36 20 0c 	sth  %g1, [ %i0 + 0xc ]
    3d88:	da 26 00 00 	st  %o5, [ %i0 ]
    3d8c:	98 10 00 01 	mov  %g1, %o4
    3d90:	82 13 20 08 	or  %o4, 8, %g1
    3d94:	c2 36 20 0c 	sth  %g1, [ %i0 + 0xc ]
    3d98:	80 a3 60 00 	cmp  %o5, 0
    3d9c:	02 80 00 11 	be  3de0 <__swsetup+0xf4>
    3da0:	01 00 00 00 	nop 
    3da4:	c2 16 20 0c 	lduh  [ %i0 + 0xc ], %g1
    3da8:	80 88 60 01 	btst  1, %g1
    3dac:	02 80 00 08 	be  3dcc <__swsetup+0xe0>
    3db0:	80 88 60 02 	btst  2, %g1
    3db4:	c2 06 20 14 	ld  [ %i0 + 0x14 ], %g1
    3db8:	c0 26 20 08 	clr  [ %i0 + 8 ]
    3dbc:	82 20 00 01 	neg  %g1
    3dc0:	c2 26 20 18 	st  %g1, [ %i0 + 0x18 ]
    3dc4:	10 80 00 11 	b  3e08 <__swsetup+0x11c>
    3dc8:	9a 10 20 00 	clr  %o5
    3dcc:	12 80 00 03 	bne  3dd8 <__swsetup+0xec>
    3dd0:	82 10 20 00 	clr  %g1
    3dd4:	c2 06 20 14 	ld  [ %i0 + 0x14 ], %g1
    3dd8:	10 bf ff fb 	b  3dc4 <__swsetup+0xd8>
    3ddc:	c2 26 20 08 	st  %g1, [ %i0 + 8 ]
    3de0:	40 00 08 3e 	call  5ed8 <__smakebuf>
    3de4:	90 10 00 18 	mov  %i0, %o0
    3de8:	10 bf ff f0 	b  3da8 <__swsetup+0xbc>
    3dec:	c2 16 20 0c 	lduh  [ %i0 + 0xc ], %g1
    3df0:	10 bf ff ea 	b  3d98 <__swsetup+0xac>
    3df4:	da 06 20 10 	ld  [ %i0 + 0x10 ], %o5
    3df8:	40 00 05 ec 	call  55a8 <__sinit>
    3dfc:	01 00 00 00 	nop 
    3e00:	10 bf ff c9 	b  3d24 <__swsetup+0x38>
    3e04:	c2 16 20 0c 	lduh  [ %i0 + 0xc ], %g1
    3e08:	81 c7 e0 08 	ret 
    3e0c:	91 e8 00 0d 	restore  %g0, %o5, %o0
    3e10:	00 00 42 7c 	unimp  0x427c
    3e14:	00 00 42 7c 	unimp  0x427c
    3e18:	00 00 51 38 	unimp  0x5138
    3e1c:	00 00 51 64 	unimp  0x5164
    3e20:	00 00 51 3c 	unimp  0x513c
    3e24:	00 00 51 68 	unimp  0x5168

00003e28 <quorem>:
    3e28:	9d e3 bf 98 	save  %sp, -104, %sp
    3e2c:	c2 06 20 10 	ld  [ %i0 + 0x10 ], %g1
    3e30:	ee 06 60 10 	ld  [ %i1 + 0x10 ], %l7
    3e34:	b6 10 00 18 	mov  %i0, %i3
    3e38:	80 a0 40 17 	cmp  %g1, %l7
    3e3c:	06 80 00 80 	bl  403c <quorem+0x214>
    3e40:	90 10 20 00 	clr  %o0
    3e44:	ba 06 20 14 	add  %i0, 0x14, %i5
    3e48:	a6 06 60 14 	add  %i1, 0x14, %l3
    3e4c:	ae 05 ff ff 	add  %l7, -1, %l7
    3e50:	83 2d e0 02 	sll  %l7, 2, %g1
    3e54:	d2 04 c0 01 	ld  [ %l3 + %g1 ], %o1
    3e58:	d0 07 40 01 	ld  [ %i5 + %g1 ], %o0
    3e5c:	92 02 60 01 	inc  %o1
    3e60:	b8 04 c0 01 	add  %l3, %g1, %i4
    3e64:	aa 07 40 01 	add  %i5, %g1, %l5
    3e68:	40 00 0e 46 	call  7780 <.udiv>
    3e6c:	b4 10 00 13 	mov  %l3, %i2
    3e70:	b0 92 20 00 	orcc  %o0, 0, %i0
    3e74:	02 80 00 37 	be  3f50 <quorem+0x128>
    3e78:	a2 10 00 1d 	mov  %i5, %l1
    3e7c:	03 00 00 3f 	sethi  %hi(0xfc00), %g1
    3e80:	a8 10 20 00 	clr  %l4
    3e84:	ac 10 63 ff 	or  %g1, 0x3ff, %l6
    3e88:	a4 10 20 00 	clr  %l2
    3e8c:	e0 04 c0 00 	ld  [ %l3 ], %l0
    3e90:	92 10 00 18 	mov  %i0, %o1
    3e94:	40 00 0e 01 	call  7698 <.umul>
    3e98:	90 0c 00 16 	and  %l0, %l6, %o0
    3e9c:	92 10 00 18 	mov  %i0, %o1
    3ea0:	a4 02 00 12 	add  %o0, %l2, %l2
    3ea4:	40 00 0d fd 	call  7698 <.umul>
    3ea8:	91 34 20 10 	srl  %l0, 0x10, %o0
    3eac:	d8 04 40 00 	ld  [ %l1 ], %o4
    3eb0:	9a 0c 80 16 	and  %l2, %l6, %o5
    3eb4:	82 0b 00 16 	and  %o4, %l6, %g1
    3eb8:	82 20 40 0d 	sub  %g1, %o5, %g1
    3ebc:	82 00 40 14 	add  %g1, %l4, %g1
    3ec0:	a9 38 60 10 	sra  %g1, 0x10, %l4
    3ec4:	c2 34 60 02 	sth  %g1, [ %l1 + 2 ]
    3ec8:	99 33 20 10 	srl  %o4, 0x10, %o4
    3ecc:	83 34 a0 10 	srl  %l2, 0x10, %g1
    3ed0:	a6 04 e0 04 	add  %l3, 4, %l3
    3ed4:	82 02 00 01 	add  %o0, %g1, %g1
    3ed8:	80 a4 c0 1c 	cmp  %l3, %i4
    3edc:	9a 08 40 16 	and  %g1, %l6, %o5
    3ee0:	a5 30 60 10 	srl  %g1, 0x10, %l2
    3ee4:	98 23 00 0d 	sub  %o4, %o5, %o4
    3ee8:	98 03 00 14 	add  %o4, %l4, %o4
    3eec:	d8 34 40 00 	sth  %o4, [ %l1 ]
    3ef0:	a9 3b 20 10 	sra  %o4, 0x10, %l4
    3ef4:	08 bf ff e6 	bleu  3e8c <quorem+0x64>
    3ef8:	a2 04 60 04 	add  %l1, 4, %l1
    3efc:	c2 05 40 00 	ld  [ %l5 ], %g1
    3f00:	80 a0 60 00 	cmp  %g1, 0
    3f04:	12 80 00 14 	bne  3f54 <quorem+0x12c>
    3f08:	92 10 00 19 	mov  %i1, %o1
    3f0c:	aa 05 7f fc 	add  %l5, -4, %l5
    3f10:	80 a5 40 1d 	cmp  %l5, %i5
    3f14:	28 80 00 10 	bleu,a   3f54 <quorem+0x12c>
    3f18:	ee 26 e0 10 	st  %l7, [ %i3 + 0x10 ]
    3f1c:	c2 05 40 00 	ld  [ %l5 ], %g1
    3f20:	80 a0 60 00 	cmp  %g1, 0
    3f24:	32 80 00 0c 	bne,a   3f54 <quorem+0x12c>
    3f28:	ee 26 e0 10 	st  %l7, [ %i3 + 0x10 ]
    3f2c:	aa 05 7f fc 	add  %l5, -4, %l5
    3f30:	80 a5 40 1d 	cmp  %l5, %i5
    3f34:	08 80 00 06 	bleu  3f4c <quorem+0x124>
    3f38:	ae 05 ff ff 	add  %l7, -1, %l7
    3f3c:	c2 05 40 00 	ld  [ %l5 ], %g1
    3f40:	80 a0 60 00 	cmp  %g1, 0
    3f44:	22 bf ff fb 	be,a   3f30 <quorem+0x108>
    3f48:	aa 05 7f fc 	add  %l5, -4, %l5
    3f4c:	ee 26 e0 10 	st  %l7, [ %i3 + 0x10 ]
    3f50:	92 10 00 19 	mov  %i1, %o1
    3f54:	40 00 0a fe 	call  6b4c <__mcmp>
    3f58:	90 10 00 1b 	mov  %i3, %o0
    3f5c:	80 a2 20 00 	cmp  %o0, 0
    3f60:	06 80 00 36 	bl  4038 <quorem+0x210>
    3f64:	03 00 00 3f 	sethi  %hi(0xfc00), %g1
    3f68:	a6 10 00 1a 	mov  %i2, %l3
    3f6c:	94 10 63 ff 	or  %g1, 0x3ff, %o2
    3f70:	b0 06 20 01 	inc  %i0
    3f74:	a8 10 20 00 	clr  %l4
    3f78:	a4 10 20 00 	clr  %l2
    3f7c:	a2 10 00 1d 	mov  %i5, %l1
    3f80:	e0 04 c0 00 	ld  [ %l3 ], %l0
    3f84:	d8 04 40 00 	ld  [ %l1 ], %o4
    3f88:	82 0c 00 0a 	and  %l0, %o2, %g1
    3f8c:	a4 00 40 12 	add  %g1, %l2, %l2
    3f90:	82 0b 00 0a 	and  %o4, %o2, %g1
    3f94:	9a 0c 80 0a 	and  %l2, %o2, %o5
    3f98:	82 20 40 0d 	sub  %g1, %o5, %g1
    3f9c:	82 00 40 14 	add  %g1, %l4, %g1
    3fa0:	a9 38 60 10 	sra  %g1, 0x10, %l4
    3fa4:	c2 34 60 02 	sth  %g1, [ %l1 + 2 ]
    3fa8:	97 34 20 10 	srl  %l0, 0x10, %o3
    3fac:	83 34 a0 10 	srl  %l2, 0x10, %g1
    3fb0:	99 33 20 10 	srl  %o4, 0x10, %o4
    3fb4:	82 02 c0 01 	add  %o3, %g1, %g1
    3fb8:	a6 04 e0 04 	add  %l3, 4, %l3
    3fbc:	9a 08 40 0a 	and  %g1, %o2, %o5
    3fc0:	80 a4 c0 1c 	cmp  %l3, %i4
    3fc4:	98 23 00 0d 	sub  %o4, %o5, %o4
    3fc8:	a5 30 60 10 	srl  %g1, 0x10, %l2
    3fcc:	98 03 00 14 	add  %o4, %l4, %o4
    3fd0:	d8 34 40 00 	sth  %o4, [ %l1 ]
    3fd4:	a9 3b 20 10 	sra  %o4, 0x10, %l4
    3fd8:	08 bf ff ea 	bleu  3f80 <quorem+0x158>
    3fdc:	a2 04 60 04 	add  %l1, 4, %l1
    3fe0:	83 2d e0 02 	sll  %l7, 2, %g1
    3fe4:	da 07 40 01 	ld  [ %i5 + %g1 ], %o5
    3fe8:	80 a3 60 00 	cmp  %o5, 0
    3fec:	12 80 00 13 	bne  4038 <quorem+0x210>
    3ff0:	aa 07 40 01 	add  %i5, %g1, %l5
    3ff4:	aa 05 7f fc 	add  %l5, -4, %l5
    3ff8:	80 a5 40 1d 	cmp  %l5, %i5
    3ffc:	28 80 00 0f 	bleu,a   4038 <quorem+0x210>
    4000:	ee 26 e0 10 	st  %l7, [ %i3 + 0x10 ]
    4004:	c2 05 40 00 	ld  [ %l5 ], %g1
    4008:	80 a0 60 00 	cmp  %g1, 0
    400c:	32 80 00 0b 	bne,a   4038 <quorem+0x210>
    4010:	ee 26 e0 10 	st  %l7, [ %i3 + 0x10 ]
    4014:	aa 05 7f fc 	add  %l5, -4, %l5
    4018:	80 a5 40 1d 	cmp  %l5, %i5
    401c:	08 80 00 06 	bleu  4034 <quorem+0x20c>
    4020:	ae 05 ff ff 	add  %l7, -1, %l7
    4024:	c2 05 40 00 	ld  [ %l5 ], %g1
    4028:	80 a0 60 00 	cmp  %g1, 0
    402c:	22 bf ff fb 	be,a   4018 <quorem+0x1f0>
    4030:	aa 05 7f fc 	add  %l5, -4, %l5
    4034:	ee 26 e0 10 	st  %l7, [ %i3 + 0x10 ]
    4038:	90 10 00 18 	mov  %i0, %o0
    403c:	81 c7 e0 08 	ret 
    4040:	91 e8 00 08 	restore  %g0, %o0, %o0

00004044 <_dtoa_r>:
    4044:	9d e3 bf 58 	save  %sp, -168, %sp
    4048:	d6 06 20 40 	ld  [ %i0 + 0x40 ], %o3
    404c:	f0 27 a0 44 	st  %i0, [ %fp + 0x44 ]
    4050:	f8 27 a0 54 	st  %i4, [ %fp + 0x54 ]
    4054:	fa 27 a0 58 	st  %i5, [ %fp + 0x58 ]
    4058:	a8 10 00 19 	mov  %i1, %l4
    405c:	aa 10 00 1a 	mov  %i2, %l5
    4060:	80 a2 e0 00 	cmp  %o3, 0
    4064:	e0 07 a0 5c 	ld  [ %fp + 0x5c ], %l0
    4068:	12 80 04 95 	bne  52bc <_dtoa_r+0x1278>
    406c:	c0 27 bf c0 	clr  [ %fp + -64 ]
    4070:	80 a5 20 00 	cmp  %l4, 0
    4074:	06 80 04 8e 	bl  52ac <_dtoa_r+0x1268>
    4078:	82 10 20 01 	mov  1, %g1
    407c:	c0 24 00 00 	clr  [ %l0 ]
    4080:	1b 1f fc 00 	sethi  %hi(0x7ff00000), %o5
    4084:	82 0d 00 0d 	and  %l4, %o5, %g1
    4088:	80 a0 40 0d 	cmp  %g1, %o5
    408c:	02 80 04 6f 	be  5248 <_dtoa_r+0x1204>
    4090:	19 00 00 26 	sethi  %hi(0x9800), %o4
    4094:	d4 1b 22 90 	ldd  [ %o4 + 0x290 ], %o2	! 9a90 <zeroes.1+0x88>
    4098:	90 10 00 14 	mov  %l4, %o0
    409c:	40 00 13 02 	call  8ca4 <__eqdf2>
    40a0:	92 10 00 15 	mov  %l5, %o1
    40a4:	80 a2 20 00 	cmp  %o0, 0
    40a8:	12 80 00 0e 	bne  40e0 <_dtoa_r+0x9c>
    40ac:	da 07 a0 60 	ld  [ %fp + 0x60 ], %o5
    40b0:	d6 07 a0 58 	ld  [ %fp + 0x58 ], %o3
    40b4:	80 a3 60 00 	cmp  %o5, 0
    40b8:	82 10 20 01 	mov  1, %g1
    40bc:	1b 00 00 26 	sethi  %hi(0x9800), %o5
    40c0:	c2 22 c0 00 	st  %g1, [ %o3 ]
    40c4:	02 80 00 05 	be  40d8 <_dtoa_r+0x94>
    40c8:	b0 13 62 38 	or  %o5, 0x238, %i0
    40cc:	d8 07 a0 60 	ld  [ %fp + 0x60 ], %o4
    40d0:	82 06 20 01 	add  %i0, 1, %g1
    40d4:	c2 23 00 00 	st  %g1, [ %o4 ]
    40d8:	10 80 04 85 	b  52ec <_dtoa_r+0x12a8>
    40dc:	82 10 00 18 	mov  %i0, %g1
    40e0:	d0 07 a0 44 	ld  [ %fp + 0x44 ], %o0
    40e4:	92 10 00 14 	mov  %l4, %o1
    40e8:	94 10 00 15 	mov  %l5, %o2
    40ec:	96 07 bf f4 	add  %fp, -12, %o3
    40f0:	40 00 0b 5f 	call  6e6c <_d2b>
    40f4:	98 07 bf f0 	add  %fp, -16, %o4
    40f8:	83 35 20 14 	srl  %l4, 0x14, %g1
    40fc:	b2 88 67 ff 	andcc  %g1, 0x7ff, %i1
    4100:	02 80 04 36 	be  51d8 <_dtoa_r+0x1194>
    4104:	d0 27 bf c4 	st  %o0, [ %fp + -60 ]
    4108:	f4 07 bf f0 	ld  [ %fp + -16 ], %i2
    410c:	03 3f fc 00 	sethi  %hi(0xfff00000), %g1
    4110:	1b 0f fc 00 	sethi  %hi(0x3ff00000), %o5
    4114:	ac 2d 00 01 	andn  %l4, %g1, %l6
    4118:	ae 10 00 15 	mov  %l5, %l7
    411c:	ac 13 40 16 	or  %o5, %l6, %l6
    4120:	b2 06 7c 01 	add  %i1, -1023, %i1
    4124:	c0 27 bf c8 	clr  [ %fp + -56 ]
    4128:	19 00 00 26 	sethi  %hi(0x9800), %o4
    412c:	d4 1b 22 b0 	ldd  [ %o4 + 0x2b0 ], %o2	! 9ab0 <zeroes.1+0xa8>
    4130:	90 10 00 16 	mov  %l6, %o0
    4134:	40 00 11 6b 	call  86e0 <__subdf3>
    4138:	92 10 00 17 	mov  %l7, %o1
    413c:	1b 00 00 26 	sethi  %hi(0x9800), %o5
    4140:	40 00 11 7f 	call  873c <__muldf3>
    4144:	d4 1b 62 b8 	ldd  [ %o5 + 0x2b8 ], %o2	! 9ab8 <zeroes.1+0xb0>
    4148:	03 00 00 26 	sethi  %hi(0x9800), %g1
    414c:	40 00 11 51 	call  8690 <__adddf3>
    4150:	d4 18 62 c0 	ldd  [ %g1 + 0x2c0 ], %o2	! 9ac0 <zeroes.1+0xb8>
    4154:	a0 10 00 08 	mov  %o0, %l0
    4158:	a2 10 00 09 	mov  %o1, %l1
    415c:	40 00 13 4f 	call  8e98 <__floatsidf>
    4160:	90 10 00 19 	mov  %i1, %o0
    4164:	19 00 00 26 	sethi  %hi(0x9800), %o4
    4168:	40 00 11 75 	call  873c <__muldf3>
    416c:	d4 1b 22 c8 	ldd  [ %o4 + 0x2c8 ], %o2	! 9ac8 <zeroes.1+0xc0>
    4170:	94 10 00 08 	mov  %o0, %o2
    4174:	96 10 00 09 	mov  %o1, %o3
    4178:	90 10 00 10 	mov  %l0, %o0
    417c:	40 00 11 45 	call  8690 <__adddf3>
    4180:	92 10 00 11 	mov  %l1, %o1
    4184:	a4 10 00 08 	mov  %o0, %l2
    4188:	40 00 13 79 	call  8f6c <__fixdfsi>
    418c:	a6 10 00 09 	mov  %o1, %l3
    4190:	1b 00 00 26 	sethi  %hi(0x9800), %o5
    4194:	d4 1b 62 90 	ldd  [ %o5 + 0x290 ], %o2	! 9a90 <zeroes.1+0x88>
    4198:	ba 10 00 08 	mov  %o0, %i5
    419c:	92 10 00 13 	mov  %l3, %o1
    41a0:	40 00 13 25 	call  8e34 <__ltdf2>
    41a4:	90 10 00 12 	mov  %l2, %o0
    41a8:	80 a2 20 00 	cmp  %o0, 0
    41ac:	06 80 04 01 	bl  51b0 <_dtoa_r+0x116c>
    41b0:	01 00 00 00 	nop 
    41b4:	82 10 20 01 	mov  1, %g1	! 1 <__DYNAMIC+0x1>
    41b8:	80 a7 60 16 	cmp  %i5, 0x16
    41bc:	18 80 00 0f 	bgu  41f8 <_dtoa_r+0x1b4>
    41c0:	c2 27 bf d4 	st  %g1, [ %fp + -44 ]
    41c4:	9b 2f 60 03 	sll  %i5, 3, %o5
    41c8:	03 00 00 26 	sethi  %hi(0x9800), %g1
    41cc:	82 10 63 50 	or  %g1, 0x350, %g1	! 9b50 <__mprec_tens>
    41d0:	96 00 40 0d 	add  %g1, %o5, %o3
    41d4:	d0 1a c0 00 	ldd  [ %o3 ], %o0
    41d8:	94 10 00 14 	mov  %l4, %o2
    41dc:	40 00 12 e4 	call  8d6c <__gtdf2>
    41e0:	96 10 00 15 	mov  %l5, %o3
    41e4:	c0 27 bf d4 	clr  [ %fp + -44 ]
    41e8:	83 3a 20 1f 	sra  %o0, 0x1f, %g1
    41ec:	82 20 40 08 	sub  %g1, %o0, %g1
    41f0:	83 30 60 1f 	srl  %g1, 0x1f, %g1
    41f4:	ba 27 40 01 	sub  %i5, %g1, %i5
    41f8:	82 26 80 19 	sub  %i2, %i1, %g1
    41fc:	a0 80 7f ff 	addcc  %g1, -1, %l0
    4200:	2c 80 03 e9 	bneg,a   51a4 <_dtoa_r+0x1160>
    4204:	a0 20 00 10 	neg  %l0
    4208:	b8 10 00 10 	mov  %l0, %i4
    420c:	c0 27 bf ec 	clr  [ %fp + -20 ]
    4210:	80 a7 60 00 	cmp  %i5, 0
    4214:	06 80 03 de 	bl  518c <_dtoa_r+0x1148>
    4218:	d8 07 bf ec 	ld  [ %fp + -20 ], %o4
    421c:	c0 27 bf e8 	clr  [ %fp + -24 ]
    4220:	fa 27 bf cc 	st  %i5, [ %fp + -52 ]
    4224:	b8 07 00 1d 	add  %i4, %i5, %i4
    4228:	80 a6 e0 0a 	cmp  %i3, 0xa
    422c:	82 60 20 00 	subx  %g0, 0, %g1
    4230:	b6 0e c0 01 	and  %i3, %g1, %i3
    4234:	80 a6 e0 05 	cmp  %i3, 5
    4238:	04 80 00 04 	ble  4248 <_dtoa_r+0x204>
    423c:	a2 10 20 01 	mov  1, %l1
    4240:	b6 06 ff fc 	add  %i3, -4, %i3
    4244:	a2 10 20 00 	clr  %l1
    4248:	96 10 3f ff 	mov  -1, %o3
    424c:	82 10 20 01 	mov  1, %g1
    4250:	80 a6 e0 05 	cmp  %i3, 5
    4254:	c2 27 bf d0 	st  %g1, [ %fp + -48 ]
    4258:	d6 27 bf dc 	st  %o3, [ %fp + -36 ]
    425c:	18 80 00 0a 	bgu  4284 <_dtoa_r+0x240>
    4260:	d6 27 bf e4 	st  %o3, [ %fp + -28 ]
    4264:	83 2e e0 02 	sll  %i3, 2, %g1
    4268:	1b 00 00 0f 	sethi  %hi(0x3c00), %o5
    426c:	9a 13 62 10 	or  %o5, 0x210, %o5	! 3e10 <__swsetup+0x124>
    4270:	d8 03 40 01 	ld  [ %o5 + %g1 ], %o4
    4274:	81 c3 00 00 	jmp  %o4
    4278:	01 00 00 00 	nop 
    427c:	b2 10 20 12 	mov  0x12, %i1	! 12 <__DYNAMIC+0x12>
    4280:	c0 27 a0 54 	clr  [ %fp + 0x54 ]
    4284:	d8 07 a0 44 	ld  [ %fp + 0x44 ], %o4
    4288:	80 a6 60 17 	cmp  %i1, 0x17
    428c:	c0 23 20 44 	clr  [ %o4 + 0x44 ]
    4290:	08 80 00 0a 	bleu  42b8 <_dtoa_r+0x274>
    4294:	a0 10 20 04 	mov  4, %l0
    4298:	9a 10 20 00 	clr  %o5
    429c:	a0 04 00 10 	add  %l0, %l0, %l0
    42a0:	82 04 20 14 	add  %l0, 0x14, %g1
    42a4:	80 a0 40 19 	cmp  %g1, %i1
    42a8:	08 bf ff fd 	bleu  429c <_dtoa_r+0x258>
    42ac:	9a 03 60 01 	inc  %o5
    42b0:	c2 07 a0 44 	ld  [ %fp + 0x44 ], %g1
    42b4:	da 20 60 44 	st  %o5, [ %g1 + 0x44 ]
    42b8:	d6 07 a0 44 	ld  [ %fp + 0x44 ], %o3
    42bc:	d2 02 e0 44 	ld  [ %o3 + 0x44 ], %o1
    42c0:	40 00 08 22 	call  6348 <_Balloc>
    42c4:	90 10 00 0b 	mov  %o3, %o0
    42c8:	d8 07 bf e4 	ld  [ %fp + -28 ], %o4
    42cc:	da 07 a0 44 	ld  [ %fp + 0x44 ], %o5
    42d0:	80 a3 20 0f 	cmp  %o4, 0xf
    42d4:	d0 27 bf b8 	st  %o0, [ %fp + -72 ]
    42d8:	82 40 20 00 	addx  %g0, 0, %g1
    42dc:	d0 23 60 40 	st  %o0, [ %o5 + 0x40 ]
    42e0:	80 88 40 11 	btst  %g1, %l1
    42e4:	02 80 00 ae 	be  459c <_dtoa_r+0x558>
    42e8:	b0 10 00 08 	mov  %o0, %i0
    42ec:	80 a7 60 00 	cmp  %i5, 0
    42f0:	b2 10 20 00 	clr  %i1
    42f4:	ac 10 00 14 	mov  %l4, %l6
    42f8:	ae 10 00 15 	mov  %l5, %l7
    42fc:	fa 27 bf d8 	st  %i5, [ %fp + -40 ]
    4300:	d8 27 bf e0 	st  %o4, [ %fp + -32 ]
    4304:	04 80 03 68 	ble  50a4 <_dtoa_r+0x1060>
    4308:	a2 10 20 02 	mov  2, %l1
    430c:	9a 0f 60 0f 	and  %i5, 0xf, %o5
    4310:	03 00 00 26 	sethi  %hi(0x9800), %g1
    4314:	9b 2b 60 03 	sll  %o5, 3, %o5
    4318:	82 10 63 50 	or  %g1, 0x350, %g1
    431c:	a1 3f 60 04 	sra  %i5, 4, %l0
    4320:	96 00 40 0d 	add  %g1, %o5, %o3
    4324:	80 8c 20 10 	btst  0x10, %l0
    4328:	02 80 00 0b 	be  4354 <_dtoa_r+0x310>
    432c:	e4 1a c0 00 	ldd  [ %o3 ], %l2
    4330:	03 00 00 27 	sethi  %hi(0x9c00), %g1
    4334:	d4 18 60 38 	ldd  [ %g1 + 0x38 ], %o2	! 9c38 <__mprec_bigtens+0x20>
    4338:	90 10 00 14 	mov  %l4, %o0
    433c:	92 10 00 15 	mov  %l5, %o1
    4340:	40 00 11 dd 	call  8ab4 <__divdf3>
    4344:	a0 0c 20 0f 	and  %l0, 0xf, %l0
    4348:	a2 10 20 03 	mov  3, %l1
    434c:	a8 10 00 08 	mov  %o0, %l4
    4350:	aa 10 00 09 	mov  %o1, %l5
    4354:	80 a4 20 00 	cmp  %l0, 0
    4358:	02 80 00 13 	be  43a4 <_dtoa_r+0x360>
    435c:	03 00 00 27 	sethi  %hi(0x9c00), %g1
    4360:	b4 10 60 18 	or  %g1, 0x18, %i2	! 9c18 <__mprec_bigtens>
    4364:	80 8c 20 01 	btst  1, %l0
    4368:	22 80 00 0c 	be,a   4398 <_dtoa_r+0x354>
    436c:	a1 3c 20 01 	sra  %l0, 1, %l0
    4370:	83 2e 60 03 	sll  %i1, 3, %g1
    4374:	98 06 80 01 	add  %i2, %g1, %o4
    4378:	d4 1b 00 00 	ldd  [ %o4 ], %o2
    437c:	90 10 00 12 	mov  %l2, %o0
    4380:	92 10 00 13 	mov  %l3, %o1
    4384:	40 00 10 ee 	call  873c <__muldf3>
    4388:	a2 04 60 01 	inc  %l1
    438c:	a4 10 00 08 	mov  %o0, %l2
    4390:	a6 10 00 09 	mov  %o1, %l3
    4394:	a1 3c 20 01 	sra  %l0, 1, %l0
    4398:	80 a4 20 00 	cmp  %l0, 0
    439c:	12 bf ff f2 	bne  4364 <_dtoa_r+0x320>
    43a0:	b2 06 60 01 	inc  %i1
    43a4:	90 10 00 14 	mov  %l4, %o0
    43a8:	92 10 00 15 	mov  %l5, %o1
    43ac:	94 10 00 12 	mov  %l2, %o2
    43b0:	40 00 11 c1 	call  8ab4 <__divdf3>
    43b4:	96 10 00 13 	mov  %l3, %o3
    43b8:	a8 10 00 08 	mov  %o0, %l4
    43bc:	aa 10 00 09 	mov  %o1, %l5
    43c0:	c2 07 bf d4 	ld  [ %fp + -44 ], %g1
    43c4:	80 a0 60 00 	cmp  %g1, 0
    43c8:	02 80 00 1d 	be  443c <_dtoa_r+0x3f8>
    43cc:	19 00 00 26 	sethi  %hi(0x9800), %o4
    43d0:	d4 1b 22 d0 	ldd  [ %o4 + 0x2d0 ], %o2	! 9ad0 <zeroes.1+0xc8>
    43d4:	90 10 00 14 	mov  %l4, %o0
    43d8:	40 00 12 97 	call  8e34 <__ltdf2>
    43dc:	92 10 00 15 	mov  %l5, %o1
    43e0:	80 a2 20 00 	cmp  %o0, 0
    43e4:	06 80 03 2e 	bl  509c <_dtoa_r+0x1058>
    43e8:	9a 10 20 00 	clr  %o5
    43ec:	d6 07 bf e4 	ld  [ %fp + -28 ], %o3
    43f0:	83 3a e0 1f 	sra  %o3, 0x1f, %g1
    43f4:	82 20 40 0b 	sub  %g1, %o3, %g1
    43f8:	83 30 60 1f 	srl  %g1, 0x1f, %g1
    43fc:	80 8b 40 01 	btst  %o5, %g1
    4400:	02 80 00 0f 	be  443c <_dtoa_r+0x3f8>
    4404:	d8 07 bf dc 	ld  [ %fp + -36 ], %o4
    4408:	80 a3 20 00 	cmp  %o4, 0
    440c:	04 80 00 5e 	ble  4584 <_dtoa_r+0x540>
    4410:	1b 00 00 26 	sethi  %hi(0x9800), %o5
    4414:	d0 1b 62 d8 	ldd  [ %o5 + 0x2d8 ], %o0	! 9ad8 <zeroes.1+0xd0>
    4418:	94 10 00 14 	mov  %l4, %o2
    441c:	40 00 10 c8 	call  873c <__muldf3>
    4420:	96 10 00 15 	mov  %l5, %o3
    4424:	c2 07 bf dc 	ld  [ %fp + -36 ], %g1
    4428:	a8 10 00 08 	mov  %o0, %l4
    442c:	aa 10 00 09 	mov  %o1, %l5
    4430:	c2 27 bf e4 	st  %g1, [ %fp + -28 ]
    4434:	ba 07 7f ff 	add  %i5, -1, %i5
    4438:	a2 04 60 01 	inc  %l1
    443c:	40 00 12 97 	call  8e98 <__floatsidf>
    4440:	90 10 00 11 	mov  %l1, %o0
    4444:	94 10 00 14 	mov  %l4, %o2
    4448:	40 00 10 bd 	call  873c <__muldf3>
    444c:	96 10 00 15 	mov  %l5, %o3
    4450:	19 00 00 26 	sethi  %hi(0x9800), %o4
    4454:	40 00 10 8f 	call  8690 <__adddf3>
    4458:	d4 1b 22 e0 	ldd  [ %o4 + 0x2e0 ], %o2	! 9ae0 <zeroes.1+0xd8>
    445c:	da 07 bf e4 	ld  [ %fp + -28 ], %o5
    4460:	a4 10 00 08 	mov  %o0, %l2
    4464:	03 3f 30 00 	sethi  %hi(0xfcc00000), %g1
    4468:	80 a3 60 00 	cmp  %o5, 0
    446c:	a6 10 00 09 	mov  %o1, %l3
    4470:	12 80 02 85 	bne  4e84 <_dtoa_r+0xe40>
    4474:	a4 00 40 12 	add  %g1, %l2, %l2
    4478:	03 00 00 26 	sethi  %hi(0x9800), %g1
    447c:	d4 18 62 e8 	ldd  [ %g1 + 0x2e8 ], %o2	! 9ae8 <zeroes.1+0xe0>
    4480:	90 10 00 14 	mov  %l4, %o0
    4484:	40 00 10 97 	call  86e0 <__subdf3>
    4488:	92 10 00 15 	mov  %l5, %o1
    448c:	b4 10 20 00 	clr  %i2
    4490:	a0 10 00 08 	mov  %o0, %l0
    4494:	a2 10 00 09 	mov  %o1, %l1
    4498:	94 10 00 12 	mov  %l2, %o2
    449c:	40 00 12 34 	call  8d6c <__gtdf2>
    44a0:	96 10 00 13 	mov  %l3, %o3
    44a4:	80 a2 20 00 	cmp  %o0, 0
    44a8:	04 80 00 2b 	ble  4554 <_dtoa_r+0x510>
    44ac:	c0 27 bf bc 	clr  [ %fp + -68 ]
    44b0:	d6 07 bf b8 	ld  [ %fp + -72 ], %o3
    44b4:	82 10 20 31 	mov  0x31, %g1
    44b8:	b0 02 e0 01 	add  %o3, 1, %i0
    44bc:	c2 2a c0 00 	stb  %g1, [ %o3 ]
    44c0:	ba 07 60 01 	inc  %i5
    44c4:	d0 07 a0 44 	ld  [ %fp + 0x44 ], %o0
    44c8:	40 00 07 c8 	call  63e8 <_Bfree>
    44cc:	92 10 00 1a 	mov  %i2, %o1
    44d0:	da 07 bf bc 	ld  [ %fp + -68 ], %o5
    44d4:	80 a3 60 00 	cmp  %o5, 0
    44d8:	02 80 00 0e 	be  4510 <_dtoa_r+0x4cc>
    44dc:	c2 07 bf c0 	ld  [ %fp + -64 ], %g1
    44e0:	d6 07 bf c0 	ld  [ %fp + -64 ], %o3
    44e4:	80 a0 00 01 	cmp  %g0, %g1
    44e8:	9a 1a c0 0d 	xor  %o3, %o5, %o5
    44ec:	82 40 20 00 	addx  %g0, 0, %g1
    44f0:	80 a0 00 0d 	cmp  %g0, %o5
    44f4:	98 40 20 00 	addx  %g0, 0, %o4
    44f8:	80 88 40 0c 	btst  %g1, %o4
    44fc:	12 80 00 12 	bne  4544 <_dtoa_r+0x500>
    4500:	d0 07 a0 44 	ld  [ %fp + 0x44 ], %o0
    4504:	d2 07 bf bc 	ld  [ %fp + -68 ], %o1
    4508:	40 00 07 b8 	call  63e8 <_Bfree>
    450c:	d0 07 a0 44 	ld  [ %fp + 0x44 ], %o0
    4510:	d0 07 a0 44 	ld  [ %fp + 0x44 ], %o0
    4514:	40 00 07 b5 	call  63e8 <_Bfree>
    4518:	d2 07 bf c4 	ld  [ %fp + -60 ], %o1
    451c:	c0 2e 00 00 	clrb  [ %i0 ]
    4520:	d8 07 a0 58 	ld  [ %fp + 0x58 ], %o4
    4524:	da 07 a0 60 	ld  [ %fp + 0x60 ], %o5
    4528:	82 07 60 01 	add  %i5, 1, %g1
    452c:	80 a3 60 00 	cmp  %o5, 0
    4530:	02 80 00 03 	be  453c <_dtoa_r+0x4f8>
    4534:	c2 23 00 00 	st  %g1, [ %o4 ]
    4538:	f0 23 40 00 	st  %i0, [ %o5 ]
    453c:	10 80 03 6c 	b  52ec <_dtoa_r+0x12a8>
    4540:	c2 07 bf b8 	ld  [ %fp + -72 ], %g1
    4544:	40 00 07 a9 	call  63e8 <_Bfree>
    4548:	92 10 00 0b 	mov  %o3, %o1
    454c:	10 bf ff ef 	b  4508 <_dtoa_r+0x4c4>
    4550:	d2 07 bf bc 	ld  [ %fp + -68 ], %o1
    4554:	90 10 00 12 	mov  %l2, %o0
    4558:	40 00 12 b0 	call  9018 <__negdf2>
    455c:	92 10 00 13 	mov  %l3, %o1
    4560:	94 10 00 10 	mov  %l0, %o2
    4564:	40 00 12 02 	call  8d6c <__gtdf2>
    4568:	96 10 00 11 	mov  %l1, %o3
    456c:	80 a2 20 00 	cmp  %o0, 0
    4570:	04 80 00 06 	ble  4588 <_dtoa_r+0x544>
    4574:	d6 07 bf e0 	ld  [ %fp + -32 ], %o3
    4578:	da 07 a0 54 	ld  [ %fp + 0x54 ], %o5
    457c:	10 bf ff d2 	b  44c4 <_dtoa_r+0x480>
    4580:	ba 38 00 0d 	xnor  %g0, %o5, %i5
    4584:	d6 07 bf e0 	ld  [ %fp + -32 ], %o3
    4588:	fa 07 bf d8 	ld  [ %fp + -40 ], %i5
    458c:	f0 07 bf b8 	ld  [ %fp + -72 ], %i0
    4590:	a8 10 00 16 	mov  %l6, %l4
    4594:	aa 10 00 17 	mov  %l7, %l5
    4598:	d6 27 bf e4 	st  %o3, [ %fp + -28 ]
    459c:	d0 07 bf f4 	ld  [ %fp + -12 ], %o0
    45a0:	80 a7 60 0e 	cmp  %i5, 0xe
    45a4:	82 38 00 08 	xnor  %g0, %o0, %g1
    45a8:	98 10 20 01 	mov  1, %o4
    45ac:	04 80 00 03 	ble  45b8 <_dtoa_r+0x574>
    45b0:	83 30 60 1f 	srl  %g1, 0x1f, %g1
    45b4:	98 10 20 00 	clr  %o4
    45b8:	80 88 40 0c 	btst  %g1, %o4
    45bc:	02 80 00 77 	be  4798 <_dtoa_r+0x754>
    45c0:	c2 07 bf d0 	ld  [ %fp + -48 ], %g1
    45c4:	83 2f 60 03 	sll  %i5, 3, %g1
    45c8:	1b 00 00 26 	sethi  %hi(0x9800), %o5
    45cc:	9a 13 63 50 	or  %o5, 0x350, %o5	! 9b50 <__mprec_tens>
    45d0:	98 03 40 01 	add  %o5, %g1, %o4
    45d4:	da 07 bf e4 	ld  [ %fp + -28 ], %o5
    45d8:	c2 07 a0 54 	ld  [ %fp + 0x54 ], %g1
    45dc:	e4 1b 00 00 	ldd  [ %o4 ], %l2
    45e0:	98 03 7f ff 	add  %o5, -1, %o4
    45e4:	98 13 40 0c 	or  %o5, %o4, %o4
    45e8:	80 8b 00 01 	btst  %o4, %g1
    45ec:	16 80 00 13 	bge  4638 <_dtoa_r+0x5f4>
    45f0:	b2 10 20 01 	mov  1, %i1
    45f4:	80 a3 60 00 	cmp  %o5, 0
    45f8:	c0 27 bf bc 	clr  [ %fp + -68 ]
    45fc:	06 bf ff df 	bl  4578 <_dtoa_r+0x534>
    4600:	b4 10 20 00 	clr  %i2
    4604:	19 00 00 26 	sethi  %hi(0x9800), %o4
    4608:	d4 1b 22 e8 	ldd  [ %o4 + 0x2e8 ], %o2	! 9ae8 <zeroes.1+0xe0>
    460c:	90 10 00 12 	mov  %l2, %o0
    4610:	40 00 10 4b 	call  873c <__muldf3>
    4614:	92 10 00 13 	mov  %l3, %o1
    4618:	94 10 00 14 	mov  %l4, %o2
    461c:	40 00 11 ed 	call  8dd0 <__gedf2>
    4620:	96 10 00 15 	mov  %l5, %o3
    4624:	80 a2 20 00 	cmp  %o0, 0
    4628:	16 bf ff d5 	bge  457c <_dtoa_r+0x538>
    462c:	da 07 a0 54 	ld  [ %fp + 0x54 ], %o5
    4630:	10 bf ff a1 	b  44b4 <_dtoa_r+0x470>
    4634:	d6 07 bf b8 	ld  [ %fp + -72 ], %o3
    4638:	94 10 00 12 	mov  %l2, %o2
    463c:	96 10 00 13 	mov  %l3, %o3
    4640:	90 10 00 14 	mov  %l4, %o0
    4644:	40 00 11 1c 	call  8ab4 <__divdf3>
    4648:	92 10 00 15 	mov  %l5, %o1
    464c:	40 00 12 48 	call  8f6c <__fixdfsi>
    4650:	01 00 00 00 	nop 
    4654:	40 00 12 11 	call  8e98 <__floatsidf>
    4658:	b4 10 00 08 	mov  %o0, %i2
    465c:	94 10 00 12 	mov  %l2, %o2
    4660:	40 00 10 37 	call  873c <__muldf3>
    4664:	96 10 00 13 	mov  %l3, %o3
    4668:	94 10 00 08 	mov  %o0, %o2
    466c:	96 10 00 09 	mov  %o1, %o3
    4670:	90 10 00 14 	mov  %l4, %o0
    4674:	40 00 10 1b 	call  86e0 <__subdf3>
    4678:	92 10 00 15 	mov  %l5, %o1
    467c:	da 07 bf e4 	ld  [ %fp + -28 ], %o5
    4680:	82 06 a0 30 	add  %i2, 0x30, %g1
    4684:	80 a6 40 0d 	cmp  %i1, %o5
    4688:	c2 2e 00 00 	stb  %g1, [ %i0 ]
    468c:	02 80 00 13 	be  46d8 <_dtoa_r+0x694>
    4690:	b0 06 20 01 	inc  %i0
    4694:	94 10 00 08 	mov  %o0, %o2
    4698:	96 10 00 09 	mov  %o1, %o3
    469c:	19 00 00 26 	sethi  %hi(0x9800), %o4
    46a0:	d0 1b 22 d8 	ldd  [ %o4 + 0x2d8 ], %o0	! 9ad8 <zeroes.1+0xd0>
    46a4:	40 00 10 26 	call  873c <__muldf3>
    46a8:	b2 06 60 01 	inc  %i1
    46ac:	1b 00 00 26 	sethi  %hi(0x9800), %o5
    46b0:	d4 1b 62 90 	ldd  [ %o5 + 0x290 ], %o2	! 9a90 <zeroes.1+0x88>
    46b4:	98 10 00 08 	mov  %o0, %o4
    46b8:	aa 10 00 09 	mov  %o1, %l5
    46bc:	40 00 11 7a 	call  8ca4 <__eqdf2>
    46c0:	a8 10 00 0c 	mov  %o4, %l4
    46c4:	80 a2 20 00 	cmp  %o0, 0
    46c8:	12 bf ff dd 	bne  463c <_dtoa_r+0x5f8>
    46cc:	94 10 00 12 	mov  %l2, %o2
    46d0:	10 bf ff 91 	b  4514 <_dtoa_r+0x4d0>
    46d4:	d0 07 a0 44 	ld  [ %fp + 0x44 ], %o0
    46d8:	94 10 00 08 	mov  %o0, %o2
    46dc:	40 00 0f ed 	call  8690 <__adddf3>
    46e0:	96 10 00 09 	mov  %o1, %o3
    46e4:	a0 10 00 08 	mov  %o0, %l0
    46e8:	a2 10 00 09 	mov  %o1, %l1
    46ec:	90 10 00 12 	mov  %l2, %o0
    46f0:	92 10 00 13 	mov  %l3, %o1
    46f4:	94 10 00 10 	mov  %l0, %o2
    46f8:	40 00 11 cf 	call  8e34 <__ltdf2>
    46fc:	96 10 00 11 	mov  %l1, %o3
    4700:	80 a2 20 00 	cmp  %o0, 0
    4704:	06 80 00 0c 	bl  4734 <_dtoa_r+0x6f0>
    4708:	90 10 00 12 	mov  %l2, %o0
    470c:	92 10 00 13 	mov  %l3, %o1
    4710:	94 10 00 10 	mov  %l0, %o2
    4714:	40 00 11 64 	call  8ca4 <__eqdf2>
    4718:	96 10 00 11 	mov  %l1, %o3
    471c:	80 a2 20 00 	cmp  %o0, 0
    4720:	12 bf ff 7d 	bne  4514 <_dtoa_r+0x4d0>
    4724:	d0 07 a0 44 	ld  [ %fp + 0x44 ], %o0
    4728:	80 8e a0 01 	btst  1, %i2
    472c:	02 bf ff 7a 	be  4514 <_dtoa_r+0x4d0>
    4730:	01 00 00 00 	nop 
    4734:	b0 06 3f ff 	add  %i0, -1, %i0
    4738:	c2 4e 00 00 	ldsb  [ %i0 ], %g1
    473c:	80 a0 60 39 	cmp  %g1, 0x39
    4740:	02 80 00 06 	be  4758 <_dtoa_r+0x714>
    4744:	da 0e 00 00 	ldub  [ %i0 ], %o5
    4748:	82 03 60 01 	add  %o5, 1, %g1
    474c:	c2 2e 00 00 	stb  %g1, [ %i0 ]
    4750:	10 bf ff 70 	b  4510 <_dtoa_r+0x4cc>
    4754:	b0 06 20 01 	inc  %i0
    4758:	c2 07 bf b8 	ld  [ %fp + -72 ], %g1
    475c:	80 a6 00 01 	cmp  %i0, %g1
    4760:	02 80 00 09 	be  4784 <_dtoa_r+0x740>
    4764:	d6 07 bf b8 	ld  [ %fp + -72 ], %o3
    4768:	b0 06 3f ff 	add  %i0, -1, %i0
    476c:	c2 4e 00 00 	ldsb  [ %i0 ], %g1
    4770:	80 a0 60 39 	cmp  %g1, 0x39
    4774:	02 bf ff f9 	be  4758 <_dtoa_r+0x714>
    4778:	da 0e 00 00 	ldub  [ %i0 ], %o5
    477c:	10 bf ff f4 	b  474c <_dtoa_r+0x708>
    4780:	82 03 60 01 	add  %o5, 1, %g1
    4784:	82 10 20 30 	mov  0x30, %g1
    4788:	ba 07 60 01 	inc  %i5
    478c:	c2 2a c0 00 	stb  %g1, [ %o3 ]
    4790:	10 bf ff ee 	b  4748 <_dtoa_r+0x704>
    4794:	9a 10 20 30 	mov  0x30, %o5
    4798:	e2 07 bf ec 	ld  [ %fp + -20 ], %l1
    479c:	80 a0 60 00 	cmp  %g1, 0
    47a0:	e4 07 bf e8 	ld  [ %fp + -24 ], %l2
    47a4:	c0 27 bf c0 	clr  [ %fp + -64 ]
    47a8:	02 80 00 1d 	be  481c <_dtoa_r+0x7d8>
    47ac:	c0 27 bf bc 	clr  [ %fp + -68 ]
    47b0:	80 a6 e0 01 	cmp  %i3, 1
    47b4:	04 80 01 ac 	ble  4e64 <_dtoa_r+0xe20>
    47b8:	da 07 bf e8 	ld  [ %fp + -24 ], %o5
    47bc:	d8 07 bf e4 	ld  [ %fp + -28 ], %o4
    47c0:	a0 03 3f ff 	add  %o4, -1, %l0
    47c4:	80 a3 40 10 	cmp  %o5, %l0
    47c8:	16 80 00 09 	bge  47ec <_dtoa_r+0x7a8>
    47cc:	a4 23 40 10 	sub  %o5, %l0, %l2
    47d0:	c2 07 bf cc 	ld  [ %fp + -52 ], %g1
    47d4:	a0 24 00 0d 	sub  %l0, %o5, %l0
    47d8:	a4 10 20 00 	clr  %l2
    47dc:	9a 03 40 10 	add  %o5, %l0, %o5
    47e0:	82 00 40 10 	add  %g1, %l0, %g1
    47e4:	da 27 bf e8 	st  %o5, [ %fp + -24 ]
    47e8:	c2 27 bf cc 	st  %g1, [ %fp + -52 ]
    47ec:	f2 07 bf e4 	ld  [ %fp + -28 ], %i1
    47f0:	80 a6 60 00 	cmp  %i1, 0
    47f4:	06 80 01 99 	bl  4e58 <_dtoa_r+0xe14>
    47f8:	d6 07 bf ec 	ld  [ %fp + -20 ], %o3
    47fc:	d0 07 a0 44 	ld  [ %fp + 0x44 ], %o0
    4800:	40 00 07 c1 	call  6704 <_i2b>
    4804:	92 10 20 01 	mov  1, %o1
    4808:	d8 07 bf ec 	ld  [ %fp + -20 ], %o4
    480c:	b8 07 00 19 	add  %i4, %i1, %i4
    4810:	98 03 00 19 	add  %o4, %i1, %o4
    4814:	d0 27 bf bc 	st  %o0, [ %fp + -68 ]
    4818:	d8 27 bf ec 	st  %o4, [ %fp + -20 ]
    481c:	9b 3c 60 1f 	sra  %l1, 0x1f, %o5
    4820:	83 3f 20 1f 	sra  %i4, 0x1f, %g1
    4824:	9a 23 40 11 	sub  %o5, %l1, %o5
    4828:	82 20 40 1c 	sub  %g1, %i4, %g1
    482c:	80 88 40 0d 	btst  %g1, %o5
    4830:	16 80 00 0c 	bge  4860 <_dtoa_r+0x81c>
    4834:	c2 07 bf e8 	ld  [ %fp + -24 ], %g1
    4838:	80 a7 00 11 	cmp  %i4, %l1
    483c:	04 80 00 03 	ble  4848 <_dtoa_r+0x804>
    4840:	b2 10 00 1c 	mov  %i4, %i1
    4844:	b2 10 00 11 	mov  %l1, %i1
    4848:	da 07 bf ec 	ld  [ %fp + -20 ], %o5
    484c:	b8 27 00 19 	sub  %i4, %i1, %i4
    4850:	9a 23 40 19 	sub  %o5, %i1, %o5
    4854:	a2 24 40 19 	sub  %l1, %i1, %l1
    4858:	da 27 bf ec 	st  %o5, [ %fp + -20 ]
    485c:	c2 07 bf e8 	ld  [ %fp + -24 ], %g1
    4860:	80 a0 60 00 	cmp  %g1, 0
    4864:	04 80 00 18 	ble  48c4 <_dtoa_r+0x880>
    4868:	d6 07 bf d0 	ld  [ %fp + -48 ], %o3
    486c:	80 a2 e0 00 	cmp  %o3, 0
    4870:	02 80 01 77 	be  4e4c <_dtoa_r+0xe08>
    4874:	80 a4 a0 00 	cmp  %l2, 0
    4878:	04 80 00 0f 	ble  48b4 <_dtoa_r+0x870>
    487c:	d2 07 bf bc 	ld  [ %fp + -68 ], %o1
    4880:	d0 07 a0 44 	ld  [ %fp + 0x44 ], %o0
    4884:	40 00 08 35 	call  6958 <_pow5mult>
    4888:	94 10 00 12 	mov  %l2, %o2
    488c:	d4 07 bf c4 	ld  [ %fp + -60 ], %o2
    4890:	d0 27 bf bc 	st  %o0, [ %fp + -68 ]
    4894:	d0 07 a0 44 	ld  [ %fp + 0x44 ], %o0
    4898:	40 00 07 a4 	call  6728 <_multiply>
    489c:	d2 07 bf bc 	ld  [ %fp + -68 ], %o1
    48a0:	d2 07 bf c4 	ld  [ %fp + -60 ], %o1
    48a4:	a0 10 00 08 	mov  %o0, %l0
    48a8:	40 00 06 d0 	call  63e8 <_Bfree>
    48ac:	d0 07 a0 44 	ld  [ %fp + 0x44 ], %o0
    48b0:	e0 27 bf c4 	st  %l0, [ %fp + -60 ]
    48b4:	d8 07 bf e8 	ld  [ %fp + -24 ], %o4
    48b8:	a0 a3 00 12 	subcc  %o4, %l2, %l0
    48bc:	12 80 01 5f 	bne  4e38 <_dtoa_r+0xdf4>
    48c0:	d2 07 bf c4 	ld  [ %fp + -60 ], %o1
    48c4:	d0 07 a0 44 	ld  [ %fp + 0x44 ], %o0
    48c8:	40 00 07 8f 	call  6704 <_i2b>
    48cc:	92 10 20 01 	mov  1, %o1
    48d0:	da 07 bf cc 	ld  [ %fp + -52 ], %o5
    48d4:	80 a3 60 00 	cmp  %o5, 0
    48d8:	04 80 00 07 	ble  48f4 <_dtoa_r+0x8b0>
    48dc:	b4 10 00 08 	mov  %o0, %i2
    48e0:	92 10 00 08 	mov  %o0, %o1
    48e4:	d0 07 a0 44 	ld  [ %fp + 0x44 ], %o0
    48e8:	40 00 08 1c 	call  6958 <_pow5mult>
    48ec:	94 10 00 0d 	mov  %o5, %o2
    48f0:	b4 10 00 08 	mov  %o0, %i2
    48f4:	80 a6 e0 01 	cmp  %i3, 1
    48f8:	04 80 01 3f 	ble  4df4 <_dtoa_r+0xdb0>
    48fc:	a0 10 20 00 	clr  %l0
    4900:	d6 07 bf cc 	ld  [ %fp + -52 ], %o3
    4904:	82 07 20 01 	add  %i4, 1, %g1
    4908:	80 a2 e0 00 	cmp  %o3, 0
    490c:	12 80 01 32 	bne  4dd4 <_dtoa_r+0xd90>
    4910:	b2 08 60 1f 	and  %g1, 0x1f, %i1
    4914:	80 a6 60 00 	cmp  %i1, 0
    4918:	02 80 00 05 	be  492c <_dtoa_r+0x8e8>
    491c:	80 a6 60 04 	cmp  %i1, 4
    4920:	82 10 20 20 	mov  0x20, %g1
    4924:	b2 20 40 19 	sub  %g1, %i1, %i1
    4928:	80 a6 60 04 	cmp  %i1, 4
    492c:	04 80 01 22 	ble  4db4 <_dtoa_r+0xd70>
    4930:	80 a6 60 03 	cmp  %i1, 3
    4934:	d8 07 bf ec 	ld  [ %fp + -20 ], %o4
    4938:	b2 06 7f fc 	add  %i1, -4, %i1
    493c:	98 03 00 19 	add  %o4, %i1, %o4
    4940:	b8 07 00 19 	add  %i4, %i1, %i4
    4944:	d8 27 bf ec 	st  %o4, [ %fp + -20 ]
    4948:	a2 04 40 19 	add  %l1, %i1, %l1
    494c:	c2 07 bf ec 	ld  [ %fp + -20 ], %g1
    4950:	80 a0 60 00 	cmp  %g1, 0
    4954:	04 80 00 06 	ble  496c <_dtoa_r+0x928>
    4958:	d2 07 bf c4 	ld  [ %fp + -60 ], %o1
    495c:	d0 07 a0 44 	ld  [ %fp + 0x44 ], %o0
    4960:	40 00 08 3d 	call  6a54 <_lshift>
    4964:	94 10 00 01 	mov  %g1, %o2
    4968:	d0 27 bf c4 	st  %o0, [ %fp + -60 ]
    496c:	80 a7 20 00 	cmp  %i4, 0
    4970:	04 80 00 06 	ble  4988 <_dtoa_r+0x944>
    4974:	d0 07 a0 44 	ld  [ %fp + 0x44 ], %o0
    4978:	92 10 00 1a 	mov  %i2, %o1
    497c:	40 00 08 36 	call  6a54 <_lshift>
    4980:	94 10 00 1c 	mov  %i4, %o2
    4984:	b4 10 00 08 	mov  %o0, %i2
    4988:	d6 07 bf d4 	ld  [ %fp + -44 ], %o3
    498c:	80 a2 e0 00 	cmp  %o3, 0
    4990:	12 80 00 f0 	bne  4d50 <_dtoa_r+0xd0c>
    4994:	d0 07 bf c4 	ld  [ %fp + -60 ], %o0
    4998:	d6 07 bf e4 	ld  [ %fp + -28 ], %o3
    499c:	80 a6 e0 02 	cmp  %i3, 2
    49a0:	82 02 ff ff 	add  %o3, -1, %g1
    49a4:	9a 10 20 01 	mov  1, %o5
    49a8:	82 12 c0 01 	or  %o3, %g1, %g1
    49ac:	14 80 00 03 	bg  49b8 <_dtoa_r+0x974>
    49b0:	83 30 60 1f 	srl  %g1, 0x1f, %g1
    49b4:	9a 10 20 00 	clr  %o5
    49b8:	80 88 40 0d 	btst  %g1, %o5
    49bc:	02 80 00 13 	be  4a08 <_dtoa_r+0x9c4>
    49c0:	d8 07 bf d0 	ld  [ %fp + -48 ], %o4
    49c4:	d8 07 bf e4 	ld  [ %fp + -28 ], %o4
    49c8:	80 a3 20 00 	cmp  %o4, 0
    49cc:	06 bf fe eb 	bl  4578 <_dtoa_r+0x534>
    49d0:	d0 07 a0 44 	ld  [ %fp + 0x44 ], %o0
    49d4:	92 10 00 1a 	mov  %i2, %o1
    49d8:	94 10 20 05 	mov  5, %o2
    49dc:	40 00 06 8e 	call  6414 <_multadd>
    49e0:	96 10 20 00 	clr  %o3
    49e4:	b4 10 00 08 	mov  %o0, %i2
    49e8:	d0 07 bf c4 	ld  [ %fp + -60 ], %o0
    49ec:	40 00 08 58 	call  6b4c <__mcmp>
    49f0:	92 10 00 1a 	mov  %i2, %o1
    49f4:	80 a2 20 00 	cmp  %o0, 0
    49f8:	14 bf fe af 	bg  44b4 <_dtoa_r+0x470>
    49fc:	d6 07 bf b8 	ld  [ %fp + -72 ], %o3
    4a00:	10 bf fe df 	b  457c <_dtoa_r+0x538>
    4a04:	da 07 a0 54 	ld  [ %fp + 0x54 ], %o5
    4a08:	80 a3 20 00 	cmp  %o4, 0
    4a0c:	02 80 00 c0 	be  4d0c <_dtoa_r+0xcc8>
    4a10:	b2 10 20 01 	mov  1, %i1
    4a14:	80 a4 60 00 	cmp  %l1, 0
    4a18:	04 80 00 06 	ble  4a30 <_dtoa_r+0x9ec>
    4a1c:	d2 07 bf bc 	ld  [ %fp + -68 ], %o1
    4a20:	d0 07 a0 44 	ld  [ %fp + 0x44 ], %o0
    4a24:	40 00 08 0c 	call  6a54 <_lshift>
    4a28:	94 10 00 11 	mov  %l1, %o2
    4a2c:	d0 27 bf bc 	st  %o0, [ %fp + -68 ]
    4a30:	da 07 bf bc 	ld  [ %fp + -68 ], %o5
    4a34:	80 a4 20 00 	cmp  %l0, 0
    4a38:	12 80 00 a4 	bne  4cc8 <_dtoa_r+0xc84>
    4a3c:	da 27 bf c0 	st  %o5, [ %fp + -64 ]
    4a40:	b2 10 20 01 	mov  1, %i1
    4a44:	d0 07 bf c4 	ld  [ %fp + -60 ], %o0
    4a48:	7f ff fc f8 	call  3e28 <quorem>
    4a4c:	92 10 00 1a 	mov  %i2, %o1
    4a50:	d2 07 bf c0 	ld  [ %fp + -64 ], %o1
    4a54:	a6 02 20 30 	add  %o0, 0x30, %l3
    4a58:	d0 07 bf c4 	ld  [ %fp + -60 ], %o0
    4a5c:	40 00 08 3c 	call  6b4c <__mcmp>
    4a60:	a4 10 20 01 	mov  1, %l2
    4a64:	d4 07 bf bc 	ld  [ %fp + -68 ], %o2
    4a68:	a0 10 00 08 	mov  %o0, %l0
    4a6c:	d0 07 a0 44 	ld  [ %fp + 0x44 ], %o0
    4a70:	40 00 08 51 	call  6bb4 <__mdiff>
    4a74:	92 10 00 1a 	mov  %i2, %o1
    4a78:	c2 02 20 0c 	ld  [ %o0 + 0xc ], %g1
    4a7c:	80 a0 60 00 	cmp  %g1, 0
    4a80:	02 80 00 8d 	be  4cb4 <_dtoa_r+0xc70>
    4a84:	a2 10 00 08 	mov  %o0, %l1
    4a88:	d0 07 a0 44 	ld  [ %fp + 0x44 ], %o0
    4a8c:	40 00 06 57 	call  63e8 <_Bfree>
    4a90:	92 10 00 11 	mov  %l1, %o1
    4a94:	80 94 80 1b 	orcc  %l2, %i3, %g0
    4a98:	12 80 00 05 	bne  4aac <_dtoa_r+0xa68>
    4a9c:	80 a4 20 00 	cmp  %l0, 0
    4aa0:	80 8d 60 01 	btst  1, %l5
    4aa4:	02 80 00 7d 	be  4c98 <_dtoa_r+0xc54>
    4aa8:	80 a4 20 00 	cmp  %l0, 0
    4aac:	06 80 00 62 	bl  4c34 <_dtoa_r+0xbf0>
    4ab0:	80 94 00 1b 	orcc  %l0, %i3, %g0
    4ab4:	12 80 00 05 	bne  4ac8 <_dtoa_r+0xa84>
    4ab8:	80 a4 a0 00 	cmp  %l2, 0
    4abc:	80 8d 60 01 	btst  1, %l5
    4ac0:	02 80 00 5d 	be  4c34 <_dtoa_r+0xbf0>
    4ac4:	80 a4 a0 00 	cmp  %l2, 0
    4ac8:	14 80 00 55 	bg  4c1c <_dtoa_r+0xbd8>
    4acc:	80 a4 e0 39 	cmp  %l3, 0x39
    4ad0:	e6 2e 00 00 	stb  %l3, [ %i0 ]
    4ad4:	d6 07 bf e4 	ld  [ %fp + -28 ], %o3
    4ad8:	80 a6 40 0b 	cmp  %i1, %o3
    4adc:	02 80 00 22 	be  4b64 <_dtoa_r+0xb20>
    4ae0:	b0 06 20 01 	inc  %i0
    4ae4:	d2 07 bf c4 	ld  [ %fp + -60 ], %o1
    4ae8:	d0 07 a0 44 	ld  [ %fp + 0x44 ], %o0
    4aec:	94 10 20 0a 	mov  0xa, %o2
    4af0:	40 00 06 49 	call  6414 <_multadd>
    4af4:	96 10 20 00 	clr  %o3
    4af8:	d8 07 bf c0 	ld  [ %fp + -64 ], %o4
    4afc:	da 07 bf bc 	ld  [ %fp + -68 ], %o5
    4b00:	80 a3 00 0d 	cmp  %o4, %o5
    4b04:	02 80 00 10 	be  4b44 <_dtoa_r+0xb00>
    4b08:	d0 27 bf c4 	st  %o0, [ %fp + -60 ]
    4b0c:	d2 07 bf c0 	ld  [ %fp + -64 ], %o1
    4b10:	d0 07 a0 44 	ld  [ %fp + 0x44 ], %o0
    4b14:	94 10 20 0a 	mov  0xa, %o2
    4b18:	40 00 06 3f 	call  6414 <_multadd>
    4b1c:	96 10 20 00 	clr  %o3
    4b20:	d2 07 bf bc 	ld  [ %fp + -68 ], %o1
    4b24:	d0 27 bf c0 	st  %o0, [ %fp + -64 ]
    4b28:	d0 07 a0 44 	ld  [ %fp + 0x44 ], %o0
    4b2c:	94 10 20 0a 	mov  0xa, %o2
    4b30:	40 00 06 39 	call  6414 <_multadd>
    4b34:	96 10 20 00 	clr  %o3
    4b38:	d0 27 bf bc 	st  %o0, [ %fp + -68 ]
    4b3c:	10 bf ff c2 	b  4a44 <_dtoa_r+0xa00>
    4b40:	b2 06 60 01 	inc  %i1
    4b44:	d0 07 a0 44 	ld  [ %fp + 0x44 ], %o0
    4b48:	92 10 00 0d 	mov  %o5, %o1
    4b4c:	94 10 20 0a 	mov  0xa, %o2
    4b50:	40 00 06 31 	call  6414 <_multadd>
    4b54:	96 10 20 00 	clr  %o3
    4b58:	d0 27 bf bc 	st  %o0, [ %fp + -68 ]
    4b5c:	10 bf ff f8 	b  4b3c <_dtoa_r+0xaf8>
    4b60:	d0 27 bf c0 	st  %o0, [ %fp + -64 ]
    4b64:	d2 07 bf c4 	ld  [ %fp + -60 ], %o1
    4b68:	d0 07 a0 44 	ld  [ %fp + 0x44 ], %o0
    4b6c:	40 00 07 ba 	call  6a54 <_lshift>
    4b70:	94 10 20 01 	mov  1, %o2
    4b74:	92 10 00 1a 	mov  %i2, %o1
    4b78:	40 00 07 f5 	call  6b4c <__mcmp>
    4b7c:	d0 27 bf c4 	st  %o0, [ %fp + -60 ]
    4b80:	a0 92 20 00 	orcc  %o0, 0, %l0
    4b84:	04 80 00 1b 	ble  4bf0 <_dtoa_r+0xbac>
    4b88:	80 a4 20 00 	cmp  %l0, 0
    4b8c:	b0 06 3f ff 	add  %i0, -1, %i0
    4b90:	c2 4e 00 00 	ldsb  [ %i0 ], %g1
    4b94:	80 a0 60 39 	cmp  %g1, 0x39
    4b98:	02 80 00 06 	be  4bb0 <_dtoa_r+0xb6c>
    4b9c:	da 0e 00 00 	ldub  [ %i0 ], %o5
    4ba0:	82 03 60 01 	add  %o5, 1, %g1
    4ba4:	c2 2e 00 00 	stb  %g1, [ %i0 ]
    4ba8:	10 bf fe 47 	b  44c4 <_dtoa_r+0x480>
    4bac:	b0 06 20 01 	inc  %i0
    4bb0:	d6 07 bf b8 	ld  [ %fp + -72 ], %o3
    4bb4:	80 a6 00 0b 	cmp  %i0, %o3
    4bb8:	02 80 00 09 	be  4bdc <_dtoa_r+0xb98>
    4bbc:	d8 07 bf b8 	ld  [ %fp + -72 ], %o4
    4bc0:	b0 06 3f ff 	add  %i0, -1, %i0
    4bc4:	c2 4e 00 00 	ldsb  [ %i0 ], %g1
    4bc8:	80 a0 60 39 	cmp  %g1, 0x39
    4bcc:	02 bf ff fa 	be  4bb4 <_dtoa_r+0xb70>
    4bd0:	da 0e 00 00 	ldub  [ %i0 ], %o5
    4bd4:	10 bf ff f4 	b  4ba4 <_dtoa_r+0xb60>
    4bd8:	82 03 60 01 	add  %o5, 1, %g1
    4bdc:	82 10 20 31 	mov  0x31, %g1
    4be0:	ba 07 60 01 	inc  %i5
    4be4:	c2 2b 00 00 	stb  %g1, [ %o4 ]
    4be8:	10 bf fe 37 	b  44c4 <_dtoa_r+0x480>
    4bec:	b0 03 20 01 	add  %o4, 1, %i0
    4bf0:	12 80 00 05 	bne  4c04 <_dtoa_r+0xbc0>
    4bf4:	b0 06 3f ff 	add  %i0, -1, %i0
    4bf8:	80 8c e0 01 	btst  1, %l3
    4bfc:	12 bf ff e5 	bne  4b90 <_dtoa_r+0xb4c>
    4c00:	01 00 00 00 	nop 
    4c04:	c2 4e 00 00 	ldsb  [ %i0 ], %g1
    4c08:	80 a0 60 30 	cmp  %g1, 0x30
    4c0c:	22 bf ff fe 	be,a   4c04 <_dtoa_r+0xbc0>
    4c10:	b0 06 3f ff 	add  %i0, -1, %i0
    4c14:	10 bf fe 2c 	b  44c4 <_dtoa_r+0x480>
    4c18:	b0 06 20 01 	inc  %i0
    4c1c:	12 bf ff e2 	bne  4ba4 <_dtoa_r+0xb60>
    4c20:	82 04 e0 01 	add  %l3, 1, %g1
    4c24:	82 10 20 39 	mov  0x39, %g1
    4c28:	c2 2e 00 00 	stb  %g1, [ %i0 ]
    4c2c:	10 bf ff d8 	b  4b8c <_dtoa_r+0xb48>
    4c30:	b0 06 20 01 	inc  %i0
    4c34:	80 a4 a0 00 	cmp  %l2, 0
    4c38:	04 80 00 0f 	ble  4c74 <_dtoa_r+0xc30>
    4c3c:	d2 07 bf c4 	ld  [ %fp + -60 ], %o1
    4c40:	d0 07 a0 44 	ld  [ %fp + 0x44 ], %o0
    4c44:	40 00 07 84 	call  6a54 <_lshift>
    4c48:	94 10 20 01 	mov  1, %o2
    4c4c:	92 10 00 1a 	mov  %i2, %o1
    4c50:	40 00 07 bf 	call  6b4c <__mcmp>
    4c54:	d0 27 bf c4 	st  %o0, [ %fp + -60 ]
    4c58:	a4 92 20 00 	orcc  %o0, 0, %l2
    4c5c:	04 80 00 08 	ble  4c7c <_dtoa_r+0xc38>
    4c60:	80 a4 a0 00 	cmp  %l2, 0
    4c64:	a6 04 e0 01 	inc  %l3
    4c68:	80 a4 e0 3a 	cmp  %l3, 0x3a
    4c6c:	02 bf ff ef 	be  4c28 <_dtoa_r+0xbe4>
    4c70:	82 10 20 39 	mov  0x39, %g1
    4c74:	10 bf ff cd 	b  4ba8 <_dtoa_r+0xb64>
    4c78:	e6 2e 00 00 	stb  %l3, [ %i0 ]
    4c7c:	32 bf ff cb 	bne,a   4ba8 <_dtoa_r+0xb64>
    4c80:	e6 2e 00 00 	stb  %l3, [ %i0 ]
    4c84:	80 8c e0 01 	btst  1, %l3
    4c88:	22 bf ff c8 	be,a   4ba8 <_dtoa_r+0xb64>
    4c8c:	e6 2e 00 00 	stb  %l3, [ %i0 ]
    4c90:	10 bf ff f6 	b  4c68 <_dtoa_r+0xc24>
    4c94:	a6 04 e0 01 	inc  %l3
    4c98:	80 a4 e0 39 	cmp  %l3, 0x39
    4c9c:	02 bf ff e2 	be  4c24 <_dtoa_r+0xbe0>
    4ca0:	83 3c 20 1f 	sra  %l0, 0x1f, %g1
    4ca4:	82 20 40 10 	sub  %g1, %l0, %g1
    4ca8:	83 30 60 1f 	srl  %g1, 0x1f, %g1
    4cac:	10 bf ff f2 	b  4c74 <_dtoa_r+0xc30>
    4cb0:	a6 04 c0 01 	add  %l3, %g1, %l3
    4cb4:	d0 07 bf c4 	ld  [ %fp + -60 ], %o0
    4cb8:	40 00 07 a5 	call  6b4c <__mcmp>
    4cbc:	92 10 00 11 	mov  %l1, %o1
    4cc0:	10 bf ff 72 	b  4a88 <_dtoa_r+0xa44>
    4cc4:	a4 10 00 08 	mov  %o0, %l2
    4cc8:	d2 03 60 04 	ld  [ %o5 + 4 ], %o1
    4ccc:	40 00 05 9f 	call  6348 <_Balloc>
    4cd0:	d0 07 a0 44 	ld  [ %fp + 0x44 ], %o0
    4cd4:	c2 07 bf c0 	ld  [ %fp + -64 ], %g1
    4cd8:	d0 27 bf bc 	st  %o0, [ %fp + -68 ]
    4cdc:	d4 00 60 10 	ld  [ %g1 + 0x10 ], %o2
    4ce0:	92 00 60 0c 	add  %g1, 0xc, %o1
    4ce4:	90 02 20 0c 	add  %o0, 0xc, %o0
    4ce8:	95 2a a0 02 	sll  %o2, 2, %o2
    4cec:	40 00 05 1d 	call  6160 <memcpy>
    4cf0:	94 02 a0 08 	add  %o2, 8, %o2
    4cf4:	d0 07 a0 44 	ld  [ %fp + 0x44 ], %o0
    4cf8:	d2 07 bf bc 	ld  [ %fp + -68 ], %o1
    4cfc:	40 00 07 56 	call  6a54 <_lshift>
    4d00:	94 10 20 01 	mov  1, %o2
    4d04:	10 bf ff 4f 	b  4a40 <_dtoa_r+0x9fc>
    4d08:	d0 27 bf bc 	st  %o0, [ %fp + -68 ]
    4d0c:	d0 07 bf c4 	ld  [ %fp + -60 ], %o0
    4d10:	7f ff fc 46 	call  3e28 <quorem>
    4d14:	92 10 00 1a 	mov  %i2, %o1
    4d18:	c2 07 bf e4 	ld  [ %fp + -28 ], %g1
    4d1c:	a6 02 20 30 	add  %o0, 0x30, %l3
    4d20:	80 a6 40 01 	cmp  %i1, %g1
    4d24:	e6 2e 00 00 	stb  %l3, [ %i0 ]
    4d28:	16 bf ff 8f 	bge  4b64 <_dtoa_r+0xb20>
    4d2c:	b0 06 20 01 	inc  %i0
    4d30:	d2 07 bf c4 	ld  [ %fp + -60 ], %o1
    4d34:	d0 07 a0 44 	ld  [ %fp + 0x44 ], %o0
    4d38:	94 10 20 0a 	mov  0xa, %o2
    4d3c:	96 10 20 00 	clr  %o3
    4d40:	40 00 05 b5 	call  6414 <_multadd>
    4d44:	b2 06 60 01 	inc  %i1
    4d48:	10 bf ff f1 	b  4d0c <_dtoa_r+0xcc8>
    4d4c:	d0 27 bf c4 	st  %o0, [ %fp + -60 ]
    4d50:	40 00 07 7f 	call  6b4c <__mcmp>
    4d54:	92 10 00 1a 	mov  %i2, %o1
    4d58:	80 a2 20 00 	cmp  %o0, 0
    4d5c:	16 bf ff 10 	bge  499c <_dtoa_r+0x958>
    4d60:	d6 07 bf e4 	ld  [ %fp + -28 ], %o3
    4d64:	d2 07 bf c4 	ld  [ %fp + -60 ], %o1
    4d68:	d0 07 a0 44 	ld  [ %fp + 0x44 ], %o0
    4d6c:	94 10 20 0a 	mov  0xa, %o2
    4d70:	40 00 05 a9 	call  6414 <_multadd>
    4d74:	96 10 20 00 	clr  %o3
    4d78:	d8 07 bf d0 	ld  [ %fp + -48 ], %o4
    4d7c:	d0 27 bf c4 	st  %o0, [ %fp + -60 ]
    4d80:	80 a3 20 00 	cmp  %o4, 0
    4d84:	12 80 00 05 	bne  4d98 <_dtoa_r+0xd54>
    4d88:	ba 07 7f ff 	add  %i5, -1, %i5
    4d8c:	da 07 bf dc 	ld  [ %fp + -36 ], %o5
    4d90:	10 bf ff 02 	b  4998 <_dtoa_r+0x954>
    4d94:	da 27 bf e4 	st  %o5, [ %fp + -28 ]
    4d98:	d2 07 bf bc 	ld  [ %fp + -68 ], %o1
    4d9c:	d0 07 a0 44 	ld  [ %fp + 0x44 ], %o0
    4da0:	94 10 20 0a 	mov  0xa, %o2
    4da4:	40 00 05 9c 	call  6414 <_multadd>
    4da8:	96 10 20 00 	clr  %o3
    4dac:	10 bf ff f8 	b  4d8c <_dtoa_r+0xd48>
    4db0:	d0 27 bf bc 	st  %o0, [ %fp + -68 ]
    4db4:	14 bf fe e7 	bg  4950 <_dtoa_r+0x90c>
    4db8:	c2 07 bf ec 	ld  [ %fp + -20 ], %g1
    4dbc:	da 07 bf ec 	ld  [ %fp + -20 ], %o5
    4dc0:	b2 06 60 1c 	add  %i1, 0x1c, %i1
    4dc4:	9a 03 40 19 	add  %o5, %i1, %o5
    4dc8:	b8 07 00 19 	add  %i4, %i1, %i4
    4dcc:	10 bf fe df 	b  4948 <_dtoa_r+0x904>
    4dd0:	da 27 bf ec 	st  %o5, [ %fp + -20 ]
    4dd4:	c2 06 a0 10 	ld  [ %i2 + 0x10 ], %g1
    4dd8:	83 28 60 02 	sll  %g1, 2, %g1
    4ddc:	82 00 40 1a 	add  %g1, %i2, %g1
    4de0:	40 00 05 f7 	call  65bc <_hi0bits>
    4de4:	d0 00 60 10 	ld  [ %g1 + 0x10 ], %o0
    4de8:	90 27 00 08 	sub  %i4, %o0, %o0
    4dec:	10 bf fe ca 	b  4914 <_dtoa_r+0x8d0>
    4df0:	b2 0a 20 1f 	and  %o0, 0x1f, %i1
    4df4:	80 a5 60 00 	cmp  %l5, 0
    4df8:	12 bf fe c3 	bne  4904 <_dtoa_r+0x8c0>
    4dfc:	d6 07 bf cc 	ld  [ %fp + -52 ], %o3
    4e00:	03 3f fc 00 	sethi  %hi(0xfff00000), %g1
    4e04:	80 ad 00 01 	andncc  %l4, %g1, %g0
    4e08:	12 bf fe c0 	bne  4908 <_dtoa_r+0x8c4>
    4e0c:	82 07 20 01 	add  %i4, 1, %g1
    4e10:	03 1f fc 00 	sethi  %hi(0x7ff00000), %g1
    4e14:	80 88 40 14 	btst  %g1, %l4
    4e18:	02 bf fe bc 	be  4908 <_dtoa_r+0x8c4>
    4e1c:	82 07 20 01 	add  %i4, 1, %g1
    4e20:	c2 07 bf ec 	ld  [ %fp + -20 ], %g1
    4e24:	b8 07 20 01 	inc  %i4
    4e28:	82 00 60 01 	inc  %g1
    4e2c:	a0 10 20 01 	mov  1, %l0
    4e30:	10 bf fe b4 	b  4900 <_dtoa_r+0x8bc>
    4e34:	c2 27 bf ec 	st  %g1, [ %fp + -20 ]
    4e38:	94 10 00 10 	mov  %l0, %o2
    4e3c:	40 00 06 c7 	call  6958 <_pow5mult>
    4e40:	d0 07 a0 44 	ld  [ %fp + 0x44 ], %o0
    4e44:	10 bf fe a0 	b  48c4 <_dtoa_r+0x880>
    4e48:	d0 27 bf c4 	st  %o0, [ %fp + -60 ]
    4e4c:	d2 07 bf c4 	ld  [ %fp + -60 ], %o1
    4e50:	10 bf ff fb 	b  4e3c <_dtoa_r+0xdf8>
    4e54:	d4 07 bf e8 	ld  [ %fp + -24 ], %o2
    4e58:	a2 22 c0 19 	sub  %o3, %i1, %l1
    4e5c:	10 bf fe 68 	b  47fc <_dtoa_r+0x7b8>
    4e60:	b2 10 20 00 	clr  %i1
    4e64:	d6 07 bf c8 	ld  [ %fp + -56 ], %o3
    4e68:	80 a2 e0 00 	cmp  %o3, 0
    4e6c:	12 bf fe 64 	bne  47fc <_dtoa_r+0x7b8>
    4e70:	b2 02 24 33 	add  %o0, 0x433, %i1
    4e74:	c2 07 bf f0 	ld  [ %fp + -16 ], %g1
    4e78:	9a 10 20 36 	mov  0x36, %o5
    4e7c:	10 bf fe 60 	b  47fc <_dtoa_r+0x7b8>
    4e80:	b2 23 40 01 	sub  %o5, %g1, %i1
    4e84:	d6 07 bf d0 	ld  [ %fp + -48 ], %o3
    4e88:	80 a2 e0 00 	cmp  %o3, 0
    4e8c:	02 80 00 42 	be  4f94 <_dtoa_r+0xf50>
    4e90:	c2 07 bf e4 	ld  [ %fp + -28 ], %g1
    4e94:	d8 07 bf e4 	ld  [ %fp + -28 ], %o4
    4e98:	03 00 00 26 	sethi  %hi(0x9800), %g1
    4e9c:	9b 2b 20 03 	sll  %o4, 3, %o5
    4ea0:	82 10 63 50 	or  %g1, 0x350, %g1
    4ea4:	9a 03 40 01 	add  %o5, %g1, %o5
    4ea8:	d4 1b 7f f8 	ldd  [ %o5 + -8 ], %o2
    4eac:	1b 00 00 26 	sethi  %hi(0x9800), %o5
    4eb0:	d0 1b 62 f0 	ldd  [ %o5 + 0x2f0 ], %o0	! 9af0 <zeroes.1+0xe8>
    4eb4:	40 00 0f 00 	call  8ab4 <__divdf3>
    4eb8:	b2 10 20 00 	clr  %i1
    4ebc:	94 10 00 12 	mov  %l2, %o2
    4ec0:	40 00 0e 08 	call  86e0 <__subdf3>
    4ec4:	96 10 00 13 	mov  %l3, %o3
    4ec8:	a4 10 00 08 	mov  %o0, %l2
    4ecc:	a6 10 00 09 	mov  %o1, %l3
    4ed0:	92 10 00 15 	mov  %l5, %o1
    4ed4:	40 00 10 26 	call  8f6c <__fixdfsi>
    4ed8:	90 10 00 14 	mov  %l4, %o0
    4edc:	40 00 0f ef 	call  8e98 <__floatsidf>
    4ee0:	b4 10 00 08 	mov  %o0, %i2
    4ee4:	94 10 00 08 	mov  %o0, %o2
    4ee8:	96 10 00 09 	mov  %o1, %o3
    4eec:	90 10 00 14 	mov  %l4, %o0
    4ef0:	40 00 0d fc 	call  86e0 <__subdf3>
    4ef4:	92 10 00 15 	mov  %l5, %o1
    4ef8:	82 06 a0 30 	add  %i2, 0x30, %g1
    4efc:	a0 10 00 08 	mov  %o0, %l0
    4f00:	c2 2e 00 00 	stb  %g1, [ %i0 ]
    4f04:	a2 10 00 09 	mov  %o1, %l1
    4f08:	94 10 00 12 	mov  %l2, %o2
    4f0c:	96 10 00 13 	mov  %l3, %o3
    4f10:	40 00 0f c9 	call  8e34 <__ltdf2>
    4f14:	b0 06 20 01 	inc  %i0
    4f18:	80 a2 20 00 	cmp  %o0, 0
    4f1c:	06 bf fd 7d 	bl  4510 <_dtoa_r+0x4cc>
    4f20:	03 00 00 26 	sethi  %hi(0x9800), %g1
    4f24:	d0 18 62 d0 	ldd  [ %g1 + 0x2d0 ], %o0	! 9ad0 <zeroes.1+0xc8>
    4f28:	94 10 00 10 	mov  %l0, %o2
    4f2c:	40 00 0d ed 	call  86e0 <__subdf3>
    4f30:	96 10 00 11 	mov  %l1, %o3
    4f34:	94 10 00 12 	mov  %l2, %o2
    4f38:	40 00 0f bf 	call  8e34 <__ltdf2>
    4f3c:	96 10 00 13 	mov  %l3, %o3
    4f40:	80 a2 20 00 	cmp  %o0, 0
    4f44:	06 bf fd fc 	bl  4734 <_dtoa_r+0x6f0>
    4f48:	b2 06 60 01 	inc  %i1
    4f4c:	d6 07 bf e4 	ld  [ %fp + -28 ], %o3
    4f50:	80 a6 40 0b 	cmp  %i1, %o3
    4f54:	16 bf fd 8c 	bge  4584 <_dtoa_r+0x540>
    4f58:	19 00 00 26 	sethi  %hi(0x9800), %o4
    4f5c:	d0 1b 22 d8 	ldd  [ %o4 + 0x2d8 ], %o0	! 9ad8 <zeroes.1+0xd0>
    4f60:	94 10 00 12 	mov  %l2, %o2
    4f64:	40 00 0d f6 	call  873c <__muldf3>
    4f68:	96 10 00 13 	mov  %l3, %o3
    4f6c:	1b 00 00 26 	sethi  %hi(0x9800), %o5
    4f70:	a4 10 00 08 	mov  %o0, %l2
    4f74:	a6 10 00 09 	mov  %o1, %l3
    4f78:	d0 1b 62 d8 	ldd  [ %o5 + 0x2d8 ], %o0
    4f7c:	94 10 00 10 	mov  %l0, %o2
    4f80:	40 00 0d ef 	call  873c <__muldf3>
    4f84:	96 10 00 11 	mov  %l1, %o3
    4f88:	a8 10 00 08 	mov  %o0, %l4
    4f8c:	10 bf ff d1 	b  4ed0 <_dtoa_r+0xe8c>
    4f90:	aa 10 00 09 	mov  %o1, %l5
    4f94:	96 10 00 09 	mov  %o1, %o3
    4f98:	9b 28 60 03 	sll  %g1, 3, %o5
    4f9c:	03 00 00 26 	sethi  %hi(0x9800), %g1
    4fa0:	82 10 63 50 	or  %g1, 0x350, %g1	! 9b50 <__mprec_tens>
    4fa4:	9a 03 40 01 	add  %o5, %g1, %o5
    4fa8:	d0 1b 7f f8 	ldd  [ %o5 + -8 ], %o0
    4fac:	94 10 00 12 	mov  %l2, %o2
    4fb0:	40 00 0d e3 	call  873c <__muldf3>
    4fb4:	b2 10 20 01 	mov  1, %i1
    4fb8:	a4 10 00 08 	mov  %o0, %l2
    4fbc:	a6 10 00 09 	mov  %o1, %l3
    4fc0:	92 10 00 15 	mov  %l5, %o1
    4fc4:	40 00 0f ea 	call  8f6c <__fixdfsi>
    4fc8:	90 10 00 14 	mov  %l4, %o0
    4fcc:	40 00 0f b3 	call  8e98 <__floatsidf>
    4fd0:	b4 10 00 08 	mov  %o0, %i2
    4fd4:	96 10 00 09 	mov  %o1, %o3
    4fd8:	94 10 00 08 	mov  %o0, %o2
    4fdc:	92 10 00 15 	mov  %l5, %o1
    4fe0:	40 00 0d c0 	call  86e0 <__subdf3>
    4fe4:	90 10 00 14 	mov  %l4, %o0
    4fe8:	d6 07 bf e4 	ld  [ %fp + -28 ], %o3
    4fec:	82 06 a0 30 	add  %i2, 0x30, %g1
    4ff0:	a0 10 00 08 	mov  %o0, %l0
    4ff4:	c2 2e 00 00 	stb  %g1, [ %i0 ]
    4ff8:	a2 10 00 09 	mov  %o1, %l1
    4ffc:	80 a6 40 0b 	cmp  %i1, %o3
    5000:	02 80 00 0b 	be  502c <_dtoa_r+0xfe8>
    5004:	b0 06 20 01 	inc  %i0
    5008:	96 10 00 09 	mov  %o1, %o3
    500c:	03 00 00 26 	sethi  %hi(0x9800), %g1
    5010:	d0 18 62 d8 	ldd  [ %g1 + 0x2d8 ], %o0	! 9ad8 <zeroes.1+0xd0>
    5014:	94 10 00 10 	mov  %l0, %o2
    5018:	40 00 0d c9 	call  873c <__muldf3>
    501c:	b2 06 60 01 	inc  %i1
    5020:	a8 10 00 08 	mov  %o0, %l4
    5024:	10 bf ff e7 	b  4fc0 <_dtoa_r+0xf7c>
    5028:	aa 10 00 09 	mov  %o1, %l5
    502c:	19 00 00 26 	sethi  %hi(0x9800), %o4
    5030:	d0 1b 22 f0 	ldd  [ %o4 + 0x2f0 ], %o0	! 9af0 <zeroes.1+0xe8>
    5034:	94 10 00 12 	mov  %l2, %o2
    5038:	40 00 0d 96 	call  8690 <__adddf3>
    503c:	96 10 00 13 	mov  %l3, %o3
    5040:	94 10 00 10 	mov  %l0, %o2
    5044:	40 00 0f 7c 	call  8e34 <__ltdf2>
    5048:	96 10 00 11 	mov  %l1, %o3
    504c:	80 a2 20 00 	cmp  %o0, 0
    5050:	06 bf fd b9 	bl  4734 <_dtoa_r+0x6f0>
    5054:	1b 00 00 26 	sethi  %hi(0x9800), %o5
    5058:	d0 1b 62 f0 	ldd  [ %o5 + 0x2f0 ], %o0	! 9af0 <zeroes.1+0xe8>
    505c:	94 10 00 12 	mov  %l2, %o2
    5060:	40 00 0d a0 	call  86e0 <__subdf3>
    5064:	96 10 00 13 	mov  %l3, %o3
    5068:	94 10 00 10 	mov  %l0, %o2
    506c:	40 00 0f 40 	call  8d6c <__gtdf2>
    5070:	96 10 00 11 	mov  %l1, %o3
    5074:	80 a2 20 00 	cmp  %o0, 0
    5078:	24 bf fd 44 	ble,a   4588 <_dtoa_r+0x544>
    507c:	d6 07 bf e0 	ld  [ %fp + -32 ], %o3
    5080:	b0 06 3f ff 	add  %i0, -1, %i0
    5084:	c2 4e 00 00 	ldsb  [ %i0 ], %g1
    5088:	80 a0 60 30 	cmp  %g1, 0x30
    508c:	22 bf ff fe 	be,a   5084 <_dtoa_r+0x1040>
    5090:	b0 06 3f ff 	add  %i0, -1, %i0
    5094:	10 bf fd 1f 	b  4510 <_dtoa_r+0x4cc>
    5098:	b0 06 20 01 	inc  %i0
    509c:	10 bf fc d4 	b  43ec <_dtoa_r+0x3a8>
    50a0:	9a 10 20 01 	mov  1, %o5
    50a4:	a4 a0 00 1d 	subcc  %g0, %i5, %l2
    50a8:	02 bf fc c7 	be  43c4 <_dtoa_r+0x380>
    50ac:	c2 07 bf d4 	ld  [ %fp + -44 ], %g1
    50b0:	9a 0c a0 0f 	and  %l2, 0xf, %o5
    50b4:	03 00 00 26 	sethi  %hi(0x9800), %g1
    50b8:	9b 2b 60 03 	sll  %o5, 3, %o5
    50bc:	82 10 63 50 	or  %g1, 0x350, %g1
    50c0:	98 00 40 0d 	add  %g1, %o5, %o4
    50c4:	d0 1b 00 00 	ldd  [ %o4 ], %o0
    50c8:	94 10 00 14 	mov  %l4, %o2
    50cc:	40 00 0d 9c 	call  873c <__muldf3>
    50d0:	96 10 00 15 	mov  %l5, %o3
    50d4:	a1 3c a0 04 	sra  %l2, 4, %l0
    50d8:	a8 10 00 08 	mov  %o0, %l4
    50dc:	80 a4 20 00 	cmp  %l0, 0
    50e0:	02 bf fc b8 	be  43c0 <_dtoa_r+0x37c>
    50e4:	aa 10 00 09 	mov  %o1, %l5
    50e8:	03 00 00 27 	sethi  %hi(0x9c00), %g1
    50ec:	a4 10 60 18 	or  %g1, 0x18, %l2	! 9c18 <__mprec_bigtens>
    50f0:	80 8c 20 01 	btst  1, %l0
    50f4:	22 80 00 0c 	be,a   5124 <_dtoa_r+0x10e0>
    50f8:	a1 3c 20 01 	sra  %l0, 1, %l0
    50fc:	83 2e 60 03 	sll  %i1, 3, %g1
    5100:	9a 04 80 01 	add  %l2, %g1, %o5
    5104:	d0 1b 40 00 	ldd  [ %o5 ], %o0
    5108:	94 10 00 14 	mov  %l4, %o2
    510c:	96 10 00 15 	mov  %l5, %o3
    5110:	40 00 0d 8b 	call  873c <__muldf3>
    5114:	a2 04 60 01 	inc  %l1
    5118:	a8 10 00 08 	mov  %o0, %l4
    511c:	aa 10 00 09 	mov  %o1, %l5
    5120:	a1 3c 20 01 	sra  %l0, 1, %l0
    5124:	80 a4 20 00 	cmp  %l0, 0
    5128:	12 bf ff f2 	bne  50f0 <_dtoa_r+0x10ac>
    512c:	b2 06 60 01 	inc  %i1
    5130:	10 bf fc a5 	b  43c4 <_dtoa_r+0x380>
    5134:	c2 07 bf d4 	ld  [ %fp + -44 ], %g1
    5138:	c0 27 bf d0 	clr  [ %fp + -48 ]
    513c:	d8 07 a0 54 	ld  [ %fp + 0x54 ], %o4
    5140:	80 a3 20 00 	cmp  %o4, 0
    5144:	04 80 00 06 	ble  515c <_dtoa_r+0x1118>
    5148:	9a 10 20 01 	mov  1, %o5
    514c:	f2 07 a0 54 	ld  [ %fp + 0x54 ], %i1
    5150:	f2 27 bf dc 	st  %i1, [ %fp + -36 ]
    5154:	10 bf fc 4c 	b  4284 <_dtoa_r+0x240>
    5158:	f2 27 bf e4 	st  %i1, [ %fp + -28 ]
    515c:	10 bf ff fc 	b  514c <_dtoa_r+0x1108>
    5160:	da 27 a0 54 	st  %o5, [ %fp + 0x54 ]
    5164:	c0 27 bf d0 	clr  [ %fp + -48 ]
    5168:	d6 07 a0 54 	ld  [ %fp + 0x54 ], %o3
    516c:	82 02 c0 1d 	add  %o3, %i5, %g1
    5170:	b2 00 60 01 	add  %g1, 1, %i1
    5174:	c2 27 bf dc 	st  %g1, [ %fp + -36 ]
    5178:	80 a6 60 00 	cmp  %i1, 0
    517c:	14 bf fc 42 	bg  4284 <_dtoa_r+0x240>
    5180:	f2 27 bf e4 	st  %i1, [ %fp + -28 ]
    5184:	10 bf fc 40 	b  4284 <_dtoa_r+0x240>
    5188:	b2 10 20 01 	mov  1, %i1
    518c:	9a 20 00 1d 	neg  %i5, %o5
    5190:	98 23 00 1d 	sub  %o4, %i5, %o4
    5194:	da 27 bf e8 	st  %o5, [ %fp + -24 ]
    5198:	d8 27 bf ec 	st  %o4, [ %fp + -20 ]
    519c:	10 bf fc 23 	b  4228 <_dtoa_r+0x1e4>
    51a0:	c0 27 bf cc 	clr  [ %fp + -52 ]
    51a4:	b8 10 20 00 	clr  %i4
    51a8:	10 bf fc 1a 	b  4210 <_dtoa_r+0x1cc>
    51ac:	e0 27 bf ec 	st  %l0, [ %fp + -20 ]
    51b0:	40 00 0f 3a 	call  8e98 <__floatsidf>
    51b4:	90 10 00 1d 	mov  %i5, %o0
    51b8:	94 10 00 08 	mov  %o0, %o2
    51bc:	96 10 00 09 	mov  %o1, %o3
    51c0:	90 10 00 12 	mov  %l2, %o0
    51c4:	40 00 0e d1 	call  8d08 <__nedf2>
    51c8:	92 10 00 13 	mov  %l3, %o1
    51cc:	80 a0 00 08 	cmp  %g0, %o0
    51d0:	10 bf fb f9 	b  41b4 <_dtoa_r+0x170>
    51d4:	ba 67 60 00 	subx  %i5, 0, %i5
    51d8:	c2 07 bf f4 	ld  [ %fp + -12 ], %g1
    51dc:	f4 07 bf f0 	ld  [ %fp + -16 ], %i2
    51e0:	9a 06 80 01 	add  %i2, %g1, %o5
    51e4:	b2 03 64 32 	add  %o5, 0x432, %i1
    51e8:	82 20 00 19 	neg  %i1, %g1
    51ec:	80 a6 60 20 	cmp  %i1, 0x20
    51f0:	04 80 00 06 	ble  5208 <_dtoa_r+0x11c4>
    51f4:	a1 2d 40 01 	sll  %l5, %g1, %l0
    51f8:	9a 03 64 12 	add  %o5, 0x412, %o5
    51fc:	83 2d 00 01 	sll  %l4, %g1, %g1
    5200:	9b 35 40 0d 	srl  %l5, %o5, %o5
    5204:	a0 10 40 0d 	or  %g1, %o5, %l0
    5208:	40 00 0f 24 	call  8e98 <__floatsidf>
    520c:	90 10 00 10 	mov  %l0, %o0
    5210:	80 a4 20 00 	cmp  %l0, 0
    5214:	06 80 00 09 	bl  5238 <_dtoa_r+0x11f4>
    5218:	1b 00 00 26 	sethi  %hi(0x9800), %o5
    521c:	03 3f 84 00 	sethi  %hi(0xfe100000), %g1
    5220:	ae 10 00 09 	mov  %o1, %l7
    5224:	ac 00 40 08 	add  %g1, %o0, %l6
    5228:	b2 06 7b cd 	add  %i1, -1075, %i1
    522c:	82 10 20 01 	mov  1, %g1
    5230:	10 bf fb be 	b  4128 <_dtoa_r+0xe4>
    5234:	c2 27 bf c8 	st  %g1, [ %fp + -56 ]
    5238:	40 00 0d 16 	call  8690 <__adddf3>
    523c:	d4 1b 62 a8 	ldd  [ %o5 + 0x2a8 ], %o2
    5240:	10 bf ff f8 	b  5220 <_dtoa_r+0x11dc>
    5244:	03 3f 84 00 	sethi  %hi(0xfe100000), %g1
    5248:	d8 07 a0 58 	ld  [ %fp + 0x58 ], %o4
    524c:	03 00 00 09 	sethi  %hi(0x2400), %g1
    5250:	80 a5 60 00 	cmp  %l5, 0
    5254:	82 10 63 0f 	or  %g1, 0x30f, %g1
    5258:	12 80 00 07 	bne  5274 <_dtoa_r+0x1230>
    525c:	c2 23 00 00 	st  %g1, [ %o4 ]
    5260:	03 3f fc 00 	sethi  %hi(0xfff00000), %g1
    5264:	1b 00 00 26 	sethi  %hi(0x9800), %o5
    5268:	80 ad 00 01 	andncc  %l4, %g1, %g0
    526c:	02 80 00 04 	be  527c <_dtoa_r+0x1238>
    5270:	b0 13 62 98 	or  %o5, 0x298, %i0
    5274:	03 00 00 26 	sethi  %hi(0x9800), %g1
    5278:	b0 10 62 68 	or  %g1, 0x268, %i0	! 9a68 <zeroes.1+0x60>
    527c:	da 07 a0 60 	ld  [ %fp + 0x60 ], %o5
    5280:	80 a3 60 00 	cmp  %o5, 0
    5284:	02 80 00 1a 	be  52ec <_dtoa_r+0x12a8>
    5288:	82 10 00 18 	mov  %i0, %g1
    528c:	c2 4e 20 03 	ldsb  [ %i0 + 3 ], %g1
    5290:	80 a0 60 00 	cmp  %g1, 0
    5294:	12 80 00 03 	bne  52a0 <_dtoa_r+0x125c>
    5298:	9a 06 20 08 	add  %i0, 8, %o5
    529c:	9a 06 20 03 	add  %i0, 3, %o5
    52a0:	c2 07 a0 60 	ld  [ %fp + 0x60 ], %g1
    52a4:	10 bf fb 8d 	b  40d8 <_dtoa_r+0x94>
    52a8:	da 20 40 00 	st  %o5, [ %g1 ]
    52ac:	1b 20 00 00 	sethi  %hi(0x80000000), %o5
    52b0:	c2 24 00 00 	st  %g1, [ %l0 ]
    52b4:	10 bf fb 73 	b  4080 <_dtoa_r+0x3c>
    52b8:	a8 2d 00 0d 	andn  %l4, %o5, %l4
    52bc:	c2 06 20 44 	ld  [ %i0 + 0x44 ], %g1
    52c0:	92 10 00 0b 	mov  %o3, %o1
    52c4:	c2 22 e0 04 	st  %g1, [ %o3 + 4 ]
    52c8:	da 06 20 44 	ld  [ %i0 + 0x44 ], %o5
    52cc:	82 10 20 01 	mov  1, %g1
    52d0:	90 10 00 18 	mov  %i0, %o0
    52d4:	83 28 40 0d 	sll  %g1, %o5, %g1
    52d8:	40 00 04 44 	call  63e8 <_Bfree>
    52dc:	c2 22 e0 08 	st  %g1, [ %o3 + 8 ]
    52e0:	d6 07 a0 44 	ld  [ %fp + 0x44 ], %o3
    52e4:	10 bf fb 63 	b  4070 <_dtoa_r+0x2c>
    52e8:	c0 22 e0 40 	clr  [ %o3 + 0x40 ]
    52ec:	81 c7 e0 08 	ret 
    52f0:	91 e8 00 01 	restore  %g0, %g1, %o0

000052f4 <fflush>:
    52f4:	9d e3 bf 98 	save  %sp, -104, %sp
    52f8:	80 a6 20 00 	cmp  %i0, 0
    52fc:	02 80 00 35 	be  53d0 <fflush+0xdc>
    5300:	03 00 00 28 	sethi  %hi(0xa000), %g1
    5304:	d0 06 20 54 	ld  [ %i0 + 0x54 ], %o0
    5308:	80 a2 20 00 	cmp  %o0, 0
    530c:	32 80 00 07 	bne,a   5328 <fflush+0x34>
    5310:	c2 02 20 38 	ld  [ %o0 + 0x38 ], %g1
    5314:	03 00 00 28 	sethi  %hi(0xa000), %g1
    5318:	da 00 61 20 	ld  [ %g1 + 0x120 ], %o5	! a120 <_impure_ptr>
    531c:	da 26 20 54 	st  %o5, [ %i0 + 0x54 ]
    5320:	90 10 00 0d 	mov  %o5, %o0
    5324:	c2 02 20 38 	ld  [ %o0 + 0x38 ], %g1
    5328:	80 a0 60 00 	cmp  %g1, 0
    532c:	02 80 00 25 	be  53c0 <fflush+0xcc>
    5330:	01 00 00 00 	nop 
    5334:	d0 56 20 0c 	ldsh  [ %i0 + 0xc ], %o0
    5338:	80 8a 20 08 	btst  8, %o0
    533c:	02 80 00 29 	be  53e0 <fflush+0xec>
    5340:	9a 10 20 00 	clr  %o5
    5344:	e0 06 20 10 	ld  [ %i0 + 0x10 ], %l0
    5348:	80 a4 20 00 	cmp  %l0, 0
    534c:	02 80 00 25 	be  53e0 <fflush+0xec>
    5350:	80 8a 20 03 	btst  3, %o0
    5354:	c2 06 00 00 	ld  [ %i0 ], %g1
    5358:	b2 20 40 10 	sub  %g1, %l0, %i1
    535c:	e0 26 00 00 	st  %l0, [ %i0 ]
    5360:	12 80 00 03 	bne  536c <fflush+0x78>
    5364:	82 10 20 00 	clr  %g1
    5368:	c2 06 20 14 	ld  [ %i0 + 0x14 ], %g1
    536c:	80 a6 60 00 	cmp  %i1, 0
    5370:	04 80 00 0d 	ble  53a4 <fflush+0xb0>
    5374:	c2 26 20 08 	st  %g1, [ %i0 + 8 ]
    5378:	d0 06 20 1c 	ld  [ %i0 + 0x1c ], %o0
    537c:	c2 06 20 24 	ld  [ %i0 + 0x24 ], %g1
    5380:	92 10 00 10 	mov  %l0, %o1
    5384:	9f c0 40 00 	call  %g1
    5388:	94 10 00 19 	mov  %i1, %o2
    538c:	80 a2 20 00 	cmp  %o0, 0
    5390:	04 80 00 07 	ble  53ac <fflush+0xb8>
    5394:	b2 26 40 08 	sub  %i1, %o0, %i1
    5398:	80 a6 60 00 	cmp  %i1, 0
    539c:	14 bf ff f7 	bg  5378 <fflush+0x84>
    53a0:	a0 04 00 08 	add  %l0, %o0, %l0
    53a4:	10 80 00 0f 	b  53e0 <fflush+0xec>
    53a8:	9a 10 20 00 	clr  %o5
    53ac:	c2 16 20 0c 	lduh  [ %i0 + 0xc ], %g1
    53b0:	9a 10 3f ff 	mov  -1, %o5
    53b4:	82 10 60 40 	or  %g1, 0x40, %g1
    53b8:	10 80 00 0a 	b  53e0 <fflush+0xec>
    53bc:	c2 36 20 0c 	sth  %g1, [ %i0 + 0xc ]
    53c0:	40 00 00 7a 	call  55a8 <__sinit>
    53c4:	01 00 00 00 	nop 
    53c8:	10 bf ff dc 	b  5338 <fflush+0x44>
    53cc:	d0 56 20 0c 	ldsh  [ %i0 + 0xc ], %o0
    53d0:	f0 00 61 20 	ld  [ %g1 + 0x120 ], %i0
    53d4:	33 00 00 14 	sethi  %hi(0x5000), %i1
    53d8:	40 00 02 74 	call  5da8 <_fwalk>
    53dc:	93 ee 62 f4 	restore  %i1, 0x2f4, %o1
    53e0:	81 c7 e0 08 	ret 
    53e4:	91 e8 00 0d 	restore  %g0, %o5, %o0

000053e8 <std>:
    53e8:	03 00 00 1c 	sethi  %hi(0x7000), %g1
    53ec:	1b 00 00 1c 	sethi  %hi(0x7000), %o5
    53f0:	82 10 62 a0 	or  %g1, 0x2a0, %g1
    53f4:	9a 13 62 e8 	or  %o5, 0x2e8, %o5
    53f8:	c2 22 20 20 	st  %g1, [ %o0 + 0x20 ]
    53fc:	da 22 20 24 	st  %o5, [ %o0 + 0x24 ]
    5400:	03 00 00 1c 	sethi  %hi(0x7000), %g1
    5404:	1b 00 00 1c 	sethi  %hi(0x7000), %o5
    5408:	82 10 63 40 	or  %g1, 0x340, %g1
    540c:	9a 13 63 8c 	or  %o5, 0x38c, %o5
    5410:	d2 32 20 0c 	sth  %o1, [ %o0 + 0xc ]
    5414:	d4 32 20 0e 	sth  %o2, [ %o0 + 0xe ]
    5418:	d6 22 20 54 	st  %o3, [ %o0 + 0x54 ]
    541c:	c0 22 00 00 	clr  [ %o0 ]
    5420:	c0 22 20 04 	clr  [ %o0 + 4 ]
    5424:	c0 22 20 08 	clr  [ %o0 + 8 ]
    5428:	c0 22 20 10 	clr  [ %o0 + 0x10 ]
    542c:	c0 22 20 14 	clr  [ %o0 + 0x14 ]
    5430:	c0 22 20 18 	clr  [ %o0 + 0x18 ]
    5434:	d0 22 20 1c 	st  %o0, [ %o0 + 0x1c ]
    5438:	c2 22 20 28 	st  %g1, [ %o0 + 0x28 ]
    543c:	81 c3 e0 08 	retl 
    5440:	da 22 20 2c 	st  %o5, [ %o0 + 0x2c ]

00005444 <__sfmoreglue>:
    5444:	9d e3 bf 98 	save  %sp, -104, %sp
    5448:	90 10 00 18 	mov  %i0, %o0
    544c:	a0 06 40 19 	add  %i1, %i1, %l0
    5450:	a0 04 00 19 	add  %l0, %i1, %l0
    5454:	a1 2c 20 03 	sll  %l0, 3, %l0
    5458:	a0 24 00 19 	sub  %l0, %i1, %l0
    545c:	a1 2c 20 02 	sll  %l0, 2, %l0
    5460:	7f ff f0 2b 	call  150c <_malloc_r>
    5464:	92 04 20 0c 	add  %l0, 0xc, %o1
    5468:	94 10 00 10 	mov  %l0, %o2
    546c:	a2 92 20 00 	orcc  %o0, 0, %l1
    5470:	02 80 00 0a 	be  5498 <__sfmoreglue+0x54>
    5474:	b0 10 20 00 	clr  %i0
    5478:	82 04 60 0c 	add  %l1, 0xc, %g1
    547c:	f2 24 60 04 	st  %i1, [ %l1 + 4 ]
    5480:	c0 24 40 00 	clr  [ %l1 ]
    5484:	92 10 20 00 	clr  %o1
    5488:	90 10 00 01 	mov  %g1, %o0
    548c:	c2 24 60 08 	st  %g1, [ %l1 + 8 ]
    5490:	7f ff f1 72 	call  1a58 <memset>
    5494:	b0 10 00 11 	mov  %l1, %i0
    5498:	81 c7 e0 08 	ret 
    549c:	81 e8 00 00 	restore 

000054a0 <__sfp>:
    54a0:	9d e3 bf 98 	save  %sp, -104, %sp
    54a4:	c2 06 20 38 	ld  [ %i0 + 0x38 ], %g1
    54a8:	80 a0 60 00 	cmp  %g1, 0
    54ac:	02 80 00 2d 	be  5560 <__sfp+0xc0>
    54b0:	01 00 00 00 	nop 
    54b4:	a0 06 22 5c 	add  %i0, 0x25c, %l0
    54b8:	da 04 20 04 	ld  [ %l0 + 4 ], %o5
    54bc:	9a 83 7f ff 	addcc  %o5, -1, %o5
    54c0:	0c 80 00 08 	bneg  54e0 <__sfp+0x40>
    54c4:	d8 04 20 08 	ld  [ %l0 + 8 ], %o4
    54c8:	c2 53 20 0c 	ldsh  [ %o4 + 0xc ], %g1
    54cc:	80 a0 60 00 	cmp  %g1, 0
    54d0:	02 80 00 13 	be  551c <__sfp+0x7c>
    54d4:	9a 83 7f ff 	addcc  %o5, -1, %o5
    54d8:	1c bf ff fc 	bpos  54c8 <__sfp+0x28>
    54dc:	98 03 20 5c 	add  %o4, 0x5c, %o4
    54e0:	d0 04 00 00 	ld  [ %l0 ], %o0
    54e4:	80 a2 20 00 	cmp  %o0, 0
    54e8:	22 80 00 04 	be,a   54f8 <__sfp+0x58>
    54ec:	90 10 00 18 	mov  %i0, %o0
    54f0:	10 bf ff f2 	b  54b8 <__sfp+0x18>
    54f4:	a0 10 00 08 	mov  %o0, %l0
    54f8:	7f ff ff d3 	call  5444 <__sfmoreglue>
    54fc:	92 10 20 04 	mov  4, %o1
    5500:	80 a2 20 00 	cmp  %o0, 0
    5504:	12 bf ff fb 	bne  54f0 <__sfp+0x50>
    5508:	d0 24 00 00 	st  %o0, [ %l0 ]
    550c:	82 10 20 0c 	mov  0xc, %g1
    5510:	c2 26 00 00 	st  %g1, [ %i0 ]
    5514:	10 80 00 17 	b  5570 <__sfp+0xd0>
    5518:	b0 10 20 00 	clr  %i0
    551c:	f0 23 20 54 	st  %i0, [ %o4 + 0x54 ]
    5520:	82 10 20 01 	mov  1, %g1
    5524:	9a 10 3f ff 	mov  -1, %o5
    5528:	c0 23 00 00 	clr  [ %o4 ]
    552c:	c0 23 20 08 	clr  [ %o4 + 8 ]
    5530:	c0 23 20 04 	clr  [ %o4 + 4 ]
    5534:	c0 23 20 10 	clr  [ %o4 + 0x10 ]
    5538:	c0 23 20 14 	clr  [ %o4 + 0x14 ]
    553c:	c0 23 20 18 	clr  [ %o4 + 0x18 ]
    5540:	c0 23 20 30 	clr  [ %o4 + 0x30 ]
    5544:	c0 23 20 34 	clr  [ %o4 + 0x34 ]
    5548:	c0 23 20 44 	clr  [ %o4 + 0x44 ]
    554c:	c0 23 20 48 	clr  [ %o4 + 0x48 ]
    5550:	b0 10 00 0c 	mov  %o4, %i0
    5554:	c2 33 20 0c 	sth  %g1, [ %o4 + 0xc ]
    5558:	10 80 00 06 	b  5570 <__sfp+0xd0>
    555c:	da 33 20 0e 	sth  %o5, [ %o4 + 0xe ]
    5560:	40 00 00 12 	call  55a8 <__sinit>
    5564:	90 10 00 18 	mov  %i0, %o0
    5568:	10 bf ff d4 	b  54b8 <__sfp+0x18>
    556c:	a0 06 22 5c 	add  %i0, 0x25c, %l0
    5570:	81 c7 e0 08 	ret 
    5574:	81 e8 00 00 	restore 

00005578 <_cleanup_r>:
    5578:	13 00 00 14 	sethi  %hi(0x5000), %o1
    557c:	92 12 62 f4 	or  %o1, 0x2f4, %o1	! 52f4 <fflush>
    5580:	82 13 c0 00 	mov  %o7, %g1
    5584:	40 00 02 09 	call  5da8 <_fwalk>
    5588:	9e 10 40 00 	mov  %g1, %o7
    558c:	01 00 00 00 	nop 

00005590 <_cleanup>:
    5590:	03 00 00 28 	sethi  %hi(0xa000), %g1
    5594:	d0 00 61 20 	ld  [ %g1 + 0x120 ], %o0	! a120 <_impure_ptr>
    5598:	82 13 c0 00 	mov  %o7, %g1
    559c:	7f ff ff f7 	call  5578 <_cleanup_r>
    55a0:	9e 10 40 00 	mov  %g1, %o7
    55a4:	01 00 00 00 	nop 

000055a8 <__sinit>:
    55a8:	9d e3 bf 98 	save  %sp, -104, %sp
    55ac:	d0 06 20 04 	ld  [ %i0 + 4 ], %o0
    55b0:	9a 10 20 01 	mov  1, %o5
    55b4:	03 00 00 15 	sethi  %hi(0x5400), %g1
    55b8:	82 10 61 78 	or  %g1, 0x178, %g1	! 5578 <_cleanup_r>
    55bc:	da 26 20 38 	st  %o5, [ %i0 + 0x38 ]
    55c0:	c2 26 20 3c 	st  %g1, [ %i0 + 0x3c ]
    55c4:	9a 06 22 68 	add  %i0, 0x268, %o5
    55c8:	82 10 20 03 	mov  3, %g1
    55cc:	96 10 00 18 	mov  %i0, %o3
    55d0:	c2 26 22 60 	st  %g1, [ %i0 + 0x260 ]
    55d4:	da 26 22 64 	st  %o5, [ %i0 + 0x264 ]
    55d8:	c0 26 22 5c 	clr  [ %i0 + 0x25c ]
    55dc:	92 10 20 04 	mov  4, %o1
    55e0:	7f ff ff 82 	call  53e8 <std>
    55e4:	94 10 20 00 	clr  %o2
    55e8:	d0 06 20 08 	ld  [ %i0 + 8 ], %o0
    55ec:	96 10 00 18 	mov  %i0, %o3
    55f0:	b6 10 00 18 	mov  %i0, %i3
    55f4:	92 10 20 09 	mov  9, %o1
    55f8:	7f ff ff 7c 	call  53e8 <std>
    55fc:	94 10 20 01 	mov  1, %o2
    5600:	f0 06 20 0c 	ld  [ %i0 + 0xc ], %i0
    5604:	b2 10 20 0a 	mov  0xa, %i1
    5608:	7f ff ff 78 	call  53e8 <std>
    560c:	95 e8 20 02 	restore  %g0, 2, %o2
    5610:	01 00 00 00 	nop 

00005614 <_free_r>:
    5614:	9d e3 bf 98 	save  %sp, -104, %sp
    5618:	80 a6 60 00 	cmp  %i1, 0
    561c:	02 80 00 a0 	be  589c <_free_r+0x288>
    5620:	a4 10 00 18 	mov  %i0, %l2
    5624:	a0 06 7f f8 	add  %i1, -8, %l0
    5628:	7f ff f1 39 	call  1b0c <__malloc_lock>
    562c:	90 10 00 18 	mov  %i0, %o0
    5630:	d8 04 20 04 	ld  [ %l0 + 4 ], %o4
    5634:	27 00 00 28 	sethi  %hi(0xa000), %l3
    5638:	9e 0b 3f fe 	and  %o4, -2, %o7
    563c:	a2 14 e1 28 	or  %l3, 0x128, %l1
    5640:	92 04 00 0f 	add  %l0, %o7, %o1
    5644:	c2 04 60 08 	ld  [ %l1 + 8 ], %g1
    5648:	da 02 60 04 	ld  [ %o1 + 4 ], %o5
    564c:	80 a2 40 01 	cmp  %o1, %g1
    5650:	02 80 00 7d 	be  5844 <_free_r+0x230>
    5654:	96 0b 7f fc 	and  %o5, -4, %o3
    5658:	80 8b 20 01 	btst  1, %o4
    565c:	d6 22 60 04 	st  %o3, [ %o1 + 4 ]
    5660:	12 80 00 0c 	bne  5690 <_free_r+0x7c>
    5664:	98 10 20 00 	clr  %o4
    5668:	f2 06 7f f8 	ld  [ %i1 + -8 ], %i1
    566c:	82 04 60 08 	add  %l1, 8, %g1
    5670:	a0 24 00 19 	sub  %l0, %i1, %l0
    5674:	da 04 20 08 	ld  [ %l0 + 8 ], %o5
    5678:	80 a3 40 01 	cmp  %o5, %g1
    567c:	02 80 00 70 	be  583c <_free_r+0x228>
    5680:	9e 03 c0 19 	add  %o7, %i1, %o7
    5684:	d0 04 20 0c 	ld  [ %l0 + 0xc ], %o0
    5688:	da 22 20 08 	st  %o5, [ %o0 + 8 ]
    568c:	d0 23 60 0c 	st  %o0, [ %o5 + 0xc ]
    5690:	82 02 40 0b 	add  %o1, %o3, %g1
    5694:	da 00 60 04 	ld  [ %g1 + 4 ], %o5
    5698:	80 8b 60 01 	btst  1, %o5
    569c:	12 80 00 0f 	bne  56d8 <_free_r+0xc4>
    56a0:	82 13 e0 01 	or  %o7, 1, %g1
    56a4:	80 a3 20 00 	cmp  %o4, 0
    56a8:	12 80 00 63 	bne  5834 <_free_r+0x220>
    56ac:	9e 03 c0 0b 	add  %o7, %o3, %o7
    56b0:	da 02 60 08 	ld  [ %o1 + 8 ], %o5
    56b4:	03 00 00 28 	sethi  %hi(0xa000), %g1
    56b8:	82 10 61 30 	or  %g1, 0x130, %g1	! a130 <__malloc_av_+0x8>
    56bc:	80 a3 40 01 	cmp  %o5, %g1
    56c0:	22 80 00 58 	be,a   5820 <_free_r+0x20c>
    56c4:	e0 23 60 0c 	st  %l0, [ %o5 + 0xc ]
    56c8:	d0 02 60 0c 	ld  [ %o1 + 0xc ], %o0
    56cc:	da 22 20 08 	st  %o5, [ %o0 + 8 ]
    56d0:	d0 23 60 0c 	st  %o0, [ %o5 + 0xc ]
    56d4:	82 13 e0 01 	or  %o7, 1, %g1
    56d8:	80 a3 20 00 	cmp  %o4, 0
    56dc:	de 24 00 0f 	st  %o7, [ %l0 + %o7 ]
    56e0:	02 80 00 05 	be  56f4 <_free_r+0xe0>
    56e4:	c2 24 20 04 	st  %g1, [ %l0 + 4 ]
    56e8:	b0 10 00 12 	mov  %l2, %i0
    56ec:	7f ff f1 0a 	call  1b14 <__malloc_unlock>
    56f0:	81 e8 00 00 	restore 
    56f4:	80 a3 e1 ff 	cmp  %o7, 0x1ff
    56f8:	18 80 00 12 	bgu  5740 <_free_r+0x12c>
    56fc:	95 33 e0 09 	srl  %o7, 9, %o2
    5700:	96 14 e1 28 	or  %l3, 0x128, %o3
    5704:	9b 33 e0 03 	srl  %o7, 3, %o5
    5708:	83 2b 60 03 	sll  %o5, 3, %g1
    570c:	90 00 40 0b 	add  %g1, %o3, %o0
    5710:	d4 02 20 08 	ld  [ %o0 + 8 ], %o2
    5714:	d8 02 e0 04 	ld  [ %o3 + 4 ], %o4
    5718:	d0 24 20 0c 	st  %o0, [ %l0 + 0xc ]
    571c:	d4 24 20 08 	st  %o2, [ %l0 + 8 ]
    5720:	9b 33 60 02 	srl  %o5, 2, %o5
    5724:	82 10 20 01 	mov  1, %g1
    5728:	e0 22 a0 0c 	st  %l0, [ %o2 + 0xc ]
    572c:	83 28 40 0d 	sll  %g1, %o5, %g1
    5730:	e0 22 20 08 	st  %l0, [ %o0 + 8 ]
    5734:	98 13 00 01 	or  %o4, %g1, %o4
    5738:	10 bf ff ec 	b  56e8 <_free_r+0xd4>
    573c:	d8 22 e0 04 	st  %o4, [ %o3 + 4 ]
    5740:	80 a2 a0 00 	cmp  %o2, 0
    5744:	02 80 00 16 	be  579c <_free_r+0x188>
    5748:	9b 33 e0 03 	srl  %o7, 3, %o5
    574c:	83 33 e0 06 	srl  %o7, 6, %g1
    5750:	80 a2 a0 04 	cmp  %o2, 4
    5754:	08 80 00 12 	bleu  579c <_free_r+0x188>
    5758:	9a 00 60 38 	add  %g1, 0x38, %o5
    575c:	80 a2 a0 14 	cmp  %o2, 0x14
    5760:	08 80 00 0f 	bleu  579c <_free_r+0x188>
    5764:	9a 02 a0 5b 	add  %o2, 0x5b, %o5
    5768:	83 33 e0 0c 	srl  %o7, 0xc, %g1
    576c:	80 a2 a0 54 	cmp  %o2, 0x54
    5770:	08 80 00 0b 	bleu  579c <_free_r+0x188>
    5774:	9a 00 60 6e 	add  %g1, 0x6e, %o5
    5778:	83 33 e0 0f 	srl  %o7, 0xf, %g1
    577c:	80 a2 a1 54 	cmp  %o2, 0x154
    5780:	08 80 00 07 	bleu  579c <_free_r+0x188>
    5784:	9a 00 60 77 	add  %g1, 0x77, %o5
    5788:	83 33 e0 12 	srl  %o7, 0x12, %g1
    578c:	80 a2 a5 54 	cmp  %o2, 0x554
    5790:	08 80 00 03 	bleu  579c <_free_r+0x188>
    5794:	9a 00 60 7c 	add  %g1, 0x7c, %o5
    5798:	9a 10 20 7e 	mov  0x7e, %o5
    579c:	96 14 e1 28 	or  %l3, 0x128, %o3
    57a0:	83 2b 60 03 	sll  %o5, 3, %g1
    57a4:	90 00 40 0b 	add  %g1, %o3, %o0
    57a8:	d4 02 20 08 	ld  [ %o0 + 8 ], %o2
    57ac:	80 a2 80 08 	cmp  %o2, %o0
    57b0:	22 80 00 16 	be,a   5808 <_free_r+0x1f4>
    57b4:	c2 02 e0 04 	ld  [ %o3 + 4 ], %g1
    57b8:	c2 02 a0 04 	ld  [ %o2 + 4 ], %g1
    57bc:	82 08 7f fc 	and  %g1, -4, %g1
    57c0:	80 a3 c0 01 	cmp  %o7, %g1
    57c4:	3a 80 00 0c 	bcc,a   57f4 <_free_r+0x1e0>
    57c8:	d0 02 a0 0c 	ld  [ %o2 + 0xc ], %o0
    57cc:	d4 02 a0 08 	ld  [ %o2 + 8 ], %o2
    57d0:	80 a2 80 08 	cmp  %o2, %o0
    57d4:	22 80 00 08 	be,a   57f4 <_free_r+0x1e0>
    57d8:	d0 02 a0 0c 	ld  [ %o2 + 0xc ], %o0
    57dc:	c2 02 a0 04 	ld  [ %o2 + 4 ], %g1
    57e0:	82 08 7f fc 	and  %g1, -4, %g1
    57e4:	80 a3 c0 01 	cmp  %o7, %g1
    57e8:	2a bf ff fa 	bcs,a   57d0 <_free_r+0x1bc>
    57ec:	d4 02 a0 08 	ld  [ %o2 + 8 ], %o2
    57f0:	d0 02 a0 0c 	ld  [ %o2 + 0xc ], %o0
    57f4:	d0 24 20 0c 	st  %o0, [ %l0 + 0xc ]
    57f8:	d4 24 20 08 	st  %o2, [ %l0 + 8 ]
    57fc:	e0 22 a0 0c 	st  %l0, [ %o2 + 0xc ]
    5800:	10 bf ff ba 	b  56e8 <_free_r+0xd4>
    5804:	e0 22 20 08 	st  %l0, [ %o0 + 8 ]
    5808:	99 33 60 02 	srl  %o5, 2, %o4
    580c:	9a 10 20 01 	mov  1, %o5
    5810:	9b 2b 40 0c 	sll  %o5, %o4, %o5
    5814:	82 10 40 0d 	or  %g1, %o5, %g1
    5818:	10 bf ff f7 	b  57f4 <_free_r+0x1e0>
    581c:	c2 22 e0 04 	st  %g1, [ %o3 + 4 ]
    5820:	e0 23 60 08 	st  %l0, [ %o5 + 8 ]
    5824:	da 24 20 08 	st  %o5, [ %l0 + 8 ]
    5828:	da 24 20 0c 	st  %o5, [ %l0 + 0xc ]
    582c:	10 bf ff aa 	b  56d4 <_free_r+0xc0>
    5830:	98 10 20 01 	mov  1, %o4
    5834:	10 bf ff a5 	b  56c8 <_free_r+0xb4>
    5838:	da 02 60 08 	ld  [ %o1 + 8 ], %o5
    583c:	10 bf ff 95 	b  5690 <_free_r+0x7c>
    5840:	98 10 20 01 	mov  1, %o4
    5844:	80 8b 20 01 	btst  1, %o4
    5848:	12 80 00 09 	bne  586c <_free_r+0x258>
    584c:	9e 03 c0 0b 	add  %o7, %o3, %o7
    5850:	f2 06 7f f8 	ld  [ %i1 + -8 ], %i1
    5854:	a0 24 00 19 	sub  %l0, %i1, %l0
    5858:	d0 04 20 0c 	ld  [ %l0 + 0xc ], %o0
    585c:	d4 04 20 08 	ld  [ %l0 + 8 ], %o2
    5860:	9e 03 c0 19 	add  %o7, %i1, %o7
    5864:	d4 22 20 08 	st  %o2, [ %o0 + 8 ]
    5868:	d0 22 a0 0c 	st  %o0, [ %o2 + 0xc ]
    586c:	03 00 00 29 	sethi  %hi(0xa400), %g1
    5870:	da 00 61 30 	ld  [ %g1 + 0x130 ], %o5	! a530 <__malloc_trim_threshold>
    5874:	e0 24 60 08 	st  %l0, [ %l1 + 8 ]
    5878:	82 13 e0 01 	or  %o7, 1, %g1
    587c:	80 a3 c0 0d 	cmp  %o7, %o5
    5880:	0a bf ff 9b 	bcs  56ec <_free_r+0xd8>
    5884:	c2 24 20 04 	st  %g1, [ %l0 + 4 ]
    5888:	03 00 00 29 	sethi  %hi(0xa400), %g1
    588c:	d2 00 61 68 	ld  [ %g1 + 0x168 ], %o1	! a568 <__malloc_top_pad>
    5890:	40 00 00 05 	call  58a4 <_malloc_trim_r>
    5894:	90 10 00 12 	mov  %l2, %o0
    5898:	30 bf ff 95 	b,a   56ec <_free_r+0xd8>
    589c:	81 c7 e0 08 	ret 
    58a0:	81 e8 00 00 	restore 

000058a4 <_malloc_trim_r>:
    58a4:	9d e3 bf 98 	save  %sp, -104, %sp
    58a8:	7f ff f0 99 	call  1b0c <__malloc_lock>
    58ac:	90 10 00 18 	mov  %i0, %o0
    58b0:	03 00 00 28 	sethi  %hi(0xa000), %g1
    58b4:	a2 10 61 28 	or  %g1, 0x128, %l1	! a128 <__malloc_av_>
    58b8:	da 04 60 08 	ld  [ %l1 + 8 ], %o5
    58bc:	92 10 20 00 	clr  %o1
    58c0:	c2 03 60 04 	ld  [ %o5 + 4 ], %g1
    58c4:	a0 08 7f fc 	and  %g1, -4, %l0
    58c8:	b2 24 00 19 	sub  %l0, %i1, %i1
    58cc:	b2 06 6f ef 	add  %i1, 0xfef, %i1
    58d0:	b2 0e 70 00 	and  %i1, -4096, %i1
    58d4:	b2 06 70 00 	add  %i1, -4096, %i1
    58d8:	80 a6 6f ff 	cmp  %i1, 0xfff
    58dc:	04 80 00 0b 	ble  5908 <_malloc_trim_r+0x64>
    58e0:	90 10 00 18 	mov  %i0, %o0
    58e4:	7f ff f1 ed 	call  2098 <_sbrk_r>
    58e8:	01 00 00 00 	nop 
    58ec:	c2 04 60 08 	ld  [ %l1 + 8 ], %g1
    58f0:	98 10 00 08 	mov  %o0, %o4
    58f4:	82 00 40 10 	add  %g1, %l0, %g1
    58f8:	90 10 00 18 	mov  %i0, %o0
    58fc:	80 a3 00 01 	cmp  %o4, %g1
    5900:	02 80 00 05 	be  5914 <_malloc_trim_r+0x70>
    5904:	92 20 00 19 	neg  %i1, %o1
    5908:	7f ff f0 83 	call  1b14 <__malloc_unlock>
    590c:	b0 10 20 00 	clr  %i0
    5910:	30 80 00 24 	b,a   59a0 <_malloc_trim_r+0xfc>
    5914:	7f ff f1 e1 	call  2098 <_sbrk_r>
    5918:	90 10 00 18 	mov  %i0, %o0
    591c:	82 24 00 19 	sub  %l0, %i1, %g1
    5920:	9a 10 00 08 	mov  %o0, %o5
    5924:	82 10 60 01 	or  %g1, 1, %g1
    5928:	92 10 20 00 	clr  %o1
    592c:	90 10 00 18 	mov  %i0, %o0
    5930:	80 a3 7f ff 	cmp  %o5, -1
    5934:	02 80 00 0b 	be  5960 <_malloc_trim_r+0xbc>
    5938:	19 00 00 29 	sethi  %hi(0xa400), %o4
    593c:	da 04 60 08 	ld  [ %l1 + 8 ], %o5
    5940:	90 10 00 18 	mov  %i0, %o0
    5944:	c2 23 60 04 	st  %g1, [ %o5 + 4 ]
    5948:	c2 03 21 74 	ld  [ %o4 + 0x174 ], %g1
    594c:	b0 10 20 01 	mov  1, %i0
    5950:	82 20 40 19 	sub  %g1, %i1, %g1
    5954:	7f ff f0 70 	call  1b14 <__malloc_unlock>
    5958:	c2 23 21 74 	st  %g1, [ %o4 + 0x174 ]
    595c:	30 80 00 11 	b,a   59a0 <_malloc_trim_r+0xfc>
    5960:	7f ff f1 ce 	call  2098 <_sbrk_r>
    5964:	01 00 00 00 	nop 
    5968:	d6 04 60 08 	ld  [ %l1 + 8 ], %o3
    596c:	98 10 00 08 	mov  %o0, %o4
    5970:	90 10 00 18 	mov  %i0, %o0
    5974:	a0 23 00 0b 	sub  %o4, %o3, %l0
    5978:	80 a4 20 0f 	cmp  %l0, 0xf
    597c:	04 bf ff e3 	ble  5908 <_malloc_trim_r+0x64>
    5980:	94 14 20 01 	or  %l0, 1, %o2
    5984:	03 00 00 29 	sethi  %hi(0xa400), %g1
    5988:	da 00 61 34 	ld  [ %g1 + 0x134 ], %o5	! a534 <__malloc_sbrk_base>
    598c:	03 00 00 29 	sethi  %hi(0xa400), %g1
    5990:	9a 23 00 0d 	sub  %o4, %o5, %o5
    5994:	da 20 61 74 	st  %o5, [ %g1 + 0x174 ]
    5998:	10 bf ff dc 	b  5908 <_malloc_trim_r+0x64>
    599c:	d4 22 e0 04 	st  %o2, [ %o3 + 4 ]
    59a0:	81 c7 e0 08 	ret 
    59a4:	81 e8 00 00 	restore 

000059a8 <__sfvwrite>:
    59a8:	9d e3 bf 98 	save  %sp, -104, %sp
    59ac:	e2 06 60 08 	ld  [ %i1 + 8 ], %l1
    59b0:	80 a4 60 00 	cmp  %l1, 0
    59b4:	02 80 00 fb 	be  5da0 <__sfvwrite+0x3f8>
    59b8:	9a 10 20 00 	clr  %o5
    59bc:	c2 16 20 0c 	lduh  [ %i0 + 0xc ], %g1
    59c0:	80 88 60 08 	btst  8, %g1
    59c4:	02 80 00 06 	be  59dc <__sfvwrite+0x34>
    59c8:	da 16 20 0c 	lduh  [ %i0 + 0xc ], %o5
    59cc:	c2 06 20 10 	ld  [ %i0 + 0x10 ], %g1
    59d0:	80 a0 60 00 	cmp  %g1, 0
    59d4:	12 80 00 09 	bne  59f8 <__sfvwrite+0x50>
    59d8:	83 2b 60 10 	sll  %o5, 0x10, %g1
    59dc:	7f ff f8 c4 	call  3cec <__swsetup>
    59e0:	90 10 00 18 	mov  %i0, %o0
    59e4:	80 a2 20 00 	cmp  %o0, 0
    59e8:	12 80 00 ee 	bne  5da0 <__sfvwrite+0x3f8>
    59ec:	9a 10 3f ff 	mov  -1, %o5
    59f0:	da 16 20 0c 	lduh  [ %i0 + 0xc ], %o5
    59f4:	83 2b 60 10 	sll  %o5, 0x10, %g1
    59f8:	e4 06 40 00 	ld  [ %i1 ], %l2
    59fc:	83 30 60 10 	srl  %g1, 0x10, %g1
    5a00:	80 88 60 02 	btst  2, %g1
    5a04:	02 80 00 22 	be  5a8c <__sfvwrite+0xe4>
    5a08:	a2 10 20 00 	clr  %l1
    5a0c:	80 a4 60 00 	cmp  %l1, 0
    5a10:	12 80 00 08 	bne  5a30 <__sfvwrite+0x88>
    5a14:	80 a4 64 00 	cmp  %l1, 0x400
    5a18:	e2 04 a0 04 	ld  [ %l2 + 4 ], %l1
    5a1c:	e6 04 80 00 	ld  [ %l2 ], %l3
    5a20:	80 a4 60 00 	cmp  %l1, 0
    5a24:	02 bf ff fd 	be  5a18 <__sfvwrite+0x70>
    5a28:	a4 04 a0 08 	add  %l2, 8, %l2
    5a2c:	80 a4 64 00 	cmp  %l1, 0x400
    5a30:	d0 06 20 1c 	ld  [ %i0 + 0x1c ], %o0
    5a34:	08 80 00 03 	bleu  5a40 <__sfvwrite+0x98>
    5a38:	94 10 00 11 	mov  %l1, %o2
    5a3c:	94 10 24 00 	mov  0x400, %o2
    5a40:	c2 06 20 24 	ld  [ %i0 + 0x24 ], %g1
    5a44:	9f c0 40 00 	call  %g1
    5a48:	92 10 00 13 	mov  %l3, %o1
    5a4c:	a0 92 20 00 	orcc  %o0, 0, %l0
    5a50:	04 80 00 0a 	ble  5a78 <__sfvwrite+0xd0>
    5a54:	a6 04 c0 10 	add  %l3, %l0, %l3
    5a58:	c2 06 60 08 	ld  [ %i1 + 8 ], %g1
    5a5c:	82 20 40 10 	sub  %g1, %l0, %g1
    5a60:	a2 24 40 10 	sub  %l1, %l0, %l1
    5a64:	80 a0 60 00 	cmp  %g1, 0
    5a68:	12 bf ff e9 	bne  5a0c <__sfvwrite+0x64>
    5a6c:	c2 26 60 08 	st  %g1, [ %i1 + 8 ]
    5a70:	10 80 00 cc 	b  5da0 <__sfvwrite+0x3f8>
    5a74:	9a 10 20 00 	clr  %o5
    5a78:	c2 16 20 0c 	lduh  [ %i0 + 0xc ], %g1
    5a7c:	9a 10 3f ff 	mov  -1, %o5
    5a80:	82 10 60 40 	or  %g1, 0x40, %g1
    5a84:	10 80 00 c7 	b  5da0 <__sfvwrite+0x3f8>
    5a88:	c2 36 20 0c 	sth  %g1, [ %i0 + 0xc ]
    5a8c:	80 88 60 01 	btst  1, %g1
    5a90:	12 80 00 67 	bne  5c2c <__sfvwrite+0x284>
    5a94:	aa 10 20 00 	clr  %l5
    5a98:	e2 04 a0 04 	ld  [ %l2 + 4 ], %l1
    5a9c:	e6 04 80 00 	ld  [ %l2 ], %l3
    5aa0:	80 a4 60 00 	cmp  %l1, 0
    5aa4:	02 bf ff fd 	be  5a98 <__sfvwrite+0xf0>
    5aa8:	a4 04 a0 08 	add  %l2, 8, %l2
    5aac:	83 2b 60 10 	sll  %o5, 0x10, %g1
    5ab0:	83 30 60 10 	srl  %g1, 0x10, %g1
    5ab4:	80 88 62 00 	btst  0x200, %g1
    5ab8:	02 80 00 31 	be  5b7c <__sfvwrite+0x1d4>
    5abc:	e0 06 20 08 	ld  [ %i0 + 8 ], %l0
    5ac0:	80 a4 40 10 	cmp  %l1, %l0
    5ac4:	08 80 00 06 	bleu  5adc <__sfvwrite+0x134>
    5ac8:	01 00 00 00 	nop 
    5acc:	80 88 60 80 	btst  0x80, %g1
    5ad0:	32 80 00 1c 	bne,a   5b40 <__sfvwrite+0x198>
    5ad4:	d2 06 20 10 	ld  [ %i0 + 0x10 ], %o1
    5ad8:	80 a4 40 10 	cmp  %l1, %l0
    5adc:	2a 80 00 02 	bcs,a   5ae4 <__sfvwrite+0x13c>
    5ae0:	a0 10 00 11 	mov  %l1, %l0
    5ae4:	d0 06 00 00 	ld  [ %i0 ], %o0
    5ae8:	94 10 00 10 	mov  %l0, %o2
    5aec:	40 00 01 ce 	call  6224 <memmove>
    5af0:	92 10 00 13 	mov  %l3, %o1
    5af4:	c2 06 20 08 	ld  [ %i0 + 8 ], %g1
    5af8:	da 06 00 00 	ld  [ %i0 ], %o5
    5afc:	82 20 40 10 	sub  %g1, %l0, %g1
    5b00:	9a 03 40 10 	add  %o5, %l0, %o5
    5b04:	c2 26 20 08 	st  %g1, [ %i0 + 8 ]
    5b08:	da 26 00 00 	st  %o5, [ %i0 ]
    5b0c:	a0 10 00 11 	mov  %l1, %l0
    5b10:	c2 06 60 08 	ld  [ %i1 + 8 ], %g1
    5b14:	a6 04 c0 10 	add  %l3, %l0, %l3
    5b18:	82 20 40 10 	sub  %g1, %l0, %g1
    5b1c:	a2 24 40 10 	sub  %l1, %l0, %l1
    5b20:	80 a0 60 00 	cmp  %g1, 0
    5b24:	02 bf ff d3 	be  5a70 <__sfvwrite+0xc8>
    5b28:	c2 26 60 08 	st  %g1, [ %i1 + 8 ]
    5b2c:	80 a4 60 00 	cmp  %l1, 0
    5b30:	12 bf ff df 	bne  5aac <__sfvwrite+0x104>
    5b34:	da 16 20 0c 	lduh  [ %i0 + 0xc ], %o5
    5b38:	10 bf ff d9 	b  5a9c <__sfvwrite+0xf4>
    5b3c:	e2 04 a0 04 	ld  [ %l2 + 4 ], %l1
    5b40:	c2 06 00 00 	ld  [ %i0 ], %g1
    5b44:	d0 06 20 54 	ld  [ %i0 + 0x54 ], %o0
    5b48:	a8 20 40 09 	sub  %g1, %o1, %l4
    5b4c:	a0 05 00 11 	add  %l4, %l1, %l0
    5b50:	7f ff f0 18 	call  1bb0 <_realloc_r>
    5b54:	94 10 00 10 	mov  %l0, %o2
    5b58:	80 a2 20 00 	cmp  %o0, 0
    5b5c:	02 bf ff c7 	be  5a78 <__sfvwrite+0xd0>
    5b60:	82 02 00 14 	add  %o0, %l4, %g1
    5b64:	e0 26 20 14 	st  %l0, [ %i0 + 0x14 ]
    5b68:	c2 26 00 00 	st  %g1, [ %i0 ]
    5b6c:	d0 26 20 10 	st  %o0, [ %i0 + 0x10 ]
    5b70:	e2 26 20 08 	st  %l1, [ %i0 + 8 ]
    5b74:	10 bf ff d9 	b  5ad8 <__sfvwrite+0x130>
    5b78:	a0 10 00 11 	mov  %l1, %l0
    5b7c:	c2 06 20 10 	ld  [ %i0 + 0x10 ], %g1
    5b80:	d0 06 00 00 	ld  [ %i0 ], %o0
    5b84:	80 a0 40 08 	cmp  %g1, %o0
    5b88:	9a 40 20 00 	addx  %g0, 0, %o5
    5b8c:	80 a4 00 11 	cmp  %l0, %l1
    5b90:	82 40 20 00 	addx  %g0, 0, %g1
    5b94:	80 8b 40 01 	btst  %o5, %g1
    5b98:	12 80 00 19 	bne  5bfc <__sfvwrite+0x254>
    5b9c:	92 10 00 13 	mov  %l3, %o1
    5ba0:	e0 06 20 14 	ld  [ %i0 + 0x14 ], %l0
    5ba4:	80 a4 40 10 	cmp  %l1, %l0
    5ba8:	0a 80 00 0b 	bcs  5bd4 <__sfvwrite+0x22c>
    5bac:	94 10 00 10 	mov  %l0, %o2
    5bb0:	d0 06 20 1c 	ld  [ %i0 + 0x1c ], %o0
    5bb4:	c2 06 20 24 	ld  [ %i0 + 0x24 ], %g1
    5bb8:	9f c0 40 00 	call  %g1
    5bbc:	92 10 00 13 	mov  %l3, %o1
    5bc0:	a0 92 20 00 	orcc  %o0, 0, %l0
    5bc4:	34 bf ff d4 	bg,a   5b14 <__sfvwrite+0x16c>
    5bc8:	c2 06 60 08 	ld  [ %i1 + 8 ], %g1
    5bcc:	10 bf ff ac 	b  5a7c <__sfvwrite+0xd4>
    5bd0:	c2 16 20 0c 	lduh  [ %i0 + 0xc ], %g1
    5bd4:	40 00 01 94 	call  6224 <memmove>
    5bd8:	94 10 00 11 	mov  %l1, %o2
    5bdc:	c2 06 20 08 	ld  [ %i0 + 8 ], %g1
    5be0:	da 06 00 00 	ld  [ %i0 ], %o5
    5be4:	82 20 40 11 	sub  %g1, %l1, %g1
    5be8:	9a 03 40 11 	add  %o5, %l1, %o5
    5bec:	a0 10 00 11 	mov  %l1, %l0
    5bf0:	c2 26 20 08 	st  %g1, [ %i0 + 8 ]
    5bf4:	10 bf ff c7 	b  5b10 <__sfvwrite+0x168>
    5bf8:	da 26 00 00 	st  %o5, [ %i0 ]
    5bfc:	40 00 01 8a 	call  6224 <memmove>
    5c00:	94 10 00 10 	mov  %l0, %o2
    5c04:	c2 06 00 00 	ld  [ %i0 ], %g1
    5c08:	90 10 00 18 	mov  %i0, %o0
    5c0c:	82 00 40 10 	add  %g1, %l0, %g1
    5c10:	7f ff fd b9 	call  52f4 <fflush>
    5c14:	c2 26 00 00 	st  %g1, [ %i0 ]
    5c18:	80 a2 20 00 	cmp  %o0, 0
    5c1c:	22 bf ff be 	be,a   5b14 <__sfvwrite+0x16c>
    5c20:	c2 06 60 08 	ld  [ %i1 + 8 ], %g1
    5c24:	10 bf ff 96 	b  5a7c <__sfvwrite+0xd4>
    5c28:	c2 16 20 0c 	lduh  [ %i0 + 0xc ], %g1
    5c2c:	80 a4 60 00 	cmp  %l1, 0
    5c30:	12 80 00 09 	bne  5c54 <__sfvwrite+0x2ac>
    5c34:	80 a5 60 00 	cmp  %l5, 0
    5c38:	aa 10 20 00 	clr  %l5
    5c3c:	e2 04 a0 04 	ld  [ %l2 + 4 ], %l1
    5c40:	e6 04 80 00 	ld  [ %l2 ], %l3
    5c44:	80 a4 60 00 	cmp  %l1, 0
    5c48:	02 bf ff fd 	be  5c3c <__sfvwrite+0x294>
    5c4c:	a4 04 a0 08 	add  %l2, 8, %l2
    5c50:	80 a5 60 00 	cmp  %l5, 0
    5c54:	02 80 00 48 	be  5d74 <__sfvwrite+0x3cc>
    5c58:	90 10 00 13 	mov  %l3, %o0
    5c5c:	80 a5 00 11 	cmp  %l4, %l1
    5c60:	08 80 00 03 	bleu  5c6c <__sfvwrite+0x2c4>
    5c64:	98 10 00 14 	mov  %l4, %o4
    5c68:	98 10 00 11 	mov  %l1, %o4
    5c6c:	c2 06 20 10 	ld  [ %i0 + 0x10 ], %g1
    5c70:	d0 06 00 00 	ld  [ %i0 ], %o0
    5c74:	da 06 20 08 	ld  [ %i0 + 8 ], %o5
    5c78:	d6 06 20 14 	ld  [ %i0 + 0x14 ], %o3
    5c7c:	80 a0 40 08 	cmp  %g1, %o0
    5c80:	a0 03 40 0b 	add  %o5, %o3, %l0
    5c84:	82 40 20 00 	addx  %g0, 0, %g1
    5c88:	80 a3 00 10 	cmp  %o4, %l0
    5c8c:	14 80 00 03 	bg  5c98 <__sfvwrite+0x2f0>
    5c90:	9a 10 20 01 	mov  1, %o5
    5c94:	9a 10 20 00 	clr  %o5
    5c98:	80 88 40 0d 	btst  %g1, %o5
    5c9c:	12 80 00 29 	bne  5d40 <__sfvwrite+0x398>
    5ca0:	80 a3 00 0b 	cmp  %o4, %o3
    5ca4:	06 80 00 1d 	bl  5d18 <__sfvwrite+0x370>
    5ca8:	a0 10 00 0c 	mov  %o4, %l0
    5cac:	d0 06 20 1c 	ld  [ %i0 + 0x1c ], %o0
    5cb0:	c2 06 20 24 	ld  [ %i0 + 0x24 ], %g1
    5cb4:	94 10 00 0b 	mov  %o3, %o2
    5cb8:	9f c0 40 00 	call  %g1
    5cbc:	92 10 00 13 	mov  %l3, %o1
    5cc0:	a0 92 20 00 	orcc  %o0, 0, %l0
    5cc4:	24 bf ff 6e 	ble,a   5a7c <__sfvwrite+0xd4>
    5cc8:	c2 16 20 0c 	lduh  [ %i0 + 0xc ], %g1
    5ccc:	a8 a5 00 10 	subcc  %l4, %l0, %l4
    5cd0:	02 80 00 0b 	be  5cfc <__sfvwrite+0x354>
    5cd4:	01 00 00 00 	nop 
    5cd8:	c2 06 60 08 	ld  [ %i1 + 8 ], %g1
    5cdc:	a6 04 c0 10 	add  %l3, %l0, %l3
    5ce0:	82 20 40 10 	sub  %g1, %l0, %g1
    5ce4:	a2 24 40 10 	sub  %l1, %l0, %l1
    5ce8:	80 a0 60 00 	cmp  %g1, 0
    5cec:	12 bf ff d0 	bne  5c2c <__sfvwrite+0x284>
    5cf0:	c2 26 60 08 	st  %g1, [ %i1 + 8 ]
    5cf4:	10 80 00 2b 	b  5da0 <__sfvwrite+0x3f8>
    5cf8:	9a 10 20 00 	clr  %o5
    5cfc:	7f ff fd 7e 	call  52f4 <fflush>
    5d00:	90 10 00 18 	mov  %i0, %o0
    5d04:	80 a2 20 00 	cmp  %o0, 0
    5d08:	12 bf ff 5c 	bne  5a78 <__sfvwrite+0xd0>
    5d0c:	aa 10 20 00 	clr  %l5
    5d10:	10 bf ff f3 	b  5cdc <__sfvwrite+0x334>
    5d14:	c2 06 60 08 	ld  [ %i1 + 8 ], %g1
    5d18:	92 10 00 13 	mov  %l3, %o1
    5d1c:	40 00 01 42 	call  6224 <memmove>
    5d20:	94 10 00 0c 	mov  %o4, %o2
    5d24:	c2 06 20 08 	ld  [ %i0 + 8 ], %g1
    5d28:	da 06 00 00 	ld  [ %i0 ], %o5
    5d2c:	82 20 40 10 	sub  %g1, %l0, %g1
    5d30:	9a 03 40 10 	add  %o5, %l0, %o5
    5d34:	c2 26 20 08 	st  %g1, [ %i0 + 8 ]
    5d38:	10 bf ff e5 	b  5ccc <__sfvwrite+0x324>
    5d3c:	da 26 00 00 	st  %o5, [ %i0 ]
    5d40:	92 10 00 13 	mov  %l3, %o1
    5d44:	40 00 01 38 	call  6224 <memmove>
    5d48:	94 10 00 10 	mov  %l0, %o2
    5d4c:	c2 06 00 00 	ld  [ %i0 ], %g1
    5d50:	90 10 00 18 	mov  %i0, %o0
    5d54:	82 00 40 10 	add  %g1, %l0, %g1
    5d58:	7f ff fd 67 	call  52f4 <fflush>
    5d5c:	c2 26 00 00 	st  %g1, [ %i0 ]
    5d60:	80 a2 20 00 	cmp  %o0, 0
    5d64:	22 bf ff db 	be,a   5cd0 <__sfvwrite+0x328>
    5d68:	a8 a5 00 10 	subcc  %l4, %l0, %l4
    5d6c:	10 bf ff 44 	b  5a7c <__sfvwrite+0xd4>
    5d70:	c2 16 20 0c 	lduh  [ %i0 + 0xc ], %g1
    5d74:	92 10 20 0a 	mov  0xa, %o1
    5d78:	40 00 00 c0 	call  6078 <memchr>
    5d7c:	94 10 00 11 	mov  %l1, %o2
    5d80:	80 a2 20 00 	cmp  %o0, 0
    5d84:	90 22 00 13 	sub  %o0, %l3, %o0
    5d88:	02 80 00 04 	be  5d98 <__sfvwrite+0x3f0>
    5d8c:	a8 02 20 01 	add  %o0, 1, %l4
    5d90:	10 bf ff b3 	b  5c5c <__sfvwrite+0x2b4>
    5d94:	aa 10 20 01 	mov  1, %l5
    5d98:	10 bf ff fe 	b  5d90 <__sfvwrite+0x3e8>
    5d9c:	a8 04 60 01 	add  %l1, 1, %l4
    5da0:	81 c7 e0 08 	ret 
    5da4:	91 e8 00 0d 	restore  %g0, %o5, %o0

00005da8 <_fwalk>:
    5da8:	9d e3 bf 98 	save  %sp, -104, %sp
    5dac:	b0 86 22 5c 	addcc  %i0, 0x25c, %i0
    5db0:	02 80 00 17 	be  5e0c <_fwalk+0x64>
    5db4:	a4 10 20 00 	clr  %l2
    5db8:	e2 06 20 04 	ld  [ %i0 + 4 ], %l1
    5dbc:	a2 84 7f ff 	addcc  %l1, -1, %l1
    5dc0:	0c 80 00 0a 	bneg  5de8 <_fwalk+0x40>
    5dc4:	e0 06 20 08 	ld  [ %i0 + 8 ], %l0
    5dc8:	c2 54 20 0c 	ldsh  [ %l0 + 0xc ], %g1
    5dcc:	80 a0 60 00 	cmp  %g1, 0
    5dd0:	12 80 00 0b 	bne  5dfc <_fwalk+0x54>
    5dd4:	90 10 00 10 	mov  %l0, %o0
    5dd8:	a0 04 20 5c 	add  %l0, 0x5c, %l0
    5ddc:	a2 84 7f ff 	addcc  %l1, -1, %l1
    5de0:	3c bf ff fb 	bpos,a   5dcc <_fwalk+0x24>
    5de4:	c2 54 20 0c 	ldsh  [ %l0 + 0xc ], %g1
    5de8:	f0 06 00 00 	ld  [ %i0 ], %i0
    5dec:	80 a6 20 00 	cmp  %i0, 0
    5df0:	32 bf ff f3 	bne,a   5dbc <_fwalk+0x14>
    5df4:	e2 06 20 04 	ld  [ %i0 + 4 ], %l1
    5df8:	30 80 00 05 	b,a   5e0c <_fwalk+0x64>
    5dfc:	9f c6 40 00 	call  %i1
    5e00:	a0 04 20 5c 	add  %l0, 0x5c, %l0
    5e04:	10 bf ff f6 	b  5ddc <_fwalk+0x34>
    5e08:	a4 14 80 08 	or  %l2, %o0, %l2
    5e0c:	81 c7 e0 08 	ret 
    5e10:	91 e8 00 12 	restore  %g0, %l2, %o0

00005e14 <_setlocale_r>:
    5e14:	9d e3 bf 98 	save  %sp, -104, %sp
    5e18:	80 a6 a0 00 	cmp  %i2, 0
    5e1c:	02 80 00 15 	be  5e70 <_setlocale_r+0x5c>
    5e20:	a2 10 00 18 	mov  %i0, %l1
    5e24:	90 10 00 1a 	mov  %i2, %o0
    5e28:	21 00 00 26 	sethi  %hi(0x9800), %l0
    5e2c:	40 00 05 5e 	call  73a4 <strcmp>
    5e30:	92 14 21 f0 	or  %l0, 0x1f0, %o1	! 99f0 <__CTOR_END__+0x340>
    5e34:	80 a2 20 00 	cmp  %o0, 0
    5e38:	12 80 00 06 	bne  5e50 <_setlocale_r+0x3c>
    5e3c:	90 10 00 1a 	mov  %i2, %o0
    5e40:	f4 24 60 34 	st  %i2, [ %l1 + 0x34 ]
    5e44:	f2 24 60 30 	st  %i1, [ %l1 + 0x30 ]
    5e48:	10 80 00 0c 	b  5e78 <_setlocale_r+0x64>
    5e4c:	b0 14 21 f0 	or  %l0, 0x1f0, %i0
    5e50:	13 00 00 26 	sethi  %hi(0x9800), %o1
    5e54:	b0 10 20 00 	clr  %i0
    5e58:	40 00 05 53 	call  73a4 <strcmp>
    5e5c:	92 12 62 f8 	or  %o1, 0x2f8, %o1
    5e60:	80 a2 20 00 	cmp  %o0, 0
    5e64:	22 bf ff f8 	be,a   5e44 <_setlocale_r+0x30>
    5e68:	f4 24 60 34 	st  %i2, [ %l1 + 0x34 ]
    5e6c:	30 80 00 03 	b,a   5e78 <_setlocale_r+0x64>
    5e70:	10 bf ff f6 	b  5e48 <_setlocale_r+0x34>
    5e74:	21 00 00 26 	sethi  %hi(0x9800), %l0
    5e78:	81 c7 e0 08 	ret 
    5e7c:	81 e8 00 00 	restore 

00005e80 <__locale_charset>:
    5e80:	03 00 00 29 	sethi  %hi(0xa400), %g1
    5e84:	81 c3 e0 08 	retl 
    5e88:	d0 00 61 3c 	ld  [ %g1 + 0x13c ], %o0	! a53c <charset>

00005e8c <_localeconv_r>:
    5e8c:	11 00 00 26 	sethi  %hi(0x9800), %o0
    5e90:	81 c3 e0 08 	retl 
    5e94:	90 12 23 0c 	or  %o0, 0x30c, %o0	! 9b0c <lconv>

00005e98 <setlocale>:
    5e98:	03 00 00 28 	sethi  %hi(0xa000), %g1
    5e9c:	da 00 61 20 	ld  [ %g1 + 0x120 ], %o5	! a120 <_impure_ptr>
    5ea0:	98 10 00 08 	mov  %o0, %o4
    5ea4:	94 10 00 09 	mov  %o1, %o2
    5ea8:	90 10 00 0d 	mov  %o5, %o0
    5eac:	92 10 00 0c 	mov  %o4, %o1
    5eb0:	82 13 c0 00 	mov  %o7, %g1
    5eb4:	7f ff ff d8 	call  5e14 <_setlocale_r>
    5eb8:	9e 10 40 00 	mov  %g1, %o7
    5ebc:	01 00 00 00 	nop 

00005ec0 <localeconv>:
    5ec0:	03 00 00 28 	sethi  %hi(0xa000), %g1
    5ec4:	d0 00 61 20 	ld  [ %g1 + 0x120 ], %o0	! a120 <_impure_ptr>
    5ec8:	82 13 c0 00 	mov  %o7, %g1
    5ecc:	7f ff ff f0 	call  5e8c <_localeconv_r>
    5ed0:	9e 10 40 00 	mov  %g1, %o7
    5ed4:	01 00 00 00 	nop 

00005ed8 <__smakebuf>:
    5ed8:	9d e3 bf 58 	save  %sp, -168, %sp
    5edc:	c2 16 20 0c 	lduh  [ %i0 + 0xc ], %g1
    5ee0:	80 88 60 02 	btst  2, %g1
    5ee4:	02 80 00 08 	be  5f04 <__smakebuf+0x2c>
    5ee8:	da 16 20 0c 	lduh  [ %i0 + 0xc ], %o5
    5eec:	9a 06 20 43 	add  %i0, 0x43, %o5
    5ef0:	da 26 20 10 	st  %o5, [ %i0 + 0x10 ]
    5ef4:	82 10 20 01 	mov  1, %g1
    5ef8:	da 26 00 00 	st  %o5, [ %i0 ]
    5efc:	10 80 00 48 	b  601c <__smakebuf+0x144>
    5f00:	c2 26 20 14 	st  %g1, [ %i0 + 0x14 ]
    5f04:	d2 56 20 0e 	ldsh  [ %i0 + 0xe ], %o1
    5f08:	80 a2 60 00 	cmp  %o1, 0
    5f0c:	06 80 00 40 	bl  600c <__smakebuf+0x134>
    5f10:	82 13 68 00 	or  %o5, 0x800, %g1
    5f14:	d0 06 20 54 	ld  [ %i0 + 0x54 ], %o0
    5f18:	40 00 05 97 	call  7574 <_fstat_r>
    5f1c:	94 07 bf b8 	add  %fp, -72, %o2
    5f20:	80 a2 20 00 	cmp  %o0, 0
    5f24:	06 80 00 38 	bl  6004 <__smakebuf+0x12c>
    5f28:	d8 07 bf c0 	ld  [ %fp + -64 ], %o4
    5f2c:	1b 00 00 3c 	sethi  %hi(0xf000), %o5
    5f30:	03 00 00 08 	sethi  %hi(0x2000), %g1
    5f34:	98 0b 00 0d 	and  %o4, %o5, %o4
    5f38:	82 1b 00 01 	xor  %o4, %g1, %g1
    5f3c:	80 a0 00 01 	cmp  %g0, %g1
    5f40:	a2 60 3f ff 	subx  %g0, -1, %l1
    5f44:	03 00 00 20 	sethi  %hi(0x8000), %g1
    5f48:	80 a3 00 01 	cmp  %o4, %g1
    5f4c:	02 80 00 25 	be  5fe0 <__smakebuf+0x108>
    5f50:	a0 10 24 00 	mov  0x400, %l0
    5f54:	c2 16 20 0c 	lduh  [ %i0 + 0xc ], %g1
    5f58:	82 10 68 00 	or  %g1, 0x800, %g1
    5f5c:	c2 36 20 0c 	sth  %g1, [ %i0 + 0xc ]
    5f60:	d0 06 20 54 	ld  [ %i0 + 0x54 ], %o0
    5f64:	7f ff ed 6a 	call  150c <_malloc_r>
    5f68:	92 10 24 00 	mov  0x400, %o1
    5f6c:	80 a2 20 00 	cmp  %o0, 0
    5f70:	02 80 00 16 	be  5fc8 <__smakebuf+0xf0>
    5f74:	80 a4 60 00 	cmp  %l1, 0
    5f78:	c2 16 20 0c 	lduh  [ %i0 + 0xc ], %g1
    5f7c:	da 06 20 54 	ld  [ %i0 + 0x54 ], %o5
    5f80:	82 10 60 80 	or  %g1, 0x80, %g1
    5f84:	d0 26 20 10 	st  %o0, [ %i0 + 0x10 ]
    5f88:	c2 36 20 0c 	sth  %g1, [ %i0 + 0xc ]
    5f8c:	e0 26 20 14 	st  %l0, [ %i0 + 0x14 ]
    5f90:	03 00 00 15 	sethi  %hi(0x5400), %g1
    5f94:	82 10 61 78 	or  %g1, 0x178, %g1	! 5578 <_cleanup_r>
    5f98:	d0 26 00 00 	st  %o0, [ %i0 ]
    5f9c:	02 80 00 20 	be  601c <__smakebuf+0x144>
    5fa0:	c2 23 60 3c 	st  %g1, [ %o5 + 0x3c ]
    5fa4:	40 00 05 ad 	call  7658 <isatty>
    5fa8:	d0 56 20 0e 	ldsh  [ %i0 + 0xe ], %o0
    5fac:	80 a2 20 00 	cmp  %o0, 0
    5fb0:	02 80 00 1b 	be  601c <__smakebuf+0x144>
    5fb4:	01 00 00 00 	nop 
    5fb8:	c2 16 20 0c 	lduh  [ %i0 + 0xc ], %g1
    5fbc:	82 10 60 01 	or  %g1, 1, %g1
    5fc0:	10 80 00 17 	b  601c <__smakebuf+0x144>
    5fc4:	c2 36 20 0c 	sth  %g1, [ %i0 + 0xc ]
    5fc8:	c2 16 20 0c 	lduh  [ %i0 + 0xc ], %g1
    5fcc:	9a 06 20 43 	add  %i0, 0x43, %o5
    5fd0:	82 10 60 02 	or  %g1, 2, %g1
    5fd4:	da 26 20 10 	st  %o5, [ %i0 + 0x10 ]
    5fd8:	10 bf ff c7 	b  5ef4 <__smakebuf+0x1c>
    5fdc:	c2 36 20 0c 	sth  %g1, [ %i0 + 0xc ]
    5fe0:	da 06 20 28 	ld  [ %i0 + 0x28 ], %o5
    5fe4:	03 00 00 1c 	sethi  %hi(0x7000), %g1
    5fe8:	82 10 63 40 	or  %g1, 0x340, %g1	! 7340 <__sseek>
    5fec:	80 a3 40 01 	cmp  %o5, %g1
    5ff0:	12 bf ff da 	bne  5f58 <__smakebuf+0x80>
    5ff4:	c2 16 20 0c 	lduh  [ %i0 + 0xc ], %g1
    5ff8:	e0 26 20 4c 	st  %l0, [ %i0 + 0x4c ]
    5ffc:	10 bf ff d8 	b  5f5c <__smakebuf+0x84>
    6000:	82 10 64 00 	or  %g1, 0x400, %g1
    6004:	da 16 20 0c 	lduh  [ %i0 + 0xc ], %o5
    6008:	82 13 68 00 	or  %o5, 0x800, %g1
    600c:	a2 10 20 00 	clr  %l1
    6010:	c2 36 20 0c 	sth  %g1, [ %i0 + 0xc ]
    6014:	10 bf ff d3 	b  5f60 <__smakebuf+0x88>
    6018:	a0 10 24 00 	mov  0x400, %l0
    601c:	81 c7 e0 08 	ret 
    6020:	81 e8 00 00 	restore 

00006024 <_mbtowc_r>:
    6024:	9c 03 bf 90 	add  %sp, -112, %sp
    6028:	80 a2 60 00 	cmp  %o1, 0
    602c:	22 80 00 02 	be,a   6034 <_mbtowc_r+0x10>
    6030:	92 03 a0 64 	add  %sp, 0x64, %o1
    6034:	80 a0 00 0a 	cmp  %g0, %o2
    6038:	9a 40 20 00 	addx  %g0, 0, %o5
    603c:	80 a0 00 0b 	cmp  %g0, %o3
    6040:	82 60 3f ff 	subx  %g0, -1, %g1
    6044:	80 8b 40 01 	btst  %o5, %g1
    6048:	12 80 00 0a 	bne  6070 <_mbtowc_r+0x4c>
    604c:	90 10 3f fe 	mov  -2, %o0
    6050:	80 a2 a0 00 	cmp  %o2, 0
    6054:	02 80 00 07 	be  6070 <_mbtowc_r+0x4c>
    6058:	90 10 20 00 	clr  %o0
    605c:	c2 0a 80 00 	ldub  [ %o2 ], %g1
    6060:	c2 22 40 00 	st  %g1, [ %o1 ]
    6064:	da 0a 80 00 	ldub  [ %o2 ], %o5
    6068:	80 a0 00 0d 	cmp  %g0, %o5
    606c:	90 40 20 00 	addx  %g0, 0, %o0
    6070:	81 c3 e0 08 	retl 
    6074:	9c 23 bf 90 	sub  %sp, -112, %sp

00006078 <memchr>:
    6078:	9d e3 bf 98 	save  %sp, -104, %sp
    607c:	80 a6 a0 03 	cmp  %i2, 3
    6080:	08 80 00 29 	bleu  6124 <memchr+0xac>
    6084:	b2 0e 60 ff 	and  %i1, 0xff, %i1
    6088:	80 8e 20 03 	btst  3, %i0
    608c:	32 80 00 27 	bne,a   6128 <memchr+0xb0>
    6090:	b4 06 bf ff 	add  %i2, -1, %i2
    6094:	b6 10 00 18 	mov  %i0, %i3
    6098:	9e 10 20 00 	clr  %o7
    609c:	ba 10 20 00 	clr  %i5
    60a0:	83 2b e0 08 	sll  %o7, 8, %g1
    60a4:	ba 07 60 01 	inc  %i5
    60a8:	80 a7 60 03 	cmp  %i5, 3
    60ac:	08 bf ff fd 	bleu  60a0 <memchr+0x28>
    60b0:	9e 00 40 19 	add  %g1, %i1, %o7
    60b4:	80 a6 a0 03 	cmp  %i2, 3
    60b8:	08 80 00 1a 	bleu  6120 <memchr+0xa8>
    60bc:	03 3f bf bf 	sethi  %hi(0xfefefc00), %g1
    60c0:	3b 20 20 20 	sethi  %hi(0x80808000), %i5
    60c4:	98 10 62 ff 	or  %g1, 0x2ff, %o4
    60c8:	9a 17 60 80 	or  %i5, 0x80, %o5
    60cc:	c2 06 c0 00 	ld  [ %i3 ], %g1
    60d0:	82 18 40 0f 	xor  %g1, %o7, %g1
    60d4:	ba 00 40 0c 	add  %g1, %o4, %i5
    60d8:	82 2f 40 01 	andn  %i5, %g1, %g1
    60dc:	80 88 40 0d 	btst  %g1, %o5
    60e0:	22 80 00 0d 	be,a   6114 <memchr+0x9c>
    60e4:	b4 06 bf fc 	add  %i2, -4, %i2
    60e8:	b0 10 00 1b 	mov  %i3, %i0
    60ec:	b8 10 20 00 	clr  %i4
    60f0:	c2 0e 00 00 	ldub  [ %i0 ], %g1
    60f4:	80 a0 40 19 	cmp  %g1, %i1
    60f8:	02 80 00 18 	be  6158 <memchr+0xe0>
    60fc:	ba 10 00 18 	mov  %i0, %i5
    6100:	b8 07 20 01 	inc  %i4
    6104:	80 a7 20 03 	cmp  %i4, 3
    6108:	08 bf ff fa 	bleu  60f0 <memchr+0x78>
    610c:	b0 06 20 01 	inc  %i0
    6110:	b4 06 bf fc 	add  %i2, -4, %i2
    6114:	80 a6 a0 03 	cmp  %i2, 3
    6118:	18 bf ff ed 	bgu  60cc <memchr+0x54>
    611c:	b6 06 e0 04 	add  %i3, 4, %i3
    6120:	b0 10 00 1b 	mov  %i3, %i0
    6124:	b4 06 bf ff 	add  %i2, -1, %i2
    6128:	80 a6 bf ff 	cmp  %i2, -1
    612c:	02 80 00 0b 	be  6158 <memchr+0xe0>
    6130:	ba 10 20 00 	clr  %i5
    6134:	c2 0e 00 00 	ldub  [ %i0 ], %g1
    6138:	80 a0 40 19 	cmp  %g1, %i1
    613c:	02 80 00 07 	be  6158 <memchr+0xe0>
    6140:	ba 10 00 18 	mov  %i0, %i5
    6144:	b4 06 bf ff 	add  %i2, -1, %i2
    6148:	80 a6 bf ff 	cmp  %i2, -1
    614c:	12 bf ff fa 	bne  6134 <memchr+0xbc>
    6150:	b0 06 20 01 	inc  %i0
    6154:	ba 10 20 00 	clr  %i5
    6158:	81 c7 e0 08 	ret 
    615c:	91 e8 00 1d 	restore  %g0, %i5, %o0

00006160 <memcpy>:
    6160:	80 a2 a0 0f 	cmp  %o2, 0xf
    6164:	08 80 00 23 	bleu  61f0 <memcpy+0x90>
    6168:	98 10 00 08 	mov  %o0, %o4
    616c:	82 12 40 08 	or  %o1, %o0, %g1
    6170:	80 88 60 03 	btst  3, %g1
    6174:	32 80 00 20 	bne,a   61f4 <memcpy+0x94>
    6178:	94 02 bf ff 	add  %o2, -1, %o2
    617c:	c2 02 40 00 	ld  [ %o1 ], %g1
    6180:	92 02 60 04 	add  %o1, 4, %o1
    6184:	c2 23 00 00 	st  %g1, [ %o4 ]
    6188:	da 02 40 00 	ld  [ %o1 ], %o5
    618c:	98 03 20 04 	add  %o4, 4, %o4
    6190:	92 02 60 04 	add  %o1, 4, %o1
    6194:	da 23 00 00 	st  %o5, [ %o4 ]
    6198:	c2 02 40 00 	ld  [ %o1 ], %g1
    619c:	98 03 20 04 	add  %o4, 4, %o4
    61a0:	92 02 60 04 	add  %o1, 4, %o1
    61a4:	c2 23 00 00 	st  %g1, [ %o4 ]
    61a8:	c2 02 40 00 	ld  [ %o1 ], %g1
    61ac:	98 03 20 04 	add  %o4, 4, %o4
    61b0:	94 02 bf f0 	add  %o2, -16, %o2
    61b4:	c2 23 00 00 	st  %g1, [ %o4 ]
    61b8:	80 a2 a0 0f 	cmp  %o2, 0xf
    61bc:	92 02 60 04 	add  %o1, 4, %o1
    61c0:	18 bf ff ef 	bgu  617c <memcpy+0x1c>
    61c4:	98 03 20 04 	add  %o4, 4, %o4
    61c8:	80 a2 a0 03 	cmp  %o2, 3
    61cc:	28 80 00 0a 	bleu,a   61f4 <memcpy+0x94>
    61d0:	94 02 bf ff 	add  %o2, -1, %o2
    61d4:	c2 02 40 00 	ld  [ %o1 ], %g1
    61d8:	94 02 bf fc 	add  %o2, -4, %o2
    61dc:	c2 23 00 00 	st  %g1, [ %o4 ]
    61e0:	80 a2 a0 03 	cmp  %o2, 3
    61e4:	92 02 60 04 	add  %o1, 4, %o1
    61e8:	18 bf ff fb 	bgu  61d4 <memcpy+0x74>
    61ec:	98 03 20 04 	add  %o4, 4, %o4
    61f0:	94 02 bf ff 	add  %o2, -1, %o2
    61f4:	80 a2 bf ff 	cmp  %o2, -1
    61f8:	02 80 00 09 	be  621c <memcpy+0xbc>
    61fc:	01 00 00 00 	nop 
    6200:	c2 0a 40 00 	ldub  [ %o1 ], %g1
    6204:	94 02 bf ff 	add  %o2, -1, %o2
    6208:	c2 2b 00 00 	stb  %g1, [ %o4 ]
    620c:	80 a2 bf ff 	cmp  %o2, -1
    6210:	92 02 60 01 	inc  %o1
    6214:	12 bf ff fb 	bne  6200 <memcpy+0xa0>
    6218:	98 03 20 01 	inc  %o4
    621c:	81 c3 e0 08 	retl 
    6220:	01 00 00 00 	nop 

00006224 <memmove>:
    6224:	9a 10 00 09 	mov  %o1, %o5
    6228:	80 a2 40 08 	cmp  %o1, %o0
    622c:	98 10 00 08 	mov  %o0, %o4
    6230:	1a 80 00 13 	bcc  627c <memmove+0x58>
    6234:	96 10 00 0a 	mov  %o2, %o3
    6238:	82 02 40 0a 	add  %o1, %o2, %g1
    623c:	80 a2 00 01 	cmp  %o0, %g1
    6240:	1a 80 00 10 	bcc  6280 <memmove+0x5c>
    6244:	80 a2 a0 0f 	cmp  %o2, 0xf
    6248:	96 02 bf ff 	add  %o2, -1, %o3
    624c:	92 10 00 01 	mov  %g1, %o1
    6250:	80 a2 ff ff 	cmp  %o3, -1
    6254:	02 80 00 3b 	be  6340 <memmove+0x11c>
    6258:	98 02 00 0a 	add  %o0, %o2, %o4
    625c:	92 02 7f ff 	add  %o1, -1, %o1
    6260:	c2 0a 40 00 	ldub  [ %o1 ], %g1
    6264:	98 03 3f ff 	add  %o4, -1, %o4
    6268:	96 02 ff ff 	add  %o3, -1, %o3
    626c:	80 a2 ff ff 	cmp  %o3, -1
    6270:	12 bf ff fb 	bne  625c <memmove+0x38>
    6274:	c2 2b 00 00 	stb  %g1, [ %o4 ]
    6278:	30 80 00 32 	b,a   6340 <memmove+0x11c>
    627c:	80 a2 a0 0f 	cmp  %o2, 0xf
    6280:	28 80 00 26 	bleu,a   6318 <memmove+0xf4>
    6284:	96 02 ff ff 	add  %o3, -1, %o3
    6288:	82 13 40 08 	or  %o5, %o0, %g1
    628c:	80 88 60 03 	btst  3, %g1
    6290:	32 80 00 22 	bne,a   6318 <memmove+0xf4>
    6294:	96 02 ff ff 	add  %o3, -1, %o3
    6298:	92 10 00 0d 	mov  %o5, %o1
    629c:	98 10 00 08 	mov  %o0, %o4
    62a0:	c2 02 40 00 	ld  [ %o1 ], %g1
    62a4:	92 02 60 04 	add  %o1, 4, %o1
    62a8:	c2 23 00 00 	st  %g1, [ %o4 ]
    62ac:	da 02 40 00 	ld  [ %o1 ], %o5
    62b0:	98 03 20 04 	add  %o4, 4, %o4
    62b4:	92 02 60 04 	add  %o1, 4, %o1
    62b8:	da 23 00 00 	st  %o5, [ %o4 ]
    62bc:	c2 02 40 00 	ld  [ %o1 ], %g1
    62c0:	98 03 20 04 	add  %o4, 4, %o4
    62c4:	92 02 60 04 	add  %o1, 4, %o1
    62c8:	c2 23 00 00 	st  %g1, [ %o4 ]
    62cc:	c2 02 40 00 	ld  [ %o1 ], %g1
    62d0:	98 03 20 04 	add  %o4, 4, %o4
    62d4:	96 02 ff f0 	add  %o3, -16, %o3
    62d8:	c2 23 00 00 	st  %g1, [ %o4 ]
    62dc:	80 a2 e0 0f 	cmp  %o3, 0xf
    62e0:	92 02 60 04 	add  %o1, 4, %o1
    62e4:	18 bf ff ef 	bgu  62a0 <memmove+0x7c>
    62e8:	98 03 20 04 	add  %o4, 4, %o4
    62ec:	80 a2 e0 03 	cmp  %o3, 3
    62f0:	28 80 00 0a 	bleu,a   6318 <memmove+0xf4>
    62f4:	96 02 ff ff 	add  %o3, -1, %o3
    62f8:	c2 02 40 00 	ld  [ %o1 ], %g1
    62fc:	96 02 ff fc 	add  %o3, -4, %o3
    6300:	c2 23 00 00 	st  %g1, [ %o4 ]
    6304:	80 a2 e0 03 	cmp  %o3, 3
    6308:	92 02 60 04 	add  %o1, 4, %o1
    630c:	18 bf ff fb 	bgu  62f8 <memmove+0xd4>
    6310:	98 03 20 04 	add  %o4, 4, %o4
    6314:	96 02 ff ff 	add  %o3, -1, %o3
    6318:	80 a2 ff ff 	cmp  %o3, -1
    631c:	02 80 00 09 	be  6340 <memmove+0x11c>
    6320:	01 00 00 00 	nop 
    6324:	c2 0a 40 00 	ldub  [ %o1 ], %g1
    6328:	96 02 ff ff 	add  %o3, -1, %o3
    632c:	c2 2b 00 00 	stb  %g1, [ %o4 ]
    6330:	80 a2 ff ff 	cmp  %o3, -1
    6334:	92 02 60 01 	inc  %o1
    6338:	12 bf ff fb 	bne  6324 <memmove+0x100>
    633c:	98 03 20 01 	inc  %o4
    6340:	81 c3 e0 08 	retl 
    6344:	01 00 00 00 	nop 

00006348 <_Balloc>:
    6348:	9d e3 bf 98 	save  %sp, -104, %sp
    634c:	d8 06 20 4c 	ld  [ %i0 + 0x4c ], %o4
    6350:	80 a3 20 00 	cmp  %o4, 0
    6354:	02 80 00 1b 	be  63c0 <_Balloc+0x78>
    6358:	92 10 20 04 	mov  4, %o1
    635c:	97 2e 60 02 	sll  %i1, 2, %o3
    6360:	da 03 00 0b 	ld  [ %o4 + %o3 ], %o5
    6364:	90 10 00 18 	mov  %i0, %o0
    6368:	82 10 20 01 	mov  1, %g1
    636c:	92 10 20 01 	mov  1, %o1
    6370:	b1 28 40 19 	sll  %g1, %i1, %i0
    6374:	80 a3 60 00 	cmp  %o5, 0
    6378:	95 2e 20 02 	sll  %i0, 2, %o2
    637c:	02 80 00 08 	be  639c <_Balloc+0x54>
    6380:	94 02 a0 14 	add  %o2, 0x14, %o2
    6384:	c2 03 40 00 	ld  [ %o5 ], %g1
    6388:	c2 23 00 0b 	st  %g1, [ %o4 + %o3 ]
    638c:	82 10 00 0d 	mov  %o5, %g1
    6390:	c0 23 60 10 	clr  [ %o5 + 0x10 ]
    6394:	10 80 00 13 	b  63e0 <_Balloc+0x98>
    6398:	c0 23 60 0c 	clr  [ %o5 + 0xc ]
    639c:	7f ff eb ab 	call  1248 <_calloc_r>
    63a0:	01 00 00 00 	nop 
    63a4:	82 10 20 00 	clr  %g1	! 0 <__DYNAMIC>
    63a8:	80 a2 20 00 	cmp  %o0, 0
    63ac:	02 80 00 0d 	be  63e0 <_Balloc+0x98>
    63b0:	9a 10 00 08 	mov  %o0, %o5
    63b4:	f2 22 20 04 	st  %i1, [ %o0 + 4 ]
    63b8:	10 bf ff f5 	b  638c <_Balloc+0x44>
    63bc:	f0 22 20 08 	st  %i0, [ %o0 + 8 ]
    63c0:	94 10 20 10 	mov  0x10, %o2
    63c4:	7f ff eb a1 	call  1248 <_calloc_r>
    63c8:	90 10 00 18 	mov  %i0, %o0
    63cc:	82 10 20 00 	clr  %g1
    63d0:	d0 26 20 4c 	st  %o0, [ %i0 + 0x4c ]
    63d4:	80 a2 20 00 	cmp  %o0, 0
    63d8:	12 bf ff e1 	bne  635c <_Balloc+0x14>
    63dc:	98 10 00 08 	mov  %o0, %o4
    63e0:	81 c7 e0 08 	ret 
    63e4:	91 e8 00 01 	restore  %g0, %g1, %o0

000063e8 <_Bfree>:
    63e8:	80 a2 60 00 	cmp  %o1, 0
    63ec:	02 80 00 08 	be  640c <_Bfree+0x24>
    63f0:	01 00 00 00 	nop 
    63f4:	c2 02 20 4c 	ld  [ %o0 + 0x4c ], %g1
    63f8:	da 02 60 04 	ld  [ %o1 + 4 ], %o5
    63fc:	9b 2b 60 02 	sll  %o5, 2, %o5
    6400:	d8 00 40 0d 	ld  [ %g1 + %o5 ], %o4
    6404:	d8 22 40 00 	st  %o4, [ %o1 ]
    6408:	d2 20 40 0d 	st  %o1, [ %g1 + %o5 ]
    640c:	81 c3 e0 08 	retl 
    6410:	01 00 00 00 	nop 

00006414 <_multadd>:
    6414:	9d e3 bf 98 	save  %sp, -104, %sp
    6418:	e8 06 60 10 	ld  [ %i1 + 0x10 ], %l4
    641c:	03 00 00 3f 	sethi  %hi(0xfc00), %g1
    6420:	a4 06 60 14 	add  %i1, 0x14, %l2
    6424:	aa 10 63 ff 	or  %g1, 0x3ff, %l5
    6428:	a6 10 20 00 	clr  %l3
    642c:	e2 04 80 00 	ld  [ %l2 ], %l1
    6430:	92 10 00 1a 	mov  %i2, %o1
    6434:	40 00 04 99 	call  7698 <.umul>
    6438:	90 0c 40 15 	and  %l1, %l5, %o0
    643c:	a3 34 60 10 	srl  %l1, 0x10, %l1
    6440:	a0 02 00 1b 	add  %o0, %i3, %l0
    6444:	92 10 00 1a 	mov  %i2, %o1
    6448:	40 00 04 94 	call  7698 <.umul>
    644c:	90 10 00 11 	mov  %l1, %o0
    6450:	9a 0c 00 15 	and  %l0, %l5, %o5
    6454:	a6 04 e0 01 	inc  %l3
    6458:	a1 34 20 10 	srl  %l0, 0x10, %l0
    645c:	80 a4 c0 14 	cmp  %l3, %l4
    6460:	90 02 00 10 	add  %o0, %l0, %o0
    6464:	83 2a 20 10 	sll  %o0, 0x10, %g1
    6468:	b7 32 20 10 	srl  %o0, 0x10, %i3
    646c:	82 00 40 0d 	add  %g1, %o5, %g1
    6470:	c2 24 80 00 	st  %g1, [ %l2 ]
    6474:	06 bf ff ee 	bl  642c <_multadd+0x18>
    6478:	a4 04 a0 04 	add  %l2, 4, %l2
    647c:	80 a6 e0 00 	cmp  %i3, 0
    6480:	02 80 00 1c 	be  64f0 <_multadd+0xdc>
    6484:	01 00 00 00 	nop 
    6488:	c2 06 60 08 	ld  [ %i1 + 8 ], %g1
    648c:	80 a5 00 01 	cmp  %l4, %g1
    6490:	36 80 00 08 	bge,a   64b0 <_multadd+0x9c>
    6494:	d2 06 60 04 	ld  [ %i1 + 4 ], %o1
    6498:	83 2d 20 02 	sll  %l4, 2, %g1
    649c:	a8 05 20 01 	inc  %l4
    64a0:	82 00 40 19 	add  %g1, %i1, %g1
    64a4:	e8 26 60 10 	st  %l4, [ %i1 + 0x10 ]
    64a8:	10 80 00 12 	b  64f0 <_multadd+0xdc>
    64ac:	f6 20 60 14 	st  %i3, [ %g1 + 0x14 ]
    64b0:	90 10 00 18 	mov  %i0, %o0
    64b4:	7f ff ff a5 	call  6348 <_Balloc>
    64b8:	92 02 60 01 	inc  %o1
    64bc:	d4 06 60 10 	ld  [ %i1 + 0x10 ], %o2
    64c0:	92 06 60 0c 	add  %i1, 0xc, %o1
    64c4:	a0 10 00 08 	mov  %o0, %l0
    64c8:	95 2a a0 02 	sll  %o2, 2, %o2
    64cc:	90 02 20 0c 	add  %o0, 0xc, %o0
    64d0:	7f ff ff 24 	call  6160 <memcpy>
    64d4:	94 02 a0 08 	add  %o2, 8, %o2
    64d8:	90 10 00 18 	mov  %i0, %o0
    64dc:	92 10 00 19 	mov  %i1, %o1
    64e0:	7f ff ff c2 	call  63e8 <_Bfree>
    64e4:	b2 10 00 10 	mov  %l0, %i1
    64e8:	10 bf ff ed 	b  649c <_multadd+0x88>
    64ec:	83 2d 20 02 	sll  %l4, 2, %g1
    64f0:	81 c7 e0 08 	ret 
    64f4:	91 e8 00 19 	restore  %g0, %i1, %o0

000064f8 <_s2b>:
    64f8:	9d e3 bf 98 	save  %sp, -104, %sp
    64fc:	92 10 20 09 	mov  9, %o1
    6500:	40 00 04 a2 	call  7788 <.div>
    6504:	90 06 e0 08 	add  %i3, 8, %o0
    6508:	82 10 20 01 	mov  1, %g1
    650c:	80 a2 20 01 	cmp  %o0, 1
    6510:	04 80 00 06 	ble  6528 <_s2b+0x30>
    6514:	92 10 20 00 	clr  %o1
    6518:	82 00 40 01 	add  %g1, %g1, %g1
    651c:	80 a2 00 01 	cmp  %o0, %g1
    6520:	14 bf ff fe 	bg  6518 <_s2b+0x20>
    6524:	92 02 60 01 	inc  %o1
    6528:	7f ff ff 88 	call  6348 <_Balloc>
    652c:	90 10 00 18 	mov  %i0, %o0
    6530:	82 10 20 01 	mov  1, %g1
    6534:	f8 22 20 14 	st  %i4, [ %o0 + 0x14 ]
    6538:	80 a6 a0 09 	cmp  %i2, 9
    653c:	c2 22 20 10 	st  %g1, [ %o0 + 0x10 ]
    6540:	04 80 00 1b 	ble  65ac <_s2b+0xb4>
    6544:	b8 10 20 09 	mov  9, %i4
    6548:	b2 06 60 09 	add  %i1, 9, %i1
    654c:	d6 4e 40 00 	ldsb  [ %i1 ], %o3
    6550:	92 10 00 08 	mov  %o0, %o1
    6554:	96 02 ff d0 	add  %o3, -48, %o3
    6558:	90 10 00 18 	mov  %i0, %o0
    655c:	7f ff ff ae 	call  6414 <_multadd>
    6560:	94 10 20 0a 	mov  0xa, %o2
    6564:	b8 07 20 01 	inc  %i4
    6568:	80 a7 00 1a 	cmp  %i4, %i2
    656c:	06 bf ff f8 	bl  654c <_s2b+0x54>
    6570:	b2 06 60 01 	inc  %i1
    6574:	b2 06 60 01 	inc  %i1
    6578:	80 a7 00 1b 	cmp  %i4, %i3
    657c:	16 80 00 0e 	bge  65b4 <_s2b+0xbc>
    6580:	b8 26 c0 1c 	sub  %i3, %i4, %i4
    6584:	d6 4e 40 00 	ldsb  [ %i1 ], %o3
    6588:	92 10 00 08 	mov  %o0, %o1
    658c:	96 02 ff d0 	add  %o3, -48, %o3
    6590:	90 10 00 18 	mov  %i0, %o0
    6594:	7f ff ff a0 	call  6414 <_multadd>
    6598:	94 10 20 0a 	mov  0xa, %o2
    659c:	b8 87 3f ff 	addcc  %i4, -1, %i4
    65a0:	12 bf ff f9 	bne  6584 <_s2b+0x8c>
    65a4:	b2 06 60 01 	inc  %i1
    65a8:	30 80 00 03 	b,a   65b4 <_s2b+0xbc>
    65ac:	10 bf ff f3 	b  6578 <_s2b+0x80>
    65b0:	b2 06 60 0a 	add  %i1, 0xa, %i1
    65b4:	81 c7 e0 08 	ret 
    65b8:	91 e8 00 08 	restore  %g0, %o0, %o0

000065bc <_hi0bits>:
    65bc:	03 3f ff c0 	sethi  %hi(0xffff0000), %g1
    65c0:	80 8a 00 01 	btst  %o0, %g1
    65c4:	12 80 00 04 	bne  65d4 <_hi0bits+0x18>
    65c8:	9a 10 20 00 	clr  %o5
    65cc:	9a 10 20 10 	mov  0x10, %o5
    65d0:	91 2a 20 10 	sll  %o0, 0x10, %o0
    65d4:	03 3f c0 00 	sethi  %hi(0xff000000), %g1
    65d8:	80 8a 00 01 	btst  %o0, %g1
    65dc:	12 80 00 04 	bne  65ec <_hi0bits+0x30>
    65e0:	03 3c 00 00 	sethi  %hi(0xf0000000), %g1
    65e4:	9a 03 60 08 	add  %o5, 8, %o5
    65e8:	91 2a 20 08 	sll  %o0, 8, %o0
    65ec:	80 8a 00 01 	btst  %o0, %g1
    65f0:	12 80 00 04 	bne  6600 <_hi0bits+0x44>
    65f4:	03 30 00 00 	sethi  %hi(0xc0000000), %g1
    65f8:	9a 03 60 04 	add  %o5, 4, %o5
    65fc:	91 2a 20 04 	sll  %o0, 4, %o0
    6600:	80 8a 00 01 	btst  %o0, %g1
    6604:	12 80 00 05 	bne  6618 <_hi0bits+0x5c>
    6608:	80 a2 20 00 	cmp  %o0, 0
    660c:	9a 03 60 02 	add  %o5, 2, %o5
    6610:	91 2a 20 02 	sll  %o0, 2, %o0
    6614:	80 a2 20 00 	cmp  %o0, 0
    6618:	06 80 00 06 	bl  6630 <_hi0bits+0x74>
    661c:	03 10 00 00 	sethi  %hi(0x40000000), %g1
    6620:	9a 03 60 01 	inc  %o5
    6624:	80 8a 00 01 	btst  %o0, %g1
    6628:	02 80 00 03 	be  6634 <_hi0bits+0x78>
    662c:	90 10 20 20 	mov  0x20, %o0
    6630:	90 10 00 0d 	mov  %o5, %o0
    6634:	81 c3 e0 08 	retl 
    6638:	01 00 00 00 	nop 

0000663c <_lo0bits>:
    663c:	da 02 00 00 	ld  [ %o0 ], %o5
    6640:	80 8b 60 07 	btst  7, %o5
    6644:	02 80 00 0e 	be  667c <_lo0bits+0x40>
    6648:	98 10 00 08 	mov  %o0, %o4
    664c:	80 8b 60 01 	btst  1, %o5
    6650:	12 80 00 2b 	bne  66fc <_lo0bits+0xc0>
    6654:	90 10 20 00 	clr  %o0
    6658:	80 8b 60 02 	btst  2, %o5
    665c:	02 80 00 06 	be  6674 <_lo0bits+0x38>
    6660:	83 33 60 02 	srl  %o5, 2, %g1
    6664:	83 33 60 01 	srl  %o5, 1, %g1
    6668:	90 10 20 01 	mov  1, %o0
    666c:	10 80 00 24 	b  66fc <_lo0bits+0xc0>
    6670:	c2 23 00 00 	st  %g1, [ %o4 ]
    6674:	10 bf ff fe 	b  666c <_lo0bits+0x30>
    6678:	90 10 20 02 	mov  2, %o0
    667c:	03 00 00 3f 	sethi  %hi(0xfc00), %g1
    6680:	82 10 63 ff 	or  %g1, 0x3ff, %g1	! ffff <__end+0x5707>
    6684:	80 8b 40 01 	btst  %o5, %g1
    6688:	12 80 00 04 	bne  6698 <_lo0bits+0x5c>
    668c:	82 10 20 00 	clr  %g1
    6690:	82 10 20 10 	mov  0x10, %g1
    6694:	9b 33 60 10 	srl  %o5, 0x10, %o5
    6698:	80 8b 60 ff 	btst  0xff, %o5
    669c:	12 80 00 05 	bne  66b0 <_lo0bits+0x74>
    66a0:	80 8b 60 0f 	btst  0xf, %o5
    66a4:	82 00 60 08 	add  %g1, 8, %g1
    66a8:	9b 33 60 08 	srl  %o5, 8, %o5
    66ac:	80 8b 60 0f 	btst  0xf, %o5
    66b0:	12 80 00 05 	bne  66c4 <_lo0bits+0x88>
    66b4:	80 8b 60 03 	btst  3, %o5
    66b8:	82 00 60 04 	add  %g1, 4, %g1
    66bc:	9b 33 60 04 	srl  %o5, 4, %o5
    66c0:	80 8b 60 03 	btst  3, %o5
    66c4:	12 80 00 05 	bne  66d8 <_lo0bits+0x9c>
    66c8:	80 8b 60 01 	btst  1, %o5
    66cc:	82 00 60 02 	add  %g1, 2, %g1
    66d0:	9b 33 60 02 	srl  %o5, 2, %o5
    66d4:	80 8b 60 01 	btst  1, %o5
    66d8:	32 80 00 08 	bne,a   66f8 <_lo0bits+0xbc>
    66dc:	da 23 00 00 	st  %o5, [ %o4 ]
    66e0:	9b 33 60 01 	srl  %o5, 1, %o5
    66e4:	82 00 60 01 	inc  %g1
    66e8:	80 a3 60 00 	cmp  %o5, 0
    66ec:	02 80 00 04 	be  66fc <_lo0bits+0xc0>
    66f0:	90 10 20 20 	mov  0x20, %o0
    66f4:	da 23 00 00 	st  %o5, [ %o4 ]
    66f8:	90 10 00 01 	mov  %g1, %o0
    66fc:	81 c3 e0 08 	retl 
    6700:	01 00 00 00 	nop 

00006704 <_i2b>:
    6704:	9d e3 bf 98 	save  %sp, -104, %sp
    6708:	90 10 00 18 	mov  %i0, %o0
    670c:	7f ff ff 0f 	call  6348 <_Balloc>
    6710:	92 10 20 01 	mov  1, %o1
    6714:	82 10 20 01 	mov  1, %g1
    6718:	f2 22 20 14 	st  %i1, [ %o0 + 0x14 ]
    671c:	c2 22 20 10 	st  %g1, [ %o0 + 0x10 ]
    6720:	81 c7 e0 08 	ret 
    6724:	91 e8 00 08 	restore  %g0, %o0, %o0

00006728 <_multiply>:
    6728:	9d e3 bf 88 	save  %sp, -120, %sp
    672c:	e2 06 60 10 	ld  [ %i1 + 0x10 ], %l1
    6730:	e0 06 a0 10 	ld  [ %i2 + 0x10 ], %l0
    6734:	80 a4 40 10 	cmp  %l1, %l0
    6738:	16 80 00 07 	bge  6754 <_multiply+0x2c>
    673c:	90 10 00 18 	mov  %i0, %o0
    6740:	f2 27 bf f4 	st  %i1, [ %fp + -12 ]
    6744:	b2 10 00 1a 	mov  %i2, %i1
    6748:	f4 07 bf f4 	ld  [ %fp + -12 ], %i2
    674c:	a2 10 00 10 	mov  %l0, %l1
    6750:	e0 06 a0 10 	ld  [ %i2 + 0x10 ], %l0
    6754:	c2 06 60 08 	ld  [ %i1 + 8 ], %g1
    6758:	b8 04 40 10 	add  %l1, %l0, %i4
    675c:	80 a7 00 01 	cmp  %i4, %g1
    6760:	04 80 00 03 	ble  676c <_multiply+0x44>
    6764:	d2 06 60 04 	ld  [ %i1 + 4 ], %o1
    6768:	92 02 60 01 	inc  %o1
    676c:	7f ff fe f7 	call  6348 <_Balloc>
    6770:	01 00 00 00 	nop 
    6774:	83 2f 20 02 	sll  %i4, 2, %g1
    6778:	b0 02 20 14 	add  %o0, 0x14, %i0
    677c:	d0 27 bf f4 	st  %o0, [ %fp + -12 ]
    6780:	b6 06 00 01 	add  %i0, %g1, %i3
    6784:	c2 27 bf ec 	st  %g1, [ %fp + -20 ]
    6788:	80 a6 00 1b 	cmp  %i0, %i3
    678c:	1a 80 00 07 	bcc  67a8 <_multiply+0x80>
    6790:	a6 10 00 18 	mov  %i0, %l3
    6794:	c0 24 c0 00 	clr  [ %l3 ]
    6798:	a6 04 e0 04 	add  %l3, 4, %l3
    679c:	80 a4 c0 1b 	cmp  %l3, %i3
    67a0:	2a bf ff fe 	bcs,a   6798 <_multiply+0x70>
    67a4:	c0 24 c0 00 	clr  [ %l3 ]
    67a8:	b4 06 a0 14 	add  %i2, 0x14, %i2
    67ac:	b6 06 60 14 	add  %i1, 0x14, %i3
    67b0:	83 2c 60 02 	sll  %l1, 2, %g1
    67b4:	9b 2c 20 02 	sll  %l0, 2, %o5
    67b8:	ae 06 c0 01 	add  %i3, %g1, %l7
    67bc:	9a 06 80 0d 	add  %i2, %o5, %o5
    67c0:	ba 10 00 18 	mov  %i0, %i5
    67c4:	80 a6 80 0d 	cmp  %i2, %o5
    67c8:	1a 80 00 4f 	bcc  6904 <_multiply+0x1dc>
    67cc:	da 27 bf f0 	st  %o5, [ %fp + -16 ]
    67d0:	c2 06 80 00 	ld  [ %i2 ], %g1
    67d4:	1b 00 00 3f 	sethi  %hi(0xfc00), %o5
    67d8:	9a 13 63 ff 	or  %o5, 0x3ff, %o5	! ffff <__end+0x5707>
    67dc:	aa 88 40 0d 	andcc  %g1, %o5, %l5
    67e0:	22 80 00 21 	be,a   6864 <_multiply+0x13c>
    67e4:	ab 30 60 10 	srl  %g1, 0x10, %l5
    67e8:	a6 10 00 1b 	mov  %i3, %l3
    67ec:	a4 10 00 1d 	mov  %i5, %l2
    67f0:	a8 10 20 00 	clr  %l4
    67f4:	ac 10 00 0d 	mov  %o5, %l6
    67f8:	e0 04 c0 00 	ld  [ %l3 ], %l0
    67fc:	92 10 00 15 	mov  %l5, %o1
    6800:	40 00 03 a6 	call  7698 <.umul>
    6804:	90 0c 00 16 	and  %l0, %l6, %o0
    6808:	e2 04 80 00 	ld  [ %l2 ], %l1
    680c:	9a 10 00 08 	mov  %o0, %o5
    6810:	82 0c 40 16 	and  %l1, %l6, %g1
    6814:	a1 34 20 10 	srl  %l0, 0x10, %l0
    6818:	9a 03 40 01 	add  %o5, %g1, %o5
    681c:	a3 34 60 10 	srl  %l1, 0x10, %l1
    6820:	b2 03 40 14 	add  %o5, %l4, %i1
    6824:	90 10 00 10 	mov  %l0, %o0
    6828:	a9 36 60 10 	srl  %i1, 0x10, %l4
    682c:	40 00 03 9b 	call  7698 <.umul>
    6830:	92 10 00 15 	mov  %l5, %o1
    6834:	a6 04 e0 04 	add  %l3, 4, %l3
    6838:	f2 34 a0 02 	sth  %i1, [ %l2 + 2 ]
    683c:	90 02 00 11 	add  %o0, %l1, %o0
    6840:	80 a4 c0 17 	cmp  %l3, %l7
    6844:	a2 02 00 14 	add  %o0, %l4, %l1
    6848:	e2 34 80 00 	sth  %l1, [ %l2 ]
    684c:	a9 34 60 10 	srl  %l1, 0x10, %l4
    6850:	0a bf ff ea 	bcs  67f8 <_multiply+0xd0>
    6854:	a4 04 a0 04 	add  %l2, 4, %l2
    6858:	e8 24 80 00 	st  %l4, [ %l2 ]
    685c:	c2 06 80 00 	ld  [ %i2 ], %g1
    6860:	ab 30 60 10 	srl  %g1, 0x10, %l5
    6864:	80 a5 60 00 	cmp  %l5, 0
    6868:	02 80 00 23 	be  68f4 <_multiply+0x1cc>
    686c:	c2 07 bf f0 	ld  [ %fp + -16 ], %g1
    6870:	e2 07 40 00 	ld  [ %i5 ], %l1
    6874:	1b 00 00 3f 	sethi  %hi(0xfc00), %o5
    6878:	a4 10 00 1d 	mov  %i5, %l2
    687c:	a6 10 00 1b 	mov  %i3, %l3
    6880:	a8 10 20 00 	clr  %l4
    6884:	b2 10 00 11 	mov  %l1, %i1
    6888:	ac 13 63 ff 	or  %o5, 0x3ff, %l6
    688c:	e0 04 c0 00 	ld  [ %l3 ], %l0
    6890:	92 10 00 15 	mov  %l5, %o1
    6894:	40 00 03 81 	call  7698 <.umul>
    6898:	90 0c 00 16 	and  %l0, %l6, %o0
    689c:	83 36 60 10 	srl  %i1, 0x10, %g1
    68a0:	90 02 00 01 	add  %o0, %g1, %o0
    68a4:	e2 34 a0 02 	sth  %l1, [ %l2 + 2 ]
    68a8:	b2 02 00 14 	add  %o0, %l4, %i1
    68ac:	a1 34 20 10 	srl  %l0, 0x10, %l0
    68b0:	f2 34 80 00 	sth  %i1, [ %l2 ]
    68b4:	90 10 00 10 	mov  %l0, %o0
    68b8:	a4 04 a0 04 	add  %l2, 4, %l2
    68bc:	40 00 03 77 	call  7698 <.umul>
    68c0:	92 10 00 15 	mov  %l5, %o1
    68c4:	c2 04 80 00 	ld  [ %l2 ], %g1
    68c8:	a9 36 60 10 	srl  %i1, 0x10, %l4
    68cc:	a6 04 e0 04 	add  %l3, 4, %l3
    68d0:	b2 10 00 01 	mov  %g1, %i1
    68d4:	80 a4 c0 17 	cmp  %l3, %l7
    68d8:	82 08 40 16 	and  %g1, %l6, %g1
    68dc:	90 02 00 01 	add  %o0, %g1, %o0
    68e0:	a2 02 00 14 	add  %o0, %l4, %l1
    68e4:	0a bf ff ea 	bcs  688c <_multiply+0x164>
    68e8:	a9 34 60 10 	srl  %l1, 0x10, %l4
    68ec:	e2 24 80 00 	st  %l1, [ %l2 ]
    68f0:	c2 07 bf f0 	ld  [ %fp + -16 ], %g1
    68f4:	b4 06 a0 04 	add  %i2, 4, %i2
    68f8:	80 a6 80 01 	cmp  %i2, %g1
    68fc:	0a bf ff b5 	bcs  67d0 <_multiply+0xa8>
    6900:	ba 07 60 04 	add  %i5, 4, %i5
    6904:	da 07 bf ec 	ld  [ %fp + -20 ], %o5
    6908:	80 a7 20 00 	cmp  %i4, 0
    690c:	04 80 00 0f 	ble  6948 <_multiply+0x220>
    6910:	a4 06 00 0d 	add  %i0, %o5, %l2
    6914:	a4 04 bf fc 	add  %l2, -4, %l2
    6918:	c2 04 80 00 	ld  [ %l2 ], %g1
    691c:	80 a0 60 00 	cmp  %g1, 0
    6920:	12 80 00 0b 	bne  694c <_multiply+0x224>
    6924:	c2 07 bf f4 	ld  [ %fp + -12 ], %g1
    6928:	b8 07 3f ff 	add  %i4, -1, %i4
    692c:	80 a7 20 00 	cmp  %i4, 0
    6930:	04 80 00 06 	ble  6948 <_multiply+0x220>
    6934:	a4 04 bf fc 	add  %l2, -4, %l2
    6938:	c2 04 80 00 	ld  [ %l2 ], %g1
    693c:	80 a0 60 00 	cmp  %g1, 0
    6940:	22 bf ff fb 	be,a   692c <_multiply+0x204>
    6944:	b8 07 3f ff 	add  %i4, -1, %i4
    6948:	c2 07 bf f4 	ld  [ %fp + -12 ], %g1
    694c:	f8 20 60 10 	st  %i4, [ %g1 + 0x10 ]
    6950:	81 c7 e0 08 	ret 
    6954:	91 e8 00 01 	restore  %g0, %g1, %o0

00006958 <_pow5mult>:
    6958:	9d e3 bf 98 	save  %sp, -104, %sp
    695c:	a4 10 00 18 	mov  %i0, %l2
    6960:	82 8e a0 03 	andcc  %i2, 3, %g1
    6964:	12 80 00 2f 	bne  6a20 <_pow5mult+0xc8>
    6968:	b0 10 00 19 	mov  %i1, %i0
    696c:	b5 3e a0 02 	sra  %i2, 2, %i2
    6970:	80 a6 a0 00 	cmp  %i2, 0
    6974:	02 80 00 36 	be  6a4c <_pow5mult+0xf4>
    6978:	01 00 00 00 	nop 
    697c:	e2 04 a0 48 	ld  [ %l2 + 0x48 ], %l1
    6980:	80 a4 60 00 	cmp  %l1, 0
    6984:	02 80 00 21 	be  6a08 <_pow5mult+0xb0>
    6988:	90 10 00 12 	mov  %l2, %o0
    698c:	80 8e a0 01 	btst  1, %i2
    6990:	12 80 00 14 	bne  69e0 <_pow5mult+0x88>
    6994:	94 10 00 11 	mov  %l1, %o2
    6998:	b5 3e a0 01 	sra  %i2, 1, %i2
    699c:	92 10 00 11 	mov  %l1, %o1
    69a0:	94 10 00 11 	mov  %l1, %o2
    69a4:	80 a6 a0 00 	cmp  %i2, 0
    69a8:	02 80 00 29 	be  6a4c <_pow5mult+0xf4>
    69ac:	90 10 00 12 	mov  %l2, %o0
    69b0:	c2 04 40 00 	ld  [ %l1 ], %g1
    69b4:	80 a0 60 00 	cmp  %g1, 0
    69b8:	02 80 00 04 	be  69c8 <_pow5mult+0x70>
    69bc:	01 00 00 00 	nop 
    69c0:	10 bf ff f3 	b  698c <_pow5mult+0x34>
    69c4:	a2 10 00 01 	mov  %g1, %l1
    69c8:	7f ff ff 58 	call  6728 <_multiply>
    69cc:	01 00 00 00 	nop 
    69d0:	d0 24 40 00 	st  %o0, [ %l1 ]
    69d4:	82 10 00 08 	mov  %o0, %g1
    69d8:	10 bf ff fa 	b  69c0 <_pow5mult+0x68>
    69dc:	c0 22 00 00 	clr  [ %o0 ]
    69e0:	92 10 00 18 	mov  %i0, %o1
    69e4:	7f ff ff 51 	call  6728 <_multiply>
    69e8:	90 10 00 12 	mov  %l2, %o0
    69ec:	92 10 00 18 	mov  %i0, %o1
    69f0:	a0 10 00 08 	mov  %o0, %l0
    69f4:	90 10 00 12 	mov  %l2, %o0
    69f8:	7f ff fe 7c 	call  63e8 <_Bfree>
    69fc:	b0 10 00 10 	mov  %l0, %i0
    6a00:	10 bf ff e7 	b  699c <_pow5mult+0x44>
    6a04:	b5 3e a0 01 	sra  %i2, 1, %i2
    6a08:	7f ff ff 3f 	call  6704 <_i2b>
    6a0c:	92 10 22 71 	mov  0x271, %o1
    6a10:	d0 24 a0 48 	st  %o0, [ %l2 + 0x48 ]
    6a14:	a2 10 00 08 	mov  %o0, %l1
    6a18:	10 bf ff dd 	b  698c <_pow5mult+0x34>
    6a1c:	c0 22 00 00 	clr  [ %o0 ]
    6a20:	83 28 60 02 	sll  %g1, 2, %g1
    6a24:	1b 00 00 26 	sethi  %hi(0x9800), %o5
    6a28:	9a 13 63 40 	or  %o5, 0x340, %o5	! 9b40 <p05.0>
    6a2c:	82 00 40 0d 	add  %g1, %o5, %g1
    6a30:	d4 00 7f fc 	ld  [ %g1 + -4 ], %o2
    6a34:	92 10 00 19 	mov  %i1, %o1
    6a38:	90 10 00 12 	mov  %l2, %o0
    6a3c:	7f ff fe 76 	call  6414 <_multadd>
    6a40:	96 10 20 00 	clr  %o3
    6a44:	10 bf ff ca 	b  696c <_pow5mult+0x14>
    6a48:	b0 10 00 08 	mov  %o0, %i0
    6a4c:	81 c7 e0 08 	ret 
    6a50:	81 e8 00 00 	restore 

00006a54 <_lshift>:
    6a54:	9d e3 bf 98 	save  %sp, -104, %sp
    6a58:	c2 06 60 10 	ld  [ %i1 + 0x10 ], %g1
    6a5c:	da 06 60 08 	ld  [ %i1 + 8 ], %o5
    6a60:	a1 3e a0 05 	sra  %i2, 5, %l0
    6a64:	a4 10 00 18 	mov  %i0, %l2
    6a68:	82 04 00 01 	add  %l0, %g1, %g1
    6a6c:	a2 00 60 01 	add  %g1, 1, %l1
    6a70:	80 a4 40 0d 	cmp  %l1, %o5
    6a74:	04 80 00 06 	ble  6a8c <_lshift+0x38>
    6a78:	d2 06 60 04 	ld  [ %i1 + 4 ], %o1
    6a7c:	9a 03 40 0d 	add  %o5, %o5, %o5
    6a80:	80 a4 40 0d 	cmp  %l1, %o5
    6a84:	14 bf ff fe 	bg  6a7c <_lshift+0x28>
    6a88:	92 02 60 01 	inc  %o1
    6a8c:	7f ff fe 2f 	call  6348 <_Balloc>
    6a90:	90 10 00 12 	mov  %l2, %o0
    6a94:	80 a4 20 00 	cmp  %l0, 0
    6a98:	b0 10 00 08 	mov  %o0, %i0
    6a9c:	04 80 00 07 	ble  6ab8 <_lshift+0x64>
    6aa0:	96 02 20 14 	add  %o0, 0x14, %o3
    6aa4:	9a 10 00 10 	mov  %l0, %o5
    6aa8:	c0 22 c0 00 	clr  [ %o3 ]
    6aac:	9a 83 7f ff 	addcc  %o5, -1, %o5
    6ab0:	12 bf ff fe 	bne  6aa8 <_lshift+0x54>
    6ab4:	96 02 e0 04 	add  %o3, 4, %o3
    6ab8:	c2 06 60 10 	ld  [ %i1 + 0x10 ], %g1
    6abc:	98 06 60 14 	add  %i1, 0x14, %o4
    6ac0:	83 28 60 02 	sll  %g1, 2, %g1
    6ac4:	b4 8e a0 1f 	andcc  %i2, 0x1f, %i2
    6ac8:	02 80 00 14 	be  6b18 <_lshift+0xc4>
    6acc:	94 03 00 01 	add  %o4, %g1, %o2
    6ad0:	82 10 20 20 	mov  0x20, %g1
    6ad4:	9a 10 20 00 	clr  %o5
    6ad8:	92 20 40 1a 	sub  %g1, %i2, %o1
    6adc:	c2 03 00 00 	ld  [ %o4 ], %g1
    6ae0:	83 28 40 1a 	sll  %g1, %i2, %g1
    6ae4:	82 10 40 0d 	or  %g1, %o5, %g1
    6ae8:	c2 22 c0 00 	st  %g1, [ %o3 ]
    6aec:	da 03 00 00 	ld  [ %o4 ], %o5
    6af0:	96 02 e0 04 	add  %o3, 4, %o3
    6af4:	98 03 20 04 	add  %o4, 4, %o4
    6af8:	80 a3 00 0a 	cmp  %o4, %o2
    6afc:	0a bf ff f8 	bcs  6adc <_lshift+0x88>
    6b00:	9b 33 40 09 	srl  %o5, %o1, %o5
    6b04:	80 a3 60 00 	cmp  %o5, 0
    6b08:	02 80 00 0a 	be  6b30 <_lshift+0xdc>
    6b0c:	da 22 c0 00 	st  %o5, [ %o3 ]
    6b10:	10 80 00 08 	b  6b30 <_lshift+0xdc>
    6b14:	a2 04 60 01 	inc  %l1
    6b18:	c2 03 00 00 	ld  [ %o4 ], %g1
    6b1c:	98 03 20 04 	add  %o4, 4, %o4
    6b20:	c2 22 c0 00 	st  %g1, [ %o3 ]
    6b24:	80 a3 00 0a 	cmp  %o4, %o2
    6b28:	0a bf ff fc 	bcs  6b18 <_lshift+0xc4>
    6b2c:	96 02 e0 04 	add  %o3, 4, %o3
    6b30:	82 04 7f ff 	add  %l1, -1, %g1
    6b34:	90 10 00 12 	mov  %l2, %o0
    6b38:	c2 26 20 10 	st  %g1, [ %i0 + 0x10 ]
    6b3c:	7f ff fe 2b 	call  63e8 <_Bfree>
    6b40:	92 10 00 19 	mov  %i1, %o1
    6b44:	81 c7 e0 08 	ret 
    6b48:	81 e8 00 00 	restore 

00006b4c <__mcmp>:
    6b4c:	98 10 00 08 	mov  %o0, %o4
    6b50:	da 02 60 10 	ld  [ %o1 + 0x10 ], %o5
    6b54:	d0 02 20 10 	ld  [ %o0 + 0x10 ], %o0
    6b58:	90 a2 00 0d 	subcc  %o0, %o5, %o0
    6b5c:	12 80 00 14 	bne  6bac <__mcmp+0x60>
    6b60:	9b 2b 60 02 	sll  %o5, 2, %o5
    6b64:	90 03 20 14 	add  %o4, 0x14, %o0
    6b68:	82 02 60 14 	add  %o1, 0x14, %g1
    6b6c:	82 00 40 0d 	add  %g1, %o5, %g1
    6b70:	9a 02 00 0d 	add  %o0, %o5, %o5
    6b74:	9a 03 7f fc 	add  %o5, -4, %o5
    6b78:	82 00 7f fc 	add  %g1, -4, %g1
    6b7c:	d6 03 40 00 	ld  [ %o5 ], %o3
    6b80:	d8 00 40 00 	ld  [ %g1 ], %o4
    6b84:	80 a2 c0 0c 	cmp  %o3, %o4
    6b88:	12 80 00 06 	bne  6ba0 <__mcmp+0x54>
    6b8c:	80 a3 40 08 	cmp  %o5, %o0
    6b90:	38 bf ff fa 	bgu,a   6b78 <__mcmp+0x2c>
    6b94:	9a 03 7f fc 	add  %o5, -4, %o5
    6b98:	10 80 00 05 	b  6bac <__mcmp+0x60>
    6b9c:	90 10 20 00 	clr  %o0
    6ba0:	80 a2 c0 0c 	cmp  %o3, %o4
    6ba4:	82 60 20 00 	subx  %g0, 0, %g1
    6ba8:	90 10 60 01 	or  %g1, 1, %o0
    6bac:	81 c3 e0 08 	retl 
    6bb0:	01 00 00 00 	nop 

00006bb4 <__mdiff>:
    6bb4:	9d e3 bf 98 	save  %sp, -104, %sp
    6bb8:	90 10 00 19 	mov  %i1, %o0
    6bbc:	92 10 00 1a 	mov  %i2, %o1
    6bc0:	7f ff ff e3 	call  6b4c <__mcmp>
    6bc4:	a2 10 00 18 	mov  %i0, %l1
    6bc8:	a0 92 20 00 	orcc  %o0, 0, %l0
    6bcc:	02 80 00 4a 	be  6cf4 <__mdiff+0x140>
    6bd0:	80 a4 20 00 	cmp  %l0, 0
    6bd4:	06 80 00 44 	bl  6ce4 <__mdiff+0x130>
    6bd8:	b0 10 00 19 	mov  %i1, %i0
    6bdc:	a0 10 20 00 	clr  %l0
    6be0:	d2 06 60 04 	ld  [ %i1 + 4 ], %o1
    6be4:	7f ff fd d9 	call  6348 <_Balloc>
    6be8:	90 10 00 11 	mov  %l1, %o0
    6bec:	da 06 a0 10 	ld  [ %i2 + 0x10 ], %o5
    6bf0:	e2 06 60 10 	ld  [ %i1 + 0x10 ], %l1
    6bf4:	9b 2b 60 02 	sll  %o5, 2, %o5
    6bf8:	b0 10 00 08 	mov  %o0, %i0
    6bfc:	e0 22 20 0c 	st  %l0, [ %o0 + 0xc ]
    6c00:	92 06 a0 14 	add  %i2, 0x14, %o1
    6c04:	90 06 60 14 	add  %i1, 0x14, %o0
    6c08:	b4 02 40 0d 	add  %o1, %o5, %i2
    6c0c:	83 2c 60 02 	sll  %l1, 2, %g1
    6c10:	1b 00 00 3f 	sethi  %hi(0xfc00), %o5
    6c14:	b2 02 00 01 	add  %o0, %g1, %i1
    6c18:	a0 13 63 ff 	or  %o5, 0x3ff, %l0
    6c1c:	94 06 20 14 	add  %i0, 0x14, %o2
    6c20:	9e 10 20 00 	clr  %o7
    6c24:	d8 02 00 00 	ld  [ %o0 ], %o4
    6c28:	d6 02 40 00 	ld  [ %o1 ], %o3
    6c2c:	82 0b 00 10 	and  %o4, %l0, %g1
    6c30:	9a 0a c0 10 	and  %o3, %l0, %o5
    6c34:	82 20 40 0d 	sub  %g1, %o5, %g1
    6c38:	82 00 40 0f 	add  %g1, %o7, %g1
    6c3c:	9f 38 60 10 	sra  %g1, 0x10, %o7
    6c40:	c2 32 a0 02 	sth  %g1, [ %o2 + 2 ]
    6c44:	99 33 20 10 	srl  %o4, 0x10, %o4
    6c48:	97 32 e0 10 	srl  %o3, 0x10, %o3
    6c4c:	92 02 60 04 	add  %o1, 4, %o1
    6c50:	98 23 00 0b 	sub  %o4, %o3, %o4
    6c54:	80 a2 40 1a 	cmp  %o1, %i2
    6c58:	98 03 00 0f 	add  %o4, %o7, %o4
    6c5c:	90 02 20 04 	add  %o0, 4, %o0
    6c60:	d8 32 80 00 	sth  %o4, [ %o2 ]
    6c64:	9f 3b 20 10 	sra  %o4, 0x10, %o7
    6c68:	0a bf ff ef 	bcs  6c24 <__mdiff+0x70>
    6c6c:	94 02 a0 04 	add  %o2, 4, %o2
    6c70:	80 a2 00 19 	cmp  %o0, %i1
    6c74:	1a 80 00 10 	bcc  6cb4 <__mdiff+0x100>
    6c78:	03 00 00 3f 	sethi  %hi(0xfc00), %g1
    6c7c:	96 10 63 ff 	or  %g1, 0x3ff, %o3	! ffff <__end+0x5707>
    6c80:	da 02 00 00 	ld  [ %o0 ], %o5
    6c84:	90 02 20 04 	add  %o0, 4, %o0
    6c88:	82 0b 40 0b 	and  %o5, %o3, %g1
    6c8c:	82 00 40 0f 	add  %g1, %o7, %g1
    6c90:	9f 38 60 10 	sra  %g1, 0x10, %o7
    6c94:	c2 32 a0 02 	sth  %g1, [ %o2 + 2 ]
    6c98:	9b 33 60 10 	srl  %o5, 0x10, %o5
    6c9c:	80 a2 00 19 	cmp  %o0, %i1
    6ca0:	98 03 40 0f 	add  %o5, %o7, %o4
    6ca4:	d8 32 80 00 	sth  %o4, [ %o2 ]
    6ca8:	9f 3b 20 10 	sra  %o4, 0x10, %o7
    6cac:	0a bf ff f5 	bcs  6c80 <__mdiff+0xcc>
    6cb0:	94 02 a0 04 	add  %o2, 4, %o2
    6cb4:	94 02 bf fc 	add  %o2, -4, %o2
    6cb8:	c2 02 80 00 	ld  [ %o2 ], %g1
    6cbc:	80 a0 60 00 	cmp  %g1, 0
    6cc0:	32 80 00 14 	bne,a   6d10 <__mdiff+0x15c>
    6cc4:	e2 26 20 10 	st  %l1, [ %i0 + 0x10 ]
    6cc8:	94 02 bf fc 	add  %o2, -4, %o2
    6ccc:	c2 02 80 00 	ld  [ %o2 ], %g1
    6cd0:	80 a0 60 00 	cmp  %g1, 0
    6cd4:	02 bf ff fd 	be  6cc8 <__mdiff+0x114>
    6cd8:	a2 04 7f ff 	add  %l1, -1, %l1
    6cdc:	10 80 00 0d 	b  6d10 <__mdiff+0x15c>
    6ce0:	e2 26 20 10 	st  %l1, [ %i0 + 0x10 ]
    6ce4:	a0 10 20 01 	mov  1, %l0
    6ce8:	b2 10 00 1a 	mov  %i2, %i1
    6cec:	10 bf ff bd 	b  6be0 <__mdiff+0x2c>
    6cf0:	b4 10 00 18 	mov  %i0, %i2
    6cf4:	90 10 00 18 	mov  %i0, %o0
    6cf8:	7f ff fd 94 	call  6348 <_Balloc>
    6cfc:	92 10 20 00 	clr  %o1
    6d00:	82 10 20 01 	mov  1, %g1
    6d04:	b0 10 00 08 	mov  %o0, %i0
    6d08:	c0 22 20 14 	clr  [ %o0 + 0x14 ]
    6d0c:	c2 22 20 10 	st  %g1, [ %o0 + 0x10 ]
    6d10:	81 c7 e0 08 	ret 
    6d14:	81 e8 00 00 	restore 

00006d18 <_ulp>:
    6d18:	03 1f fc 00 	sethi  %hi(0x7ff00000), %g1
    6d1c:	17 3f 30 00 	sethi  %hi(0xfcc00000), %o3
    6d20:	98 0a 00 01 	and  %o0, %g1, %o4
    6d24:	98 03 00 0b 	add  %o4, %o3, %o4
    6d28:	80 a3 20 00 	cmp  %o4, 0
    6d2c:	04 80 00 04 	ble  6d3c <_ulp+0x24>
    6d30:	90 10 00 0c 	mov  %o4, %o0
    6d34:	10 80 00 13 	b  6d80 <_ulp+0x68>
    6d38:	92 10 20 00 	clr  %o1
    6d3c:	82 20 00 0c 	neg  %o4, %g1
    6d40:	99 38 60 14 	sra  %g1, 0x14, %o4
    6d44:	80 a3 20 13 	cmp  %o4, 0x13
    6d48:	14 80 00 05 	bg  6d5c <_ulp+0x44>
    6d4c:	96 10 20 01 	mov  1, %o3
    6d50:	03 00 02 00 	sethi  %hi(0x80000), %g1
    6d54:	10 bf ff f8 	b  6d34 <_ulp+0x1c>
    6d58:	91 38 40 0c 	sra  %g1, %o4, %o0
    6d5c:	98 03 3f ec 	add  %o4, -20, %o4
    6d60:	82 10 20 1f 	mov  0x1f, %g1
    6d64:	90 10 20 00 	clr  %o0
    6d68:	80 a3 20 1e 	cmp  %o4, 0x1e
    6d6c:	14 80 00 04 	bg  6d7c <_ulp+0x64>
    6d70:	9a 20 40 0c 	sub  %g1, %o4, %o5
    6d74:	82 10 20 01 	mov  1, %g1
    6d78:	97 28 40 0d 	sll  %g1, %o5, %o3
    6d7c:	92 10 00 0b 	mov  %o3, %o1
    6d80:	81 c3 e0 08 	retl 
    6d84:	01 00 00 00 	nop 

00006d88 <_b2d>:
    6d88:	9d e3 bf 98 	save  %sp, -104, %sp
    6d8c:	c2 06 20 10 	ld  [ %i0 + 0x10 ], %g1
    6d90:	a4 06 20 14 	add  %i0, 0x14, %l2
    6d94:	83 28 60 02 	sll  %g1, 2, %g1
    6d98:	a0 04 80 01 	add  %l2, %g1, %l0
    6d9c:	a0 04 3f fc 	add  %l0, -4, %l0
    6da0:	e2 04 00 00 	ld  [ %l0 ], %l1
    6da4:	7f ff fe 06 	call  65bc <_hi0bits>
    6da8:	90 10 00 11 	mov  %l1, %o0
    6dac:	82 10 20 20 	mov  0x20, %g1
    6db0:	80 a2 20 0a 	cmp  %o0, 0xa
    6db4:	82 20 40 08 	sub  %g1, %o0, %g1
    6db8:	04 80 00 1c 	ble  6e28 <_b2d+0xa0>
    6dbc:	c2 26 40 00 	st  %g1, [ %i1 ]
    6dc0:	80 a4 00 12 	cmp  %l0, %l2
    6dc4:	08 80 00 04 	bleu  6dd4 <_b2d+0x4c>
    6dc8:	96 10 20 00 	clr  %o3
    6dcc:	a0 04 3f fc 	add  %l0, -4, %l0
    6dd0:	d6 04 00 00 	ld  [ %l0 ], %o3
    6dd4:	90 82 3f f5 	addcc  %o0, -11, %o0
    6dd8:	02 80 00 11 	be  6e1c <_b2d+0x94>
    6ddc:	03 0f fc 00 	sethi  %hi(0x3ff00000), %g1
    6de0:	83 2c 40 08 	sll  %l1, %o0, %g1
    6de4:	9a 20 00 08 	neg  %o0, %o5
    6de8:	19 0f fc 00 	sethi  %hi(0x3ff00000), %o4
    6dec:	9b 32 c0 0d 	srl  %o3, %o5, %o5
    6df0:	80 a4 00 12 	cmp  %l0, %l2
    6df4:	82 10 40 0d 	or  %g1, %o5, %g1
    6df8:	a2 10 20 00 	clr  %l1
    6dfc:	08 80 00 03 	bleu  6e08 <_b2d+0x80>
    6e00:	b0 10 40 0c 	or  %g1, %o4, %i0
    6e04:	e2 04 3f fc 	ld  [ %l0 + -4 ], %l1
    6e08:	82 20 00 08 	neg  %o0, %g1
    6e0c:	9b 2a c0 08 	sll  %o3, %o0, %o5
    6e10:	83 34 40 01 	srl  %l1, %g1, %g1
    6e14:	10 80 00 14 	b  6e64 <_b2d+0xdc>
    6e18:	b2 13 40 01 	or  %o5, %g1, %i1
    6e1c:	b2 10 00 0b 	mov  %o3, %i1
    6e20:	10 80 00 11 	b  6e64 <_b2d+0xdc>
    6e24:	b0 14 40 01 	or  %l1, %g1, %i0
    6e28:	82 10 20 0b 	mov  0xb, %g1
    6e2c:	1b 0f fc 00 	sethi  %hi(0x3ff00000), %o5
    6e30:	82 20 40 08 	sub  %g1, %o0, %g1
    6e34:	80 a4 00 12 	cmp  %l0, %l2
    6e38:	83 34 40 01 	srl  %l1, %g1, %g1
    6e3c:	98 10 20 00 	clr  %o4
    6e40:	08 80 00 03 	bleu  6e4c <_b2d+0xc4>
    6e44:	b0 10 40 0d 	or  %g1, %o5, %i0
    6e48:	d8 04 3f fc 	ld  [ %l0 + -4 ], %o4
    6e4c:	9a 02 20 15 	add  %o0, 0x15, %o5
    6e50:	82 10 20 0b 	mov  0xb, %g1
    6e54:	9b 2c 40 0d 	sll  %l1, %o5, %o5
    6e58:	82 20 40 08 	sub  %g1, %o0, %g1
    6e5c:	10 bf ff ee 	b  6e14 <_b2d+0x8c>
    6e60:	83 33 00 01 	srl  %o4, %g1, %g1
    6e64:	81 c7 e0 08 	ret 
    6e68:	81 e8 00 00 	restore 

00006e6c <_d2b>:
    6e6c:	9d e3 bf 90 	save  %sp, -112, %sp
    6e70:	90 10 00 18 	mov  %i0, %o0
    6e74:	7f ff fd 35 	call  6348 <_Balloc>
    6e78:	92 10 20 01 	mov  1, %o1
    6e7c:	03 3f fc 00 	sethi  %hi(0xfff00000), %g1
    6e80:	a2 10 00 1a 	mov  %i2, %l1
    6e84:	9a 2e 40 01 	andn  %i1, %g1, %o5
    6e88:	b0 10 00 08 	mov  %o0, %i0
    6e8c:	03 20 00 00 	sethi  %hi(0x80000000), %g1
    6e90:	da 27 bf f0 	st  %o5, [ %fp + -16 ]
    6e94:	a0 2e 40 01 	andn  %i1, %g1, %l0
    6e98:	b5 34 20 14 	srl  %l0, 0x14, %i2
    6e9c:	80 a6 a0 00 	cmp  %i2, 0
    6ea0:	02 80 00 05 	be  6eb4 <_d2b+0x48>
    6ea4:	b2 02 20 14 	add  %o0, 0x14, %i1
    6ea8:	03 00 04 00 	sethi  %hi(0x100000), %g1
    6eac:	82 13 40 01 	or  %o5, %g1, %g1
    6eb0:	c2 27 bf f0 	st  %g1, [ %fp + -16 ]
    6eb4:	80 a4 60 00 	cmp  %l1, 0
    6eb8:	02 80 00 2c 	be  6f68 <_d2b+0xfc>
    6ebc:	01 00 00 00 	nop 
    6ec0:	e2 27 bf f4 	st  %l1, [ %fp + -12 ]
    6ec4:	7f ff fd de 	call  663c <_lo0bits>
    6ec8:	90 07 bf f4 	add  %fp, -12, %o0
    6ecc:	96 92 20 00 	orcc  %o0, 0, %o3
    6ed0:	02 80 00 24 	be  6f60 <_d2b+0xf4>
    6ed4:	c2 07 bf f4 	ld  [ %fp + -12 ], %g1
    6ed8:	da 07 bf f0 	ld  [ %fp + -16 ], %o5
    6edc:	98 20 00 0b 	neg  %o3, %o4
    6ee0:	9b 2b 40 0c 	sll  %o5, %o4, %o5
    6ee4:	82 10 40 0d 	or  %g1, %o5, %g1
    6ee8:	c2 26 20 14 	st  %g1, [ %i0 + 0x14 ]
    6eec:	da 07 bf f0 	ld  [ %fp + -16 ], %o5
    6ef0:	9b 33 40 0b 	srl  %o5, %o3, %o5
    6ef4:	da 27 bf f0 	st  %o5, [ %fp + -16 ]
    6ef8:	da 07 bf f0 	ld  [ %fp + -16 ], %o5
    6efc:	82 10 20 02 	mov  2, %g1
    6f00:	80 a0 00 0d 	cmp  %g0, %o5
    6f04:	da 26 60 04 	st  %o5, [ %i1 + 4 ]
    6f08:	82 40 7f ff 	addx  %g1, -1, %g1
    6f0c:	c2 26 20 10 	st  %g1, [ %i0 + 0x10 ]
    6f10:	a0 10 00 01 	mov  %g1, %l0
    6f14:	80 a6 a0 00 	cmp  %i2, 0
    6f18:	02 80 00 09 	be  6f3c <_d2b+0xd0>
    6f1c:	83 2c 20 02 	sll  %l0, 2, %g1
    6f20:	82 06 80 0b 	add  %i2, %o3, %g1
    6f24:	82 00 7b cd 	add  %g1, -1075, %g1
    6f28:	c2 26 c0 00 	st  %g1, [ %i3 ]
    6f2c:	9a 10 20 35 	mov  0x35, %o5
    6f30:	9a 23 40 0b 	sub  %o5, %o3, %o5
    6f34:	10 80 00 16 	b  6f8c <_d2b+0x120>
    6f38:	da 27 00 00 	st  %o5, [ %i4 ]
    6f3c:	82 00 40 19 	add  %g1, %i1, %g1
    6f40:	d0 00 7f fc 	ld  [ %g1 + -4 ], %o0
    6f44:	9a 02 fb ce 	add  %o3, -1074, %o5
    6f48:	a1 2c 20 05 	sll  %l0, 5, %l0
    6f4c:	7f ff fd 9c 	call  65bc <_hi0bits>
    6f50:	da 26 c0 00 	st  %o5, [ %i3 ]
    6f54:	a0 24 00 08 	sub  %l0, %o0, %l0
    6f58:	10 80 00 0d 	b  6f8c <_d2b+0x120>
    6f5c:	e0 27 00 00 	st  %l0, [ %i4 ]
    6f60:	10 bf ff e6 	b  6ef8 <_d2b+0x8c>
    6f64:	c2 26 20 14 	st  %g1, [ %i0 + 0x14 ]
    6f68:	7f ff fd b5 	call  663c <_lo0bits>
    6f6c:	90 07 bf f0 	add  %fp, -16, %o0
    6f70:	c2 07 bf f0 	ld  [ %fp + -16 ], %g1
    6f74:	9a 10 20 01 	mov  1, %o5
    6f78:	c2 26 20 14 	st  %g1, [ %i0 + 0x14 ]
    6f7c:	da 26 20 10 	st  %o5, [ %i0 + 0x10 ]
    6f80:	a0 10 20 01 	mov  1, %l0
    6f84:	10 bf ff e4 	b  6f14 <_d2b+0xa8>
    6f88:	96 02 20 20 	add  %o0, 0x20, %o3
    6f8c:	81 c7 e0 08 	ret 
    6f90:	81 e8 00 00 	restore 

00006f94 <_ratio>:
    6f94:	9d e3 bf 90 	save  %sp, -112, %sp
    6f98:	90 10 00 18 	mov  %i0, %o0
    6f9c:	7f ff ff 7b 	call  6d88 <_b2d>
    6fa0:	92 07 bf f4 	add  %fp, -12, %o1
    6fa4:	a0 10 00 08 	mov  %o0, %l0
    6fa8:	a2 10 00 09 	mov  %o1, %l1
    6fac:	90 10 00 19 	mov  %i1, %o0
    6fb0:	7f ff ff 76 	call  6d88 <_b2d>
    6fb4:	92 07 bf f0 	add  %fp, -16, %o1
    6fb8:	c2 06 60 10 	ld  [ %i1 + 0x10 ], %g1
    6fbc:	d8 06 20 10 	ld  [ %i0 + 0x10 ], %o4
    6fc0:	da 07 bf f4 	ld  [ %fp + -12 ], %o5
    6fc4:	98 23 00 01 	sub  %o4, %g1, %o4
    6fc8:	c2 07 bf f0 	ld  [ %fp + -16 ], %g1
    6fcc:	99 2b 20 05 	sll  %o4, 5, %o4
    6fd0:	9a 23 40 01 	sub  %o5, %g1, %o5
    6fd4:	94 10 00 08 	mov  %o0, %o2
    6fd8:	82 03 40 0c 	add  %o5, %o4, %g1
    6fdc:	80 a0 60 00 	cmp  %g1, 0
    6fe0:	04 80 00 05 	ble  6ff4 <_ratio+0x60>
    6fe4:	96 10 00 09 	mov  %o1, %o3
    6fe8:	83 28 60 14 	sll  %g1, 0x14, %g1
    6fec:	10 80 00 04 	b  6ffc <_ratio+0x68>
    6ff0:	a0 00 40 10 	add  %g1, %l0, %l0
    6ff4:	83 28 60 14 	sll  %g1, 0x14, %g1
    6ff8:	94 22 80 01 	sub  %o2, %g1, %o2
    6ffc:	90 10 00 10 	mov  %l0, %o0
    7000:	40 00 06 ad 	call  8ab4 <__divdf3>
    7004:	92 10 00 11 	mov  %l1, %o1
    7008:	b0 10 00 08 	mov  %o0, %i0
    700c:	81 c7 e0 08 	ret 
    7010:	93 e8 00 09 	restore  %g0, %o1, %o1

00007014 <_mprec_log10>:
    7014:	9d e3 bf 98 	save  %sp, -104, %sp
    7018:	03 00 00 26 	sethi  %hi(0x9800), %g1
    701c:	80 a6 20 17 	cmp  %i0, 0x17
    7020:	14 80 00 08 	bg  7040 <_mprec_log10+0x2c>
    7024:	d0 18 62 d0 	ldd  [ %g1 + 0x2d0 ], %o0
    7028:	9b 2e 20 03 	sll  %i0, 3, %o5
    702c:	03 00 00 26 	sethi  %hi(0x9800), %g1
    7030:	82 10 63 50 	or  %g1, 0x350, %g1	! 9b50 <__mprec_tens>
    7034:	98 00 40 0d 	add  %g1, %o5, %o4
    7038:	10 80 00 0c 	b  7068 <_mprec_log10+0x54>
    703c:	d0 1b 00 00 	ldd  [ %o4 ], %o0
    7040:	80 a6 20 00 	cmp  %i0, 0
    7044:	24 80 00 0a 	ble,a   706c <_mprec_log10+0x58>
    7048:	b0 10 00 08 	mov  %o0, %i0
    704c:	03 00 00 26 	sethi  %hi(0x9800), %g1
    7050:	d4 18 62 d8 	ldd  [ %g1 + 0x2d8 ], %o2	! 9ad8 <zeroes.1+0xd0>
    7054:	40 00 05 ba 	call  873c <__muldf3>
    7058:	b0 06 3f ff 	add  %i0, -1, %i0
    705c:	80 a6 20 00 	cmp  %i0, 0
    7060:	14 bf ff fc 	bg  7050 <_mprec_log10+0x3c>
    7064:	03 00 00 26 	sethi  %hi(0x9800), %g1
    7068:	b0 10 00 08 	mov  %o0, %i0
    706c:	81 c7 e0 08 	ret 
    7070:	93 e8 00 09 	restore  %g0, %o1, %o1

00007074 <cleanup_glue>:
    7074:	9d e3 bf 98 	save  %sp, -104, %sp
    7078:	d2 06 40 00 	ld  [ %i1 ], %o1
    707c:	80 a2 60 00 	cmp  %o1, 0
    7080:	12 80 00 04 	bne  7090 <cleanup_glue+0x1c>
    7084:	90 10 00 18 	mov  %i0, %o0
    7088:	7f ff f9 63 	call  5614 <_free_r>
    708c:	81 e8 00 00 	restore 
    7090:	7f ff ff f9 	call  7074 <cleanup_glue>
    7094:	9e 03 ff f0 	add  %o7, -16, %o7
    7098:	01 00 00 00 	nop 

0000709c <_reclaim_reent>:
    709c:	9d e3 bf 98 	save  %sp, -104, %sp
    70a0:	03 00 00 28 	sethi  %hi(0xa000), %g1
    70a4:	da 00 61 20 	ld  [ %g1 + 0x120 ], %o5	! a120 <_impure_ptr>
    70a8:	80 a6 00 0d 	cmp  %i0, %o5
    70ac:	02 80 00 3f 	be  71a8 <_reclaim_reent+0x10c>
    70b0:	01 00 00 00 	nop 
    70b4:	d2 06 20 4c 	ld  [ %i0 + 0x4c ], %o1
    70b8:	80 a2 60 00 	cmp  %o1, 0
    70bc:	22 80 00 17 	be,a   7118 <_reclaim_reent+0x7c>
    70c0:	d2 06 21 48 	ld  [ %i0 + 0x148 ], %o1
    70c4:	a0 10 20 00 	clr  %l0
    70c8:	83 2c 20 02 	sll  %l0, 2, %g1
    70cc:	f2 02 40 01 	ld  [ %o1 + %g1 ], %i1
    70d0:	80 a6 60 00 	cmp  %i1, 0
    70d4:	22 80 00 0b 	be,a   7100 <_reclaim_reent+0x64>
    70d8:	a0 04 20 01 	inc  %l0
    70dc:	92 10 00 19 	mov  %i1, %o1
    70e0:	f2 06 40 00 	ld  [ %i1 ], %i1
    70e4:	7f ff f9 4c 	call  5614 <_free_r>
    70e8:	90 10 00 18 	mov  %i0, %o0
    70ec:	80 a6 60 00 	cmp  %i1, 0
    70f0:	12 bf ff fc 	bne  70e0 <_reclaim_reent+0x44>
    70f4:	92 10 00 19 	mov  %i1, %o1
    70f8:	d2 06 20 4c 	ld  [ %i0 + 0x4c ], %o1
    70fc:	a0 04 20 01 	inc  %l0
    7100:	80 a4 20 0e 	cmp  %l0, 0xe
    7104:	04 bf ff f2 	ble  70cc <_reclaim_reent+0x30>
    7108:	83 2c 20 02 	sll  %l0, 2, %g1
    710c:	7f ff f9 42 	call  5614 <_free_r>
    7110:	90 10 00 18 	mov  %i0, %o0
    7114:	d2 06 21 48 	ld  [ %i0 + 0x148 ], %o1
    7118:	80 a2 60 00 	cmp  %o1, 0
    711c:	22 80 00 0f 	be,a   7158 <_reclaim_reent+0xbc>
    7120:	d2 06 20 54 	ld  [ %i0 + 0x54 ], %o1
    7124:	a0 06 21 4c 	add  %i0, 0x14c, %l0
    7128:	80 a2 40 10 	cmp  %o1, %l0
    712c:	22 80 00 0b 	be,a   7158 <_reclaim_reent+0xbc>
    7130:	d2 06 20 54 	ld  [ %i0 + 0x54 ], %o1
    7134:	b2 10 00 09 	mov  %o1, %i1
    7138:	92 10 00 19 	mov  %i1, %o1
    713c:	f2 06 40 00 	ld  [ %i1 ], %i1
    7140:	7f ff f9 35 	call  5614 <_free_r>
    7144:	90 10 00 18 	mov  %i0, %o0
    7148:	80 a6 40 10 	cmp  %i1, %l0
    714c:	12 bf ff fc 	bne  713c <_reclaim_reent+0xa0>
    7150:	92 10 00 19 	mov  %i1, %o1
    7154:	d2 06 20 54 	ld  [ %i0 + 0x54 ], %o1
    7158:	80 a2 60 00 	cmp  %o1, 0
    715c:	12 80 00 0f 	bne  7198 <_reclaim_reent+0xfc>
    7160:	01 00 00 00 	nop 
    7164:	c2 06 20 38 	ld  [ %i0 + 0x38 ], %g1
    7168:	80 a0 60 00 	cmp  %g1, 0
    716c:	02 80 00 0f 	be  71a8 <_reclaim_reent+0x10c>
    7170:	01 00 00 00 	nop 
    7174:	c2 06 20 3c 	ld  [ %i0 + 0x3c ], %g1
    7178:	9f c0 40 00 	call  %g1
    717c:	90 10 00 18 	mov  %i0, %o0
    7180:	f2 06 22 5c 	ld  [ %i0 + 0x25c ], %i1
    7184:	80 a6 60 00 	cmp  %i1, 0
    7188:	02 80 00 08 	be  71a8 <_reclaim_reent+0x10c>
    718c:	01 00 00 00 	nop 
    7190:	7f ff ff b9 	call  7074 <cleanup_glue>
    7194:	81 e8 00 00 	restore 
    7198:	7f ff f9 1f 	call  5614 <_free_r>
    719c:	90 10 00 18 	mov  %i0, %o0
    71a0:	10 bf ff f2 	b  7168 <_reclaim_reent+0xcc>
    71a4:	c2 06 20 38 	ld  [ %i0 + 0x38 ], %g1
    71a8:	81 c7 e0 08 	ret 
    71ac:	81 e8 00 00 	restore 

000071b0 <_wrapup_reent>:
    71b0:	9d e3 bf 98 	save  %sp, -104, %sp
    71b4:	80 a6 20 00 	cmp  %i0, 0
    71b8:	02 80 00 1d 	be  722c <_wrapup_reent+0x7c>
    71bc:	03 00 00 28 	sethi  %hi(0xa000), %g1
    71c0:	e4 06 21 48 	ld  [ %i0 + 0x148 ], %l2
    71c4:	80 a4 a0 00 	cmp  %l2, 0
    71c8:	22 80 00 13 	be,a   7214 <_wrapup_reent+0x64>
    71cc:	c2 06 20 3c 	ld  [ %i0 + 0x3c ], %g1
    71d0:	e2 04 a0 04 	ld  [ %l2 + 4 ], %l1
    71d4:	a2 84 7f ff 	addcc  %l1, -1, %l1
    71d8:	0c 80 00 0a 	bneg  7200 <_wrapup_reent+0x50>
    71dc:	83 2c 60 02 	sll  %l1, 2, %g1
    71e0:	82 00 40 12 	add  %g1, %l2, %g1
    71e4:	a0 00 60 08 	add  %g1, 8, %l0
    71e8:	c2 04 00 00 	ld  [ %l0 ], %g1
    71ec:	9f c0 40 00 	call  %g1
    71f0:	a0 04 3f fc 	add  %l0, -4, %l0
    71f4:	a2 84 7f ff 	addcc  %l1, -1, %l1
    71f8:	3c bf ff fd 	bpos,a   71ec <_wrapup_reent+0x3c>
    71fc:	c2 04 00 00 	ld  [ %l0 ], %g1
    7200:	e4 04 80 00 	ld  [ %l2 ], %l2
    7204:	80 a4 a0 00 	cmp  %l2, 0
    7208:	32 bf ff f3 	bne,a   71d4 <_wrapup_reent+0x24>
    720c:	e2 04 a0 04 	ld  [ %l2 + 4 ], %l1
    7210:	c2 06 20 3c 	ld  [ %i0 + 0x3c ], %g1
    7214:	80 a0 60 00 	cmp  %g1, 0
    7218:	02 80 00 07 	be  7234 <_wrapup_reent+0x84>
    721c:	01 00 00 00 	nop 
    7220:	9f c0 40 00 	call  %g1
    7224:	90 10 00 18 	mov  %i0, %o0
    7228:	30 80 00 03 	b,a   7234 <_wrapup_reent+0x84>
    722c:	10 bf ff e5 	b  71c0 <_wrapup_reent+0x10>
    7230:	f0 00 61 20 	ld  [ %g1 + 0x120 ], %i0
    7234:	81 c7 e0 08 	ret 
    7238:	81 e8 00 00 	restore 

0000723c <isinf>:
    723c:	82 20 00 09 	neg  %o1, %g1
    7240:	82 10 40 09 	or  %g1, %o1, %g1
    7244:	83 30 60 1f 	srl  %g1, 0x1f, %g1
    7248:	17 20 00 00 	sethi  %hi(0x80000000), %o3
    724c:	1b 1f fc 00 	sethi  %hi(0x7ff00000), %o5
    7250:	96 2a 00 0b 	andn  %o0, %o3, %o3
    7254:	90 10 20 01 	mov  1, %o0
    7258:	96 12 c0 01 	or  %o3, %g1, %o3
    725c:	96 23 40 0b 	sub  %o5, %o3, %o3
    7260:	82 20 00 0b 	neg  %o3, %g1
    7264:	96 12 c0 01 	or  %o3, %g1, %o3
    7268:	97 32 e0 1f 	srl  %o3, 0x1f, %o3
    726c:	81 c3 e0 08 	retl 
    7270:	90 22 00 0b 	sub  %o0, %o3, %o0

00007274 <isnan>:
    7274:	98 10 00 08 	mov  %o0, %o4
    7278:	82 20 00 09 	neg  %o1, %g1
    727c:	11 20 00 00 	sethi  %hi(0x80000000), %o0
    7280:	82 10 40 09 	or  %g1, %o1, %g1
    7284:	90 2b 00 08 	andn  %o4, %o0, %o0
    7288:	83 30 60 1f 	srl  %g1, 0x1f, %g1
    728c:	1b 1f fc 00 	sethi  %hi(0x7ff00000), %o5
    7290:	90 12 00 01 	or  %o0, %g1, %o0
    7294:	90 23 40 08 	sub  %o5, %o0, %o0
    7298:	81 c3 e0 08 	retl 
    729c:	91 32 20 1f 	srl  %o0, 0x1f, %o0

000072a0 <__sread>:
    72a0:	9d e3 bf 98 	save  %sp, -104, %sp
    72a4:	d0 06 20 54 	ld  [ %i0 + 0x54 ], %o0
    72a8:	d2 56 20 0e 	ldsh  [ %i0 + 0xe ], %o1
    72ac:	94 10 00 19 	mov  %i1, %o2
    72b0:	40 00 00 d0 	call  75f0 <_read_r>
    72b4:	96 10 00 1a 	mov  %i2, %o3
    72b8:	80 a2 20 00 	cmp  %o0, 0
    72bc:	26 80 00 06 	bl,a   72d4 <__sread+0x34>
    72c0:	da 16 20 0c 	lduh  [ %i0 + 0xc ], %o5
    72c4:	c2 06 20 50 	ld  [ %i0 + 0x50 ], %g1
    72c8:	82 00 40 08 	add  %g1, %o0, %g1
    72cc:	10 80 00 05 	b  72e0 <__sread+0x40>
    72d0:	c2 26 20 50 	st  %g1, [ %i0 + 0x50 ]
    72d4:	03 00 00 04 	sethi  %hi(0x1000), %g1
    72d8:	82 2b 40 01 	andn  %o5, %g1, %g1
    72dc:	c2 36 20 0c 	sth  %g1, [ %i0 + 0xc ]
    72e0:	81 c7 e0 08 	ret 
    72e4:	91 e8 00 08 	restore  %g0, %o0, %o0

000072e8 <__swrite>:
    72e8:	9d e3 bf 98 	save  %sp, -104, %sp
    72ec:	c2 16 20 0c 	lduh  [ %i0 + 0xc ], %g1
    72f0:	b6 10 00 1a 	mov  %i2, %i3
    72f4:	a0 10 00 18 	mov  %i0, %l0
    72f8:	80 88 61 00 	btst  0x100, %g1
    72fc:	b4 10 00 19 	mov  %i1, %i2
    7300:	12 80 00 09 	bne  7324 <__swrite+0x3c>
    7304:	da 16 20 0c 	lduh  [ %i0 + 0xc ], %o5
    7308:	f2 54 20 0e 	ldsh  [ %l0 + 0xe ], %i1
    730c:	f0 04 20 54 	ld  [ %l0 + 0x54 ], %i0
    7310:	03 00 00 04 	sethi  %hi(0x1000), %g1
    7314:	82 2b 40 01 	andn  %o5, %g1, %g1
    7318:	c2 34 20 0c 	sth  %g1, [ %l0 + 0xc ]
    731c:	40 00 00 78 	call  74fc <_write_r>
    7320:	81 e8 00 00 	restore 
    7324:	d0 06 20 54 	ld  [ %i0 + 0x54 ], %o0
    7328:	d2 56 20 0e 	ldsh  [ %i0 + 0xe ], %o1
    732c:	94 10 20 00 	clr  %o2
    7330:	40 00 00 a0 	call  75b0 <_lseek_r>
    7334:	96 10 20 02 	mov  2, %o3
    7338:	10 bf ff f4 	b  7308 <__swrite+0x20>
    733c:	da 16 20 0c 	lduh  [ %i0 + 0xc ], %o5

00007340 <__sseek>:
    7340:	9d e3 bf 98 	save  %sp, -104, %sp
    7344:	d0 06 20 54 	ld  [ %i0 + 0x54 ], %o0
    7348:	d2 56 20 0e 	ldsh  [ %i0 + 0xe ], %o1
    734c:	94 10 00 19 	mov  %i1, %o2
    7350:	40 00 00 98 	call  75b0 <_lseek_r>
    7354:	96 10 00 1a 	mov  %i2, %o3
    7358:	80 a2 3f ff 	cmp  %o0, -1
    735c:	02 80 00 06 	be  7374 <__sseek+0x34>
    7360:	1b 00 00 04 	sethi  %hi(0x1000), %o5
    7364:	c2 16 20 0c 	lduh  [ %i0 + 0xc ], %g1
    7368:	d0 26 20 50 	st  %o0, [ %i0 + 0x50 ]
    736c:	10 80 00 05 	b  7380 <__sseek+0x40>
    7370:	82 10 40 0d 	or  %g1, %o5, %g1
    7374:	da 16 20 0c 	lduh  [ %i0 + 0xc ], %o5
    7378:	03 00 00 04 	sethi  %hi(0x1000), %g1
    737c:	82 2b 40 01 	andn  %o5, %g1, %g1
    7380:	c2 36 20 0c 	sth  %g1, [ %i0 + 0xc ]
    7384:	81 c7 e0 08 	ret 
    7388:	91 e8 00 08 	restore  %g0, %o0, %o0

0000738c <__sclose>:
    738c:	d2 52 20 0e 	ldsh  [ %o0 + 0xe ], %o1
    7390:	d0 02 20 54 	ld  [ %o0 + 0x54 ], %o0
    7394:	82 13 c0 00 	mov  %o7, %g1
    7398:	40 00 00 69 	call  753c <_close_r>
    739c:	9e 10 40 00 	mov  %g1, %o7
    73a0:	01 00 00 00 	nop 

000073a4 <strcmp>:
    73a4:	82 12 00 09 	or  %o0, %o1, %g1
    73a8:	80 88 60 03 	btst  3, %g1
    73ac:	32 80 00 08 	bne,a   73cc <strcmp+0x28>
    73b0:	d6 4a 00 00 	ldsb  [ %o0 ], %o3
    73b4:	d8 02 00 00 	ld  [ %o0 ], %o4
    73b8:	c2 02 40 00 	ld  [ %o1 ], %g1
    73bc:	80 a3 00 01 	cmp  %o4, %g1
    73c0:	02 80 00 1c 	be  7430 <strcmp+0x8c>
    73c4:	03 3f bf bf 	sethi  %hi(0xfefefc00), %g1
    73c8:	d6 4a 00 00 	ldsb  [ %o0 ], %o3
    73cc:	80 a2 e0 00 	cmp  %o3, 0
    73d0:	02 80 00 16 	be  7428 <strcmp+0x84>
    73d4:	da 0a 00 00 	ldub  [ %o0 ], %o5
    73d8:	c2 4a 40 00 	ldsb  [ %o1 ], %g1
    73dc:	80 a2 c0 01 	cmp  %o3, %g1
    73e0:	02 80 00 06 	be  73f8 <strcmp+0x54>
    73e4:	d8 0a 40 00 	ldub  [ %o1 ], %o4
    73e8:	9a 0b 60 ff 	and  %o5, 0xff, %o5
    73ec:	82 0b 20 ff 	and  %o4, 0xff, %g1
    73f0:	10 80 00 21 	b  7474 <strcmp+0xd0>
    73f4:	82 23 40 01 	sub  %o5, %g1, %g1
    73f8:	90 02 20 01 	inc  %o0
    73fc:	d6 4a 00 00 	ldsb  [ %o0 ], %o3
    7400:	92 02 60 01 	inc  %o1
    7404:	80 a2 e0 00 	cmp  %o3, 0
    7408:	02 80 00 08 	be  7428 <strcmp+0x84>
    740c:	da 0a 00 00 	ldub  [ %o0 ], %o5
    7410:	c2 4a 40 00 	ldsb  [ %o1 ], %g1
    7414:	80 a2 c0 01 	cmp  %o3, %g1
    7418:	02 bf ff f8 	be  73f8 <strcmp+0x54>
    741c:	d8 0a 40 00 	ldub  [ %o1 ], %o4
    7420:	10 bf ff f3 	b  73ec <strcmp+0x48>
    7424:	9a 0b 60 ff 	and  %o5, 0xff, %o5
    7428:	10 bf ff f0 	b  73e8 <strcmp+0x44>
    742c:	d8 0a 40 00 	ldub  [ %o1 ], %o4
    7430:	1b 20 20 20 	sethi  %hi(0x80808000), %o5
    7434:	94 10 62 ff 	or  %g1, 0x2ff, %o2
    7438:	96 13 60 80 	or  %o5, 0x80, %o3
    743c:	82 03 00 0a 	add  %o4, %o2, %g1
    7440:	82 28 40 0c 	andn  %g1, %o4, %g1
    7444:	90 02 20 04 	add  %o0, 4, %o0
    7448:	80 88 40 0b 	btst  %g1, %o3
    744c:	92 02 60 04 	add  %o1, 4, %o1
    7450:	12 80 00 09 	bne  7474 <strcmp+0xd0>
    7454:	82 10 20 00 	clr  %g1
    7458:	c2 02 00 00 	ld  [ %o0 ], %g1
    745c:	da 02 40 00 	ld  [ %o1 ], %o5
    7460:	80 a0 40 0d 	cmp  %g1, %o5
    7464:	02 bf ff f6 	be  743c <strcmp+0x98>
    7468:	98 10 00 01 	mov  %g1, %o4
    746c:	10 bf ff d8 	b  73cc <strcmp+0x28>
    7470:	d6 4a 00 00 	ldsb  [ %o0 ], %o3
    7474:	81 c3 e0 08 	retl 
    7478:	90 10 00 01 	mov  %g1, %o0

0000747c <strlen>:
    747c:	80 8a 20 03 	btst  3, %o0
    7480:	12 80 00 14 	bne  74d0 <strlen+0x54>
    7484:	94 10 00 08 	mov  %o0, %o2
    7488:	d8 02 00 00 	ld  [ %o0 ], %o4
    748c:	03 3f bf bf 	sethi  %hi(0xfefefc00), %g1
    7490:	1b 20 20 20 	sethi  %hi(0x80808000), %o5
    7494:	96 10 62 ff 	or  %g1, 0x2ff, %o3
    7498:	9a 13 60 80 	or  %o5, 0x80, %o5
    749c:	82 03 00 0b 	add  %o4, %o3, %g1
    74a0:	98 28 40 0c 	andn  %g1, %o4, %o4
    74a4:	80 8b 00 0d 	btst  %o4, %o5
    74a8:	32 80 00 0b 	bne,a   74d4 <strlen+0x58>
    74ac:	c2 4a 00 00 	ldsb  [ %o0 ], %g1
    74b0:	98 10 00 0d 	mov  %o5, %o4
    74b4:	90 02 20 04 	add  %o0, 4, %o0
    74b8:	c2 02 00 00 	ld  [ %o0 ], %g1
    74bc:	9a 00 40 0b 	add  %g1, %o3, %o5
    74c0:	82 2b 40 01 	andn  %o5, %g1, %g1
    74c4:	80 88 40 0c 	btst  %g1, %o4
    74c8:	22 bf ff fc 	be,a   74b8 <strlen+0x3c>
    74cc:	90 02 20 04 	add  %o0, 4, %o0
    74d0:	c2 4a 00 00 	ldsb  [ %o0 ], %g1
    74d4:	80 a0 60 00 	cmp  %g1, 0
    74d8:	02 80 00 07 	be  74f4 <strlen+0x78>
    74dc:	01 00 00 00 	nop 
    74e0:	90 02 20 01 	inc  %o0
    74e4:	c2 4a 00 00 	ldsb  [ %o0 ], %g1
    74e8:	80 a0 60 00 	cmp  %g1, 0
    74ec:	32 bf ff fe 	bne,a   74e4 <strlen+0x68>
    74f0:	90 02 20 01 	inc  %o0
    74f4:	81 c3 e0 08 	retl 
    74f8:	90 22 00 0a 	sub  %o0, %o2, %o0

000074fc <_write_r>:
    74fc:	9d e3 bf 98 	save  %sp, -104, %sp
    7500:	94 10 00 1b 	mov  %i3, %o2
    7504:	90 10 00 19 	mov  %i1, %o0
    7508:	92 10 00 1a 	mov  %i2, %o1
    750c:	37 00 00 2a 	sethi  %hi(0xa800), %i3
    7510:	40 00 00 50 	call  7650 <write>
    7514:	c0 26 e0 f0 	clr  [ %i3 + 0xf0 ]	! a8f0 <errno>
    7518:	80 a2 3f ff 	cmp  %o0, -1
    751c:	12 80 00 06 	bne  7534 <_write_r+0x38>
    7520:	c2 06 e0 f0 	ld  [ %i3 + 0xf0 ], %g1
    7524:	80 a0 60 00 	cmp  %g1, 0
    7528:	02 80 00 03 	be  7534 <_write_r+0x38>
    752c:	01 00 00 00 	nop 
    7530:	c2 26 00 00 	st  %g1, [ %i0 ]
    7534:	81 c7 e0 08 	ret 
    7538:	91 e8 00 08 	restore  %g0, %o0, %o0

0000753c <_close_r>:
    753c:	9d e3 bf 98 	save  %sp, -104, %sp
    7540:	90 10 00 19 	mov  %i1, %o0
    7544:	33 00 00 2a 	sethi  %hi(0xa800), %i1
    7548:	40 00 00 3e 	call  7640 <close>
    754c:	c0 26 60 f0 	clr  [ %i1 + 0xf0 ]	! a8f0 <errno>
    7550:	80 a2 3f ff 	cmp  %o0, -1
    7554:	12 80 00 06 	bne  756c <_close_r+0x30>
    7558:	c2 06 60 f0 	ld  [ %i1 + 0xf0 ], %g1
    755c:	80 a0 60 00 	cmp  %g1, 0
    7560:	02 80 00 03 	be  756c <_close_r+0x30>
    7564:	01 00 00 00 	nop 
    7568:	c2 26 00 00 	st  %g1, [ %i0 ]
    756c:	81 c7 e0 08 	ret 
    7570:	91 e8 00 08 	restore  %g0, %o0, %o0

00007574 <_fstat_r>:
    7574:	9d e3 bf 98 	save  %sp, -104, %sp
    7578:	92 10 00 1a 	mov  %i2, %o1
    757c:	90 10 00 19 	mov  %i1, %o0
    7580:	35 00 00 2a 	sethi  %hi(0xa800), %i2
    7584:	40 00 00 3b 	call  7670 <fstat>
    7588:	c0 26 a0 f0 	clr  [ %i2 + 0xf0 ]	! a8f0 <errno>
    758c:	80 a2 3f ff 	cmp  %o0, -1
    7590:	12 80 00 06 	bne  75a8 <_fstat_r+0x34>
    7594:	c2 06 a0 f0 	ld  [ %i2 + 0xf0 ], %g1
    7598:	80 a0 60 00 	cmp  %g1, 0
    759c:	02 80 00 03 	be  75a8 <_fstat_r+0x34>
    75a0:	01 00 00 00 	nop 
    75a4:	c2 26 00 00 	st  %g1, [ %i0 ]
    75a8:	81 c7 e0 08 	ret 
    75ac:	91 e8 00 08 	restore  %g0, %o0, %o0

000075b0 <_lseek_r>:
    75b0:	9d e3 bf 98 	save  %sp, -104, %sp
    75b4:	94 10 00 1b 	mov  %i3, %o2
    75b8:	90 10 00 19 	mov  %i1, %o0
    75bc:	92 10 00 1a 	mov  %i2, %o1
    75c0:	37 00 00 2a 	sethi  %hi(0xa800), %i3
    75c4:	40 00 00 29 	call  7668 <lseek>
    75c8:	c0 26 e0 f0 	clr  [ %i3 + 0xf0 ]	! a8f0 <errno>
    75cc:	80 a2 3f ff 	cmp  %o0, -1
    75d0:	12 80 00 06 	bne  75e8 <_lseek_r+0x38>
    75d4:	c2 06 e0 f0 	ld  [ %i3 + 0xf0 ], %g1
    75d8:	80 a0 60 00 	cmp  %g1, 0
    75dc:	02 80 00 03 	be  75e8 <_lseek_r+0x38>
    75e0:	01 00 00 00 	nop 
    75e4:	c2 26 00 00 	st  %g1, [ %i0 ]
    75e8:	81 c7 e0 08 	ret 
    75ec:	91 e8 00 08 	restore  %g0, %o0, %o0

000075f0 <_read_r>:
    75f0:	9d e3 bf 98 	save  %sp, -104, %sp
    75f4:	94 10 00 1b 	mov  %i3, %o2
    75f8:	90 10 00 19 	mov  %i1, %o0
    75fc:	92 10 00 1a 	mov  %i2, %o1
    7600:	37 00 00 2a 	sethi  %hi(0xa800), %i3
    7604:	40 00 00 11 	call  7648 <read>
    7608:	c0 26 e0 f0 	clr  [ %i3 + 0xf0 ]	! a8f0 <errno>
    760c:	80 a2 3f ff 	cmp  %o0, -1
    7610:	12 80 00 06 	bne  7628 <_read_r+0x38>
    7614:	c2 06 e0 f0 	ld  [ %i3 + 0xf0 ], %g1
    7618:	80 a0 60 00 	cmp  %g1, 0
    761c:	02 80 00 03 	be  7628 <_read_r+0x38>
    7620:	01 00 00 00 	nop 
    7624:	c2 26 00 00 	st  %g1, [ %i0 ]
    7628:	81 c7 e0 08 	ret 
    762c:	91 e8 00 08 	restore  %g0, %o0, %o0

00007630 <open>:
    7630:	81 c0 20 40 	jmp  0x40
    7634:	01 00 00 00 	nop 

00007638 <creat>:
    7638:	81 c0 20 44 	jmp  0x44
    763c:	01 00 00 00 	nop 

00007640 <close>:
    7640:	81 c0 20 48 	jmp  0x48
    7644:	01 00 00 00 	nop 

00007648 <read>:
    7648:	81 c0 20 4c 	jmp  0x4c
    764c:	01 00 00 00 	nop 

00007650 <write>:
    7650:	81 c0 20 50 	jmp  0x50
    7654:	01 00 00 00 	nop 

00007658 <isatty>:
    7658:	81 c0 20 54 	jmp  0x54
    765c:	01 00 00 00 	nop 

00007660 <sbrk>:
    7660:	81 c0 20 58 	jmp  0x58
    7664:	01 00 00 00 	nop 

00007668 <lseek>:
    7668:	81 c0 20 5c 	jmp  0x5c
    766c:	01 00 00 00 	nop 

00007670 <fstat>:
    7670:	81 c0 20 60 	jmp  0x60
    7674:	01 00 00 00 	nop 

00007678 <_exit>:
    7678:	81 c0 20 64 	jmp  0x64
    767c:	01 00 00 00 	nop 

00007680 <times>:
    7680:	81 c0 20 68 	jmp  0x68
    7684:	01 00 00 00 	nop 

00007688 <time>:
    7688:	81 c0 20 6c 	jmp  0x6c
    768c:	01 00 00 00 	nop 

00007690 <random>:
    7690:	81 c0 20 70 	jmp  0x70
    7694:	01 00 00 00 	nop 

00007698 <.umul>:
    7698:	98 12 00 09 	or  %o0, %o1, %o4
    769c:	81 82 00 00 	mov  %o0, %y
    76a0:	9a ab 2f ff 	andncc  %o4, 0xfff, %o5
    76a4:	02 80 00 25 	be  7738 <mul_shortway>
    76a8:	98 88 00 00 	andcc  %g0, %g0, %o4
    76ac:	99 23 00 09 	mulscc  %o4, %o1, %o4
    76b0:	99 23 00 09 	mulscc  %o4, %o1, %o4
    76b4:	99 23 00 09 	mulscc  %o4, %o1, %o4
    76b8:	99 23 00 09 	mulscc  %o4, %o1, %o4
    76bc:	99 23 00 09 	mulscc  %o4, %o1, %o4
    76c0:	99 23 00 09 	mulscc  %o4, %o1, %o4
    76c4:	99 23 00 09 	mulscc  %o4, %o1, %o4
    76c8:	99 23 00 09 	mulscc  %o4, %o1, %o4
    76cc:	99 23 00 09 	mulscc  %o4, %o1, %o4
    76d0:	99 23 00 09 	mulscc  %o4, %o1, %o4
    76d4:	99 23 00 09 	mulscc  %o4, %o1, %o4
    76d8:	99 23 00 09 	mulscc  %o4, %o1, %o4
    76dc:	99 23 00 09 	mulscc  %o4, %o1, %o4
    76e0:	99 23 00 09 	mulscc  %o4, %o1, %o4
    76e4:	99 23 00 09 	mulscc  %o4, %o1, %o4
    76e8:	99 23 00 09 	mulscc  %o4, %o1, %o4
    76ec:	99 23 00 09 	mulscc  %o4, %o1, %o4
    76f0:	99 23 00 09 	mulscc  %o4, %o1, %o4
    76f4:	99 23 00 09 	mulscc  %o4, %o1, %o4
    76f8:	99 23 00 09 	mulscc  %o4, %o1, %o4
    76fc:	99 23 00 09 	mulscc  %o4, %o1, %o4
    7700:	99 23 00 09 	mulscc  %o4, %o1, %o4
    7704:	99 23 00 09 	mulscc  %o4, %o1, %o4
    7708:	99 23 00 09 	mulscc  %o4, %o1, %o4
    770c:	99 23 00 09 	mulscc  %o4, %o1, %o4
    7710:	99 23 00 09 	mulscc  %o4, %o1, %o4
    7714:	99 23 00 09 	mulscc  %o4, %o1, %o4
    7718:	99 23 00 09 	mulscc  %o4, %o1, %o4
    771c:	99 23 00 09 	mulscc  %o4, %o1, %o4
    7720:	99 23 00 09 	mulscc  %o4, %o1, %o4
    7724:	99 23 00 09 	mulscc  %o4, %o1, %o4
    7728:	99 23 00 09 	mulscc  %o4, %o1, %o4
    772c:	99 23 00 00 	mulscc  %o4, %g0, %o4
    7730:	81 c3 e0 08 	retl 
    7734:	91 40 00 00 	rd  %y, %o0

00007738 <mul_shortway>:
    7738:	99 23 00 09 	mulscc  %o4, %o1, %o4
    773c:	99 23 00 09 	mulscc  %o4, %o1, %o4
    7740:	99 23 00 09 	mulscc  %o4, %o1, %o4
    7744:	99 23 00 09 	mulscc  %o4, %o1, %o4
    7748:	99 23 00 09 	mulscc  %o4, %o1, %o4
    774c:	99 23 00 09 	mulscc  %o4, %o1, %o4
    7750:	99 23 00 09 	mulscc  %o4, %o1, %o4
    7754:	99 23 00 09 	mulscc  %o4, %o1, %o4
    7758:	99 23 00 09 	mulscc  %o4, %o1, %o4
    775c:	99 23 00 09 	mulscc  %o4, %o1, %o4
    7760:	99 23 00 09 	mulscc  %o4, %o1, %o4
    7764:	99 23 00 09 	mulscc  %o4, %o1, %o4
    7768:	99 23 00 00 	mulscc  %o4, %g0, %o4
    776c:	9b 40 00 00 	rd  %y, %o5
    7770:	99 2b 20 0c 	sll  %o4, 0xc, %o4
    7774:	9b 33 60 14 	srl  %o5, 0x14, %o5
    7778:	81 c3 e0 08 	retl 
    777c:	90 13 40 0c 	or  %o5, %o4, %o0

00007780 <.udiv>:
    7780:	10 80 00 0b 	b  77ac <ready_to_divide>
    7784:	86 10 20 00 	clr  %g3

00007788 <.div>:
    7788:	80 92 40 08 	orcc  %o1, %o0, %g0
    778c:	16 80 00 08 	bge  77ac <ready_to_divide>
    7790:	86 1a 40 08 	xor  %o1, %o0, %g3
    7794:	80 92 40 00 	tst  %o1
    7798:	16 80 00 04 	bge  77a8 <.div+0x20>
    779c:	80 92 00 00 	tst  %o0
    77a0:	16 80 00 03 	bge  77ac <ready_to_divide>
    77a4:	92 20 00 09 	neg  %o1
    77a8:	90 20 00 08 	neg  %o0

000077ac <ready_to_divide>:
    77ac:	9a 92 40 00 	orcc  %o1, %g0, %o5
    77b0:	12 80 00 05 	bne  77c4 <ready_to_divide+0x18>
    77b4:	96 10 00 08 	mov  %o0, %o3
    77b8:	91 d0 20 02 	ta  2
    77bc:	81 c3 e0 08 	retl 
    77c0:	90 10 00 00 	mov  %g0, %o0
    77c4:	80 a2 c0 0d 	cmp  %o3, %o5
    77c8:	0a 80 00 95 	bcs  7a1c <got_result>
    77cc:	94 10 00 00 	mov  %g0, %o2
    77d0:	03 02 00 00 	sethi  %hi(0x8000000), %g1
    77d4:	80 a2 c0 01 	cmp  %o3, %g1
    77d8:	0a 80 00 28 	bcs  7878 <not_really_big>
    77dc:	98 10 00 00 	mov  %g0, %o4
    77e0:	80 a3 40 01 	cmp  %o5, %g1
    77e4:	1a 80 00 0d 	bcc  7818 <not_too_big>
    77e8:	84 10 20 01 	mov  1, %g2
    77ec:	9b 2b 60 04 	sll  %o5, 4, %o5
    77f0:	10 bf ff fc 	b  77e0 <ready_to_divide+0x34>
    77f4:	98 03 20 01 	inc  %o4
    77f8:	9a 83 40 0d 	addcc  %o5, %o5, %o5
    77fc:	1a 80 00 07 	bcc  7818 <not_too_big>
    7800:	84 00 a0 01 	inc  %g2
    7804:	83 28 60 04 	sll  %g1, 4, %g1
    7808:	9b 33 60 01 	srl  %o5, 1, %o5
    780c:	9a 03 40 01 	add  %o5, %g1, %o5
    7810:	10 80 00 07 	b  782c <do_single_div>
    7814:	84 20 a0 01 	dec  %g2

00007818 <not_too_big>:
    7818:	80 a3 40 0b 	cmp  %o5, %o3
    781c:	0a bf ff f7 	bcs  77f8 <ready_to_divide+0x4c>
    7820:	01 00 00 00 	nop 
    7824:	02 80 00 02 	be  782c <do_single_div>
    7828:	01 00 00 00 	nop 

0000782c <do_single_div>:
    782c:	84 a0 a0 01 	deccc  %g2
    7830:	06 80 00 76 	bl  7a08 <end_regular_divide>
    7834:	01 00 00 00 	nop 
    7838:	96 22 c0 0d 	sub  %o3, %o5, %o3
    783c:	94 10 20 01 	mov  1, %o2
    7840:	10 80 00 0a 	b  7868 <end_single_divloop>
    7844:	01 00 00 00 	nop 

00007848 <single_divloop>:
    7848:	95 2a a0 01 	sll  %o2, 1, %o2
    784c:	06 80 00 05 	bl  7860 <single_divloop+0x18>
    7850:	9b 33 60 01 	srl  %o5, 1, %o5
    7854:	96 22 c0 0d 	sub  %o3, %o5, %o3
    7858:	10 80 00 04 	b  7868 <end_single_divloop>
    785c:	94 02 a0 01 	inc  %o2
    7860:	96 02 c0 0d 	add  %o3, %o5, %o3
    7864:	94 22 a0 01 	dec  %o2

00007868 <end_single_divloop>:
    7868:	84 a0 a0 01 	deccc  %g2
    786c:	16 bf ff f7 	bge  7848 <single_divloop>
    7870:	80 92 c0 00 	tst  %o3
    7874:	30 80 00 65 	b,a   7a08 <end_regular_divide>

00007878 <not_really_big>:
    7878:	9b 2b 60 04 	sll  %o5, 4, %o5
    787c:	80 a3 40 0b 	cmp  %o5, %o3
    7880:	08 bf ff fe 	bleu  7878 <not_really_big>
    7884:	98 83 20 01 	inccc  %o4
    7888:	02 80 00 65 	be  7a1c <got_result>
    788c:	98 23 20 01 	dec  %o4
    7890:	80 92 c0 00 	tst  %o3

00007894 <divloop>:
    7894:	95 2a a0 04 	sll  %o2, 4, %o2
    7898:	06 80 00 2f 	bl  7954 <L1.16>
    789c:	9b 33 60 01 	srl  %o5, 1, %o5
    78a0:	96 a2 c0 0d 	subcc  %o3, %o5, %o3
    78a4:	06 80 00 17 	bl  7900 <L2.17>
    78a8:	9b 33 60 01 	srl  %o5, 1, %o5
    78ac:	96 a2 c0 0d 	subcc  %o3, %o5, %o3
    78b0:	06 80 00 0b 	bl  78dc <L3.19>
    78b4:	9b 33 60 01 	srl  %o5, 1, %o5
    78b8:	96 a2 c0 0d 	subcc  %o3, %o5, %o3
    78bc:	06 80 00 05 	bl  78d0 <L4.23>
    78c0:	9b 33 60 01 	srl  %o5, 1, %o5
    78c4:	96 a2 c0 0d 	subcc  %o3, %o5, %o3
    78c8:	10 80 00 50 	b  7a08 <end_regular_divide>
    78cc:	94 02 a0 0f 	add  %o2, 0xf, %o2

000078d0 <L4.23>:
    78d0:	96 82 c0 0d 	addcc  %o3, %o5, %o3
    78d4:	10 80 00 4d 	b  7a08 <end_regular_divide>
    78d8:	94 02 a0 0d 	add  %o2, 0xd, %o2

000078dc <L3.19>:
    78dc:	96 82 c0 0d 	addcc  %o3, %o5, %o3
    78e0:	06 80 00 05 	bl  78f4 <L4.21>
    78e4:	9b 33 60 01 	srl  %o5, 1, %o5
    78e8:	96 a2 c0 0d 	subcc  %o3, %o5, %o3
    78ec:	10 80 00 47 	b  7a08 <end_regular_divide>
    78f0:	94 02 a0 0b 	add  %o2, 0xb, %o2

000078f4 <L4.21>:
    78f4:	96 82 c0 0d 	addcc  %o3, %o5, %o3
    78f8:	10 80 00 44 	b  7a08 <end_regular_divide>
    78fc:	94 02 a0 09 	add  %o2, 9, %o2

00007900 <L2.17>:
    7900:	96 82 c0 0d 	addcc  %o3, %o5, %o3
    7904:	06 80 00 0b 	bl  7930 <L3.17>
    7908:	9b 33 60 01 	srl  %o5, 1, %o5
    790c:	96 a2 c0 0d 	subcc  %o3, %o5, %o3
    7910:	06 80 00 05 	bl  7924 <L4.19>
    7914:	9b 33 60 01 	srl  %o5, 1, %o5
    7918:	96 a2 c0 0d 	subcc  %o3, %o5, %o3
    791c:	10 80 00 3b 	b  7a08 <end_regular_divide>
    7920:	94 02 a0 07 	add  %o2, 7, %o2

00007924 <L4.19>:
    7924:	96 82 c0 0d 	addcc  %o3, %o5, %o3
    7928:	10 80 00 38 	b  7a08 <end_regular_divide>
    792c:	94 02 a0 05 	add  %o2, 5, %o2

00007930 <L3.17>:
    7930:	96 82 c0 0d 	addcc  %o3, %o5, %o3
    7934:	06 80 00 05 	bl  7948 <L4.17>
    7938:	9b 33 60 01 	srl  %o5, 1, %o5
    793c:	96 a2 c0 0d 	subcc  %o3, %o5, %o3
    7940:	10 80 00 32 	b  7a08 <end_regular_divide>
    7944:	94 02 a0 03 	add  %o2, 3, %o2

00007948 <L4.17>:
    7948:	96 82 c0 0d 	addcc  %o3, %o5, %o3
    794c:	10 80 00 2f 	b  7a08 <end_regular_divide>
    7950:	94 02 a0 01 	inc  %o2

00007954 <L1.16>:
    7954:	96 82 c0 0d 	addcc  %o3, %o5, %o3
    7958:	06 80 00 17 	bl  79b4 <L2.15>
    795c:	9b 33 60 01 	srl  %o5, 1, %o5
    7960:	96 a2 c0 0d 	subcc  %o3, %o5, %o3
    7964:	06 80 00 0b 	bl  7990 <L3.15>
    7968:	9b 33 60 01 	srl  %o5, 1, %o5
    796c:	96 a2 c0 0d 	subcc  %o3, %o5, %o3
    7970:	06 80 00 05 	bl  7984 <L4.15>
    7974:	9b 33 60 01 	srl  %o5, 1, %o5
    7978:	96 a2 c0 0d 	subcc  %o3, %o5, %o3
    797c:	10 80 00 23 	b  7a08 <end_regular_divide>
    7980:	94 02 bf ff 	add  %o2, -1, %o2

00007984 <L4.15>:
    7984:	96 82 c0 0d 	addcc  %o3, %o5, %o3
    7988:	10 80 00 20 	b  7a08 <end_regular_divide>
    798c:	94 02 bf fd 	add  %o2, -3, %o2

00007990 <L3.15>:
    7990:	96 82 c0 0d 	addcc  %o3, %o5, %o3
    7994:	06 80 00 05 	bl  79a8 <L4.13>
    7998:	9b 33 60 01 	srl  %o5, 1, %o5
    799c:	96 a2 c0 0d 	subcc  %o3, %o5, %o3
    79a0:	10 80 00 1a 	b  7a08 <end_regular_divide>
    79a4:	94 02 bf fb 	add  %o2, -5, %o2

000079a8 <L4.13>:
    79a8:	96 82 c0 0d 	addcc  %o3, %o5, %o3
    79ac:	10 80 00 17 	b  7a08 <end_regular_divide>
    79b0:	94 02 bf f9 	add  %o2, -7, %o2

000079b4 <L2.15>:
    79b4:	96 82 c0 0d 	addcc  %o3, %o5, %o3
    79b8:	06 80 00 0b 	bl  79e4 <L3.13>
    79bc:	9b 33 60 01 	srl  %o5, 1, %o5
    79c0:	96 a2 c0 0d 	subcc  %o3, %o5, %o3
    79c4:	06 80 00 05 	bl  79d8 <L4.11>
    79c8:	9b 33 60 01 	srl  %o5, 1, %o5
    79cc:	96 a2 c0 0d 	subcc  %o3, %o5, %o3
    79d0:	10 80 00 0e 	b  7a08 <end_regular_divide>
    79d4:	94 02 bf f7 	add  %o2, -9, %o2

000079d8 <L4.11>:
    79d8:	96 82 c0 0d 	addcc  %o3, %o5, %o3
    79dc:	10 80 00 0b 	b  7a08 <end_regular_divide>
    79e0:	94 02 bf f5 	add  %o2, -11, %o2

000079e4 <L3.13>:
    79e4:	96 82 c0 0d 	addcc  %o3, %o5, %o3
    79e8:	06 80 00 05 	bl  79fc <L4.9>
    79ec:	9b 33 60 01 	srl  %o5, 1, %o5
    79f0:	96 a2 c0 0d 	subcc  %o3, %o5, %o3
    79f4:	10 80 00 05 	b  7a08 <end_regular_divide>
    79f8:	94 02 bf f3 	add  %o2, -13, %o2

000079fc <L4.9>:
    79fc:	96 82 c0 0d 	addcc  %o3, %o5, %o3
    7a00:	10 80 00 02 	b  7a08 <end_regular_divide>
    7a04:	94 02 bf f1 	add  %o2, -15, %o2

00007a08 <end_regular_divide>:
    7a08:	98 a3 20 01 	deccc  %o4
    7a0c:	16 bf ff a2 	bge  7894 <divloop>
    7a10:	80 92 c0 00 	tst  %o3
    7a14:	26 80 00 02 	bl,a   7a1c <got_result>
    7a18:	94 22 a0 01 	dec  %o2

00007a1c <got_result>:
    7a1c:	80 90 c0 00 	tst  %g3
    7a20:	26 80 00 02 	bl,a   7a28 <got_result+0xc>
    7a24:	94 20 00 0a 	neg  %o2
    7a28:	81 c3 e0 08 	retl 
    7a2c:	90 10 00 0a 	mov  %o2, %o0

00007a30 <.urem>:
    7a30:	10 80 00 0b 	b  7a5c <divide>
    7a34:	86 10 20 00 	clr  %g3

00007a38 <.rem>:
    7a38:	80 92 40 08 	orcc  %o1, %o0, %g0
    7a3c:	16 80 00 08 	bge  7a5c <divide>
    7a40:	86 10 00 08 	mov  %o0, %g3
    7a44:	80 92 40 00 	tst  %o1
    7a48:	16 80 00 04 	bge  7a58 <.rem+0x20>
    7a4c:	80 92 00 00 	tst  %o0
    7a50:	16 80 00 03 	bge  7a5c <divide>
    7a54:	92 20 00 09 	neg  %o1
    7a58:	90 20 00 08 	neg  %o0

00007a5c <divide>:
    7a5c:	9a 92 40 00 	orcc  %o1, %g0, %o5
    7a60:	12 80 00 05 	bne  7a74 <divide+0x18>
    7a64:	96 10 00 08 	mov  %o0, %o3
    7a68:	91 d0 20 02 	ta  2
    7a6c:	81 c3 e0 08 	retl 
    7a70:	90 10 00 00 	mov  %g0, %o0
    7a74:	80 a2 c0 0d 	cmp  %o3, %o5
    7a78:	0a 80 00 95 	bcs  7ccc <got_result>
    7a7c:	94 10 00 00 	mov  %g0, %o2
    7a80:	03 02 00 00 	sethi  %hi(0x8000000), %g1
    7a84:	80 a2 c0 01 	cmp  %o3, %g1
    7a88:	0a 80 00 28 	bcs  7b28 <not_really_big>
    7a8c:	98 10 00 00 	mov  %g0, %o4
    7a90:	80 a3 40 01 	cmp  %o5, %g1
    7a94:	1a 80 00 0d 	bcc  7ac8 <not_too_big>
    7a98:	84 10 20 01 	mov  1, %g2
    7a9c:	9b 2b 60 04 	sll  %o5, 4, %o5
    7aa0:	10 bf ff fc 	b  7a90 <divide+0x34>
    7aa4:	98 03 20 01 	inc  %o4
    7aa8:	9a 83 40 0d 	addcc  %o5, %o5, %o5
    7aac:	1a 80 00 07 	bcc  7ac8 <not_too_big>
    7ab0:	84 00 a0 01 	inc  %g2
    7ab4:	83 28 60 04 	sll  %g1, 4, %g1
    7ab8:	9b 33 60 01 	srl  %o5, 1, %o5
    7abc:	9a 03 40 01 	add  %o5, %g1, %o5
    7ac0:	10 80 00 07 	b  7adc <do_single_div>
    7ac4:	84 20 a0 01 	dec  %g2

00007ac8 <not_too_big>:
    7ac8:	80 a3 40 0b 	cmp  %o5, %o3
    7acc:	0a bf ff f7 	bcs  7aa8 <divide+0x4c>
    7ad0:	01 00 00 00 	nop 
    7ad4:	02 80 00 02 	be  7adc <do_single_div>
    7ad8:	01 00 00 00 	nop 

00007adc <do_single_div>:
    7adc:	84 a0 a0 01 	deccc  %g2
    7ae0:	06 80 00 76 	bl  7cb8 <end_regular_divide>
    7ae4:	01 00 00 00 	nop 
    7ae8:	96 22 c0 0d 	sub  %o3, %o5, %o3
    7aec:	94 10 20 01 	mov  1, %o2
    7af0:	10 80 00 0a 	b  7b18 <end_single_divloop>
    7af4:	01 00 00 00 	nop 

00007af8 <single_divloop>:
    7af8:	95 2a a0 01 	sll  %o2, 1, %o2
    7afc:	06 80 00 05 	bl  7b10 <single_divloop+0x18>
    7b00:	9b 33 60 01 	srl  %o5, 1, %o5
    7b04:	96 22 c0 0d 	sub  %o3, %o5, %o3
    7b08:	10 80 00 04 	b  7b18 <end_single_divloop>
    7b0c:	94 02 a0 01 	inc  %o2
    7b10:	96 02 c0 0d 	add  %o3, %o5, %o3
    7b14:	94 22 a0 01 	dec  %o2

00007b18 <end_single_divloop>:
    7b18:	84 a0 a0 01 	deccc  %g2
    7b1c:	16 bf ff f7 	bge  7af8 <single_divloop>
    7b20:	80 92 c0 00 	tst  %o3
    7b24:	30 80 00 65 	b,a   7cb8 <end_regular_divide>

00007b28 <not_really_big>:
    7b28:	9b 2b 60 04 	sll  %o5, 4, %o5
    7b2c:	80 a3 40 0b 	cmp  %o5, %o3
    7b30:	08 bf ff fe 	bleu  7b28 <not_really_big>
    7b34:	98 83 20 01 	inccc  %o4
    7b38:	02 80 00 65 	be  7ccc <got_result>
    7b3c:	98 23 20 01 	dec  %o4
    7b40:	80 92 c0 00 	tst  %o3

00007b44 <divloop>:
    7b44:	95 2a a0 04 	sll  %o2, 4, %o2
    7b48:	06 80 00 2f 	bl  7c04 <L1.16>
    7b4c:	9b 33 60 01 	srl  %o5, 1, %o5
    7b50:	96 a2 c0 0d 	subcc  %o3, %o5, %o3
    7b54:	06 80 00 17 	bl  7bb0 <L2.17>
    7b58:	9b 33 60 01 	srl  %o5, 1, %o5
    7b5c:	96 a2 c0 0d 	subcc  %o3, %o5, %o3
    7b60:	06 80 00 0b 	bl  7b8c <L3.19>
    7b64:	9b 33 60 01 	srl  %o5, 1, %o5
    7b68:	96 a2 c0 0d 	subcc  %o3, %o5, %o3
    7b6c:	06 80 00 05 	bl  7b80 <L4.23>
    7b70:	9b 33 60 01 	srl  %o5, 1, %o5
    7b74:	96 a2 c0 0d 	subcc  %o3, %o5, %o3
    7b78:	10 80 00 50 	b  7cb8 <end_regular_divide>
    7b7c:	94 02 a0 0f 	add  %o2, 0xf, %o2

00007b80 <L4.23>:
    7b80:	96 82 c0 0d 	addcc  %o3, %o5, %o3
    7b84:	10 80 00 4d 	b  7cb8 <end_regular_divide>
    7b88:	94 02 a0 0d 	add  %o2, 0xd, %o2

00007b8c <L3.19>:
    7b8c:	96 82 c0 0d 	addcc  %o3, %o5, %o3
    7b90:	06 80 00 05 	bl  7ba4 <L4.21>
    7b94:	9b 33 60 01 	srl  %o5, 1, %o5
    7b98:	96 a2 c0 0d 	subcc  %o3, %o5, %o3
    7b9c:	10 80 00 47 	b  7cb8 <end_regular_divide>
    7ba0:	94 02 a0 0b 	add  %o2, 0xb, %o2

00007ba4 <L4.21>:
    7ba4:	96 82 c0 0d 	addcc  %o3, %o5, %o3
    7ba8:	10 80 00 44 	b  7cb8 <end_regular_divide>
    7bac:	94 02 a0 09 	add  %o2, 9, %o2

00007bb0 <L2.17>:
    7bb0:	96 82 c0 0d 	addcc  %o3, %o5, %o3
    7bb4:	06 80 00 0b 	bl  7be0 <L3.17>
    7bb8:	9b 33 60 01 	srl  %o5, 1, %o5
    7bbc:	96 a2 c0 0d 	subcc  %o3, %o5, %o3
    7bc0:	06 80 00 05 	bl  7bd4 <L4.19>
    7bc4:	9b 33 60 01 	srl  %o5, 1, %o5
    7bc8:	96 a2 c0 0d 	subcc  %o3, %o5, %o3
    7bcc:	10 80 00 3b 	b  7cb8 <end_regular_divide>
    7bd0:	94 02 a0 07 	add  %o2, 7, %o2

00007bd4 <L4.19>:
    7bd4:	96 82 c0 0d 	addcc  %o3, %o5, %o3
    7bd8:	10 80 00 38 	b  7cb8 <end_regular_divide>
    7bdc:	94 02 a0 05 	add  %o2, 5, %o2

00007be0 <L3.17>:
    7be0:	96 82 c0 0d 	addcc  %o3, %o5, %o3
    7be4:	06 80 00 05 	bl  7bf8 <L4.17>
    7be8:	9b 33 60 01 	srl  %o5, 1, %o5
    7bec:	96 a2 c0 0d 	subcc  %o3, %o5, %o3
    7bf0:	10 80 00 32 	b  7cb8 <end_regular_divide>
    7bf4:	94 02 a0 03 	add  %o2, 3, %o2

00007bf8 <L4.17>:
    7bf8:	96 82 c0 0d 	addcc  %o3, %o5, %o3
    7bfc:	10 80 00 2f 	b  7cb8 <end_regular_divide>
    7c00:	94 02 a0 01 	inc  %o2

00007c04 <L1.16>:
    7c04:	96 82 c0 0d 	addcc  %o3, %o5, %o3
    7c08:	06 80 00 17 	bl  7c64 <L2.15>
    7c0c:	9b 33 60 01 	srl  %o5, 1, %o5
    7c10:	96 a2 c0 0d 	subcc  %o3, %o5, %o3
    7c14:	06 80 00 0b 	bl  7c40 <L3.15>
    7c18:	9b 33 60 01 	srl  %o5, 1, %o5
    7c1c:	96 a2 c0 0d 	subcc  %o3, %o5, %o3
    7c20:	06 80 00 05 	bl  7c34 <L4.15>
    7c24:	9b 33 60 01 	srl  %o5, 1, %o5
    7c28:	96 a2 c0 0d 	subcc  %o3, %o5, %o3
    7c2c:	10 80 00 23 	b  7cb8 <end_regular_divide>
    7c30:	94 02 bf ff 	add  %o2, -1, %o2

00007c34 <L4.15>:
    7c34:	96 82 c0 0d 	addcc  %o3, %o5, %o3
    7c38:	10 80 00 20 	b  7cb8 <end_regular_divide>
    7c3c:	94 02 bf fd 	add  %o2, -3, %o2

00007c40 <L3.15>:
    7c40:	96 82 c0 0d 	addcc  %o3, %o5, %o3
    7c44:	06 80 00 05 	bl  7c58 <L4.13>
    7c48:	9b 33 60 01 	srl  %o5, 1, %o5
    7c4c:	96 a2 c0 0d 	subcc  %o3, %o5, %o3
    7c50:	10 80 00 1a 	b  7cb8 <end_regular_divide>
    7c54:	94 02 bf fb 	add  %o2, -5, %o2

00007c58 <L4.13>:
    7c58:	96 82 c0 0d 	addcc  %o3, %o5, %o3
    7c5c:	10 80 00 17 	b  7cb8 <end_regular_divide>
    7c60:	94 02 bf f9 	add  %o2, -7, %o2

00007c64 <L2.15>:
    7c64:	96 82 c0 0d 	addcc  %o3, %o5, %o3
    7c68:	06 80 00 0b 	bl  7c94 <L3.13>
    7c6c:	9b 33 60 01 	srl  %o5, 1, %o5
    7c70:	96 a2 c0 0d 	subcc  %o3, %o5, %o3
    7c74:	06 80 00 05 	bl  7c88 <L4.11>
    7c78:	9b 33 60 01 	srl  %o5, 1, %o5
    7c7c:	96 a2 c0 0d 	subcc  %o3, %o5, %o3
    7c80:	10 80 00 0e 	b  7cb8 <end_regular_divide>
    7c84:	94 02 bf f7 	add  %o2, -9, %o2

00007c88 <L4.11>:
    7c88:	96 82 c0 0d 	addcc  %o3, %o5, %o3
    7c8c:	10 80 00 0b 	b  7cb8 <end_regular_divide>
    7c90:	94 02 bf f5 	add  %o2, -11, %o2

00007c94 <L3.13>:
    7c94:	96 82 c0 0d 	addcc  %o3, %o5, %o3
    7c98:	06 80 00 05 	bl  7cac <L4.9>
    7c9c:	9b 33 60 01 	srl  %o5, 1, %o5
    7ca0:	96 a2 c0 0d 	subcc  %o3, %o5, %o3
    7ca4:	10 80 00 05 	b  7cb8 <end_regular_divide>
    7ca8:	94 02 bf f3 	add  %o2, -13, %o2

00007cac <L4.9>:
    7cac:	96 82 c0 0d 	addcc  %o3, %o5, %o3
    7cb0:	10 80 00 02 	b  7cb8 <end_regular_divide>
    7cb4:	94 02 bf f1 	add  %o2, -15, %o2

00007cb8 <end_regular_divide>:
    7cb8:	98 a3 20 01 	deccc  %o4
    7cbc:	16 bf ff a2 	bge  7b44 <divloop>
    7cc0:	80 92 c0 00 	tst  %o3
    7cc4:	26 80 00 02 	bl,a   7ccc <got_result>
    7cc8:	96 02 c0 09 	add  %o3, %o1, %o3

00007ccc <got_result>:
    7ccc:	80 90 c0 00 	tst  %g3
    7cd0:	26 80 00 02 	bl,a   7cd8 <got_result+0xc>
    7cd4:	96 20 00 0b 	neg  %o3
    7cd8:	81 c3 e0 08 	retl 
    7cdc:	90 10 00 0b 	mov  %o3, %o0

00007ce0 <__udivdi3>:
    7ce0:	9d e3 bf 98 	save  %sp, -104, %sp
    7ce4:	a0 10 00 18 	mov  %i0, %l0
    7ce8:	92 96 a0 00 	orcc  %i2, 0, %o1
    7cec:	a2 10 20 00 	clr  %l1
    7cf0:	90 10 00 1b 	mov  %i3, %o0
    7cf4:	12 80 00 51 	bne  7e38 <__udivdi3+0x158>
    7cf8:	b0 10 00 19 	mov  %i1, %i0
    7cfc:	80 a6 c0 10 	cmp  %i3, %l0
    7d00:	08 80 00 1a 	bleu  7d68 <__udivdi3+0x88>
    7d04:	80 a6 e0 00 	cmp  %i3, 0
    7d08:	98 10 00 19 	mov  %i1, %o4
    7d0c:	82 10 20 20 	mov  0x20, %g1
    7d10:	80 a4 00 1b 	cmp  %l0, %i3
    7d14:	0a 80 00 0c 	bcs  7d44 <__udivdi3+0x64>
    7d18:	98 c3 00 0c 	addxcc  %o4, %o4, %o4
    7d1c:	a0 24 00 1b 	sub  %l0, %i3, %l0
    7d20:	a0 44 00 10 	addx  %l0, %l0, %l0
    7d24:	82 a0 60 01 	deccc  %g1
    7d28:	12 bf ff fb 	bne  7d14 <__udivdi3+0x34>
    7d2c:	80 a4 00 1b 	cmp  %l0, %i3
    7d30:	0a 80 00 0b 	bcs  7d5c <__udivdi3+0x7c>
    7d34:	98 c3 00 0c 	addxcc  %o4, %o4, %o4
    7d38:	10 80 00 09 	b  7d5c <__udivdi3+0x7c>
    7d3c:	a0 24 00 1b 	sub  %l0, %i3, %l0
    7d40:	a0 24 00 1b 	sub  %l0, %i3, %l0
    7d44:	a0 c4 00 10 	addxcc  %l0, %l0, %l0
    7d48:	1a bf ff f8 	bcc  7d28 <__udivdi3+0x48>
    7d4c:	82 a0 60 01 	deccc  %g1
    7d50:	12 bf ff fc 	bne  7d40 <__udivdi3+0x60>
    7d54:	98 83 00 0c 	addcc  %o4, %o4, %o4
    7d58:	a0 24 00 1b 	sub  %l0, %i3, %l0
    7d5c:	98 3b 20 00 	xnor  %o4, 0, %o4
    7d60:	10 80 00 ae 	b  8018 <__udivdi3+0x338>
    7d64:	9a 10 20 00 	clr  %o5
    7d68:	12 80 00 06 	bne  7d80 <__udivdi3+0xa0>
    7d6c:	9a 10 00 10 	mov  %l0, %o5
    7d70:	90 10 20 01 	mov  1, %o0
    7d74:	7f ff fe 83 	call  7780 <.udiv>
    7d78:	92 10 20 00 	clr  %o1
    7d7c:	9a 10 00 10 	mov  %l0, %o5
    7d80:	98 10 00 18 	mov  %i0, %o4
    7d84:	82 10 20 20 	mov  0x20, %g1
    7d88:	80 a4 40 08 	cmp  %l1, %o0
    7d8c:	0a 80 00 0c 	bcs  7dbc <__udivdi3+0xdc>
    7d90:	9a c3 40 0d 	addxcc  %o5, %o5, %o5
    7d94:	a2 24 40 08 	sub  %l1, %o0, %l1
    7d98:	a2 44 40 11 	addx  %l1, %l1, %l1
    7d9c:	82 a0 60 01 	deccc  %g1
    7da0:	12 bf ff fb 	bne  7d8c <__udivdi3+0xac>
    7da4:	80 a4 40 08 	cmp  %l1, %o0
    7da8:	0a 80 00 0b 	bcs  7dd4 <__udivdi3+0xf4>
    7dac:	9a c3 40 0d 	addxcc  %o5, %o5, %o5
    7db0:	10 80 00 09 	b  7dd4 <__udivdi3+0xf4>
    7db4:	a2 24 40 08 	sub  %l1, %o0, %l1
    7db8:	a2 24 40 08 	sub  %l1, %o0, %l1
    7dbc:	a2 c4 40 11 	addxcc  %l1, %l1, %l1
    7dc0:	1a bf ff f8 	bcc  7da0 <__udivdi3+0xc0>
    7dc4:	82 a0 60 01 	deccc  %g1
    7dc8:	12 bf ff fc 	bne  7db8 <__udivdi3+0xd8>
    7dcc:	9a 83 40 0d 	addcc  %o5, %o5, %o5
    7dd0:	a2 24 40 08 	sub  %l1, %o0, %l1
    7dd4:	9a 3b 60 00 	xnor  %o5, 0, %o5
    7dd8:	a0 10 00 11 	mov  %l1, %l0
    7ddc:	82 10 20 20 	mov  0x20, %g1
    7de0:	80 a4 00 08 	cmp  %l0, %o0
    7de4:	0a 80 00 0c 	bcs  7e14 <__udivdi3+0x134>
    7de8:	98 c3 00 0c 	addxcc  %o4, %o4, %o4
    7dec:	a0 24 00 08 	sub  %l0, %o0, %l0
    7df0:	a0 44 00 10 	addx  %l0, %l0, %l0
    7df4:	82 a0 60 01 	deccc  %g1
    7df8:	12 bf ff fb 	bne  7de4 <__udivdi3+0x104>
    7dfc:	80 a4 00 08 	cmp  %l0, %o0
    7e00:	0a 80 00 0b 	bcs  7e2c <__udivdi3+0x14c>
    7e04:	98 c3 00 0c 	addxcc  %o4, %o4, %o4
    7e08:	10 80 00 09 	b  7e2c <__udivdi3+0x14c>
    7e0c:	a0 24 00 08 	sub  %l0, %o0, %l0
    7e10:	a0 24 00 08 	sub  %l0, %o0, %l0
    7e14:	a0 c4 00 10 	addxcc  %l0, %l0, %l0
    7e18:	1a bf ff f8 	bcc  7df8 <__udivdi3+0x118>
    7e1c:	82 a0 60 01 	deccc  %g1
    7e20:	12 bf ff fc 	bne  7e10 <__udivdi3+0x130>
    7e24:	98 83 00 0c 	addcc  %o4, %o4, %o4
    7e28:	a0 24 00 08 	sub  %l0, %o0, %l0
    7e2c:	98 3b 20 00 	xnor  %o4, 0, %o4
    7e30:	10 80 00 7b 	b  801c <__udivdi3+0x33c>
    7e34:	b0 10 00 0d 	mov  %o5, %i0
    7e38:	80 a2 40 10 	cmp  %o1, %l0
    7e3c:	98 10 20 00 	clr  %o4
    7e40:	18 80 00 76 	bgu  8018 <__udivdi3+0x338>
    7e44:	9a 10 20 00 	clr  %o5
    7e48:	03 00 00 3f 	sethi  %hi(0xfc00), %g1
    7e4c:	82 10 63 ff 	or  %g1, 0x3ff, %g1	! ffff <__end+0x5707>
    7e50:	80 a2 40 01 	cmp  %o1, %g1
    7e54:	18 80 00 6b 	bgu  8000 <__udivdi3+0x320>
    7e58:	03 00 3f ff 	sethi  %hi(0xfffc00), %g1
    7e5c:	80 a2 61 00 	cmp  %o1, 0x100
    7e60:	82 60 3f ff 	subx  %g0, -1, %g1
    7e64:	97 28 60 03 	sll  %g1, 3, %o3
    7e68:	83 32 40 0b 	srl  %o1, %o3, %g1
    7e6c:	1b 00 00 27 	sethi  %hi(0x9c00), %o5
    7e70:	9a 13 60 98 	or  %o5, 0x98, %o5	! 9c98 <__clz_tab>
    7e74:	d8 0b 40 01 	ldub  [ %o5 + %g1 ], %o4
    7e78:	9a 10 20 20 	mov  0x20, %o5
    7e7c:	98 03 00 0b 	add  %o4, %o3, %o4
    7e80:	9e a3 40 0c 	subcc  %o5, %o4, %o7
    7e84:	12 80 00 0b 	bne  7eb0 <__udivdi3+0x1d0>
    7e88:	9a 23 40 0f 	sub  %o5, %o7, %o5
    7e8c:	80 a2 40 10 	cmp  %o1, %l0
    7e90:	9a 40 20 00 	addx  %g0, 0, %o5
    7e94:	80 a6 00 08 	cmp  %i0, %o0
    7e98:	82 60 3f ff 	subx  %g0, -1, %g1
    7e9c:	80 93 40 01 	orcc  %o5, %g1, %g0
    7ea0:	12 bf ff b0 	bne  7d60 <__udivdi3+0x80>
    7ea4:	98 10 20 01 	mov  1, %o4
    7ea8:	10 bf ff ae 	b  7d60 <__udivdi3+0x80>
    7eac:	98 10 20 00 	clr  %o4
    7eb0:	99 2a 40 0f 	sll  %o1, %o7, %o4
    7eb4:	83 32 00 0d 	srl  %o0, %o5, %g1
    7eb8:	95 36 00 0d 	srl  %i0, %o5, %o2
    7ebc:	97 2c 00 0f 	sll  %l0, %o7, %o3
    7ec0:	9b 34 00 0d 	srl  %l0, %o5, %o5
    7ec4:	a0 12 c0 0a 	or  %o3, %o2, %l0
    7ec8:	92 13 00 01 	or  %o4, %g1, %o1
    7ecc:	91 2a 00 0f 	sll  %o0, %o7, %o0
    7ed0:	98 10 00 10 	mov  %l0, %o4
    7ed4:	b1 2e 00 0f 	sll  %i0, %o7, %i0
    7ed8:	82 10 20 20 	mov  0x20, %g1
    7edc:	80 a3 40 09 	cmp  %o5, %o1
    7ee0:	0a 80 00 0c 	bcs  7f10 <__udivdi3+0x230>
    7ee4:	98 c3 00 0c 	addxcc  %o4, %o4, %o4
    7ee8:	9a 23 40 09 	sub  %o5, %o1, %o5
    7eec:	9a 43 40 0d 	addx  %o5, %o5, %o5
    7ef0:	82 a0 60 01 	deccc  %g1
    7ef4:	12 bf ff fb 	bne  7ee0 <__udivdi3+0x200>
    7ef8:	80 a3 40 09 	cmp  %o5, %o1
    7efc:	0a 80 00 0b 	bcs  7f28 <__udivdi3+0x248>
    7f00:	98 c3 00 0c 	addxcc  %o4, %o4, %o4
    7f04:	10 80 00 09 	b  7f28 <__udivdi3+0x248>
    7f08:	9a 23 40 09 	sub  %o5, %o1, %o5
    7f0c:	9a 23 40 09 	sub  %o5, %o1, %o5
    7f10:	9a c3 40 0d 	addxcc  %o5, %o5, %o5
    7f14:	1a bf ff f8 	bcc  7ef4 <__udivdi3+0x214>
    7f18:	82 a0 60 01 	deccc  %g1
    7f1c:	12 bf ff fc 	bne  7f0c <__udivdi3+0x22c>
    7f20:	98 83 00 0c 	addcc  %o4, %o4, %o4
    7f24:	9a 23 40 09 	sub  %o5, %o1, %o5
    7f28:	98 3b 20 00 	xnor  %o4, 0, %o4
    7f2c:	a0 10 00 0d 	mov  %o5, %l0
    7f30:	81 80 00 0c 	wr  %g0, %o4, %y
    7f34:	9b 3a 20 1f 	sra  %o0, 0x1f, %o5
    7f38:	9a 0b 00 0d 	and  %o4, %o5, %o5
    7f3c:	82 88 20 00 	andcc  %g0, 0, %g1
    7f40:	83 20 40 08 	mulscc  %g1, %o0, %g1
    7f44:	83 20 40 08 	mulscc  %g1, %o0, %g1
    7f48:	83 20 40 08 	mulscc  %g1, %o0, %g1
    7f4c:	83 20 40 08 	mulscc  %g1, %o0, %g1
    7f50:	83 20 40 08 	mulscc  %g1, %o0, %g1
    7f54:	83 20 40 08 	mulscc  %g1, %o0, %g1
    7f58:	83 20 40 08 	mulscc  %g1, %o0, %g1
    7f5c:	83 20 40 08 	mulscc  %g1, %o0, %g1
    7f60:	83 20 40 08 	mulscc  %g1, %o0, %g1
    7f64:	83 20 40 08 	mulscc  %g1, %o0, %g1
    7f68:	83 20 40 08 	mulscc  %g1, %o0, %g1
    7f6c:	83 20 40 08 	mulscc  %g1, %o0, %g1
    7f70:	83 20 40 08 	mulscc  %g1, %o0, %g1
    7f74:	83 20 40 08 	mulscc  %g1, %o0, %g1
    7f78:	83 20 40 08 	mulscc  %g1, %o0, %g1
    7f7c:	83 20 40 08 	mulscc  %g1, %o0, %g1
    7f80:	83 20 40 08 	mulscc  %g1, %o0, %g1
    7f84:	83 20 40 08 	mulscc  %g1, %o0, %g1
    7f88:	83 20 40 08 	mulscc  %g1, %o0, %g1
    7f8c:	83 20 40 08 	mulscc  %g1, %o0, %g1
    7f90:	83 20 40 08 	mulscc  %g1, %o0, %g1
    7f94:	83 20 40 08 	mulscc  %g1, %o0, %g1
    7f98:	83 20 40 08 	mulscc  %g1, %o0, %g1
    7f9c:	83 20 40 08 	mulscc  %g1, %o0, %g1
    7fa0:	83 20 40 08 	mulscc  %g1, %o0, %g1
    7fa4:	83 20 40 08 	mulscc  %g1, %o0, %g1
    7fa8:	83 20 40 08 	mulscc  %g1, %o0, %g1
    7fac:	83 20 40 08 	mulscc  %g1, %o0, %g1
    7fb0:	83 20 40 08 	mulscc  %g1, %o0, %g1
    7fb4:	83 20 40 08 	mulscc  %g1, %o0, %g1
    7fb8:	83 20 40 08 	mulscc  %g1, %o0, %g1
    7fbc:	83 20 40 08 	mulscc  %g1, %o0, %g1
    7fc0:	83 20 60 00 	mulscc  %g1, 0, %g1
    7fc4:	96 00 40 0d 	add  %g1, %o5, %o3
    7fc8:	95 40 00 00 	rd  %y, %o2
    7fcc:	80 a2 c0 10 	cmp  %o3, %l0
    7fd0:	38 bf ff 64 	bgu,a   7d60 <__udivdi3+0x80>
    7fd4:	98 03 3f ff 	add  %o4, -1, %o4
    7fd8:	82 1a c0 10 	xor  %o3, %l0, %g1
    7fdc:	80 a0 00 01 	cmp  %g0, %g1
    7fe0:	9a 60 3f ff 	subx  %g0, -1, %o5
    7fe4:	80 a6 00 0a 	cmp  %i0, %o2
    7fe8:	82 40 20 00 	addx  %g0, 0, %g1
    7fec:	80 8b 40 01 	btst  %o5, %g1
    7ff0:	22 80 00 0a 	be,a   8018 <__udivdi3+0x338>
    7ff4:	9a 10 20 00 	clr  %o5
    7ff8:	10 bf ff 5a 	b  7d60 <__udivdi3+0x80>
    7ffc:	98 03 3f ff 	add  %o4, -1, %o4
    8000:	82 10 63 ff 	or  %g1, 0x3ff, %g1
    8004:	80 a0 40 09 	cmp  %g1, %o1
    8008:	9a 60 20 00 	subx  %g0, 0, %o5
    800c:	96 0b 60 08 	and  %o5, 8, %o3
    8010:	10 bf ff 96 	b  7e68 <__udivdi3+0x188>
    8014:	96 02 e0 10 	add  %o3, 0x10, %o3
    8018:	b0 10 00 0d 	mov  %o5, %i0
    801c:	81 c7 e0 08 	ret 
    8020:	93 e8 00 0c 	restore  %g0, %o4, %o1

00008024 <__umoddi3>:
    8024:	9d e3 bf 90 	save  %sp, -112, %sp
    8028:	a2 96 a0 00 	orcc  %i2, 0, %l1
    802c:	a6 07 bf f0 	add  %fp, -16, %l3
    8030:	90 10 00 1b 	mov  %i3, %o0
    8034:	a4 10 00 19 	mov  %i1, %l2
    8038:	12 80 00 56 	bne  8190 <__umoddi3+0x16c>
    803c:	a0 10 00 18 	mov  %i0, %l0
    8040:	80 a6 c0 18 	cmp  %i3, %i0
    8044:	08 80 00 1f 	bleu  80c0 <__umoddi3+0x9c>
    8048:	80 a6 e0 00 	cmp  %i3, 0
    804c:	98 10 00 19 	mov  %i1, %o4
    8050:	82 10 20 20 	mov  0x20, %g1
    8054:	80 a4 00 1b 	cmp  %l0, %i3
    8058:	0a 80 00 0c 	bcs  8088 <__umoddi3+0x64>
    805c:	98 c3 00 0c 	addxcc  %o4, %o4, %o4
    8060:	a0 24 00 1b 	sub  %l0, %i3, %l0
    8064:	a0 44 00 10 	addx  %l0, %l0, %l0
    8068:	82 a0 60 01 	deccc  %g1
    806c:	12 bf ff fb 	bne  8058 <__umoddi3+0x34>
    8070:	80 a4 00 1b 	cmp  %l0, %i3
    8074:	0a 80 00 0b 	bcs  80a0 <__umoddi3+0x7c>
    8078:	98 c3 00 0c 	addxcc  %o4, %o4, %o4
    807c:	10 80 00 09 	b  80a0 <__umoddi3+0x7c>
    8080:	a0 24 00 1b 	sub  %l0, %i3, %l0
    8084:	a0 24 00 1b 	sub  %l0, %i3, %l0
    8088:	a0 c4 00 10 	addxcc  %l0, %l0, %l0
    808c:	1a bf ff f8 	bcc  806c <__umoddi3+0x48>
    8090:	82 a0 60 01 	deccc  %g1
    8094:	12 bf ff fc 	bne  8084 <__umoddi3+0x60>
    8098:	98 83 00 0c 	addcc  %o4, %o4, %o4
    809c:	a0 24 00 1b 	sub  %l0, %i3, %l0
    80a0:	98 3b 20 00 	xnor  %o4, 0, %o4
    80a4:	aa 10 00 10 	mov  %l0, %l5
    80a8:	a8 10 20 00 	clr  %l4
    80ac:	80 a4 e0 00 	cmp  %l3, 0
    80b0:	02 80 00 c1 	be  83b4 <__umoddi3+0x390>
    80b4:	f0 1f bf f0 	ldd  [ %fp + -16 ], %i0
    80b8:	10 80 00 be 	b  83b0 <__umoddi3+0x38c>
    80bc:	e8 3c c0 00 	std  %l4, [ %l3 ]
    80c0:	12 80 00 06 	bne  80d8 <__umoddi3+0xb4>
    80c4:	9a 10 00 10 	mov  %l0, %o5
    80c8:	90 10 20 01 	mov  1, %o0
    80cc:	7f ff fd ad 	call  7780 <.udiv>
    80d0:	92 10 20 00 	clr  %o1
    80d4:	9a 10 00 10 	mov  %l0, %o5
    80d8:	98 10 00 12 	mov  %l2, %o4
    80dc:	82 10 20 20 	mov  0x20, %g1
    80e0:	80 a4 40 08 	cmp  %l1, %o0
    80e4:	0a 80 00 0c 	bcs  8114 <__umoddi3+0xf0>
    80e8:	9a c3 40 0d 	addxcc  %o5, %o5, %o5
    80ec:	a2 24 40 08 	sub  %l1, %o0, %l1
    80f0:	a2 44 40 11 	addx  %l1, %l1, %l1
    80f4:	82 a0 60 01 	deccc  %g1
    80f8:	12 bf ff fb 	bne  80e4 <__umoddi3+0xc0>
    80fc:	80 a4 40 08 	cmp  %l1, %o0
    8100:	0a 80 00 0b 	bcs  812c <__umoddi3+0x108>
    8104:	9a c3 40 0d 	addxcc  %o5, %o5, %o5
    8108:	10 80 00 09 	b  812c <__umoddi3+0x108>
    810c:	a2 24 40 08 	sub  %l1, %o0, %l1
    8110:	a2 24 40 08 	sub  %l1, %o0, %l1
    8114:	a2 c4 40 11 	addxcc  %l1, %l1, %l1
    8118:	1a bf ff f8 	bcc  80f8 <__umoddi3+0xd4>
    811c:	82 a0 60 01 	deccc  %g1
    8120:	12 bf ff fc 	bne  8110 <__umoddi3+0xec>
    8124:	9a 83 40 0d 	addcc  %o5, %o5, %o5
    8128:	a2 24 40 08 	sub  %l1, %o0, %l1
    812c:	9a 3b 60 00 	xnor  %o5, 0, %o5
    8130:	a0 10 00 11 	mov  %l1, %l0
    8134:	82 10 20 20 	mov  0x20, %g1
    8138:	80 a4 00 08 	cmp  %l0, %o0
    813c:	0a 80 00 0c 	bcs  816c <__umoddi3+0x148>
    8140:	98 c3 00 0c 	addxcc  %o4, %o4, %o4
    8144:	a0 24 00 08 	sub  %l0, %o0, %l0
    8148:	a0 44 00 10 	addx  %l0, %l0, %l0
    814c:	82 a0 60 01 	deccc  %g1
    8150:	12 bf ff fb 	bne  813c <__umoddi3+0x118>
    8154:	80 a4 00 08 	cmp  %l0, %o0
    8158:	0a 80 00 0b 	bcs  8184 <__umoddi3+0x160>
    815c:	98 c3 00 0c 	addxcc  %o4, %o4, %o4
    8160:	10 80 00 09 	b  8184 <__umoddi3+0x160>
    8164:	a0 24 00 08 	sub  %l0, %o0, %l0
    8168:	a0 24 00 08 	sub  %l0, %o0, %l0
    816c:	a0 c4 00 10 	addxcc  %l0, %l0, %l0
    8170:	1a bf ff f8 	bcc  8150 <__umoddi3+0x12c>
    8174:	82 a0 60 01 	deccc  %g1
    8178:	12 bf ff fc 	bne  8168 <__umoddi3+0x144>
    817c:	98 83 00 0c 	addcc  %o4, %o4, %o4
    8180:	a0 24 00 08 	sub  %l0, %o0, %l0
    8184:	98 3b 20 00 	xnor  %o4, 0, %o4
    8188:	10 bf ff c8 	b  80a8 <__umoddi3+0x84>
    818c:	aa 10 00 10 	mov  %l0, %l5
    8190:	80 a4 40 18 	cmp  %l1, %i0
    8194:	08 80 00 06 	bleu  81ac <__umoddi3+0x188>
    8198:	03 00 00 3f 	sethi  %hi(0xfc00), %g1
    819c:	aa 10 00 19 	mov  %i1, %l5
    81a0:	a8 10 00 18 	mov  %i0, %l4
    81a4:	10 80 00 83 	b  83b0 <__umoddi3+0x38c>
    81a8:	e8 3f bf f0 	std  %l4, [ %fp + -16 ]
    81ac:	82 10 63 ff 	or  %g1, 0x3ff, %g1
    81b0:	80 a4 40 01 	cmp  %l1, %g1
    81b4:	18 80 00 79 	bgu  8398 <__umoddi3+0x374>
    81b8:	03 00 3f ff 	sethi  %hi(0xfffc00), %g1
    81bc:	80 a4 61 00 	cmp  %l1, 0x100
    81c0:	82 60 3f ff 	subx  %g0, -1, %g1
    81c4:	97 28 60 03 	sll  %g1, 3, %o3
    81c8:	83 34 40 0b 	srl  %l1, %o3, %g1
    81cc:	1b 00 00 27 	sethi  %hi(0x9c00), %o5
    81d0:	9a 13 60 98 	or  %o5, 0x98, %o5	! 9c98 <__clz_tab>
    81d4:	d8 0b 40 01 	ldub  [ %o5 + %g1 ], %o4
    81d8:	82 10 20 20 	mov  0x20, %g1
    81dc:	98 03 00 0b 	add  %o4, %o3, %o4
    81e0:	94 a0 40 0c 	subcc  %g1, %o4, %o2
    81e4:	32 80 00 0f 	bne,a   8220 <__umoddi3+0x1fc>
    81e8:	99 2c 40 0a 	sll  %l1, %o2, %o4
    81ec:	80 a4 40 10 	cmp  %l1, %l0
    81f0:	9a 40 20 00 	addx  %g0, 0, %o5
    81f4:	80 a4 80 08 	cmp  %l2, %o0
    81f8:	82 60 3f ff 	subx  %g0, -1, %g1
    81fc:	80 93 40 01 	orcc  %o5, %g1, %g0
    8200:	22 80 00 06 	be,a   8218 <__umoddi3+0x1f4>
    8204:	aa 10 00 12 	mov  %l2, %l5
    8208:	82 a4 80 08 	subcc  %l2, %o0, %g1
    820c:	a0 64 00 11 	subx  %l0, %l1, %l0
    8210:	a4 10 00 01 	mov  %g1, %l2
    8214:	aa 10 00 12 	mov  %l2, %l5
    8218:	10 bf ff a5 	b  80ac <__umoddi3+0x88>
    821c:	a8 10 00 10 	mov  %l0, %l4
    8220:	92 20 40 0a 	sub  %g1, %o2, %o1
    8224:	97 2c 00 0a 	sll  %l0, %o2, %o3
    8228:	83 32 00 09 	srl  %o0, %o1, %g1
    822c:	9b 34 00 09 	srl  %l0, %o1, %o5
    8230:	a2 13 00 01 	or  %o4, %g1, %l1
    8234:	99 34 80 09 	srl  %l2, %o1, %o4
    8238:	a0 12 c0 0c 	or  %o3, %o4, %l0
    823c:	91 2a 00 0a 	sll  %o0, %o2, %o0
    8240:	98 10 00 10 	mov  %l0, %o4
    8244:	a5 2c 80 0a 	sll  %l2, %o2, %l2
    8248:	82 10 20 20 	mov  0x20, %g1
    824c:	80 a3 40 11 	cmp  %o5, %l1
    8250:	0a 80 00 0c 	bcs  8280 <__umoddi3+0x25c>
    8254:	98 c3 00 0c 	addxcc  %o4, %o4, %o4
    8258:	9a 23 40 11 	sub  %o5, %l1, %o5
    825c:	9a 43 40 0d 	addx  %o5, %o5, %o5
    8260:	82 a0 60 01 	deccc  %g1
    8264:	12 bf ff fb 	bne  8250 <__umoddi3+0x22c>
    8268:	80 a3 40 11 	cmp  %o5, %l1
    826c:	0a 80 00 0b 	bcs  8298 <__umoddi3+0x274>
    8270:	98 c3 00 0c 	addxcc  %o4, %o4, %o4
    8274:	10 80 00 09 	b  8298 <__umoddi3+0x274>
    8278:	9a 23 40 11 	sub  %o5, %l1, %o5
    827c:	9a 23 40 11 	sub  %o5, %l1, %o5
    8280:	9a c3 40 0d 	addxcc  %o5, %o5, %o5
    8284:	1a bf ff f8 	bcc  8264 <__umoddi3+0x240>
    8288:	82 a0 60 01 	deccc  %g1
    828c:	12 bf ff fc 	bne  827c <__umoddi3+0x258>
    8290:	98 83 00 0c 	addcc  %o4, %o4, %o4
    8294:	9a 23 40 11 	sub  %o5, %l1, %o5
    8298:	98 3b 20 00 	xnor  %o4, 0, %o4
    829c:	a0 10 00 0d 	mov  %o5, %l0
    82a0:	81 80 00 0c 	wr  %g0, %o4, %y
    82a4:	9b 3a 20 1f 	sra  %o0, 0x1f, %o5
    82a8:	9a 0b 00 0d 	and  %o4, %o5, %o5
    82ac:	82 88 20 00 	andcc  %g0, 0, %g1
    82b0:	83 20 40 08 	mulscc  %g1, %o0, %g1
    82b4:	83 20 40 08 	mulscc  %g1, %o0, %g1
    82b8:	83 20 40 08 	mulscc  %g1, %o0, %g1
    82bc:	83 20 40 08 	mulscc  %g1, %o0, %g1
    82c0:	83 20 40 08 	mulscc  %g1, %o0, %g1
    82c4:	83 20 40 08 	mulscc  %g1, %o0, %g1
    82c8:	83 20 40 08 	mulscc  %g1, %o0, %g1
    82cc:	83 20 40 08 	mulscc  %g1, %o0, %g1
    82d0:	83 20 40 08 	mulscc  %g1, %o0, %g1
    82d4:	83 20 40 08 	mulscc  %g1, %o0, %g1
    82d8:	83 20 40 08 	mulscc  %g1, %o0, %g1
    82dc:	83 20 40 08 	mulscc  %g1, %o0, %g1
    82e0:	83 20 40 08 	mulscc  %g1, %o0, %g1
    82e4:	83 20 40 08 	mulscc  %g1, %o0, %g1
    82e8:	83 20 40 08 	mulscc  %g1, %o0, %g1
    82ec:	83 20 40 08 	mulscc  %g1, %o0, %g1
    82f0:	83 20 40 08 	mulscc  %g1, %o0, %g1
    82f4:	83 20 40 08 	mulscc  %g1, %o0, %g1
    82f8:	83 20 40 08 	mulscc  %g1, %o0, %g1
    82fc:	83 20 40 08 	mulscc  %g1, %o0, %g1
    8300:	83 20 40 08 	mulscc  %g1, %o0, %g1
    8304:	83 20 40 08 	mulscc  %g1, %o0, %g1
    8308:	83 20 40 08 	mulscc  %g1, %o0, %g1
    830c:	83 20 40 08 	mulscc  %g1, %o0, %g1
    8310:	83 20 40 08 	mulscc  %g1, %o0, %g1
    8314:	83 20 40 08 	mulscc  %g1, %o0, %g1
    8318:	83 20 40 08 	mulscc  %g1, %o0, %g1
    831c:	83 20 40 08 	mulscc  %g1, %o0, %g1
    8320:	83 20 40 08 	mulscc  %g1, %o0, %g1
    8324:	83 20 40 08 	mulscc  %g1, %o0, %g1
    8328:	83 20 40 08 	mulscc  %g1, %o0, %g1
    832c:	83 20 40 08 	mulscc  %g1, %o0, %g1
    8330:	83 20 60 00 	mulscc  %g1, 0, %g1
    8334:	98 00 40 0d 	add  %g1, %o5, %o4
    8338:	97 40 00 00 	rd  %y, %o3
    833c:	80 a3 00 10 	cmp  %o4, %l0
    8340:	18 80 00 09 	bgu  8364 <__umoddi3+0x340>
    8344:	82 1b 00 10 	xor  %o4, %l0, %g1
    8348:	80 a0 00 01 	cmp  %g0, %g1
    834c:	9a 60 3f ff 	subx  %g0, -1, %o5
    8350:	80 a4 80 0b 	cmp  %l2, %o3
    8354:	82 40 20 00 	addx  %g0, 0, %g1
    8358:	80 8b 40 01 	btst  %o5, %g1
    835c:	02 80 00 06 	be  8374 <__umoddi3+0x350>
    8360:	80 a4 e0 00 	cmp  %l3, 0
    8364:	82 a2 c0 08 	subcc  %o3, %o0, %g1
    8368:	98 63 00 11 	subx  %o4, %l1, %o4
    836c:	96 10 00 01 	mov  %g1, %o3
    8370:	80 a4 e0 00 	cmp  %l3, 0
    8374:	02 80 00 10 	be  83b4 <__umoddi3+0x390>
    8378:	f0 1f bf f0 	ldd  [ %fp + -16 ], %i0
    837c:	82 a4 80 0b 	subcc  %l2, %o3, %g1
    8380:	a0 64 00 0c 	subx  %l0, %o4, %l0
    8384:	9b 2c 00 09 	sll  %l0, %o1, %o5
    8388:	83 30 40 0a 	srl  %g1, %o2, %g1
    838c:	a9 34 00 0a 	srl  %l0, %o2, %l4
    8390:	10 bf ff 4a 	b  80b8 <__umoddi3+0x94>
    8394:	aa 13 40 01 	or  %o5, %g1, %l5
    8398:	82 10 63 ff 	or  %g1, 0x3ff, %g1
    839c:	80 a0 40 11 	cmp  %g1, %l1
    83a0:	9a 60 20 00 	subx  %g0, 0, %o5
    83a4:	96 0b 60 08 	and  %o5, 8, %o3
    83a8:	10 bf ff 88 	b  81c8 <__umoddi3+0x1a4>
    83ac:	96 02 e0 10 	add  %o3, 0x10, %o3
    83b0:	f0 1f bf f0 	ldd  [ %fp + -16 ], %i0
    83b4:	81 c7 e0 08 	ret 
    83b8:	81 e8 00 00 	restore 

000083bc <_fpadd_parts>:
    83bc:	9d e3 bf 98 	save  %sp, -104, %sp
    83c0:	c2 06 00 00 	ld  [ %i0 ], %g1
    83c4:	9e 10 00 18 	mov  %i0, %o7
    83c8:	9a 10 00 19 	mov  %i1, %o5
    83cc:	80 a0 60 01 	cmp  %g1, 1
    83d0:	08 80 00 ae 	bleu  8688 <_fpadd_parts+0x2cc>
    83d4:	98 10 00 1a 	mov  %i2, %o4
    83d8:	fa 06 40 00 	ld  [ %i1 ], %i5
    83dc:	80 a7 60 01 	cmp  %i5, 1
    83e0:	08 80 00 aa 	bleu  8688 <_fpadd_parts+0x2cc>
    83e4:	b0 10 00 19 	mov  %i1, %i0
    83e8:	80 a0 60 04 	cmp  %g1, 4
    83ec:	12 80 00 0c 	bne  841c <_fpadd_parts+0x60>
    83f0:	80 a7 60 04 	cmp  %i5, 4
    83f4:	12 80 00 a5 	bne  8688 <_fpadd_parts+0x2cc>
    83f8:	b0 10 00 0f 	mov  %o7, %i0
    83fc:	c2 06 60 04 	ld  [ %i1 + 4 ], %g1
    8400:	fa 03 e0 04 	ld  [ %o7 + 4 ], %i5
    8404:	39 00 00 27 	sethi  %hi(0x9c00), %i4
    8408:	80 a7 40 01 	cmp  %i5, %g1
    840c:	12 80 00 9f 	bne  8688 <_fpadd_parts+0x2cc>
    8410:	b0 17 20 80 	or  %i4, 0x80, %i0
    8414:	10 80 00 9d 	b  8688 <_fpadd_parts+0x2cc>
    8418:	b0 10 00 0f 	mov  %o7, %i0
    841c:	02 80 00 9b 	be  8688 <_fpadd_parts+0x2cc>
    8420:	b0 10 00 19 	mov  %i1, %i0
    8424:	80 a7 60 02 	cmp  %i5, 2
    8428:	12 80 00 10 	bne  8468 <_fpadd_parts+0xac>
    842c:	80 a0 60 02 	cmp  %g1, 2
    8430:	12 80 00 96 	bne  8688 <_fpadd_parts+0x2cc>
    8434:	b0 10 00 0f 	mov  %o7, %i0
    8438:	f4 1b c0 00 	ldd  [ %o7 ], %i2
    843c:	b0 10 00 0c 	mov  %o4, %i0
    8440:	f4 3b 00 00 	std  %i2, [ %o4 ]
    8444:	f8 1b e0 08 	ldd  [ %o7 + 8 ], %i4
    8448:	f8 3b 20 08 	std  %i4, [ %o4 + 8 ]
    844c:	f4 1b e0 10 	ldd  [ %o7 + 0x10 ], %i2
    8450:	f4 3b 20 10 	std  %i2, [ %o4 + 0x10 ]
    8454:	c2 03 e0 04 	ld  [ %o7 + 4 ], %g1
    8458:	fa 06 60 04 	ld  [ %i1 + 4 ], %i5
    845c:	82 08 40 1d 	and  %g1, %i5, %g1
    8460:	10 80 00 8a 	b  8688 <_fpadd_parts+0x2cc>
    8464:	c2 23 20 04 	st  %g1, [ %o4 + 4 ]
    8468:	02 80 00 88 	be  8688 <_fpadd_parts+0x2cc>
    846c:	b0 10 00 19 	mov  %i1, %i0
    8470:	e0 03 e0 08 	ld  [ %o7 + 8 ], %l0
    8474:	f0 06 60 08 	ld  [ %i1 + 8 ], %i0
    8478:	d4 1b e0 10 	ldd  [ %o7 + 0x10 ], %o2
    847c:	82 a4 00 18 	subcc  %l0, %i0, %g1
    8480:	0c 80 00 80 	bneg  8680 <_fpadd_parts+0x2c4>
    8484:	d0 1e 60 10 	ldd  [ %i1 + 0x10 ], %o0
    8488:	80 a0 60 3f 	cmp  %g1, 0x3f
    848c:	14 80 00 75 	bg  8660 <_fpadd_parts+0x2a4>
    8490:	80 a4 00 18 	cmp  %l0, %i0
    8494:	04 80 00 0f 	ble  84d0 <_fpadd_parts+0x114>
    8498:	80 a6 00 10 	cmp  %i0, %l0
    849c:	b0 24 00 18 	sub  %l0, %i0, %i0
    84a0:	b3 2a 20 1f 	sll  %o0, 0x1f, %i1
    84a4:	83 32 60 01 	srl  %o1, 1, %g1
    84a8:	b4 0a 20 00 	and  %o0, 0, %i2
    84ac:	b6 0a 60 01 	and  %o1, 1, %i3
    84b0:	ba 16 40 01 	or  %i1, %g1, %i5
    84b4:	b9 32 20 01 	srl  %o0, 1, %i4
    84b8:	92 16 c0 1d 	or  %i3, %i5, %o1
    84bc:	b0 86 3f ff 	addcc  %i0, -1, %i0
    84c0:	12 bf ff f8 	bne  84a0 <_fpadd_parts+0xe4>
    84c4:	90 16 80 1c 	or  %i2, %i4, %o0
    84c8:	b0 10 00 10 	mov  %l0, %i0
    84cc:	80 a6 00 10 	cmp  %i0, %l0
    84d0:	24 80 00 0f 	ble,a   850c <_fpadd_parts+0x150>
    84d4:	f0 03 e0 04 	ld  [ %o7 + 4 ], %i0
    84d8:	a0 26 00 10 	sub  %i0, %l0, %l0
    84dc:	b3 2a a0 1f 	sll  %o2, 0x1f, %i1
    84e0:	83 32 e0 01 	srl  %o3, 1, %g1
    84e4:	b4 0a a0 00 	and  %o2, 0, %i2
    84e8:	b6 0a e0 01 	and  %o3, 1, %i3
    84ec:	ba 16 40 01 	or  %i1, %g1, %i5
    84f0:	b9 32 a0 01 	srl  %o2, 1, %i4
    84f4:	96 16 c0 1d 	or  %i3, %i5, %o3
    84f8:	a0 84 3f ff 	addcc  %l0, -1, %l0
    84fc:	12 bf ff f8 	bne  84dc <_fpadd_parts+0x120>
    8500:	94 16 80 1c 	or  %i2, %i4, %o2
    8504:	a0 10 00 18 	mov  %i0, %l0
    8508:	f0 03 e0 04 	ld  [ %o7 + 4 ], %i0
    850c:	c2 03 60 04 	ld  [ %o5 + 4 ], %g1
    8510:	80 a6 00 01 	cmp  %i0, %g1
    8514:	02 80 00 4d 	be  8648 <_fpadd_parts+0x28c>
    8518:	80 a6 20 00 	cmp  %i0, 0
    851c:	02 80 00 49 	be  8640 <_fpadd_parts+0x284>
    8520:	b6 a2 c0 09 	subcc  %o3, %o1, %i3
    8524:	b6 a2 40 0b 	subcc  %o1, %o3, %i3
    8528:	b4 62 00 0a 	subx  %o0, %o2, %i2
    852c:	80 a6 a0 00 	cmp  %i2, 0
    8530:	06 80 00 3e 	bl  8628 <_fpadd_parts+0x26c>
    8534:	ba a0 00 1b 	subcc  %g0, %i3, %i5
    8538:	e0 23 20 08 	st  %l0, [ %o4 + 8 ]
    853c:	f4 3b 20 10 	std  %i2, [ %o4 + 0x10 ]
    8540:	c0 23 20 04 	clr  [ %o4 + 4 ]
    8544:	f4 1b 20 10 	ldd  [ %o4 + 0x10 ], %i2
    8548:	03 03 ff ff 	sethi  %hi(0xffffc00), %g1
    854c:	ba 86 ff ff 	addcc  %i3, -1, %i5
    8550:	82 10 63 ff 	or  %g1, 0x3ff, %g1
    8554:	b8 46 bf ff 	addx  %i2, -1, %i4
    8558:	80 a7 00 01 	cmp  %i4, %g1
    855c:	38 80 00 1a 	bgu,a   85c4 <_fpadd_parts+0x208>
    8560:	f8 03 20 10 	ld  [ %o4 + 0x10 ], %i4
    8564:	02 80 00 2d 	be  8618 <_fpadd_parts+0x25c>
    8568:	80 a7 7f fe 	cmp  %i5, -2
    856c:	c2 03 20 08 	ld  [ %o4 + 8 ], %g1
    8570:	ba 06 80 1a 	add  %i2, %i2, %i5
    8574:	b9 36 e0 1f 	srl  %i3, 0x1f, %i4
    8578:	82 00 7f ff 	add  %g1, -1, %g1
    857c:	b0 17 00 1d 	or  %i4, %i5, %i0
    8580:	b2 06 c0 1b 	add  %i3, %i3, %i1
    8584:	ba 86 7f ff 	addcc  %i1, -1, %i5
    8588:	c2 23 20 08 	st  %g1, [ %o4 + 8 ]
    858c:	b8 46 3f ff 	addx  %i0, -1, %i4
    8590:	03 03 ff ff 	sethi  %hi(0xffffc00), %g1
    8594:	82 10 63 ff 	or  %g1, 0x3ff, %g1	! fffffff <_RAM_SIZE+0xdffffff>
    8598:	80 a7 00 01 	cmp  %i4, %g1
    859c:	18 80 00 09 	bgu  85c0 <_fpadd_parts+0x204>
    85a0:	f0 3b 20 10 	std  %i0, [ %o4 + 0x10 ]
    85a4:	80 a7 00 01 	cmp  %i4, %g1
    85a8:	b4 10 00 18 	mov  %i0, %i2
    85ac:	12 bf ff f0 	bne  856c <_fpadd_parts+0x1b0>
    85b0:	b6 10 00 19 	mov  %i1, %i3
    85b4:	80 a7 7f fe 	cmp  %i5, -2
    85b8:	28 bf ff ee 	bleu,a   8570 <_fpadd_parts+0x1b4>
    85bc:	c2 03 20 08 	ld  [ %o4 + 8 ], %g1
    85c0:	f8 03 20 10 	ld  [ %o4 + 0x10 ], %i4
    85c4:	ba 10 20 03 	mov  3, %i5
    85c8:	03 07 ff ff 	sethi  %hi(0x1ffffc00), %g1
    85cc:	82 10 63 ff 	or  %g1, 0x3ff, %g1	! 1fffffff <_RAM_SIZE+0x1dffffff>
    85d0:	80 a7 00 01 	cmp  %i4, %g1
    85d4:	08 80 00 0f 	bleu  8610 <_fpadd_parts+0x254>
    85d8:	fa 23 00 00 	st  %i5, [ %o4 ]
    85dc:	c2 03 20 08 	ld  [ %o4 + 8 ], %g1
    85e0:	f4 1b 20 10 	ldd  [ %o4 + 0x10 ], %i2
    85e4:	82 00 60 01 	inc  %g1
    85e8:	b0 0e a0 00 	and  %i2, 0, %i0
    85ec:	b2 0e e0 01 	and  %i3, 1, %i1
    85f0:	c2 23 20 08 	st  %g1, [ %o4 + 8 ]
    85f4:	9f 2e a0 1f 	sll  %i2, 0x1f, %o7
    85f8:	83 36 e0 01 	srl  %i3, 1, %g1
    85fc:	b9 36 a0 01 	srl  %i2, 1, %i4
    8600:	ba 13 c0 01 	or  %o7, %g1, %i5
    8604:	b0 16 00 1c 	or  %i0, %i4, %i0
    8608:	b2 16 40 1d 	or  %i1, %i5, %i1
    860c:	f0 3b 20 10 	std  %i0, [ %o4 + 0x10 ]
    8610:	10 80 00 1e 	b  8688 <_fpadd_parts+0x2cc>
    8614:	b0 10 00 0c 	mov  %o4, %i0
    8618:	28 bf ff d6 	bleu,a   8570 <_fpadd_parts+0x1b4>
    861c:	c2 03 20 08 	ld  [ %o4 + 8 ], %g1
    8620:	10 bf ff e9 	b  85c4 <_fpadd_parts+0x208>
    8624:	f8 03 20 10 	ld  [ %o4 + 0x10 ], %i4
    8628:	82 10 20 01 	mov  1, %g1
    862c:	b8 60 00 1a 	subx  %g0, %i2, %i4
    8630:	e0 23 20 08 	st  %l0, [ %o4 + 8 ]
    8634:	f8 3b 20 10 	std  %i4, [ %o4 + 0x10 ]
    8638:	10 bf ff c3 	b  8544 <_fpadd_parts+0x188>
    863c:	c2 23 20 04 	st  %g1, [ %o4 + 4 ]
    8640:	10 bf ff bb 	b  852c <_fpadd_parts+0x170>
    8644:	b4 62 80 08 	subx  %o2, %o0, %i2
    8648:	ba 82 c0 09 	addcc  %o3, %o1, %i5
    864c:	f0 23 20 04 	st  %i0, [ %o4 + 4 ]
    8650:	b8 42 80 08 	addx  %o2, %o0, %i4
    8654:	e0 23 20 08 	st  %l0, [ %o4 + 8 ]
    8658:	10 bf ff da 	b  85c0 <_fpadd_parts+0x204>
    865c:	f8 3b 20 10 	std  %i4, [ %o4 + 0x10 ]
    8660:	24 80 00 05 	ble,a   8674 <_fpadd_parts+0x2b8>
    8664:	a0 10 00 18 	mov  %i0, %l0
    8668:	90 10 20 00 	clr  %o0
    866c:	10 bf ff a7 	b  8508 <_fpadd_parts+0x14c>
    8670:	92 10 20 00 	clr  %o1
    8674:	94 10 20 00 	clr  %o2
    8678:	10 bf ff a4 	b  8508 <_fpadd_parts+0x14c>
    867c:	96 10 20 00 	clr  %o3
    8680:	10 bf ff 82 	b  8488 <_fpadd_parts+0xcc>
    8684:	82 20 00 01 	neg  %g1
    8688:	81 c7 e0 08 	ret 
    868c:	81 e8 00 00 	restore 

00008690 <__adddf3>:
    8690:	9d e3 bf 40 	save  %sp, -192, %sp
    8694:	a2 07 bf e0 	add  %fp, -32, %l1
    8698:	90 07 bf a8 	add  %fp, -88, %o0
    869c:	92 10 00 11 	mov  %l1, %o1
    86a0:	f0 3f bf a8 	std  %i0, [ %fp + -88 ]
    86a4:	a0 07 bf c8 	add  %fp, -56, %l0
    86a8:	40 00 03 33 	call  9374 <__unpack_d>
    86ac:	f4 3f bf a0 	std  %i2, [ %fp + -96 ]
    86b0:	90 07 bf a0 	add  %fp, -96, %o0
    86b4:	40 00 03 30 	call  9374 <__unpack_d>
    86b8:	92 10 00 10 	mov  %l0, %o1
    86bc:	94 07 bf b0 	add  %fp, -80, %o2
    86c0:	92 10 00 10 	mov  %l0, %o1
    86c4:	7f ff ff 3e 	call  83bc <_fpadd_parts>
    86c8:	90 10 00 11 	mov  %l1, %o0
    86cc:	40 00 02 a9 	call  9170 <__pack_d>
    86d0:	01 00 00 00 	nop 
    86d4:	b0 10 00 08 	mov  %o0, %i0
    86d8:	81 c7 e0 08 	ret 
    86dc:	93 e8 00 09 	restore  %g0, %o1, %o1

000086e0 <__subdf3>:
    86e0:	9d e3 bf 40 	save  %sp, -192, %sp
    86e4:	f0 3f bf a8 	std  %i0, [ %fp + -88 ]
    86e8:	a2 07 bf e0 	add  %fp, -32, %l1
    86ec:	90 07 bf a8 	add  %fp, -88, %o0
    86f0:	92 10 00 11 	mov  %l1, %o1
    86f4:	40 00 03 20 	call  9374 <__unpack_d>
    86f8:	f4 3f bf a0 	std  %i2, [ %fp + -96 ]
    86fc:	a0 07 bf c8 	add  %fp, -56, %l0
    8700:	90 07 bf a0 	add  %fp, -96, %o0
    8704:	40 00 03 1c 	call  9374 <__unpack_d>
    8708:	92 10 00 10 	mov  %l0, %o1
    870c:	c2 07 bf cc 	ld  [ %fp + -52 ], %g1
    8710:	92 10 00 10 	mov  %l0, %o1
    8714:	82 18 60 01 	xor  %g1, 1, %g1
    8718:	94 07 bf b0 	add  %fp, -80, %o2
    871c:	c2 27 bf cc 	st  %g1, [ %fp + -52 ]
    8720:	7f ff ff 27 	call  83bc <_fpadd_parts>
    8724:	90 10 00 11 	mov  %l1, %o0
    8728:	40 00 02 92 	call  9170 <__pack_d>
    872c:	01 00 00 00 	nop 
    8730:	b0 10 00 08 	mov  %o0, %i0
    8734:	81 c7 e0 08 	ret 
    8738:	93 e8 00 09 	restore  %g0, %o1, %o1

0000873c <__muldf3>:
    873c:	9d e3 bf 38 	save  %sp, -200, %sp
    8740:	90 07 bf a8 	add  %fp, -88, %o0
    8744:	ba 07 bf e0 	add  %fp, -32, %i5
    8748:	f0 3f bf a8 	std  %i0, [ %fp + -88 ]
    874c:	92 10 00 1d 	mov  %i5, %o1
    8750:	40 00 03 09 	call  9374 <__unpack_d>
    8754:	f4 3f bf a0 	std  %i2, [ %fp + -96 ]
    8758:	b8 07 bf c8 	add  %fp, -56, %i4
    875c:	90 07 bf a0 	add  %fp, -96, %o0
    8760:	40 00 03 05 	call  9374 <__unpack_d>
    8764:	92 10 00 1c 	mov  %i4, %o1
    8768:	c2 07 bf e0 	ld  [ %fp + -32 ], %g1
    876c:	80 a0 60 01 	cmp  %g1, 1
    8770:	08 80 00 0d 	bleu  87a4 <__muldf3+0x68>
    8774:	ae 07 bf b0 	add  %fp, -80, %l7
    8778:	da 07 bf c8 	ld  [ %fp + -56 ], %o5
    877c:	80 a3 60 01 	cmp  %o5, 1
    8780:	28 80 00 17 	bleu,a   87dc <__muldf3+0xa0>
    8784:	da 07 bf cc 	ld  [ %fp + -52 ], %o5
    8788:	80 a0 60 04 	cmp  %g1, 4
    878c:	12 80 00 0e 	bne  87c4 <__muldf3+0x88>
    8790:	80 a3 60 04 	cmp  %o5, 4
    8794:	03 00 00 27 	sethi  %hi(0x9c00), %g1
    8798:	80 a3 60 02 	cmp  %o5, 2
    879c:	02 80 00 c1 	be  8aa0 <__muldf3+0x364>
    87a0:	90 10 60 80 	or  %g1, 0x80, %o0
    87a4:	c2 07 bf e4 	ld  [ %fp + -28 ], %g1
    87a8:	da 07 bf cc 	ld  [ %fp + -52 ], %o5
    87ac:	90 10 00 1d 	mov  %i5, %o0
    87b0:	82 18 40 0d 	xor  %g1, %o5, %g1
    87b4:	80 a0 00 01 	cmp  %g0, %g1
    87b8:	9a 40 20 00 	addx  %g0, 0, %o5
    87bc:	10 80 00 b9 	b  8aa0 <__muldf3+0x364>
    87c0:	da 27 bf e4 	st  %o5, [ %fp + -28 ]
    87c4:	12 80 00 0d 	bne  87f8 <__muldf3+0xbc>
    87c8:	80 a0 60 02 	cmp  %g1, 2
    87cc:	03 00 00 27 	sethi  %hi(0x9c00), %g1
    87d0:	02 80 00 b4 	be  8aa0 <__muldf3+0x364>
    87d4:	90 10 60 80 	or  %g1, 0x80, %o0	! 9c80 <__thenan_df>
    87d8:	da 07 bf cc 	ld  [ %fp + -52 ], %o5
    87dc:	c2 07 bf e4 	ld  [ %fp + -28 ], %g1
    87e0:	90 10 00 1c 	mov  %i4, %o0
    87e4:	82 18 40 0d 	xor  %g1, %o5, %g1
    87e8:	80 a0 00 01 	cmp  %g0, %g1
    87ec:	9a 40 20 00 	addx  %g0, 0, %o5
    87f0:	10 80 00 ac 	b  8aa0 <__muldf3+0x364>
    87f4:	da 27 bf cc 	st  %o5, [ %fp + -52 ]
    87f8:	02 bf ff ec 	be  87a8 <__muldf3+0x6c>
    87fc:	c2 07 bf e4 	ld  [ %fp + -28 ], %g1
    8800:	80 a3 60 02 	cmp  %o5, 2
    8804:	02 bf ff f7 	be  87e0 <__muldf3+0xa4>
    8808:	da 07 bf cc 	ld  [ %fp + -52 ], %o5
    880c:	ec 07 bf dc 	ld  [ %fp + -36 ], %l6
    8810:	d2 07 bf d8 	ld  [ %fp + -40 ], %o1
    8814:	9a 10 00 16 	mov  %l6, %o5
    8818:	98 10 20 00 	clr  %o4
    881c:	a0 10 00 09 	mov  %o1, %l0
    8820:	d8 3f bf 98 	std  %o4, [ %fp + -104 ]
    8824:	e4 07 bf f4 	ld  [ %fp + -12 ], %l2
    8828:	da 07 bf f0 	ld  [ %fp + -16 ], %o5
    882c:	d0 1f bf 98 	ldd  [ %fp + -104 ], %o0
    8830:	a8 10 00 0d 	mov  %o5, %l4
    8834:	a6 10 00 12 	mov  %l2, %l3
    8838:	a4 10 20 00 	clr  %l2
    883c:	96 10 00 13 	mov  %l3, %o3
    8840:	40 00 02 05 	call  9054 <__muldi3>
    8844:	94 10 00 12 	mov  %l2, %o2
    8848:	a2 10 00 10 	mov  %l0, %l1
    884c:	94 10 00 12 	mov  %l2, %o2
    8850:	96 10 00 13 	mov  %l3, %o3
    8854:	a0 10 20 00 	clr  %l0
    8858:	b0 10 00 08 	mov  %o0, %i0
    885c:	b2 10 00 09 	mov  %o1, %i1
    8860:	90 10 00 10 	mov  %l0, %o0
    8864:	40 00 01 fc 	call  9054 <__muldi3>
    8868:	92 10 00 11 	mov  %l1, %o1
    886c:	b4 10 00 08 	mov  %o0, %i2
    8870:	b6 10 00 09 	mov  %o1, %i3
    8874:	d0 1f bf 98 	ldd  [ %fp + -104 ], %o0
    8878:	aa 10 00 14 	mov  %l4, %l5
    887c:	a8 10 20 00 	clr  %l4
    8880:	96 10 00 15 	mov  %l5, %o3
    8884:	40 00 01 f4 	call  9054 <__muldi3>
    8888:	94 10 00 14 	mov  %l4, %o2
    888c:	94 10 00 14 	mov  %l4, %o2
    8890:	a4 10 00 08 	mov  %o0, %l2
    8894:	a6 10 00 09 	mov  %o1, %l3
    8898:	90 10 00 10 	mov  %l0, %o0
    889c:	92 10 00 11 	mov  %l1, %o1
    88a0:	40 00 01 ed 	call  9054 <__muldi3>
    88a4:	96 10 00 15 	mov  %l5, %o3
    88a8:	a2 86 c0 13 	addcc  %i3, %l3, %l1
    88ac:	a8 10 00 08 	mov  %o0, %l4
    88b0:	a0 46 80 12 	addx  %i2, %l2, %l0
    88b4:	aa 10 00 09 	mov  %o1, %l5
    88b8:	80 a6 80 10 	cmp  %i2, %l0
    88bc:	a4 10 20 00 	clr  %l2
    88c0:	18 80 00 75 	bgu  8a94 <__muldf3+0x358>
    88c4:	a6 10 20 00 	clr  %l3
    88c8:	80 a6 80 10 	cmp  %i2, %l0
    88cc:	02 80 00 70 	be  8a8c <__muldf3+0x350>
    88d0:	80 a6 c0 11 	cmp  %i3, %l1
    88d4:	b6 10 20 00 	clr  %i3
    88d8:	92 86 40 1b 	addcc  %i1, %i3, %o1
    88dc:	90 46 00 11 	addx  %i0, %l1, %o0
    88e0:	80 a6 00 08 	cmp  %i0, %o0
    88e4:	38 80 00 68 	bgu,a   8a84 <__muldf3+0x348>
    88e8:	a6 84 e0 01 	inccc  %l3
    88ec:	80 a6 00 08 	cmp  %i0, %o0
    88f0:	02 80 00 62 	be  8a78 <__muldf3+0x33c>
    88f4:	80 a6 40 09 	cmp  %i1, %o1
    88f8:	c2 07 60 04 	ld  [ %i5 + 4 ], %g1
    88fc:	d4 07 20 04 	ld  [ %i4 + 4 ], %o2
    8900:	9a 84 00 15 	addcc  %l0, %l5, %o5
    8904:	d6 07 60 08 	ld  [ %i5 + 8 ], %o3
    8908:	82 18 40 0a 	xor  %g1, %o2, %g1
    890c:	98 10 20 00 	clr  %o4
    8910:	98 43 00 14 	addx  %o4, %l4, %o4
    8914:	b2 84 c0 0d 	addcc  %l3, %o5, %i1
    8918:	da 07 20 08 	ld  [ %i4 + 8 ], %o5
    891c:	b0 44 80 0c 	addx  %l2, %o4, %i0
    8920:	80 a0 00 01 	cmp  %g0, %g1
    8924:	82 40 20 00 	addx  %g0, 0, %g1
    8928:	96 02 c0 0d 	add  %o3, %o5, %o3
    892c:	c2 25 e0 04 	st  %g1, [ %l7 + 4 ]
    8930:	96 02 e0 04 	add  %o3, 4, %o3
    8934:	03 07 ff ff 	sethi  %hi(0x1ffffc00), %g1
    8938:	d6 25 e0 08 	st  %o3, [ %l7 + 8 ]
    893c:	82 10 63 ff 	or  %g1, 0x3ff, %g1
    8940:	a0 10 00 08 	mov  %o0, %l0
    8944:	80 a6 00 01 	cmp  %i0, %g1
    8948:	08 80 00 19 	bleu  89ac <__muldf3+0x270>
    894c:	a2 10 00 09 	mov  %o1, %l1
    8950:	9e 10 00 01 	mov  %g1, %o7
    8954:	25 20 00 00 	sethi  %hi(0x80000000), %l2
    8958:	a6 10 20 00 	clr  %l3
    895c:	c2 05 e0 08 	ld  [ %l7 + 8 ], %g1
    8960:	9b 36 60 01 	srl  %i1, 1, %o5
    8964:	99 2e 20 1f 	sll  %i0, 0x1f, %o4
    8968:	95 2c 20 1f 	sll  %l0, 0x1f, %o2
    896c:	b6 13 00 0d 	or  %o4, %o5, %i3
    8970:	97 34 60 01 	srl  %l1, 1, %o3
    8974:	82 00 60 01 	inc  %g1
    8978:	9a 0e 60 01 	and  %i1, 1, %o5
    897c:	92 12 80 0b 	or  %o2, %o3, %o1
    8980:	c2 25 e0 08 	st  %g1, [ %l7 + 8 ]
    8984:	b5 36 20 01 	srl  %i0, 1, %i2
    8988:	80 a3 60 00 	cmp  %o5, 0
    898c:	02 80 00 04 	be  899c <__muldf3+0x260>
    8990:	91 34 20 01 	srl  %l0, 1, %o0
    8994:	a0 12 00 12 	or  %o0, %l2, %l0
    8998:	a2 12 40 13 	or  %o1, %l3, %l1
    899c:	b0 10 00 1a 	mov  %i2, %i0
    89a0:	80 a6 80 0f 	cmp  %i2, %o7
    89a4:	18 bf ff ee 	bgu  895c <__muldf3+0x220>
    89a8:	b2 10 00 1b 	mov  %i3, %i1
    89ac:	03 03 ff ff 	sethi  %hi(0xffffc00), %g1
    89b0:	82 10 63 ff 	or  %g1, 0x3ff, %g1	! fffffff <_RAM_SIZE+0xdffffff>
    89b4:	80 a6 00 01 	cmp  %i0, %g1
    89b8:	18 80 00 18 	bgu  8a18 <__muldf3+0x2dc>
    89bc:	98 0e 20 00 	and  %i0, 0, %o4
    89c0:	c2 05 e0 08 	ld  [ %l7 + 8 ], %g1
    89c4:	93 36 60 1f 	srl  %i1, 0x1f, %o1
    89c8:	96 06 00 18 	add  %i0, %i0, %o3
    89cc:	91 34 60 1f 	srl  %l1, 0x1f, %o0
    89d0:	98 12 40 0b 	or  %o1, %o3, %o4
    89d4:	94 04 00 10 	add  %l0, %l0, %o2
    89d8:	82 00 7f ff 	add  %g1, -1, %g1
    89dc:	9a 06 40 19 	add  %i1, %i1, %o5
    89e0:	80 a4 20 00 	cmp  %l0, 0
    89e4:	b4 12 00 0a 	or  %o0, %o2, %i2
    89e8:	c2 25 e0 08 	st  %g1, [ %l7 + 8 ]
    89ec:	b0 10 00 0c 	mov  %o4, %i0
    89f0:	06 80 00 1f 	bl  8a6c <__muldf3+0x330>
    89f4:	b2 10 00 0d 	mov  %o5, %i1
    89f8:	b6 04 40 11 	add  %l1, %l1, %i3
    89fc:	03 03 ff ff 	sethi  %hi(0xffffc00), %g1
    8a00:	a0 10 00 1a 	mov  %i2, %l0
    8a04:	82 10 63 ff 	or  %g1, 0x3ff, %g1
    8a08:	80 a6 00 01 	cmp  %i0, %g1
    8a0c:	08 bf ff ed 	bleu  89c0 <__muldf3+0x284>
    8a10:	a2 10 00 1b 	mov  %i3, %l1
    8a14:	98 0e 20 00 	and  %i0, 0, %o4
    8a18:	80 a3 20 00 	cmp  %o4, 0
    8a1c:	12 80 00 05 	bne  8a30 <__muldf3+0x2f4>
    8a20:	9a 0e 60 ff 	and  %i1, 0xff, %o5
    8a24:	80 a3 60 80 	cmp  %o5, 0x80
    8a28:	02 80 00 07 	be  8a44 <__muldf3+0x308>
    8a2c:	98 0e 20 00 	and  %i0, 0, %o4
    8a30:	82 10 20 03 	mov  3, %g1
    8a34:	f0 3d e0 10 	std  %i0, [ %l7 + 0x10 ]
    8a38:	90 10 00 17 	mov  %l7, %o0
    8a3c:	10 80 00 19 	b  8aa0 <__muldf3+0x364>
    8a40:	c2 25 c0 00 	st  %g1, [ %l7 ]
    8a44:	9a 0e 61 00 	and  %i1, 0x100, %o5
    8a48:	80 93 00 0d 	orcc  %o4, %o5, %g0
    8a4c:	32 80 00 06 	bne,a   8a64 <__muldf3+0x328>
    8a50:	b2 86 60 80 	addcc  %i1, 0x80, %i1
    8a54:	80 94 00 11 	orcc  %l0, %l1, %g0
    8a58:	02 bf ff f7 	be  8a34 <__muldf3+0x2f8>
    8a5c:	82 10 20 03 	mov  3, %g1
    8a60:	b2 86 60 80 	addcc  %i1, 0x80, %i1
    8a64:	10 bf ff f3 	b  8a30 <__muldf3+0x2f4>
    8a68:	b0 46 20 00 	addx  %i0, 0, %i0
    8a6c:	b0 13 20 00 	mov  %o4, %i0
    8a70:	10 bf ff e2 	b  89f8 <__muldf3+0x2bc>
    8a74:	b2 13 60 01 	or  %o5, 1, %i1
    8a78:	28 bf ff a1 	bleu,a   88fc <__muldf3+0x1c0>
    8a7c:	c2 07 60 04 	ld  [ %i5 + 4 ], %g1
    8a80:	a6 84 e0 01 	inccc  %l3
    8a84:	10 bf ff 9d 	b  88f8 <__muldf3+0x1bc>
    8a88:	a4 44 a0 00 	addx  %l2, 0, %l2
    8a8c:	08 bf ff 93 	bleu  88d8 <__muldf3+0x19c>
    8a90:	b6 10 20 00 	clr  %i3
    8a94:	a4 10 20 01 	mov  1, %l2
    8a98:	10 bf ff 8f 	b  88d4 <__muldf3+0x198>
    8a9c:	a6 10 20 00 	clr  %l3
    8aa0:	40 00 01 b4 	call  9170 <__pack_d>
    8aa4:	01 00 00 00 	nop 
    8aa8:	b0 10 00 08 	mov  %o0, %i0
    8aac:	81 c7 e0 08 	ret 
    8ab0:	93 e8 00 09 	restore  %g0, %o1, %o1

00008ab4 <__divdf3>:
    8ab4:	9d e3 bf 58 	save  %sp, -168, %sp
    8ab8:	a4 07 bf e0 	add  %fp, -32, %l2
    8abc:	90 07 bf c0 	add  %fp, -64, %o0
    8ac0:	92 10 00 12 	mov  %l2, %o1
    8ac4:	f4 3f bf b8 	std  %i2, [ %fp + -72 ]
    8ac8:	40 00 02 2b 	call  9374 <__unpack_d>
    8acc:	f0 3f bf c0 	std  %i0, [ %fp + -64 ]
    8ad0:	b6 07 bf c8 	add  %fp, -56, %i3
    8ad4:	90 07 bf b8 	add  %fp, -72, %o0
    8ad8:	40 00 02 27 	call  9374 <__unpack_d>
    8adc:	92 10 00 1b 	mov  %i3, %o1
    8ae0:	d8 07 bf e0 	ld  [ %fp + -32 ], %o4
    8ae4:	80 a3 20 01 	cmp  %o4, 1
    8ae8:	08 80 00 6a 	bleu  8c90 <__divdf3+0x1dc>
    8aec:	90 10 00 12 	mov  %l2, %o0
    8af0:	d6 07 bf c8 	ld  [ %fp + -56 ], %o3
    8af4:	80 a2 e0 01 	cmp  %o3, 1
    8af8:	08 80 00 66 	bleu  8c90 <__divdf3+0x1dc>
    8afc:	90 10 00 1b 	mov  %i3, %o0
    8b00:	c2 07 bf e4 	ld  [ %fp + -28 ], %g1
    8b04:	da 07 bf cc 	ld  [ %fp + -52 ], %o5
    8b08:	80 a3 20 04 	cmp  %o4, 4
    8b0c:	82 18 40 0d 	xor  %g1, %o5, %g1
    8b10:	02 80 00 05 	be  8b24 <__divdf3+0x70>
    8b14:	c2 27 bf e4 	st  %g1, [ %fp + -28 ]
    8b18:	80 a3 20 02 	cmp  %o4, 2
    8b1c:	12 80 00 08 	bne  8b3c <__divdf3+0x88>
    8b20:	80 a2 e0 04 	cmp  %o3, 4
    8b24:	03 00 00 27 	sethi  %hi(0x9c00), %g1
    8b28:	80 a3 00 0b 	cmp  %o4, %o3
    8b2c:	02 80 00 59 	be  8c90 <__divdf3+0x1dc>
    8b30:	90 10 60 80 	or  %g1, 0x80, %o0
    8b34:	10 80 00 57 	b  8c90 <__divdf3+0x1dc>
    8b38:	90 10 00 12 	mov  %l2, %o0
    8b3c:	12 80 00 08 	bne  8b5c <__divdf3+0xa8>
    8b40:	80 a2 e0 02 	cmp  %o3, 2
    8b44:	98 10 20 00 	clr  %o4
    8b48:	9a 10 20 00 	clr  %o5
    8b4c:	c0 27 bf e8 	clr  [ %fp + -24 ]
    8b50:	90 10 00 12 	mov  %l2, %o0
    8b54:	10 80 00 4f 	b  8c90 <__divdf3+0x1dc>
    8b58:	d8 3f bf f0 	std  %o4, [ %fp + -16 ]
    8b5c:	12 80 00 06 	bne  8b74 <__divdf3+0xc0>
    8b60:	c2 07 bf e8 	ld  [ %fp + -24 ], %g1
    8b64:	82 10 20 04 	mov  4, %g1
    8b68:	90 10 00 12 	mov  %l2, %o0
    8b6c:	10 80 00 49 	b  8c90 <__divdf3+0x1dc>
    8b70:	c2 27 bf e0 	st  %g1, [ %fp + -32 ]
    8b74:	d0 1f bf f0 	ldd  [ %fp + -16 ], %o0
    8b78:	e0 1f bf d8 	ldd  [ %fp + -40 ], %l0
    8b7c:	da 07 bf d0 	ld  [ %fp + -48 ], %o5
    8b80:	80 a4 00 08 	cmp  %l0, %o0
    8b84:	82 20 40 0d 	sub  %g1, %o5, %g1
    8b88:	18 80 00 38 	bgu  8c68 <__divdf3+0x1b4>
    8b8c:	c2 27 bf e8 	st  %g1, [ %fp + -24 ]
    8b90:	80 a4 00 08 	cmp  %l0, %o0
    8b94:	02 80 00 33 	be  8c60 <__divdf3+0x1ac>
    8b98:	80 a4 40 09 	cmp  %l1, %o1
    8b9c:	31 04 00 00 	sethi  %hi(0x10000000), %i0
    8ba0:	b2 10 20 00 	clr  %i1
    8ba4:	a8 10 20 00 	clr  %l4
    8ba8:	aa 10 20 00 	clr  %l5
    8bac:	9b 2e 20 1f 	sll  %i0, 0x1f, %o5
    8bb0:	83 36 60 01 	srl  %i1, 1, %g1
    8bb4:	80 a4 00 08 	cmp  %l0, %o0
    8bb8:	18 80 00 09 	bgu  8bdc <__divdf3+0x128>
    8bbc:	96 13 40 01 	or  %o5, %g1, %o3
    8bc0:	80 a4 00 08 	cmp  %l0, %o0
    8bc4:	02 80 00 23 	be  8c50 <__divdf3+0x19c>
    8bc8:	80 a4 40 09 	cmp  %l1, %o1
    8bcc:	92 a2 40 11 	subcc  %o1, %l1, %o1
    8bd0:	a8 15 00 18 	or  %l4, %i0, %l4
    8bd4:	90 62 00 10 	subx  %o0, %l0, %o0
    8bd8:	aa 15 40 19 	or  %l5, %i1, %l5
    8bdc:	9b 32 60 1f 	srl  %o1, 0x1f, %o5
    8be0:	82 02 00 08 	add  %o0, %o0, %g1
    8be4:	95 36 20 01 	srl  %i0, 1, %o2
    8be8:	b4 13 40 01 	or  %o5, %g1, %i2
    8bec:	b6 02 40 09 	add  %o1, %o1, %i3
    8bf0:	b0 10 00 0a 	mov  %o2, %i0
    8bf4:	b2 10 00 0b 	mov  %o3, %i1
    8bf8:	90 10 00 1a 	mov  %i2, %o0
    8bfc:	80 92 80 0b 	orcc  %o2, %o3, %g0
    8c00:	12 bf ff eb 	bne  8bac <__divdf3+0xf8>
    8c04:	92 10 00 1b 	mov  %i3, %o1
    8c08:	98 0d 20 00 	and  %l4, 0, %o4
    8c0c:	80 a3 20 00 	cmp  %o4, 0
    8c10:	12 80 00 05 	bne  8c24 <__divdf3+0x170>
    8c14:	9a 0d 60 ff 	and  %l5, 0xff, %o5
    8c18:	80 a3 60 80 	cmp  %o5, 0x80
    8c1c:	02 80 00 04 	be  8c2c <__divdf3+0x178>
    8c20:	9a 0d 61 00 	and  %l5, 0x100, %o5
    8c24:	10 bf ff c4 	b  8b34 <__divdf3+0x80>
    8c28:	e8 3c a0 10 	std  %l4, [ %l2 + 0x10 ]
    8c2c:	80 93 00 0d 	orcc  %o4, %o5, %g0
    8c30:	32 80 00 06 	bne,a   8c48 <__divdf3+0x194>
    8c34:	aa 85 60 80 	addcc  %l5, 0x80, %l5
    8c38:	80 96 80 1b 	orcc  %i2, %i3, %g0
    8c3c:	22 bf ff be 	be,a   8b34 <__divdf3+0x80>
    8c40:	e8 3c a0 10 	std  %l4, [ %l2 + 0x10 ]
    8c44:	aa 85 60 80 	addcc  %l5, 0x80, %l5
    8c48:	10 bf ff f7 	b  8c24 <__divdf3+0x170>
    8c4c:	a8 45 20 00 	addx  %l4, 0, %l4
    8c50:	18 bf ff e4 	bgu  8be0 <__divdf3+0x12c>
    8c54:	9b 32 60 1f 	srl  %o1, 0x1f, %o5
    8c58:	10 bf ff de 	b  8bd0 <__divdf3+0x11c>
    8c5c:	92 a2 40 11 	subcc  %o1, %l1, %o1
    8c60:	08 bf ff d0 	bleu  8ba0 <__divdf3+0xec>
    8c64:	31 04 00 00 	sethi  %hi(0x10000000), %i0
    8c68:	c2 04 a0 08 	ld  [ %l2 + 8 ], %g1
    8c6c:	95 32 60 1f 	srl  %o1, 0x1f, %o2
    8c70:	96 02 00 08 	add  %o0, %o0, %o3
    8c74:	82 00 7f ff 	add  %g1, -1, %g1
    8c78:	98 12 80 0b 	or  %o2, %o3, %o4
    8c7c:	9a 02 40 09 	add  %o1, %o1, %o5
    8c80:	c2 24 a0 08 	st  %g1, [ %l2 + 8 ]
    8c84:	90 10 00 0c 	mov  %o4, %o0
    8c88:	10 bf ff c5 	b  8b9c <__divdf3+0xe8>
    8c8c:	92 10 00 0d 	mov  %o5, %o1
    8c90:	40 00 01 38 	call  9170 <__pack_d>
    8c94:	01 00 00 00 	nop 
    8c98:	b0 10 00 08 	mov  %o0, %i0
    8c9c:	81 c7 e0 08 	ret 
    8ca0:	93 e8 00 09 	restore  %g0, %o1, %o1

00008ca4 <__eqdf2>:
    8ca4:	9d e3 bf 58 	save  %sp, -168, %sp
    8ca8:	90 07 bf c0 	add  %fp, -64, %o0
    8cac:	f0 3f bf c0 	std  %i0, [ %fp + -64 ]
    8cb0:	f4 3f bf b8 	std  %i2, [ %fp + -72 ]
    8cb4:	a0 07 bf e0 	add  %fp, -32, %l0
    8cb8:	40 00 01 af 	call  9374 <__unpack_d>
    8cbc:	92 10 00 10 	mov  %l0, %o1
    8cc0:	b6 07 bf c8 	add  %fp, -56, %i3
    8cc4:	90 07 bf b8 	add  %fp, -72, %o0
    8cc8:	40 00 01 ab 	call  9374 <__unpack_d>
    8ccc:	92 10 00 1b 	mov  %i3, %o1
    8cd0:	c2 07 bf e0 	ld  [ %fp + -32 ], %g1
    8cd4:	80 a0 60 01 	cmp  %g1, 1
    8cd8:	08 80 00 0a 	bleu  8d00 <__eqdf2+0x5c>
    8cdc:	b0 10 20 01 	mov  1, %i0
    8ce0:	c2 07 bf c8 	ld  [ %fp + -56 ], %g1
    8ce4:	90 10 00 10 	mov  %l0, %o0
    8ce8:	80 a0 60 01 	cmp  %g1, 1
    8cec:	08 80 00 05 	bleu  8d00 <__eqdf2+0x5c>
    8cf0:	92 10 00 1b 	mov  %i3, %o1
    8cf4:	40 00 01 f0 	call  94b4 <__fpcmp_parts_d>
    8cf8:	01 00 00 00 	nop 
    8cfc:	b0 10 00 08 	mov  %o0, %i0
    8d00:	81 c7 e0 08 	ret 
    8d04:	81 e8 00 00 	restore 

00008d08 <__nedf2>:
    8d08:	9d e3 bf 58 	save  %sp, -168, %sp
    8d0c:	90 07 bf c0 	add  %fp, -64, %o0
    8d10:	f0 3f bf c0 	std  %i0, [ %fp + -64 ]
    8d14:	f4 3f bf b8 	std  %i2, [ %fp + -72 ]
    8d18:	a0 07 bf e0 	add  %fp, -32, %l0
    8d1c:	40 00 01 96 	call  9374 <__unpack_d>
    8d20:	92 10 00 10 	mov  %l0, %o1
    8d24:	b6 07 bf c8 	add  %fp, -56, %i3
    8d28:	90 07 bf b8 	add  %fp, -72, %o0
    8d2c:	40 00 01 92 	call  9374 <__unpack_d>
    8d30:	92 10 00 1b 	mov  %i3, %o1
    8d34:	c2 07 bf e0 	ld  [ %fp + -32 ], %g1
    8d38:	80 a0 60 01 	cmp  %g1, 1
    8d3c:	08 80 00 0a 	bleu  8d64 <__nedf2+0x5c>
    8d40:	b0 10 20 01 	mov  1, %i0
    8d44:	c2 07 bf c8 	ld  [ %fp + -56 ], %g1
    8d48:	90 10 00 10 	mov  %l0, %o0
    8d4c:	80 a0 60 01 	cmp  %g1, 1
    8d50:	08 80 00 05 	bleu  8d64 <__nedf2+0x5c>
    8d54:	92 10 00 1b 	mov  %i3, %o1
    8d58:	40 00 01 d7 	call  94b4 <__fpcmp_parts_d>
    8d5c:	01 00 00 00 	nop 
    8d60:	b0 10 00 08 	mov  %o0, %i0
    8d64:	81 c7 e0 08 	ret 
    8d68:	81 e8 00 00 	restore 

00008d6c <__gtdf2>:
    8d6c:	9d e3 bf 58 	save  %sp, -168, %sp
    8d70:	90 07 bf c0 	add  %fp, -64, %o0
    8d74:	f0 3f bf c0 	std  %i0, [ %fp + -64 ]
    8d78:	f4 3f bf b8 	std  %i2, [ %fp + -72 ]
    8d7c:	a0 07 bf e0 	add  %fp, -32, %l0
    8d80:	40 00 01 7d 	call  9374 <__unpack_d>
    8d84:	92 10 00 10 	mov  %l0, %o1
    8d88:	b6 07 bf c8 	add  %fp, -56, %i3
    8d8c:	90 07 bf b8 	add  %fp, -72, %o0
    8d90:	40 00 01 79 	call  9374 <__unpack_d>
    8d94:	92 10 00 1b 	mov  %i3, %o1
    8d98:	c2 07 bf e0 	ld  [ %fp + -32 ], %g1
    8d9c:	80 a0 60 01 	cmp  %g1, 1
    8da0:	08 80 00 0a 	bleu  8dc8 <__gtdf2+0x5c>
    8da4:	b0 10 3f ff 	mov  -1, %i0
    8da8:	c2 07 bf c8 	ld  [ %fp + -56 ], %g1
    8dac:	90 10 00 10 	mov  %l0, %o0
    8db0:	80 a0 60 01 	cmp  %g1, 1
    8db4:	08 80 00 05 	bleu  8dc8 <__gtdf2+0x5c>
    8db8:	92 10 00 1b 	mov  %i3, %o1
    8dbc:	40 00 01 be 	call  94b4 <__fpcmp_parts_d>
    8dc0:	01 00 00 00 	nop 
    8dc4:	b0 10 00 08 	mov  %o0, %i0
    8dc8:	81 c7 e0 08 	ret 
    8dcc:	81 e8 00 00 	restore 

00008dd0 <__gedf2>:
    8dd0:	9d e3 bf 58 	save  %sp, -168, %sp
    8dd4:	90 07 bf c0 	add  %fp, -64, %o0
    8dd8:	f0 3f bf c0 	std  %i0, [ %fp + -64 ]
    8ddc:	f4 3f bf b8 	std  %i2, [ %fp + -72 ]
    8de0:	a0 07 bf e0 	add  %fp, -32, %l0
    8de4:	40 00 01 64 	call  9374 <__unpack_d>
    8de8:	92 10 00 10 	mov  %l0, %o1
    8dec:	b6 07 bf c8 	add  %fp, -56, %i3
    8df0:	90 07 bf b8 	add  %fp, -72, %o0
    8df4:	40 00 01 60 	call  9374 <__unpack_d>
    8df8:	92 10 00 1b 	mov  %i3, %o1
    8dfc:	c2 07 bf e0 	ld  [ %fp + -32 ], %g1
    8e00:	80 a0 60 01 	cmp  %g1, 1
    8e04:	08 80 00 0a 	bleu  8e2c <__gedf2+0x5c>
    8e08:	b0 10 3f ff 	mov  -1, %i0
    8e0c:	c2 07 bf c8 	ld  [ %fp + -56 ], %g1
    8e10:	90 10 00 10 	mov  %l0, %o0
    8e14:	80 a0 60 01 	cmp  %g1, 1
    8e18:	08 80 00 05 	bleu  8e2c <__gedf2+0x5c>
    8e1c:	92 10 00 1b 	mov  %i3, %o1
    8e20:	40 00 01 a5 	call  94b4 <__fpcmp_parts_d>
    8e24:	01 00 00 00 	nop 
    8e28:	b0 10 00 08 	mov  %o0, %i0
    8e2c:	81 c7 e0 08 	ret 
    8e30:	81 e8 00 00 	restore 

00008e34 <__ltdf2>:
    8e34:	9d e3 bf 58 	save  %sp, -168, %sp
    8e38:	90 07 bf c0 	add  %fp, -64, %o0
    8e3c:	f0 3f bf c0 	std  %i0, [ %fp + -64 ]
    8e40:	f4 3f bf b8 	std  %i2, [ %fp + -72 ]
    8e44:	a0 07 bf e0 	add  %fp, -32, %l0
    8e48:	40 00 01 4b 	call  9374 <__unpack_d>
    8e4c:	92 10 00 10 	mov  %l0, %o1
    8e50:	b6 07 bf c8 	add  %fp, -56, %i3
    8e54:	90 07 bf b8 	add  %fp, -72, %o0
    8e58:	40 00 01 47 	call  9374 <__unpack_d>
    8e5c:	92 10 00 1b 	mov  %i3, %o1
    8e60:	c2 07 bf e0 	ld  [ %fp + -32 ], %g1
    8e64:	80 a0 60 01 	cmp  %g1, 1
    8e68:	08 80 00 0a 	bleu  8e90 <__ltdf2+0x5c>
    8e6c:	b0 10 20 01 	mov  1, %i0
    8e70:	c2 07 bf c8 	ld  [ %fp + -56 ], %g1
    8e74:	90 10 00 10 	mov  %l0, %o0
    8e78:	80 a0 60 01 	cmp  %g1, 1
    8e7c:	08 80 00 05 	bleu  8e90 <__ltdf2+0x5c>
    8e80:	92 10 00 1b 	mov  %i3, %o1
    8e84:	40 00 01 8c 	call  94b4 <__fpcmp_parts_d>
    8e88:	01 00 00 00 	nop 
    8e8c:	b0 10 00 08 	mov  %o0, %i0
    8e90:	81 c7 e0 08 	ret 
    8e94:	81 e8 00 00 	restore 

00008e98 <__floatsidf>:
    8e98:	9d e3 bf 80 	save  %sp, -128, %sp
    8e9c:	82 10 20 03 	mov  3, %g1
    8ea0:	80 a6 20 00 	cmp  %i0, 0
    8ea4:	c2 27 bf e0 	st  %g1, [ %fp + -32 ]
    8ea8:	83 36 20 1f 	srl  %i0, 0x1f, %g1
    8eac:	12 80 00 08 	bne  8ecc <__floatsidf+0x34>
    8eb0:	c2 27 bf e4 	st  %g1, [ %fp + -28 ]
    8eb4:	82 10 20 02 	mov  2, %g1
    8eb8:	c2 27 bf e0 	st  %g1, [ %fp + -32 ]
    8ebc:	40 00 00 ad 	call  9170 <__pack_d>
    8ec0:	90 07 bf e0 	add  %fp, -32, %o0
    8ec4:	10 80 00 28 	b  8f64 <__floatsidf+0xcc>
    8ec8:	b0 10 00 08 	mov  %o0, %i0
    8ecc:	80 a0 60 00 	cmp  %g1, 0
    8ed0:	82 10 20 3c 	mov  0x3c, %g1
    8ed4:	02 80 00 20 	be  8f54 <__floatsidf+0xbc>
    8ed8:	c2 27 bf e8 	st  %g1, [ %fp + -24 ]
    8edc:	03 20 00 00 	sethi  %hi(0x80000000), %g1
    8ee0:	80 a6 00 01 	cmp  %i0, %g1
    8ee4:	03 00 00 27 	sethi  %hi(0x9c00), %g1
    8ee8:	02 80 00 1e 	be  8f60 <__floatsidf+0xc8>
    8eec:	d0 18 60 78 	ldd  [ %g1 + 0x78 ], %o0	! 9c78 <__mprec_tinytens+0x38>
    8ef0:	98 20 00 18 	neg  %i0, %o4
    8ef4:	9a 10 00 0c 	mov  %o4, %o5
    8ef8:	99 3b 20 1f 	sra  %o4, 0x1f, %o4
    8efc:	d8 3f bf f0 	std  %o4, [ %fp + -16 ]
    8f00:	da 07 bf f0 	ld  [ %fp + -16 ], %o5
    8f04:	03 03 ff ff 	sethi  %hi(0xffffc00), %g1
    8f08:	82 10 63 ff 	or  %g1, 0x3ff, %g1	! fffffff <_RAM_SIZE+0xdffffff>
    8f0c:	80 a3 40 01 	cmp  %o5, %g1
    8f10:	18 bf ff eb 	bgu  8ebc <__floatsidf+0x24>
    8f14:	d8 1f bf f0 	ldd  [ %fp + -16 ], %o4
    8f18:	82 03 00 0c 	add  %o4, %o4, %g1
    8f1c:	97 33 60 1f 	srl  %o5, 0x1f, %o3
    8f20:	9a 03 40 0d 	add  %o5, %o5, %o5
    8f24:	98 12 c0 01 	or  %o3, %g1, %o4
    8f28:	c2 07 bf e8 	ld  [ %fp + -24 ], %g1
    8f2c:	d8 3f bf f0 	std  %o4, [ %fp + -16 ]
    8f30:	da 07 bf f0 	ld  [ %fp + -16 ], %o5
    8f34:	82 00 7f ff 	add  %g1, -1, %g1
    8f38:	c2 27 bf e8 	st  %g1, [ %fp + -24 ]
    8f3c:	03 03 ff ff 	sethi  %hi(0xffffc00), %g1
    8f40:	82 10 63 ff 	or  %g1, 0x3ff, %g1	! fffffff <_RAM_SIZE+0xdffffff>
    8f44:	80 a3 40 01 	cmp  %o5, %g1
    8f48:	08 bf ff f4 	bleu  8f18 <__floatsidf+0x80>
    8f4c:	d8 1f bf f0 	ldd  [ %fp + -16 ], %o4
    8f50:	30 bf ff db 	b,a   8ebc <__floatsidf+0x24>
    8f54:	9a 10 00 18 	mov  %i0, %o5
    8f58:	10 bf ff e9 	b  8efc <__floatsidf+0x64>
    8f5c:	99 3e 20 1f 	sra  %i0, 0x1f, %o4
    8f60:	b0 10 00 08 	mov  %o0, %i0
    8f64:	81 c7 e0 08 	ret 
    8f68:	93 e8 00 09 	restore  %g0, %o1, %o1

00008f6c <__fixdfsi>:
    8f6c:	9d e3 bf 78 	save  %sp, -136, %sp
    8f70:	f0 3f bf d8 	std  %i0, [ %fp + -40 ]
    8f74:	92 07 bf e0 	add  %fp, -32, %o1
    8f78:	40 00 00 ff 	call  9374 <__unpack_d>
    8f7c:	90 07 bf d8 	add  %fp, -40, %o0
    8f80:	da 07 bf e0 	ld  [ %fp + -32 ], %o5
    8f84:	80 a3 60 02 	cmp  %o5, 2
    8f88:	02 80 00 22 	be  9010 <__fixdfsi+0xa4>
    8f8c:	b0 10 20 00 	clr  %i0
    8f90:	80 a3 60 01 	cmp  %o5, 1
    8f94:	08 80 00 1f 	bleu  9010 <__fixdfsi+0xa4>
    8f98:	80 a3 60 04 	cmp  %o5, 4
    8f9c:	32 80 00 09 	bne,a   8fc0 <__fixdfsi+0x54>
    8fa0:	da 07 bf e8 	ld  [ %fp + -24 ], %o5
    8fa4:	c2 07 bf e4 	ld  [ %fp + -28 ], %g1
    8fa8:	80 a0 60 00 	cmp  %g1, 0
    8fac:	12 80 00 19 	bne  9010 <__fixdfsi+0xa4>
    8fb0:	31 20 00 00 	sethi  %hi(0x80000000), %i0
    8fb4:	03 1f ff ff 	sethi  %hi(0x7ffffc00), %g1
    8fb8:	10 80 00 16 	b  9010 <__fixdfsi+0xa4>
    8fbc:	b0 10 63 ff 	or  %g1, 0x3ff, %i0	! 7fffffff <_RAM_SIZE+0x7dffffff>
    8fc0:	80 a3 60 00 	cmp  %o5, 0
    8fc4:	06 80 00 13 	bl  9010 <__fixdfsi+0xa4>
    8fc8:	b0 10 20 00 	clr  %i0
    8fcc:	80 a3 60 1e 	cmp  %o5, 0x1e
    8fd0:	04 80 00 08 	ble  8ff0 <__fixdfsi+0x84>
    8fd4:	d0 1f bf f0 	ldd  [ %fp + -16 ], %o0
    8fd8:	c2 07 bf e4 	ld  [ %fp + -28 ], %g1
    8fdc:	80 a0 60 00 	cmp  %g1, 0
    8fe0:	12 80 00 0c 	bne  9010 <__fixdfsi+0xa4>
    8fe4:	31 20 00 00 	sethi  %hi(0x80000000), %i0
    8fe8:	10 bf ff f4 	b  8fb8 <__fixdfsi+0x4c>
    8fec:	03 1f ff ff 	sethi  %hi(0x7ffffc00), %g1
    8ff0:	94 10 20 3c 	mov  0x3c, %o2
    8ff4:	40 00 00 4c 	call  9124 <__lshrdi3>
    8ff8:	94 22 80 0d 	sub  %o2, %o5, %o2
    8ffc:	c2 07 bf e4 	ld  [ %fp + -28 ], %g1
    9000:	80 a0 60 00 	cmp  %g1, 0
    9004:	02 80 00 03 	be  9010 <__fixdfsi+0xa4>
    9008:	b0 10 00 09 	mov  %o1, %i0
    900c:	b0 20 00 09 	neg  %o1, %i0
    9010:	81 c7 e0 08 	ret 
    9014:	81 e8 00 00 	restore 

00009018 <__negdf2>:
    9018:	9d e3 bf 78 	save  %sp, -136, %sp
    901c:	f0 3f bf d8 	std  %i0, [ %fp + -40 ]
    9020:	a0 07 bf e0 	add  %fp, -32, %l0
    9024:	90 07 bf d8 	add  %fp, -40, %o0
    9028:	40 00 00 d3 	call  9374 <__unpack_d>
    902c:	92 10 00 10 	mov  %l0, %o1
    9030:	c2 07 bf e4 	ld  [ %fp + -28 ], %g1
    9034:	90 10 00 10 	mov  %l0, %o0
    9038:	80 a0 00 01 	cmp  %g0, %g1
    903c:	9a 60 3f ff 	subx  %g0, -1, %o5
    9040:	40 00 00 4c 	call  9170 <__pack_d>
    9044:	da 27 bf e4 	st  %o5, [ %fp + -28 ]
    9048:	b0 10 00 08 	mov  %o0, %i0
    904c:	81 c7 e0 08 	ret 
    9050:	93 e8 00 09 	restore  %g0, %o1, %o1

00009054 <__muldi3>:
    9054:	9d e3 bf 98 	save  %sp, -104, %sp
    9058:	81 80 00 19 	wr  %g0, %i1, %y
    905c:	9b 3e e0 1f 	sra  %i3, 0x1f, %o5
    9060:	9a 0e 40 0d 	and  %i1, %o5, %o5
    9064:	82 88 20 00 	andcc  %g0, 0, %g1
    9068:	83 20 40 1b 	mulscc  %g1, %i3, %g1
    906c:	83 20 40 1b 	mulscc  %g1, %i3, %g1
    9070:	83 20 40 1b 	mulscc  %g1, %i3, %g1
    9074:	83 20 40 1b 	mulscc  %g1, %i3, %g1
    9078:	83 20 40 1b 	mulscc  %g1, %i3, %g1
    907c:	83 20 40 1b 	mulscc  %g1, %i3, %g1
    9080:	83 20 40 1b 	mulscc  %g1, %i3, %g1
    9084:	83 20 40 1b 	mulscc  %g1, %i3, %g1
    9088:	83 20 40 1b 	mulscc  %g1, %i3, %g1
    908c:	83 20 40 1b 	mulscc  %g1, %i3, %g1
    9090:	83 20 40 1b 	mulscc  %g1, %i3, %g1
    9094:	83 20 40 1b 	mulscc  %g1, %i3, %g1
    9098:	83 20 40 1b 	mulscc  %g1, %i3, %g1
    909c:	83 20 40 1b 	mulscc  %g1, %i3, %g1
    90a0:	83 20 40 1b 	mulscc  %g1, %i3, %g1
    90a4:	83 20 40 1b 	mulscc  %g1, %i3, %g1
    90a8:	83 20 40 1b 	mulscc  %g1, %i3, %g1
    90ac:	83 20 40 1b 	mulscc  %g1, %i3, %g1
    90b0:	83 20 40 1b 	mulscc  %g1, %i3, %g1
    90b4:	83 20 40 1b 	mulscc  %g1, %i3, %g1
    90b8:	83 20 40 1b 	mulscc  %g1, %i3, %g1
    90bc:	83 20 40 1b 	mulscc  %g1, %i3, %g1
    90c0:	83 20 40 1b 	mulscc  %g1, %i3, %g1
    90c4:	83 20 40 1b 	mulscc  %g1, %i3, %g1
    90c8:	83 20 40 1b 	mulscc  %g1, %i3, %g1
    90cc:	83 20 40 1b 	mulscc  %g1, %i3, %g1
    90d0:	83 20 40 1b 	mulscc  %g1, %i3, %g1
    90d4:	83 20 40 1b 	mulscc  %g1, %i3, %g1
    90d8:	83 20 40 1b 	mulscc  %g1, %i3, %g1
    90dc:	83 20 40 1b 	mulscc  %g1, %i3, %g1
    90e0:	83 20 40 1b 	mulscc  %g1, %i3, %g1
    90e4:	83 20 40 1b 	mulscc  %g1, %i3, %g1
    90e8:	83 20 60 00 	mulscc  %g1, 0, %g1
    90ec:	a4 00 40 0d 	add  %g1, %o5, %l2
    90f0:	99 40 00 00 	rd  %y, %o4
    90f4:	a2 10 00 19 	mov  %i1, %l1
    90f8:	92 10 00 1a 	mov  %i2, %o1
    90fc:	b2 10 00 0c 	mov  %o4, %i1
    9100:	7f ff f9 66 	call  7698 <.umul>
    9104:	90 10 00 11 	mov  %l1, %o0
    9108:	92 10 00 1b 	mov  %i3, %o1
    910c:	a8 10 00 08 	mov  %o0, %l4
    9110:	7f ff f9 62 	call  7698 <.umul>
    9114:	90 10 00 18 	mov  %i0, %o0
    9118:	a8 05 00 08 	add  %l4, %o0, %l4
    911c:	81 c7 e0 08 	ret 
    9120:	91 ed 00 12 	restore  %l4, %l2, %o0

00009124 <__lshrdi3>:
    9124:	9d e3 bf 98 	save  %sp, -104, %sp
    9128:	9e 96 a0 00 	orcc  %i2, 0, %o7
    912c:	02 80 00 0f 	be  9168 <__lshrdi3+0x44>
    9130:	b8 10 00 18 	mov  %i0, %i4
    9134:	b1 36 40 0f 	srl  %i1, %o7, %i0
    9138:	82 10 20 20 	mov  0x20, %g1
    913c:	b4 10 20 00 	clr  %i2
    9140:	82 20 40 0f 	sub  %g1, %o7, %g1
    9144:	9a 20 00 01 	neg  %g1, %o5
    9148:	b3 2f 00 01 	sll  %i4, %g1, %i1
    914c:	80 a0 60 00 	cmp  %g1, 0
    9150:	04 80 00 04 	ble  9160 <__lshrdi3+0x3c>
    9154:	b7 37 00 0d 	srl  %i4, %o5, %i3
    9158:	b5 37 00 0f 	srl  %i4, %o7, %i2
    915c:	b6 16 00 19 	or  %i0, %i1, %i3
    9160:	b0 10 00 1a 	mov  %i2, %i0
    9164:	b2 10 00 1b 	mov  %i3, %i1
    9168:	81 c7 e0 08 	ret 
    916c:	81 e8 00 00 	restore 

00009170 <__pack_d>:
    9170:	9d e3 bf 98 	save  %sp, -104, %sp
    9174:	c2 06 00 00 	ld  [ %i0 ], %g1
    9178:	e0 1e 20 10 	ldd  [ %i0 + 0x10 ], %l0
    917c:	80 a0 60 01 	cmp  %g1, 1
    9180:	e4 06 20 04 	ld  [ %i0 + 4 ], %l2
    9184:	18 80 00 08 	bgu  91a4 <__pack_d+0x34>
    9188:	b2 10 20 00 	clr  %i1
    918c:	19 00 02 00 	sethi  %hi(0x80000), %o4
    9190:	9a 10 20 00 	clr  %o5
    9194:	a0 14 00 0c 	or  %l0, %o4, %l0
    9198:	a2 14 40 0d 	or  %l1, %o5, %l1
    919c:	10 80 00 65 	b  9330 <__pack_d+0x1c0>
    91a0:	b2 10 27 ff 	mov  0x7ff, %i1
    91a4:	80 a0 60 04 	cmp  %g1, 4
    91a8:	22 80 00 43 	be,a   92b4 <__pack_d+0x144>
    91ac:	b2 10 27 ff 	mov  0x7ff, %i1
    91b0:	80 a0 60 02 	cmp  %g1, 2
    91b4:	22 80 00 41 	be,a   92b8 <__pack_d+0x148>
    91b8:	a0 10 20 00 	clr  %l0
    91bc:	80 94 00 11 	orcc  %l0, %l1, %g0
    91c0:	02 80 00 5d 	be  9334 <__pack_d+0x1c4>
    91c4:	9a 0e 67 ff 	and  %i1, 0x7ff, %o5
    91c8:	d4 06 20 08 	ld  [ %i0 + 8 ], %o2
    91cc:	80 a2 bc 02 	cmp  %o2, -1022
    91d0:	16 80 00 36 	bge  92a8 <__pack_d+0x138>
    91d4:	80 a2 a3 ff 	cmp  %o2, 0x3ff
    91d8:	82 10 3c 02 	mov  -1022, %g1
    91dc:	b0 20 40 0a 	sub  %g1, %o2, %i0
    91e0:	80 a6 20 38 	cmp  %i0, 0x38
    91e4:	04 80 00 1e 	ble  925c <__pack_d+0xec>
    91e8:	90 10 20 00 	clr  %o0
    91ec:	a0 10 20 00 	clr  %l0
    91f0:	a2 10 20 00 	clr  %l1
    91f4:	98 0c 20 00 	and  %l0, 0, %o4
    91f8:	80 a3 20 00 	cmp  %o4, 0
    91fc:	12 80 00 05 	bne  9210 <__pack_d+0xa0>
    9200:	9a 0c 60 ff 	and  %l1, 0xff, %o5
    9204:	80 a3 60 80 	cmp  %o5, 0x80
    9208:	02 80 00 10 	be  9248 <__pack_d+0xd8>
    920c:	9a 0c 61 00 	and  %l1, 0x100, %o5
    9210:	a2 84 60 7f 	addcc  %l1, 0x7f, %l1
    9214:	a0 44 20 00 	addx  %l0, 0, %l0
    9218:	03 03 ff ff 	sethi  %hi(0xffffc00), %g1
    921c:	82 10 63 ff 	or  %g1, 0x3ff, %g1	! fffffff <_RAM_SIZE+0xdffffff>
    9220:	80 a4 00 01 	cmp  %l0, %g1
    9224:	38 80 00 02 	bgu,a   922c <__pack_d+0xbc>
    9228:	b2 10 20 01 	mov  1, %i1
    922c:	97 2c 20 18 	sll  %l0, 0x18, %o3
    9230:	83 34 60 08 	srl  %l1, 8, %g1
    9234:	99 34 20 08 	srl  %l0, 8, %o4
    9238:	9a 12 c0 01 	or  %o3, %g1, %o5
    923c:	a0 10 00 0c 	mov  %o4, %l0
    9240:	10 80 00 3c 	b  9330 <__pack_d+0x1c0>
    9244:	a2 10 00 0d 	mov  %o5, %l1
    9248:	80 93 00 0d 	orcc  %o4, %o5, %g0
    924c:	02 bf ff f4 	be  921c <__pack_d+0xac>
    9250:	03 03 ff ff 	sethi  %hi(0xffffc00), %g1
    9254:	10 bf ff f0 	b  9214 <__pack_d+0xa4>
    9258:	a2 84 60 80 	addcc  %l1, 0x80, %l1
    925c:	92 10 20 01 	mov  1, %o1
    9260:	40 00 00 ee 	call  9618 <__ashldi3>
    9264:	94 10 00 18 	mov  %i0, %o2
    9268:	92 82 7f ff 	addcc  %o1, -1, %o1
    926c:	90 42 3f ff 	addx  %o0, -1, %o0
    9270:	92 0c 40 09 	and  %l1, %o1, %o1
    9274:	90 0c 00 08 	and  %l0, %o0, %o0
    9278:	80 92 00 09 	orcc  %o0, %o1, %g0
    927c:	02 80 00 03 	be  9288 <__pack_d+0x118>
    9280:	a6 10 20 00 	clr  %l3
    9284:	a6 10 20 01 	mov  1, %l3
    9288:	90 10 00 10 	mov  %l0, %o0
    928c:	92 10 00 11 	mov  %l1, %o1
    9290:	7f ff ff a5 	call  9124 <__lshrdi3>
    9294:	94 10 00 18 	mov  %i0, %o2
    9298:	98 10 20 00 	clr  %o4
    929c:	a2 12 40 13 	or  %o1, %l3, %l1
    92a0:	10 bf ff d5 	b  91f4 <__pack_d+0x84>
    92a4:	a0 12 00 0c 	or  %o0, %o4, %l0
    92a8:	04 80 00 06 	ble  92c0 <__pack_d+0x150>
    92ac:	98 0c 20 00 	and  %l0, 0, %o4
    92b0:	b2 10 27 ff 	mov  0x7ff, %i1
    92b4:	a0 10 20 00 	clr  %l0
    92b8:	10 80 00 1e 	b  9330 <__pack_d+0x1c0>
    92bc:	a2 10 20 00 	clr  %l1
    92c0:	b2 02 a3 ff 	add  %o2, 0x3ff, %i1
    92c4:	80 a3 20 00 	cmp  %o4, 0
    92c8:	12 80 00 05 	bne  92dc <__pack_d+0x16c>
    92cc:	9a 0c 60 ff 	and  %l1, 0xff, %o5
    92d0:	80 a3 60 80 	cmp  %o5, 0x80
    92d4:	02 80 00 11 	be  9318 <__pack_d+0x1a8>
    92d8:	98 0c 20 00 	and  %l0, 0, %o4
    92dc:	a2 84 60 7f 	addcc  %l1, 0x7f, %l1
    92e0:	a0 44 20 00 	addx  %l0, 0, %l0
    92e4:	03 07 ff ff 	sethi  %hi(0x1ffffc00), %g1
    92e8:	82 10 63 ff 	or  %g1, 0x3ff, %g1	! 1fffffff <_RAM_SIZE+0x1dffffff>
    92ec:	80 a4 00 01 	cmp  %l0, %g1
    92f0:	08 bf ff d0 	bleu  9230 <__pack_d+0xc0>
    92f4:	97 2c 20 18 	sll  %l0, 0x18, %o3
    92f8:	97 2c 20 1f 	sll  %l0, 0x1f, %o3
    92fc:	83 34 60 01 	srl  %l1, 1, %g1
    9300:	99 34 20 01 	srl  %l0, 1, %o4
    9304:	9a 12 c0 01 	or  %o3, %g1, %o5
    9308:	b2 06 60 01 	inc  %i1
    930c:	a0 10 00 0c 	mov  %o4, %l0
    9310:	10 bf ff c7 	b  922c <__pack_d+0xbc>
    9314:	a2 10 00 0d 	mov  %o5, %l1
    9318:	9a 0c 61 00 	and  %l1, 0x100, %o5
    931c:	80 93 00 0d 	orcc  %o4, %o5, %g0
    9320:	02 bf ff f2 	be  92e8 <__pack_d+0x178>
    9324:	03 07 ff ff 	sethi  %hi(0x1ffffc00), %g1
    9328:	10 bf ff ee 	b  92e0 <__pack_d+0x170>
    932c:	a2 84 60 80 	addcc  %l1, 0x80, %l1
    9330:	9a 0e 67 ff 	and  %i1, 0x7ff, %o5
    9334:	96 0c a0 01 	and  %l2, 1, %o3
    9338:	99 2b 60 14 	sll  %o5, 0x14, %o4
    933c:	95 2a e0 1f 	sll  %o3, 0x1f, %o2
    9340:	11 00 03 ff 	sethi  %hi(0xffc00), %o0
    9344:	92 10 3f ff 	mov  -1, %o1
    9348:	90 12 23 ff 	or  %o0, 0x3ff, %o0
    934c:	92 0c 40 09 	and  %l1, %o1, %o1
    9350:	90 0c 00 08 	and  %l0, %o0, %o0
    9354:	9a 10 20 00 	clr  %o5
    9358:	90 12 00 0c 	or  %o0, %o4, %o0
    935c:	92 12 40 0d 	or  %o1, %o5, %o1
    9360:	96 10 20 00 	clr  %o3
    9364:	b0 12 00 0a 	or  %o0, %o2, %i0
    9368:	b2 12 40 0b 	or  %o1, %o3, %i1
    936c:	81 c7 e0 08 	ret 
    9370:	81 e8 00 00 	restore 

00009374 <__unpack_d>:
    9374:	9d e3 bf 98 	save  %sp, -104, %sp
    9378:	d8 1e 00 00 	ldd  [ %i0 ], %o4
    937c:	b6 10 3f ff 	mov  -1, %i3
    9380:	9e 10 00 19 	mov  %i1, %o7
    9384:	35 00 03 ff 	sethi  %hi(0xffc00), %i2
    9388:	b2 0b 40 1b 	and  %o5, %i3, %i1
    938c:	b4 16 a3 ff 	or  %i2, 0x3ff, %i2
    9390:	bb 33 20 14 	srl  %o4, 0x14, %i5
    9394:	b7 33 20 1f 	srl  %o4, 0x1f, %i3
    9398:	b0 0b 00 1a 	and  %o4, %i2, %i0
    939c:	82 0e e0 01 	and  %i3, 1, %g1
    93a0:	ba 8f 67 ff 	andcc  %i5, 0x7ff, %i5
    93a4:	12 80 00 24 	bne  9434 <__unpack_d+0xc0>
    93a8:	c2 23 e0 04 	st  %g1, [ %o7 + 4 ]
    93ac:	80 96 00 19 	orcc  %i0, %i1, %g0
    93b0:	02 80 00 1f 	be  942c <__unpack_d+0xb8>
    93b4:	82 10 20 02 	mov  2, %g1
    93b8:	b7 2e 20 08 	sll  %i0, 8, %i3
    93bc:	82 10 3c 02 	mov  -1022, %g1
    93c0:	b5 36 60 18 	srl  %i1, 0x18, %i2
    93c4:	c2 23 e0 08 	st  %g1, [ %o7 + 8 ]
    93c8:	b8 16 80 1b 	or  %i2, %i3, %i4
    93cc:	bb 2e 60 08 	sll  %i1, 8, %i5
    93d0:	b6 10 20 03 	mov  3, %i3
    93d4:	03 03 ff ff 	sethi  %hi(0xffffc00), %g1
    93d8:	b0 10 00 1c 	mov  %i4, %i0
    93dc:	82 10 63 ff 	or  %g1, 0x3ff, %g1
    93e0:	b2 10 00 1d 	mov  %i5, %i1
    93e4:	80 a7 00 01 	cmp  %i4, %g1
    93e8:	18 80 00 0f 	bgu  9424 <__unpack_d+0xb0>
    93ec:	f6 23 c0 00 	st  %i3, [ %o7 ]
    93f0:	c2 03 e0 08 	ld  [ %o7 + 8 ], %g1
    93f4:	b5 36 60 1f 	srl  %i1, 0x1f, %i2
    93f8:	82 00 7f ff 	add  %g1, -1, %g1
    93fc:	b6 06 00 18 	add  %i0, %i0, %i3
    9400:	c2 23 e0 08 	st  %g1, [ %o7 + 8 ]
    9404:	b8 16 80 1b 	or  %i2, %i3, %i4
    9408:	ba 06 40 19 	add  %i1, %i1, %i5
    940c:	03 03 ff ff 	sethi  %hi(0xffffc00), %g1
    9410:	b0 10 00 1c 	mov  %i4, %i0
    9414:	82 10 63 ff 	or  %g1, 0x3ff, %g1
    9418:	80 a7 00 01 	cmp  %i4, %g1
    941c:	08 bf ff f5 	bleu  93f0 <__unpack_d+0x7c>
    9420:	b2 10 00 1d 	mov  %i5, %i1
    9424:	10 80 00 22 	b  94ac <__unpack_d+0x138>
    9428:	f0 3b e0 10 	std  %i0, [ %o7 + 0x10 ]
    942c:	10 80 00 20 	b  94ac <__unpack_d+0x138>
    9430:	c2 23 c0 00 	st  %g1, [ %o7 ]
    9434:	80 a7 67 ff 	cmp  %i5, 0x7ff
    9438:	02 80 00 0f 	be  9474 <__unpack_d+0x100>
    943c:	82 07 7c 01 	add  %i5, -1023, %g1
    9440:	b7 36 60 18 	srl  %i1, 0x18, %i3
    9444:	ba 10 20 03 	mov  3, %i5
    9448:	c2 23 e0 08 	st  %g1, [ %o7 + 8 ]
    944c:	fa 23 c0 00 	st  %i5, [ %o7 ]
    9450:	83 2e 20 08 	sll  %i0, 8, %g1
    9454:	bb 2e 60 08 	sll  %i1, 8, %i5
    9458:	b8 16 c0 01 	or  %i3, %g1, %i4
    945c:	35 04 00 00 	sethi  %hi(0x10000000), %i2
    9460:	b6 10 20 00 	clr  %i3
    9464:	b8 17 00 1a 	or  %i4, %i2, %i4
    9468:	ba 17 40 1b 	or  %i5, %i3, %i5
    946c:	10 80 00 10 	b  94ac <__unpack_d+0x138>
    9470:	f8 3b e0 10 	std  %i4, [ %o7 + 0x10 ]
    9474:	80 96 00 19 	orcc  %i0, %i1, %g0
    9478:	12 80 00 04 	bne  9488 <__unpack_d+0x114>
    947c:	39 00 02 00 	sethi  %hi(0x80000), %i4
    9480:	10 bf ff eb 	b  942c <__unpack_d+0xb8>
    9484:	82 10 20 04 	mov  4, %g1
    9488:	ba 10 20 00 	clr  %i5
    948c:	b8 0e 00 1c 	and  %i0, %i4, %i4
    9490:	ba 0e 40 1d 	and  %i1, %i5, %i5
    9494:	80 97 00 1d 	orcc  %i4, %i5, %g0
    9498:	22 bf ff e3 	be,a   9424 <__unpack_d+0xb0>
    949c:	c0 23 c0 00 	clr  [ %o7 ]
    94a0:	82 10 20 01 	mov  1, %g1
    94a4:	10 bf ff e0 	b  9424 <__unpack_d+0xb0>
    94a8:	c2 23 c0 00 	st  %g1, [ %o7 ]
    94ac:	81 c7 e0 08 	ret 
    94b0:	81 e8 00 00 	restore 

000094b4 <__fpcmp_parts_d>:
    94b4:	d8 02 00 00 	ld  [ %o0 ], %o4
    94b8:	80 a3 20 01 	cmp  %o4, 1
    94bc:	08 80 00 06 	bleu  94d4 <__fpcmp_parts_d+0x20>
    94c0:	94 10 00 08 	mov  %o0, %o2
    94c4:	d6 02 40 00 	ld  [ %o1 ], %o3
    94c8:	80 a2 e0 01 	cmp  %o3, 1
    94cc:	18 80 00 04 	bgu  94dc <__fpcmp_parts_d+0x28>
    94d0:	80 a3 20 04 	cmp  %o4, 4
    94d4:	10 80 00 4f 	b  9610 <__fpcmp_parts_d+0x15c>
    94d8:	90 10 20 01 	mov  1, %o0
    94dc:	12 80 00 09 	bne  9500 <__fpcmp_parts_d+0x4c>
    94e0:	80 a3 20 04 	cmp  %o4, 4
    94e4:	80 a2 e0 04 	cmp  %o3, 4
    94e8:	12 80 00 06 	bne  9500 <__fpcmp_parts_d+0x4c>
    94ec:	80 a3 20 04 	cmp  %o4, 4
    94f0:	da 02 60 04 	ld  [ %o1 + 4 ], %o5
    94f4:	c2 02 20 04 	ld  [ %o0 + 4 ], %g1
    94f8:	10 80 00 46 	b  9610 <__fpcmp_parts_d+0x15c>
    94fc:	90 23 40 01 	sub  %o5, %g1, %o0
    9500:	22 80 00 15 	be,a   9554 <__fpcmp_parts_d+0xa0>
    9504:	c2 02 a0 04 	ld  [ %o2 + 4 ], %g1
    9508:	80 a2 e0 04 	cmp  %o3, 4
    950c:	22 80 00 0b 	be,a   9538 <__fpcmp_parts_d+0x84>
    9510:	c2 02 60 04 	ld  [ %o1 + 4 ], %g1
    9514:	80 a3 20 02 	cmp  %o4, 2
    9518:	12 80 00 0c 	bne  9548 <__fpcmp_parts_d+0x94>
    951c:	80 a2 e0 02 	cmp  %o3, 2
    9520:	02 80 00 3c 	be  9610 <__fpcmp_parts_d+0x15c>
    9524:	90 10 20 00 	clr  %o0
    9528:	80 a3 20 02 	cmp  %o4, 2
    952c:	12 80 00 07 	bne  9548 <__fpcmp_parts_d+0x94>
    9530:	80 a2 e0 02 	cmp  %o3, 2
    9534:	c2 02 60 04 	ld  [ %o1 + 4 ], %g1
    9538:	80 a0 00 01 	cmp  %g0, %g1
    953c:	9a 40 3f ff 	addx  %g0, -1, %o5
    9540:	10 80 00 34 	b  9610 <__fpcmp_parts_d+0x15c>
    9544:	90 13 60 01 	or  %o5, 1, %o0
    9548:	32 80 00 06 	bne,a   9560 <__fpcmp_parts_d+0xac>
    954c:	d8 02 a0 04 	ld  [ %o2 + 4 ], %o4
    9550:	c2 02 a0 04 	ld  [ %o2 + 4 ], %g1
    9554:	80 a0 00 01 	cmp  %g0, %g1
    9558:	10 bf ff fa 	b  9540 <__fpcmp_parts_d+0x8c>
    955c:	9a 60 20 00 	subx  %g0, 0, %o5
    9560:	c2 02 60 04 	ld  [ %o1 + 4 ], %g1
    9564:	80 a3 00 01 	cmp  %o4, %g1
    9568:	22 80 00 06 	be,a   9580 <__fpcmp_parts_d+0xcc>
    956c:	da 02 a0 08 	ld  [ %o2 + 8 ], %o5
    9570:	80 a0 00 0c 	cmp  %g0, %o4
    9574:	82 60 20 00 	subx  %g0, 0, %g1
    9578:	10 80 00 26 	b  9610 <__fpcmp_parts_d+0x15c>
    957c:	90 10 60 01 	or  %g1, 1, %o0
    9580:	c2 02 60 08 	ld  [ %o1 + 8 ], %g1
    9584:	80 a3 40 01 	cmp  %o5, %g1
    9588:	14 bf ff fb 	bg  9574 <__fpcmp_parts_d+0xc0>
    958c:	80 a0 00 0c 	cmp  %g0, %o4
    9590:	80 a3 40 01 	cmp  %o5, %g1
    9594:	06 80 00 17 	bl  95f0 <__fpcmp_parts_d+0x13c>
    9598:	80 a0 00 0c 	cmp  %g0, %o4
    959c:	d0 02 a0 10 	ld  [ %o2 + 0x10 ], %o0
    95a0:	d6 02 60 10 	ld  [ %o1 + 0x10 ], %o3
    95a4:	80 a2 00 0b 	cmp  %o0, %o3
    95a8:	18 bf ff f3 	bgu  9574 <__fpcmp_parts_d+0xc0>
    95ac:	80 a0 00 0c 	cmp  %g0, %o4
    95b0:	80 a2 00 0b 	cmp  %o0, %o3
    95b4:	22 80 00 11 	be,a   95f8 <__fpcmp_parts_d+0x144>
    95b8:	da 02 a0 14 	ld  [ %o2 + 0x14 ], %o5
    95bc:	80 a2 c0 08 	cmp  %o3, %o0
    95c0:	18 80 00 0c 	bgu  95f0 <__fpcmp_parts_d+0x13c>
    95c4:	80 a0 00 0c 	cmp  %g0, %o4
    95c8:	80 a2 c0 08 	cmp  %o3, %o0
    95cc:	22 80 00 04 	be,a   95dc <__fpcmp_parts_d+0x128>
    95d0:	da 02 60 14 	ld  [ %o1 + 0x14 ], %o5
    95d4:	10 80 00 0f 	b  9610 <__fpcmp_parts_d+0x15c>
    95d8:	90 10 20 00 	clr  %o0
    95dc:	c2 02 a0 14 	ld  [ %o2 + 0x14 ], %g1
    95e0:	80 a3 40 01 	cmp  %o5, %g1
    95e4:	28 80 00 0b 	bleu,a   9610 <__fpcmp_parts_d+0x15c>
    95e8:	90 10 20 00 	clr  %o0
    95ec:	80 a0 00 0c 	cmp  %g0, %o4
    95f0:	10 bf ff e2 	b  9578 <__fpcmp_parts_d+0xc4>
    95f4:	82 40 3f ff 	addx  %g0, -1, %g1
    95f8:	c2 02 60 14 	ld  [ %o1 + 0x14 ], %g1
    95fc:	80 a3 40 01 	cmp  %o5, %g1
    9600:	28 bf ff f0 	bleu,a   95c0 <__fpcmp_parts_d+0x10c>
    9604:	80 a2 c0 08 	cmp  %o3, %o0
    9608:	10 bf ff db 	b  9574 <__fpcmp_parts_d+0xc0>
    960c:	80 a0 00 0c 	cmp  %g0, %o4
    9610:	81 c3 e0 08 	retl 
    9614:	01 00 00 00 	nop 

00009618 <__ashldi3>:
    9618:	9d e3 bf 98 	save  %sp, -104, %sp
    961c:	9e 96 a0 00 	orcc  %i2, 0, %o7
    9620:	02 80 00 0f 	be  965c <__ashldi3+0x44>
    9624:	ba 10 00 19 	mov  %i1, %i5
    9628:	82 10 20 20 	mov  0x20, %g1
    962c:	b1 2e 00 0f 	sll  %i0, %o7, %i0
    9630:	82 20 40 0f 	sub  %g1, %o7, %g1
    9634:	b6 10 20 00 	clr  %i3
    9638:	9a 20 00 01 	neg  %g1, %o5
    963c:	b3 36 40 01 	srl  %i1, %g1, %i1
    9640:	80 a0 60 00 	cmp  %g1, 0
    9644:	04 80 00 04 	ble  9654 <__ashldi3+0x3c>
    9648:	b5 2f 40 0d 	sll  %i5, %o5, %i2
    964c:	b7 2f 40 0f 	sll  %i5, %o7, %i3
    9650:	b4 16 00 19 	or  %i0, %i1, %i2
    9654:	b0 10 00 1a 	mov  %i2, %i0
    9658:	b2 10 00 1b 	mov  %i3, %i1
    965c:	81 c7 e0 08 	ret 
    9660:	81 e8 00 00 	restore 
	...
    9670:	00 00 00 0c 	unimp  0xc
    9674:	00 00 00 00 	unimp  0
    9678:	01 00 01 7c 	sethi  %hi(0x5f000), %g0
    967c:	0f 0c 0e 00 	sethi  %hi(0x30380000), %g7
    9680:	00 00 00 14 	unimp  0x14
    9684:	00 00 00 14 	unimp  0x14
    9688:	00 00 7c e0 	unimp  0x7ce0
    968c:	00 00 03 44 	unimp  0x344
    9690:	44 0d 1e 2d 	call  10350f44 <_RAM_SIZE+0xe350f44>
    9694:	09 0f 1f 00 	sethi  %hi(0x3c7c0000), %g4
    9698:	00 00 00 14 	unimp  0x14
    969c:	00 00 00 2c 	unimp  0x2c
    96a0:	00 00 80 24 	unimp  0x8024
    96a4:	00 00 03 98 	unimp  0x398
    96a8:	44 0d 1e 2d 	call  10350f5c <_RAM_SIZE+0xe350f5c>
    96ac:	09 0f 1f 00 	sethi  %hi(0x3c7c0000), %g4
Disassembly of section .data:

000096b0 <_rodata_start>:
    96b0:	0a 0a 50 72 	desconhecido
    96b4:	6f 63 4e 75 	call  bd8dd088 <LEON_REG+0x3d8dd088>
    96b8:	6d 62 65 72 	call  b58a2c80 <LEON_REG+0x358a2c80>
    96bc:	3a 20 25 64 	desconhecido
    96c0:	0a 00 00 00 	desconhecido
    96c4:	00 00 00 00 	unimp  0
    96c8:	50 72 6f 63 	call  41ca5454 <_RAM_SIZE+0x3fca5454>
    96cc:	4e 75 6d 62 	call  39d64c54 <_RAM_SIZE+0x37d64c54>
    96d0:	65 72 3a 20 	call  95c97f50 <LEON_REG+0x15c97f50>
    96d4:	25 64 0a 00 	desconhecido
    96d8:	50 00 00 00 	call  400096d8 <_RAM_SIZE+0x3e0096d8>
    96dc:	00 00 00 00 	unimp  0
    96e0:	2d 00 00 00 	sethi  %hi(0), %l6
    96e4:	00 00 00 00 	unimp  0
    96e8:	0a 00 00 00 	desconhecido
    96ec:	00 00 00 00 	unimp  0
    96f0:	2d 2d 2d 2d 	sethi  %hi(0xb4b4b400), %l6
    96f4:	2d 2d 2d 2d 	sethi  %hi(0xb4b4b400), %l6
    96f8:	2d 2d 2d 2d 	sethi  %hi(0xb4b4b400), %l6
    96fc:	2d 2d 2d 2d 	sethi  %hi(0xb4b4b400), %l6
    9700:	2d 2d 2d 2d 	sethi  %hi(0xb4b4b400), %l6
    9704:	2d 2d 2d 2d 	sethi  %hi(0xb4b4b400), %l6
    9708:	2d 2d 2d 2d 	sethi  %hi(0xb4b4b400), %l6
    970c:	2d 2d 2d 2d 	sethi  %hi(0xb4b4b400), %l6
    9710:	2d 2d 2d 2d 	sethi  %hi(0xb4b4b400), %l6
    9714:	2d 2d 2d 2d 	sethi  %hi(0xb4b4b400), %l6
    9718:	2d 2d 2d 2d 	sethi  %hi(0xb4b4b400), %l6
    971c:	2d 2d 2d 2d 	sethi  %hi(0xb4b4b400), %l6
    9720:	2d 2d 2d 2d 	sethi  %hi(0xb4b4b400), %l6
    9724:	2d 2d 2d 2d 	sethi  %hi(0xb4b4b400), %l6
    9728:	2d 2d 2d 2d 	sethi  %hi(0xb4b4b400), %l6
    972c:	2d 2d 2d 2d 	sethi  %hi(0xb4b4b400), %l6
    9730:	2d 2d 2d 2d 	sethi  %hi(0xb4b4b400), %l6
    9734:	0a 00 00 00 	desconhecido
    9738:	2d 2d 2d 2d 	sethi  %hi(0xb4b4b400), %l6
    973c:	2d 2d 2d 2d 	sethi  %hi(0xb4b4b400), %l6
    9740:	2d 2d 2d 2d 	sethi  %hi(0xb4b4b400), %l6
    9744:	2d 2d 2d 2d 	sethi  %hi(0xb4b4b400), %l6
    9748:	2d 2d 2d 2d 	sethi  %hi(0xb4b4b400), %l6
    974c:	2d 2d 2d 2d 	sethi  %hi(0xb4b4b400), %l6
    9750:	2d 20 20 4d 	sethi  %hi(0x80813400), %l6
    9754:	50 53 6f 43 	call  414e5460 <_RAM_SIZE+0x3f4e5460>
    9758:	42 65 6e 63 	call  99650e4 <_RAM_SIZE+0x79650e4>
    975c:	68 20 20 2d 	call  a0811810 <LEON_REG+0x20811810>
    9760:	2d 2d 2d 2d 	sethi  %hi(0xb4b4b400), %l6
    9764:	2d 2d 2d 2d 	sethi  %hi(0xb4b4b400), %l6
    9768:	2d 2d 2d 2d 	sethi  %hi(0xb4b4b400), %l6
    976c:	2d 2d 2d 2d 	sethi  %hi(0xb4b4b400), %l6
    9770:	2d 2d 2d 2d 	sethi  %hi(0xb4b4b400), %l6
    9774:	2d 2d 2d 2d 	sethi  %hi(0xb4b4b400), %l6
    9778:	2d 2d 2d 2d 	sethi  %hi(0xb4b4b400), %l6
    977c:	0a 00 00 00 	desconhecido
    9780:	2d 2d 2d 2d 	sethi  %hi(0xb4b4b400), %l6
    9784:	2d 2d 2d 2d 	sethi  %hi(0xb4b4b400), %l6
    9788:	2d 2d 2d 2d 	sethi  %hi(0xb4b4b400), %l6
    978c:	2d 2d 2d 2d 	sethi  %hi(0xb4b4b400), %l6
    9790:	2d 2d 2d 20 	sethi  %hi(0xb4b48000), %l6
    9794:	52 75 6e 6e 	call  49d6514c <_RAM_SIZE+0x47d6514c>
    9798:	69 6e 67 3a 	call  a5ba3480 <LEON_REG+0x25ba3480>
    979c:	20 68 65 6c 	desconhecido
    97a0:	6c 6f 5f 77 	call  b1be157c <LEON_REG+0x31be157c>
    97a4:	6f 72 6c 64 	call  bdca4934 <LEON_REG+0x3dca4934>
    97a8:	5f 6d 75 74 	call  7db66d78 <_RAM_SIZE+0x7bb66d78>
    97ac:	65 78 20 20 	call  95e1182c <LEON_REG+0x15e1182c>
    97b0:	2d 2d 2d 2d 	sethi  %hi(0xb4b4b400), %l6
    97b4:	2d 2d 2d 2d 	sethi  %hi(0xb4b4b400), %l6
    97b8:	2d 2d 2d 2d 	sethi  %hi(0xb4b4b400), %l6
    97bc:	2d 2d 2d 2d 	sethi  %hi(0xb4b4b400), %l6
    97c0:	2d 2d 2d 2d 	sethi  %hi(0xb4b4b400), %l6
    97c4:	0a 00 00 00 	desconhecido
    97c8:	2d 2d 2d 2d 	sethi  %hi(0xb4b4b400), %l6
    97cc:	2d 2d 2d 2d 	sethi  %hi(0xb4b4b400), %l6
    97d0:	2d 2d 2d 2d 	sethi  %hi(0xb4b4b400), %l6
    97d4:	2d 2d 2d 20 	sethi  %hi(0xb4b48000), %l6
    97d8:	54 68 65 20 	call  51a22c58 <_RAM_SIZE+0x4fa22c58>
    97dc:	72 65 73 75 	call  c99665b0 <LEON_REG+0x499665b0>
    97e0:	6c 74 73 20 	call  b1d26460 <LEON_REG+0x31d26460>
    97e4:	77 69 6c 6c 	call  dda64994 <LEON_REG+0x5da64994>
    97e8:	20 62 65 20 	desconhecido
    97ec:	61 76 61 69 	call  85da1d90 <LEON_REG+0x5da1d90>
    97f0:	6c 61 62 6c 	call  b18621a0 <LEON_REG+0x318621a0>
    97f4:	65 20 69 6e 	call  94823dac <LEON_REG+0x14823dac>
    97f8:	20 2d 2d 2d 	desconhecido
    97fc:	2d 2d 2d 2d 	sethi  %hi(0xb4b4b400), %l6
    9800:	2d 2d 2d 2d 	sethi  %hi(0xb4b4b400), %l6
    9804:	2d 2d 2d 2d 	sethi  %hi(0xb4b4b400), %l6
    9808:	2d 2d 2d 2d 	sethi  %hi(0xb4b4b400), %l6
    980c:	0a 00 00 00 	desconhecido
    9810:	2d 2d 2d 2d 	sethi  %hi(0xb4b4b400), %l6
    9814:	2d 2d 2d 2d 	sethi  %hi(0xb4b4b400), %l6
    9818:	2d 2d 2d 2d 	sethi  %hi(0xb4b4b400), %l6
    981c:	2d 2d 2d 2d 	sethi  %hi(0xb4b4b400), %l6
    9820:	2d 2d 2d 2d 	sethi  %hi(0xb4b4b400), %l6
    9824:	2d 2d 2d 20 	sethi  %hi(0xb4b48000), %l6
    9828:	68 74 65 20 	call  a1d22ca8 <LEON_REG+0x21d22ca8>
    982c:	6f 75 74 70 	call  bdd669ec <LEON_REG+0x3dd669ec>
    9830:	75 74 2e 64 	call  d5d151c0 <LEON_REG+0x55d151c0>
    9834:	61 74 20 66 	call  85d119cc <LEON_REG+0x5d119cc>
    9838:	69 6c 65 20 	call  a5b22cb8 <LEON_REG+0x25b22cb8>
    983c:	2d 2d 2d 2d 	sethi  %hi(0xb4b4b400), %l6
    9840:	2d 2d 2d 2d 	sethi  %hi(0xb4b4b400), %l6
    9844:	2d 2d 2d 2d 	sethi  %hi(0xb4b4b400), %l6
    9848:	2d 2d 2d 2d 	sethi  %hi(0xb4b4b400), %l6
    984c:	2d 2d 2d 2d 	sethi  %hi(0xb4b4b400), %l6
    9850:	2d 2d 2d 2d 	sethi  %hi(0xb4b4b400), %l6
    9854:	0a 00 00 00 	desconhecido
    9858:	53 4f 55 20 	call  4d3decd8 <_RAM_SIZE+0x4b3decd8>
    985c:	4f 20 25 64 	call  3c812dec <_RAM_SIZE+0x3a812dec>
    9860:	0a 00 00 00 	desconhecido
    9864:	00 00 00 00 	unimp  0
    9868:	0a 50 72 69 	desconhecido
    986c:	6e 74 51 75 	call  b9d1de40 <LEON_REG+0x39d1de40>
    9870:	65 75 65 28 	call  95d62d10 <LEON_REG+0x15d62d10>
    9874:	29 3a 20 0a 	sethi  %hi(0xe8802800), %l4
	...
    9880:	0a 46 69 6c 	desconhecido
    9884:	61 20 63 6f 	call  84822640 <LEON_REG+0x4822640>
    9888:	6d 20 25 64 	call  b4812e18 <LEON_REG+0x34812e18>
    988c:	20 74 68 72 	desconhecido
    9890:	65 61 64 73 	call  95862a5c <LEON_REG+0x15862a5c>
    9894:	3a 20 0a 00 	desconhecido
    9898:	0a 62 65 67 	desconhecido
    989c:	69 6e 3a 20 	call  a5b9811c <LEON_REG+0x25b9811c>
    98a0:	25 64 0a 00 	desconhecido
    98a4:	00 00 00 00 	unimp  0
    98a8:	0a 65 6e 64 	desconhecido
    98ac:	3a 20 25 64 	desconhecido
    98b0:	0a 00 00 00 	desconhecido
    98b4:	00 00 00 00 	unimp  0
    98b8:	0a 45 6d 70 	desconhecido
    98bc:	74 79 20 51 	call  d1e51a00 <LEON_REG+0x51e51a00>
    98c0:	75 65 75 65 	call  d5966e54 <LEON_REG+0x55966e54>
    98c4:	21 0a 00 00 	sethi  %hi(0x28000000), %l0
    98c8:	0a 41 74 20 	desconhecido
    98cc:	74 68 65 20 	call  d1a22d4c <LEON_REG+0x51a22d4c>
    98d0:	65 6e 64 20 	call  95ba2950 <LEON_REG+0x15ba2950>
    98d4:	6f 66 20 70 	call  bd991a94 <LEON_REG+0x3d991a94>
    98d8:	74 68 72 65 	call  d1a2626c <LEON_REG+0x51a2626c>
    98dc:	61 64 5f 6d 	call  85921690 <LEON_REG+0x5921690>
    98e0:	79 5f 65 78 	call  e57e2ec0 <LEON_REG+0x657e2ec0>
    98e4:	69 74 2e 2e 	call  a5d1519c <LEON_REG+0x25d1519c>
    98e8:	2e 0a 00 00 	desconhecido
    98ec:	00 00 00 00 	unimp  0
    98f0:	0a 4a 6f 69 	desconhecido
    98f4:	6e 20 50 6f 	call  b881dab0 <LEON_REG+0x3881dab0>
    98f8:	69 6e 74 2d 	call  a5ba69ac <LEON_REG+0x25ba69ac>
    98fc:	3e 25 64 20 	desconhecido
    9900:	6f 66 20 25 	call  bd991994 <LEON_REG+0x3d991994>
    9904:	64 20 70 72 	call  90825acc <LEON_REG+0x10825acc>
    9908:	6f 63 65 73 	call  bd8e2ed4 <LEON_REG+0x3d8e2ed4>
    990c:	73 6f 72 73 	call  cdbe62d8 <LEON_REG+0x4dbe62d8>
    9910:	20 61 72 65 	desconhecido
    9914:	20 6e 6f 74 	desconhecido
    9918:	20 6f 76 65 	desconhecido
    991c:	72 20 79 65 	call  c8827eb0 <LEON_REG+0x48827eb0>
    9920:	74 2e 2e 2e 	call  d0b951d8 <LEON_REG+0x50b951d8>
    9924:	00 00 00 00 	unimp  0
    9928:	0a 41 74 20 	desconhecido
    992c:	74 68 65 20 	call  d1a22dac <LEON_REG+0x51a22dac>
    9930:	65 6e 64 20 	call  95ba29b0 <LEON_REG+0x15ba29b0>
    9934:	6f 66 20 6a 	call  bd991adc <LEON_REG+0x3d991adc>
    9938:	6f 69 6e 5f 	call  bda652b4 <LEON_REG+0x3da652b4>
    993c:	63 6f 6e 74 	call  8dbe530c <LEON_REG+0xdbe530c>
    9940:	72 6f 6c 2e 	call  c9be49f8 <LEON_REG+0x49be49f8>
    9944:	2e 2e 0a 00 	desconhecido
    9948:	0a 41 6c 6c 	desconhecido
    994c:	20 25 64 20 	desconhecido
    9950:	74 68 72 65 	call  d1a262e4 <LEON_REG+0x51a262e4>
    9954:	61 64 73 20 	call  859265d4 <LEON_REG+0x59265d4>
    9958:	73 74 61 72 	call  cdd21f20 <LEON_REG+0x4dd21f20>
    995c:	74 65 64 2e 	call  d1962a14 <LEON_REG+0x51962a14>
    9960:	2e 2e 0a 00 	desconhecido
    9964:	00 00 00 00 	unimp  0
    9968:	0a 54 68 72 	desconhecido
    996c:	65 61 64 20 	call  958629ec <LEON_REG+0x158629ec>
    9970:	77 68 6f 73 	call  dda2573c <LEON_REG+0x5da2573c>
    9974:	65 20 61 64 	call  94821f04 <LEON_REG+0x14821f04>
    9978:	64 72 65 73 	call  91ca2f44 <LEON_REG+0x11ca2f44>
    997c:	73 20 69 73 	call  cc823f48 <LEON_REG+0x4c823f48>
    9980:	20 25 78 20 	desconhecido
    9984:	77 69 6c 6c 	call  dda64b34 <LEON_REG+0x5da64b34>
    9988:	20 62 65 20 	desconhecido
    998c:	65 78 65 63 	call  95e22f18 <LEON_REG+0x15e22f18>
    9990:	75 74 65 64 	call  d5d22f20 <LEON_REG+0x55d22f20>
    9994:	2e 2e 2e 0a 	desconhecido
	...
    99a0:	54 68 65 20 	call  51a22e20 <_RAM_SIZE+0x4fa22e20>
    99a4:	61 72 67 75 	call  85ca3778 <LEON_REG+0x5ca3778>
    99a8:	6d 65 6e 74 	call  b5965378 <LEON_REG+0x35965378>
    99ac:	73 20 61 64 	call  cc821f3c <LEON_REG+0x4c821f3c>
    99b0:	64 72 65 73 	call  91ca2f7c <LEON_REG+0x11ca2f7c>
    99b4:	73 20 69 73 	call  cc823f80 <LEON_REG+0x4c823f80>
    99b8:	20 25 78 20 	desconhecido
    99bc:	2e 2e 2e 20 	desconhecido
    99c0:	0a 00 00 00 	desconhecido
    99c4:	00 00 00 00 	unimp  0
    99c8:	0a 54 68 72 	desconhecido
    99cc:	65 61 64 20 	call  95862a4c <LEON_REG+0x15862a4c>
    99d0:	77 68 6f 73 	call  dda2579c <LEON_REG+0x5da2579c>
    99d4:	65 20 61 64 	call  94821f64 <LEON_REG+0x14821f64>
    99d8:	64 72 65 73 	call  91ca2fa4 <LEON_REG+0x11ca2fa4>
    99dc:	73 20 69 73 	call  cc823fa8 <LEON_REG+0x4c823fa8>
    99e0:	20 25 78 20 	desconhecido
    99e4:	65 6e 64 65 	call  95ba2b78 <LEON_REG+0x15ba2b78>
    99e8:	64 2e 2e 2e 	call  90b952a0 <LEON_REG+0x10b952a0>
    99ec:	0a 00 00 00 	desconhecido
    99f0:	43 00 00 00 	call  c0099f0 <_RAM_SIZE+0xa0099f0>
    99f4:	00 00 00 00 	unimp  0

000099f8 <blanks.0>:
    99f8:	20 20 20 20 	desconhecido
    99fc:	20 20 20 20 	desconhecido
    9a00:	20 20 20 20 	desconhecido
    9a04:	20 20 20 20 	desconhecido

00009a08 <zeroes.1>:
    9a08:	30 30 30 30 	desconhecido
    9a0c:	30 30 30 30 	desconhecido
    9a10:	30 30 30 30 	desconhecido
    9a14:	30 30 30 30 	desconhecido
    9a18:	62 75 67 20 	call  89d63698 <LEON_REG+0x9d63698>
    9a1c:	69 6e 20 76 	call  a5b91bf4 <LEON_REG+0x25b91bf4>
    9a20:	66 70 72 69 	call  99c263c4 <LEON_REG+0x19c263c4>
    9a24:	6e 74 66 3a 	call  b9d2330c <LEON_REG+0x39d2330c>
    9a28:	20 62 61 64 	desconhecido
    9a2c:	20 62 61 73 	desconhecido
    9a30:	65 00 00 00 	call  94009a30 <LEON_REG+0x14009a30>
    9a34:	00 00 00 00 	unimp  0
    9a38:	30 00 00 00 	desconhecido
    9a3c:	00 00 00 00 	unimp  0
    9a40:	2e 00 00 00 	desconhecido
    9a44:	00 00 00 00 	unimp  0
    9a48:	30 31 32 33 	desconhecido
    9a4c:	34 35 36 37 	desconhecido
    9a50:	38 39 41 42 	desconhecido
    9a54:	43 44 45 46 	call  d11af6c <_RAM_SIZE+0xb11af6c>
    9a58:	00 00 00 00 	unimp  0
    9a5c:	00 00 00 00 	unimp  0
    9a60:	49 6e 66 00 	call  25ba3260 <_RAM_SIZE+0x23ba3260>
    9a64:	00 00 00 00 	unimp  0
    9a68:	4e 61 4e 00 	call  3985d268 <_RAM_SIZE+0x3785d268>
    9a6c:	00 00 00 00 	unimp  0
    9a70:	30 31 32 33 	desconhecido
    9a74:	34 35 36 37 	desconhecido
    9a78:	38 39 61 62 	desconhecido
    9a7c:	63 64 65 66 	call  8d923014 <LEON_REG+0xd923014>
    9a80:	00 00 00 00 	unimp  0
    9a84:	00 00 00 00 	unimp  0
    9a88:	28 6e 75 6c 	desconhecido
    9a8c:	6c 29 00 00 	call  b0a49a8c <LEON_REG+0x30a49a8c>
    9a90:	00 00 00 00 	unimp  0
    9a94:	00 00 00 00 	unimp  0
    9a98:	49 6e 66 69 	call  25ba343c <_RAM_SIZE+0x23ba343c>
    9a9c:	6e 69 74 79 	call  b9a66c80 <LEON_REG+0x39a66c80>
    9aa0:	00 00 00 00 	unimp  0
    9aa4:	00 00 00 00 	unimp  0
    9aa8:	41 f0 00 00 	call  7c09aa8 <_RAM_SIZE+0x5c09aa8>
    9aac:	00 00 00 00 	unimp  0
    9ab0:	3f f8 00 00 	cb012,a   ffe09ab0 <LEON_REG+0x7fe09ab0>
    9ab4:	00 00 00 00 	unimp  0
    9ab8:	3f d2 87 a7 	cb012,a   4ab954 <_PROM_SIZE+0x3ab954>
    9abc:	63 6f 43 61 	call  8dbda840 <LEON_REG+0xdbda840>
    9ac0:	3f c6 8a 28 	cb012,a   1ac360 <_PROM_SIZE+0xac360>
    9ac4:	8b 60 c8 b3 	desconhecido
    9ac8:	3f d3 44 13 	cb012,a   4dab14 <_PROM_SIZE+0x3dab14>
    9acc:	50 9f 79 fb 	call  427e82b8 <_RAM_SIZE+0x407e82b8>
    9ad0:	3f f0 00 00 	cb012,a   ffc09ad0 <LEON_REG+0x7fc09ad0>
    9ad4:	00 00 00 00 	unimp  0
    9ad8:	40 24 00 00 	call  909ad8 <AC_RAM_END+0x409ad8>
    9adc:	00 00 00 00 	unimp  0
    9ae0:	40 1c 00 00 	call  709ae0 <AC_RAM_END+0x209ae0>
    9ae4:	00 00 00 00 	unimp  0
    9ae8:	40 14 00 00 	call  509ae8 <AC_RAM_END+0x9ae8>
    9aec:	00 00 00 00 	unimp  0
    9af0:	3f e0 00 00 	cb012,a   ff809af0 <LEON_REG+0x7f809af0>
    9af4:	00 00 00 00 	unimp  0
	...
    9b00:	49 53 4f 2d 	call  254dd7b4 <_RAM_SIZE+0x234dd7b4>
    9b04:	38 38 35 39 	desconhecido
    9b08:	2d 31 00 00 	sethi  %hi(0xc4000000), %l6

00009b0c <lconv>:
    9b0c:	00 00 9a 40 	unimp  0x9a40
    9b10:	00 00 9a f8 	unimp  0x9af8
    9b14:	00 00 9a f8 	unimp  0x9af8
    9b18:	00 00 9a f8 	unimp  0x9af8
    9b1c:	00 00 9a f8 	unimp  0x9af8
    9b20:	00 00 9a f8 	unimp  0x9af8
    9b24:	00 00 9a f8 	unimp  0x9af8
    9b28:	00 00 9a f8 	unimp  0x9af8
    9b2c:	00 00 9a f8 	unimp  0x9af8
    9b30:	00 00 9a f8 	unimp  0x9af8
    9b34:	7f 7f 7f 7f 	call  fdfe9930 <LEON_REG+0x7dfe9930>
    9b38:	7f 7f 7f 7f 	call  fdfe9934 <LEON_REG+0x7dfe9934>
    9b3c:	00 00 00 00 	unimp  0

00009b40 <p05.0>:
    9b40:	00 00 00 05 	unimp  0x5
    9b44:	00 00 00 19 	unimp  0x19
    9b48:	00 00 00 7d 	unimp  0x7d
    9b4c:	00 00 00 00 	unimp  0

00009b50 <__mprec_tens>:
    9b50:	3f f0 00 00 	cb012,a   ffc09b50 <LEON_REG+0x7fc09b50>
    9b54:	00 00 00 00 	unimp  0
    9b58:	40 24 00 00 	call  909b58 <AC_RAM_END+0x409b58>
    9b5c:	00 00 00 00 	unimp  0
    9b60:	40 59 00 00 	call  1649b60 <AC_RAM_END+0x1149b60>
    9b64:	00 00 00 00 	unimp  0
    9b68:	40 8f 40 00 	call  23d9b68 <_RAM_SIZE+0x3d9b68>
    9b6c:	00 00 00 00 	unimp  0
    9b70:	40 c3 88 00 	call  30ebb70 <_RAM_SIZE+0x10ebb70>
    9b74:	00 00 00 00 	unimp  0
    9b78:	40 f8 6a 00 	call  3e24378 <_RAM_SIZE+0x1e24378>
    9b7c:	00 00 00 00 	unimp  0
    9b80:	41 2e 84 80 	call  4baad80 <_RAM_SIZE+0x2baad80>
    9b84:	00 00 00 00 	unimp  0
    9b88:	41 63 12 d0 	call  58ce6c8 <_RAM_SIZE+0x38ce6c8>
    9b8c:	00 00 00 00 	unimp  0
    9b90:	41 97 d7 84 	call  65ff9a0 <_RAM_SIZE+0x45ff9a0>
    9b94:	00 00 00 00 	unimp  0
    9b98:	41 cd cd 65 	call  737d12c <_RAM_SIZE+0x537d12c>
    9b9c:	00 00 00 00 	unimp  0
    9ba0:	42 02 a0 5f 	call  80b1d1c <_RAM_SIZE+0x60b1d1c>
    9ba4:	20 00 00 00 	desconhecido
    9ba8:	42 37 48 76 	call  8ddbd80 <_RAM_SIZE+0x6ddbd80>
    9bac:	e8 00 00 00 	ld  [ %g0 ], %l4
    9bb0:	42 6d 1a 94 	call  9b50600 <_RAM_SIZE+0x7b50600>
    9bb4:	a2 00 00 00 	add  %g0, %g0, %l1
    9bb8:	42 a2 30 9c 	call  a895e28 <_RAM_SIZE+0x8895e28>
    9bbc:	e5 40 00 00 	desconhecido
    9bc0:	42 d6 bc c4 	call  b5b8ed0 <_RAM_SIZE+0x95b8ed0>
    9bc4:	1e 90 00 00 	bvc  409bc4 <_PROM_SIZE+0x309bc4>
    9bc8:	43 0c 6b f5 	call  c324b9c <_RAM_SIZE+0xa324b9c>
    9bcc:	26 34 00 00 	desconhecido
    9bd0:	43 41 c3 79 	call  d07a9b4 <_RAM_SIZE+0xb07a9b4>
    9bd4:	37 e0 80 00 	cb02,a   ff829bd4 <LEON_REG+0x7f829bd4>
    9bd8:	43 76 34 57 	call  dd96d34 <_RAM_SIZE+0xbd96d34>
    9bdc:	85 d8 a0 00 	flush  %g2
    9be0:	43 ab c1 6d 	call  eafa194 <_RAM_SIZE+0xcafa194>
    9be4:	67 4e c8 00 	call  9d3bbbe4 <LEON_REG+0x1d3bbbe4>
    9be8:	43 e1 58 e4 	call  f85ff78 <_RAM_SIZE+0xd85ff78>
    9bec:	60 91 3d 00 	call  82458fec <LEON_REG+0x2458fec>
    9bf0:	44 15 af 1d 	call  10575864 <_RAM_SIZE+0xe575864>
    9bf4:	78 b5 8c 40 	call  e2d6ccf4 <LEON_REG+0x62d6ccf4>
    9bf8:	44 4b 1a e4 	call  112d0788 <_RAM_SIZE+0xf2d0788>
    9bfc:	d6 e2 ef 50 	desconhecido
    9c00:	44 80 f0 cf 	call  12045f3c <_RAM_SIZE+0x10045f3c>
    9c04:	06 4d d5 92 	desconhecido
    9c08:	44 b5 2d 02 	call  12d55010 <_RAM_SIZE+0x10d55010>
    9c0c:	c7 e1 4a f6 	desconhecido
    9c10:	44 ea 78 43 	call  13aa7d1c <_RAM_SIZE+0x11aa7d1c>
    9c14:	79 d9 9d b4 	call  e76712e4 <LEON_REG+0x676712e4>

00009c18 <__mprec_bigtens>:
    9c18:	43 41 c3 79 	call  d07a9fc <_RAM_SIZE+0xb07a9fc>
    9c1c:	37 e0 80 00 	cb02,a   ff829c1c <LEON_REG+0x7f829c1c>
    9c20:	46 93 b8 b5 	call  1a4f7ef4 <_RAM_SIZE+0x184f7ef4>
    9c24:	b5 05 6e 17 	taddcc  %l5, 0xe17, %i2
    9c28:	4d 38 4f 03 	call  34e1d834 <_RAM_SIZE+0x32e1d834>
    9c2c:	e9 3f f9 f5 	std  %f20, [ %i7 + -1547 ]
    9c30:	5a 82 77 48 	call  6a0a7950 <_RAM_SIZE+0x680a7950>
    9c34:	f9 30 1d 32 	desconhecido
    9c38:	75 15 4f dd 	call  d455dbac <LEON_REG+0x5455dbac>
    9c3c:	7f 73 bf 3c 	call  fdcf992c <LEON_REG+0x7dcf992c>

00009c40 <__mprec_tinytens>:
    9c40:	3c 9c d2 b2 	bpos,a   73e708 <AC_RAM_END+0x23e708>
    9c44:	97 d8 89 bc 	desconhecido
    9c48:	39 49 f6 23 	desconhecido
    9c4c:	d5 a8 a7 33 	st  %csr, [ %g2 + 0x733 ]
    9c50:	32 a5 0f fd 	bne,a   ff94dc44 <LEON_REG+0x7f94dc44>
    9c54:	44 f4 a7 3d 	call  13d33948 <_RAM_SIZE+0x11d33948>
    9c58:	25 5b ba 08 	desconhecido
    9c5c:	cf 8c 97 9d 	ld  [ %l2 + %i5 ], %csr
    9c60:	0a c8 06 28 	desconhecido
    9c64:	64 ac 6f 43 	call  92b25970 <LEON_REG+0x12b25970>
    9c68:	00 00 00 00 	unimp  0
	...
    9c78:	c1 e0 00 00 	desconhecido
    9c7c:	00 00 00 00 	unimp  0

00009c80 <__thenan_df>:
	...

00009c98 <__clz_tab>:
    9c98:	00 01 02 02 	unimp  0x10202
    9c9c:	03 03 03 03 	sethi  %hi(0xc0c0c00), %g1
    9ca0:	04 04 04 04 	desconhecido
    9ca4:	04 04 04 04 	desconhecido
    9ca8:	05 05 05 05 	sethi  %hi(0x14141400), %g2
    9cac:	05 05 05 05 	sethi  %hi(0x14141400), %g2
    9cb0:	05 05 05 05 	sethi  %hi(0x14141400), %g2
    9cb4:	05 05 05 05 	sethi  %hi(0x14141400), %g2
    9cb8:	06 06 06 06 	desconhecido
    9cbc:	06 06 06 06 	desconhecido
    9cc0:	06 06 06 06 	desconhecido
    9cc4:	06 06 06 06 	desconhecido
    9cc8:	06 06 06 06 	desconhecido
    9ccc:	06 06 06 06 	desconhecido
    9cd0:	06 06 06 06 	desconhecido
    9cd4:	06 06 06 06 	desconhecido
    9cd8:	07 07 07 07 	sethi  %hi(0x1c1c1c00), %g3
    9cdc:	07 07 07 07 	sethi  %hi(0x1c1c1c00), %g3
    9ce0:	07 07 07 07 	sethi  %hi(0x1c1c1c00), %g3
    9ce4:	07 07 07 07 	sethi  %hi(0x1c1c1c00), %g3
    9ce8:	07 07 07 07 	sethi  %hi(0x1c1c1c00), %g3
    9cec:	07 07 07 07 	sethi  %hi(0x1c1c1c00), %g3
    9cf0:	07 07 07 07 	sethi  %hi(0x1c1c1c00), %g3
    9cf4:	07 07 07 07 	sethi  %hi(0x1c1c1c00), %g3
    9cf8:	07 07 07 07 	sethi  %hi(0x1c1c1c00), %g3
    9cfc:	07 07 07 07 	sethi  %hi(0x1c1c1c00), %g3
    9d00:	07 07 07 07 	sethi  %hi(0x1c1c1c00), %g3
    9d04:	07 07 07 07 	sethi  %hi(0x1c1c1c00), %g3
    9d08:	07 07 07 07 	sethi  %hi(0x1c1c1c00), %g3
    9d0c:	07 07 07 07 	sethi  %hi(0x1c1c1c00), %g3
    9d10:	07 07 07 07 	sethi  %hi(0x1c1c1c00), %g3
    9d14:	07 07 07 07 	sethi  %hi(0x1c1c1c00), %g3
    9d18:	08 08 08 08 	desconhecido
    9d1c:	08 08 08 08 	desconhecido
    9d20:	08 08 08 08 	desconhecido
    9d24:	08 08 08 08 	desconhecido
    9d28:	08 08 08 08 	desconhecido
    9d2c:	08 08 08 08 	desconhecido
    9d30:	08 08 08 08 	desconhecido
    9d34:	08 08 08 08 	desconhecido
    9d38:	08 08 08 08 	desconhecido
    9d3c:	08 08 08 08 	desconhecido
    9d40:	08 08 08 08 	desconhecido
    9d44:	08 08 08 08 	desconhecido
    9d48:	08 08 08 08 	desconhecido
    9d4c:	08 08 08 08 	desconhecido
    9d50:	08 08 08 08 	desconhecido
    9d54:	08 08 08 08 	desconhecido
    9d58:	08 08 08 08 	desconhecido
    9d5c:	08 08 08 08 	desconhecido
    9d60:	08 08 08 08 	desconhecido
    9d64:	08 08 08 08 	desconhecido
    9d68:	08 08 08 08 	desconhecido
    9d6c:	08 08 08 08 	desconhecido
    9d70:	08 08 08 08 	desconhecido
    9d74:	08 08 08 08 	desconhecido
    9d78:	08 08 08 08 	desconhecido
    9d7c:	08 08 08 08 	desconhecido
    9d80:	08 08 08 08 	desconhecido
    9d84:	08 08 08 08 	desconhecido
    9d88:	08 08 08 08 	desconhecido
    9d8c:	08 08 08 08 	desconhecido
    9d90:	08 08 08 08 	desconhecido
    9d94:	08 08 08 08 	desconhecido

00009d98 <_data_start>:
    9d98:	20 00 00 00 	desconhecido
    9d9c:	00 00 00 00 	unimp  0

00009da0 <_erodata>:
    9da0:	00 00 00 00 	unimp  0
    9da4:	00 00 a0 08 	unimp  0xa008
    9da8:	00 00 a0 64 	unimp  0xa064
    9dac:	00 00 a0 c0 	unimp  0xa0c0
	...
    9dd4:	00 00 99 f0 	unimp  0x99f0
	...
    9e4c:	00 00 00 01 	unimp  0x1
    9e50:	33 0e ab cd 	sethi  %hi(0x3aaf3400), %i1
    9e54:	12 34 e6 6d 	desconhecido
    9e58:	de ec 00 05 	ldstuba  [ %l0 + %g5 ] (0), %o7
    9e5c:	00 0b 00 00 	unimp  0xb0000
	...

0000a120 <_impure_ptr>:
    a120:	00 00 9d a0 	unimp  0x9da0
    a124:	00 00 00 00 	unimp  0

0000a128 <__malloc_av_>:
	...
    a130:	00 00 a1 28 	unimp  0xa128
    a134:	00 00 a1 28 	unimp  0xa128
    a138:	00 00 a1 30 	unimp  0xa130
    a13c:	00 00 a1 30 	unimp  0xa130
    a140:	00 00 a1 38 	unimp  0xa138
    a144:	00 00 a1 38 	unimp  0xa138
    a148:	00 00 a1 40 	unimp  0xa140
    a14c:	00 00 a1 40 	unimp  0xa140
    a150:	00 00 a1 48 	unimp  0xa148
    a154:	00 00 a1 48 	unimp  0xa148
    a158:	00 00 a1 50 	unimp  0xa150
    a15c:	00 00 a1 50 	unimp  0xa150
    a160:	00 00 a1 58 	unimp  0xa158
    a164:	00 00 a1 58 	unimp  0xa158
    a168:	00 00 a1 60 	unimp  0xa160
    a16c:	00 00 a1 60 	unimp  0xa160
    a170:	00 00 a1 68 	unimp  0xa168
    a174:	00 00 a1 68 	unimp  0xa168
    a178:	00 00 a1 70 	unimp  0xa170
    a17c:	00 00 a1 70 	unimp  0xa170
    a180:	00 00 a1 78 	unimp  0xa178
    a184:	00 00 a1 78 	unimp  0xa178
    a188:	00 00 a1 80 	unimp  0xa180
    a18c:	00 00 a1 80 	unimp  0xa180
    a190:	00 00 a1 88 	unimp  0xa188
    a194:	00 00 a1 88 	unimp  0xa188
    a198:	00 00 a1 90 	unimp  0xa190
    a19c:	00 00 a1 90 	unimp  0xa190
    a1a0:	00 00 a1 98 	unimp  0xa198
    a1a4:	00 00 a1 98 	unimp  0xa198
    a1a8:	00 00 a1 a0 	unimp  0xa1a0
    a1ac:	00 00 a1 a0 	unimp  0xa1a0
    a1b0:	00 00 a1 a8 	unimp  0xa1a8
    a1b4:	00 00 a1 a8 	unimp  0xa1a8
    a1b8:	00 00 a1 b0 	unimp  0xa1b0
    a1bc:	00 00 a1 b0 	unimp  0xa1b0
    a1c0:	00 00 a1 b8 	unimp  0xa1b8
    a1c4:	00 00 a1 b8 	unimp  0xa1b8
    a1c8:	00 00 a1 c0 	unimp  0xa1c0
    a1cc:	00 00 a1 c0 	unimp  0xa1c0
    a1d0:	00 00 a1 c8 	unimp  0xa1c8
    a1d4:	00 00 a1 c8 	unimp  0xa1c8
    a1d8:	00 00 a1 d0 	unimp  0xa1d0
    a1dc:	00 00 a1 d0 	unimp  0xa1d0
    a1e0:	00 00 a1 d8 	unimp  0xa1d8
    a1e4:	00 00 a1 d8 	unimp  0xa1d8
    a1e8:	00 00 a1 e0 	unimp  0xa1e0
    a1ec:	00 00 a1 e0 	unimp  0xa1e0
    a1f0:	00 00 a1 e8 	unimp  0xa1e8
    a1f4:	00 00 a1 e8 	unimp  0xa1e8
    a1f8:	00 00 a1 f0 	unimp  0xa1f0
    a1fc:	00 00 a1 f0 	unimp  0xa1f0
    a200:	00 00 a1 f8 	unimp  0xa1f8
    a204:	00 00 a1 f8 	unimp  0xa1f8
    a208:	00 00 a2 00 	unimp  0xa200
    a20c:	00 00 a2 00 	unimp  0xa200
    a210:	00 00 a2 08 	unimp  0xa208
    a214:	00 00 a2 08 	unimp  0xa208
    a218:	00 00 a2 10 	unimp  0xa210
    a21c:	00 00 a2 10 	unimp  0xa210
    a220:	00 00 a2 18 	unimp  0xa218
    a224:	00 00 a2 18 	unimp  0xa218
    a228:	00 00 a2 20 	unimp  0xa220
    a22c:	00 00 a2 20 	unimp  0xa220
    a230:	00 00 a2 28 	unimp  0xa228
    a234:	00 00 a2 28 	unimp  0xa228
    a238:	00 00 a2 30 	unimp  0xa230
    a23c:	00 00 a2 30 	unimp  0xa230
    a240:	00 00 a2 38 	unimp  0xa238
    a244:	00 00 a2 38 	unimp  0xa238
    a248:	00 00 a2 40 	unimp  0xa240
    a24c:	00 00 a2 40 	unimp  0xa240
    a250:	00 00 a2 48 	unimp  0xa248
    a254:	00 00 a2 48 	unimp  0xa248
    a258:	00 00 a2 50 	unimp  0xa250
    a25c:	00 00 a2 50 	unimp  0xa250
    a260:	00 00 a2 58 	unimp  0xa258
    a264:	00 00 a2 58 	unimp  0xa258
    a268:	00 00 a2 60 	unimp  0xa260
    a26c:	00 00 a2 60 	unimp  0xa260
    a270:	00 00 a2 68 	unimp  0xa268
    a274:	00 00 a2 68 	unimp  0xa268
    a278:	00 00 a2 70 	unimp  0xa270
    a27c:	00 00 a2 70 	unimp  0xa270
    a280:	00 00 a2 78 	unimp  0xa278
    a284:	00 00 a2 78 	unimp  0xa278
    a288:	00 00 a2 80 	unimp  0xa280
    a28c:	00 00 a2 80 	unimp  0xa280
    a290:	00 00 a2 88 	unimp  0xa288
    a294:	00 00 a2 88 	unimp  0xa288
    a298:	00 00 a2 90 	unimp  0xa290
    a29c:	00 00 a2 90 	unimp  0xa290
    a2a0:	00 00 a2 98 	unimp  0xa298
    a2a4:	00 00 a2 98 	unimp  0xa298
    a2a8:	00 00 a2 a0 	unimp  0xa2a0
    a2ac:	00 00 a2 a0 	unimp  0xa2a0
    a2b0:	00 00 a2 a8 	unimp  0xa2a8
    a2b4:	00 00 a2 a8 	unimp  0xa2a8
    a2b8:	00 00 a2 b0 	unimp  0xa2b0
    a2bc:	00 00 a2 b0 	unimp  0xa2b0
    a2c0:	00 00 a2 b8 	unimp  0xa2b8
    a2c4:	00 00 a2 b8 	unimp  0xa2b8
    a2c8:	00 00 a2 c0 	unimp  0xa2c0
    a2cc:	00 00 a2 c0 	unimp  0xa2c0
    a2d0:	00 00 a2 c8 	unimp  0xa2c8
    a2d4:	00 00 a2 c8 	unimp  0xa2c8
    a2d8:	00 00 a2 d0 	unimp  0xa2d0
    a2dc:	00 00 a2 d0 	unimp  0xa2d0
    a2e0:	00 00 a2 d8 	unimp  0xa2d8
    a2e4:	00 00 a2 d8 	unimp  0xa2d8
    a2e8:	00 00 a2 e0 	unimp  0xa2e0
    a2ec:	00 00 a2 e0 	unimp  0xa2e0
    a2f0:	00 00 a2 e8 	unimp  0xa2e8
    a2f4:	00 00 a2 e8 	unimp  0xa2e8
    a2f8:	00 00 a2 f0 	unimp  0xa2f0
    a2fc:	00 00 a2 f0 	unimp  0xa2f0
    a300:	00 00 a2 f8 	unimp  0xa2f8
    a304:	00 00 a2 f8 	unimp  0xa2f8
    a308:	00 00 a3 00 	unimp  0xa300
    a30c:	00 00 a3 00 	unimp  0xa300
    a310:	00 00 a3 08 	unimp  0xa308
    a314:	00 00 a3 08 	unimp  0xa308
    a318:	00 00 a3 10 	unimp  0xa310
    a31c:	00 00 a3 10 	unimp  0xa310
    a320:	00 00 a3 18 	unimp  0xa318
    a324:	00 00 a3 18 	unimp  0xa318
    a328:	00 00 a3 20 	unimp  0xa320
    a32c:	00 00 a3 20 	unimp  0xa320
    a330:	00 00 a3 28 	unimp  0xa328
    a334:	00 00 a3 28 	unimp  0xa328
    a338:	00 00 a3 30 	unimp  0xa330
    a33c:	00 00 a3 30 	unimp  0xa330
    a340:	00 00 a3 38 	unimp  0xa338
    a344:	00 00 a3 38 	unimp  0xa338
    a348:	00 00 a3 40 	unimp  0xa340
    a34c:	00 00 a3 40 	unimp  0xa340
    a350:	00 00 a3 48 	unimp  0xa348
    a354:	00 00 a3 48 	unimp  0xa348
    a358:	00 00 a3 50 	unimp  0xa350
    a35c:	00 00 a3 50 	unimp  0xa350
    a360:	00 00 a3 58 	unimp  0xa358
    a364:	00 00 a3 58 	unimp  0xa358
    a368:	00 00 a3 60 	unimp  0xa360
    a36c:	00 00 a3 60 	unimp  0xa360
    a370:	00 00 a3 68 	unimp  0xa368
    a374:	00 00 a3 68 	unimp  0xa368
    a378:	00 00 a3 70 	unimp  0xa370
    a37c:	00 00 a3 70 	unimp  0xa370
    a380:	00 00 a3 78 	unimp  0xa378
    a384:	00 00 a3 78 	unimp  0xa378
    a388:	00 00 a3 80 	unimp  0xa380
    a38c:	00 00 a3 80 	unimp  0xa380
    a390:	00 00 a3 88 	unimp  0xa388
    a394:	00 00 a3 88 	unimp  0xa388
    a398:	00 00 a3 90 	unimp  0xa390
    a39c:	00 00 a3 90 	unimp  0xa390
    a3a0:	00 00 a3 98 	unimp  0xa398
    a3a4:	00 00 a3 98 	unimp  0xa398
    a3a8:	00 00 a3 a0 	unimp  0xa3a0
    a3ac:	00 00 a3 a0 	unimp  0xa3a0
    a3b0:	00 00 a3 a8 	unimp  0xa3a8
    a3b4:	00 00 a3 a8 	unimp  0xa3a8
    a3b8:	00 00 a3 b0 	unimp  0xa3b0
    a3bc:	00 00 a3 b0 	unimp  0xa3b0
    a3c0:	00 00 a3 b8 	unimp  0xa3b8
    a3c4:	00 00 a3 b8 	unimp  0xa3b8
    a3c8:	00 00 a3 c0 	unimp  0xa3c0
    a3cc:	00 00 a3 c0 	unimp  0xa3c0
    a3d0:	00 00 a3 c8 	unimp  0xa3c8
    a3d4:	00 00 a3 c8 	unimp  0xa3c8
    a3d8:	00 00 a3 d0 	unimp  0xa3d0
    a3dc:	00 00 a3 d0 	unimp  0xa3d0
    a3e0:	00 00 a3 d8 	unimp  0xa3d8
    a3e4:	00 00 a3 d8 	unimp  0xa3d8
    a3e8:	00 00 a3 e0 	unimp  0xa3e0
    a3ec:	00 00 a3 e0 	unimp  0xa3e0
    a3f0:	00 00 a3 e8 	unimp  0xa3e8
    a3f4:	00 00 a3 e8 	unimp  0xa3e8
    a3f8:	00 00 a3 f0 	unimp  0xa3f0
    a3fc:	00 00 a3 f0 	unimp  0xa3f0
    a400:	00 00 a3 f8 	unimp  0xa3f8
    a404:	00 00 a3 f8 	unimp  0xa3f8
    a408:	00 00 a4 00 	unimp  0xa400
    a40c:	00 00 a4 00 	unimp  0xa400
    a410:	00 00 a4 08 	unimp  0xa408
    a414:	00 00 a4 08 	unimp  0xa408
    a418:	00 00 a4 10 	unimp  0xa410
    a41c:	00 00 a4 10 	unimp  0xa410
    a420:	00 00 a4 18 	unimp  0xa418
    a424:	00 00 a4 18 	unimp  0xa418
    a428:	00 00 a4 20 	unimp  0xa420
    a42c:	00 00 a4 20 	unimp  0xa420
    a430:	00 00 a4 28 	unimp  0xa428
    a434:	00 00 a4 28 	unimp  0xa428
    a438:	00 00 a4 30 	unimp  0xa430
    a43c:	00 00 a4 30 	unimp  0xa430
    a440:	00 00 a4 38 	unimp  0xa438
    a444:	00 00 a4 38 	unimp  0xa438
    a448:	00 00 a4 40 	unimp  0xa440
    a44c:	00 00 a4 40 	unimp  0xa440
    a450:	00 00 a4 48 	unimp  0xa448
    a454:	00 00 a4 48 	unimp  0xa448
    a458:	00 00 a4 50 	unimp  0xa450
    a45c:	00 00 a4 50 	unimp  0xa450
    a460:	00 00 a4 58 	unimp  0xa458
    a464:	00 00 a4 58 	unimp  0xa458
    a468:	00 00 a4 60 	unimp  0xa460
    a46c:	00 00 a4 60 	unimp  0xa460
    a470:	00 00 a4 68 	unimp  0xa468
    a474:	00 00 a4 68 	unimp  0xa468
    a478:	00 00 a4 70 	unimp  0xa470
    a47c:	00 00 a4 70 	unimp  0xa470
    a480:	00 00 a4 78 	unimp  0xa478
    a484:	00 00 a4 78 	unimp  0xa478
    a488:	00 00 a4 80 	unimp  0xa480
    a48c:	00 00 a4 80 	unimp  0xa480
    a490:	00 00 a4 88 	unimp  0xa488
    a494:	00 00 a4 88 	unimp  0xa488
    a498:	00 00 a4 90 	unimp  0xa490
    a49c:	00 00 a4 90 	unimp  0xa490
    a4a0:	00 00 a4 98 	unimp  0xa498
    a4a4:	00 00 a4 98 	unimp  0xa498
    a4a8:	00 00 a4 a0 	unimp  0xa4a0
    a4ac:	00 00 a4 a0 	unimp  0xa4a0
    a4b0:	00 00 a4 a8 	unimp  0xa4a8
    a4b4:	00 00 a4 a8 	unimp  0xa4a8
    a4b8:	00 00 a4 b0 	unimp  0xa4b0
    a4bc:	00 00 a4 b0 	unimp  0xa4b0
    a4c0:	00 00 a4 b8 	unimp  0xa4b8
    a4c4:	00 00 a4 b8 	unimp  0xa4b8
    a4c8:	00 00 a4 c0 	unimp  0xa4c0
    a4cc:	00 00 a4 c0 	unimp  0xa4c0
    a4d0:	00 00 a4 c8 	unimp  0xa4c8
    a4d4:	00 00 a4 c8 	unimp  0xa4c8
    a4d8:	00 00 a4 d0 	unimp  0xa4d0
    a4dc:	00 00 a4 d0 	unimp  0xa4d0
    a4e0:	00 00 a4 d8 	unimp  0xa4d8
    a4e4:	00 00 a4 d8 	unimp  0xa4d8
    a4e8:	00 00 a4 e0 	unimp  0xa4e0
    a4ec:	00 00 a4 e0 	unimp  0xa4e0
    a4f0:	00 00 a4 e8 	unimp  0xa4e8
    a4f4:	00 00 a4 e8 	unimp  0xa4e8
    a4f8:	00 00 a4 f0 	unimp  0xa4f0
    a4fc:	00 00 a4 f0 	unimp  0xa4f0
    a500:	00 00 a4 f8 	unimp  0xa4f8
    a504:	00 00 a4 f8 	unimp  0xa4f8
    a508:	00 00 a5 00 	unimp  0xa500
    a50c:	00 00 a5 00 	unimp  0xa500
    a510:	00 00 a5 08 	unimp  0xa508
    a514:	00 00 a5 08 	unimp  0xa508
    a518:	00 00 a5 10 	unimp  0xa510
    a51c:	00 00 a5 10 	unimp  0xa510
    a520:	00 00 a5 18 	unimp  0xa518
    a524:	00 00 a5 18 	unimp  0xa518
    a528:	00 00 a5 20 	unimp  0xa520
    a52c:	00 00 a5 20 	unimp  0xa520

0000a530 <__malloc_trim_threshold>:
    a530:	00 02 00 00 	unimp  0x20000

0000a534 <__malloc_sbrk_base>:
    a534:	ff ff ff ff 	desconhecido

0000a538 <__mb_cur_max>:
    a538:	00 00 00 01 	unimp  0x1

0000a53c <charset>:
    a53c:	00 00 9b 00 	unimp  0x9b00

0000a540 <__lc_ctype>:
    a540:	43 00 00 00 	call  c00a540 <_RAM_SIZE+0xa00a540>
    a544:	00 00 00 00 	unimp  0
	...
