
hello_world_mutex.sparc.x: formato do arquivo elf32-sparc

Disassembly of section .text:

00000000 <_start>:
       0:	40 00 00 40 	call  100 <main>
       4:	01 00 00 00 	nop 
       8:	40 00 1d 9c 	call  7678 <_exit>
       c:	01 00 00 00 	nop 
	...

00000100 <main>:
     100:	9d e3 bf 90 	save  %sp, -112, %sp
     104:	f0 27 a0 44 	st  %i0, [ %fp + 0x44 ]
     108:	f2 27 a0 48 	st  %i1, [ %fp + 0x48 ]
     10c:	03 00 00 29 	sethi  %hi(0xa400), %g1
     110:	9a 10 61 a8 	or  %g1, 0x1a8, %o5	! a5a8 <procCounter>
     114:	03 00 00 25 	sethi  %hi(0x9400), %g1
     118:	90 10 62 b0 	or  %g1, 0x2b0, %o0	! 96b0 <__CTOR_END__>
     11c:	d2 03 40 00 	ld  [ %o5 ], %o1
     120:	40 00 06 8b 	call  1b4c <printf>
     124:	01 00 00 00 	nop 
     128:	03 00 00 27 	sethi  %hi(0x9c00), %g1
     12c:	82 10 61 98 	or  %g1, 0x198, %g1	! 9d98 <_data_start>
     130:	c2 00 40 00 	ld  [ %g1 ], %g1
     134:	c2 00 40 00 	ld  [ %g1 ], %g1
     138:	80 a0 60 00 	cmp  %g1, 0
     13c:	12 bf ff fb 	bne  128 <main+0x28>
     140:	01 00 00 00 	nop 
     144:	03 00 00 29 	sethi  %hi(0xa400), %g1
     148:	98 10 61 a8 	or  %g1, 0x1a8, %o4	! a5a8 <procCounter>
     14c:	c2 03 00 00 	ld  [ %o4 ], %g1
     150:	9a 10 00 01 	mov  %g1, %o5
     154:	da 27 bf f4 	st  %o5, [ %fp + -12 ]
     158:	82 00 60 01 	inc  %g1
     15c:	c2 23 00 00 	st  %g1, [ %o4 ]
     160:	03 00 00 29 	sethi  %hi(0xa400), %g1
     164:	9a 10 61 a8 	or  %g1, 0x1a8, %o5	! a5a8 <procCounter>
     168:	03 00 00 25 	sethi  %hi(0x9400), %g1
     16c:	90 10 62 c8 	or  %g1, 0x2c8, %o0	! 96c8 <__CTOR_END__+0x18>
     170:	d2 03 40 00 	ld  [ %o5 ], %o1
     174:	40 00 06 76 	call  1b4c <printf>
     178:	01 00 00 00 	nop 
     17c:	03 00 00 27 	sethi  %hi(0x9c00), %g1
     180:	82 10 61 98 	or  %g1, 0x198, %g1	! 9d98 <_data_start>
     184:	c2 00 40 00 	ld  [ %g1 ], %g1
     188:	c0 20 40 00 	clr  [ %g1 ]
     18c:	c2 07 bf f4 	ld  [ %fp + -12 ], %g1
     190:	80 a0 60 00 	cmp  %g1, 0
     194:	12 80 00 5a 	bne  2fc <main+0x1fc>
     198:	01 00 00 00 	nop 
     19c:	03 00 00 2a 	sethi  %hi(0xa800), %g1
     1a0:	9a 10 60 ec 	or  %g1, 0xec, %o5	! a8ec <pthread_n_workers>
     1a4:	82 10 20 01 	mov  1, %g1
     1a8:	c2 23 40 00 	st  %g1, [ %o5 ]
     1ac:	03 00 00 29 	sethi  %hi(0xa400), %g1
     1b0:	9a 10 61 bc 	or  %g1, 0x1bc, %o5	! a5bc <m_argc>
     1b4:	82 10 20 03 	mov  3, %g1
     1b8:	c2 23 40 00 	st  %g1, [ %o5 ]
     1bc:	03 00 00 29 	sethi  %hi(0xa400), %g1
     1c0:	9a 10 61 b0 	or  %g1, 0x1b0, %o5	! a5b0 <m_argv>
     1c4:	03 00 00 25 	sethi  %hi(0x9400), %g1
     1c8:	82 10 62 d8 	or  %g1, 0x2d8, %g1	! 96d8 <__CTOR_END__+0x28>
     1cc:	c2 23 60 04 	st  %g1, [ %o5 + 4 ]
     1d0:	03 00 00 29 	sethi  %hi(0xa400), %g1
     1d4:	9a 10 61 b0 	or  %g1, 0x1b0, %o5	! a5b0 <m_argv>
     1d8:	03 00 00 25 	sethi  %hi(0x9400), %g1
     1dc:	82 10 62 e0 	or  %g1, 0x2e0, %g1	! 96e0 <__CTOR_END__+0x30>
     1e0:	c2 23 60 08 	st  %g1, [ %o5 + 8 ]
     1e4:	40 00 02 2f 	call  aa0 <pthread_init>
     1e8:	01 00 00 00 	nop 
     1ec:	03 00 00 29 	sethi  %hi(0xa400), %g1
     1f0:	90 10 61 dc 	or  %g1, 0x1dc, %o0	! a5dc <mutex_print>
     1f4:	92 10 20 00 	clr  %o1
     1f8:	40 00 01 bf 	call  8f4 <pthread_mutex_init>
     1fc:	01 00 00 00 	nop 
     200:	03 00 00 29 	sethi  %hi(0xa400), %g1
     204:	90 10 61 dc 	or  %g1, 0x1dc, %o0	! a5dc <mutex_print>
     208:	40 00 01 cd 	call  93c <pthread_mutex_lock>
     20c:	01 00 00 00 	nop 
     210:	03 00 00 25 	sethi  %hi(0x9400), %g1
     214:	90 10 62 e8 	or  %g1, 0x2e8, %o0	! 96e8 <__CTOR_END__+0x38>
     218:	40 00 06 4d 	call  1b4c <printf>
     21c:	01 00 00 00 	nop 
     220:	03 00 00 25 	sethi  %hi(0x9400), %g1
     224:	90 10 62 e8 	or  %g1, 0x2e8, %o0	! 96e8 <__CTOR_END__+0x38>
     228:	40 00 06 49 	call  1b4c <printf>
     22c:	01 00 00 00 	nop 
     230:	03 00 00 25 	sethi  %hi(0x9400), %g1
     234:	90 10 62 f0 	or  %g1, 0x2f0, %o0	! 96f0 <__CTOR_END__+0x40>
     238:	40 00 06 45 	call  1b4c <printf>
     23c:	01 00 00 00 	nop 
     240:	03 00 00 25 	sethi  %hi(0x9400), %g1
     244:	90 10 63 38 	or  %g1, 0x338, %o0	! 9738 <__CTOR_END__+0x88>
     248:	40 00 06 41 	call  1b4c <printf>
     24c:	01 00 00 00 	nop 
     250:	03 00 00 25 	sethi  %hi(0x9400), %g1
     254:	90 10 63 80 	or  %g1, 0x380, %o0	! 9780 <__CTOR_END__+0xd0>
     258:	40 00 06 3d 	call  1b4c <printf>
     25c:	01 00 00 00 	nop 
     260:	03 00 00 25 	sethi  %hi(0x9400), %g1
     264:	90 10 63 c8 	or  %g1, 0x3c8, %o0	! 97c8 <__CTOR_END__+0x118>
     268:	40 00 06 39 	call  1b4c <printf>
     26c:	01 00 00 00 	nop 
     270:	03 00 00 26 	sethi  %hi(0x9800), %g1
     274:	90 10 60 10 	or  %g1, 0x10, %o0	! 9810 <__CTOR_END__+0x160>
     278:	40 00 06 35 	call  1b4c <printf>
     27c:	01 00 00 00 	nop 
     280:	03 00 00 25 	sethi  %hi(0x9400), %g1
     284:	90 10 62 f0 	or  %g1, 0x2f0, %o0	! 96f0 <__CTOR_END__+0x40>
     288:	40 00 06 31 	call  1b4c <printf>
     28c:	01 00 00 00 	nop 
     290:	03 00 00 25 	sethi  %hi(0x9400), %g1
     294:	90 10 62 e8 	or  %g1, 0x2e8, %o0	! 96e8 <__CTOR_END__+0x38>
     298:	40 00 06 2d 	call  1b4c <printf>
     29c:	01 00 00 00 	nop 
     2a0:	03 00 00 29 	sethi  %hi(0xa400), %g1
     2a4:	90 10 61 dc 	or  %g1, 0x1dc, %o0	! a5dc <mutex_print>
     2a8:	40 00 01 d2 	call  9f0 <pthread_mutex_unlock>
     2ac:	01 00 00 00 	nop 
     2b0:	03 00 00 27 	sethi  %hi(0x9c00), %g1
     2b4:	82 10 61 98 	or  %g1, 0x198, %g1	! 9d98 <_data_start>
     2b8:	c2 00 40 00 	ld  [ %g1 ], %g1
     2bc:	c2 00 40 00 	ld  [ %g1 ], %g1
     2c0:	80 a0 60 00 	cmp  %g1, 0
     2c4:	12 bf ff fb 	bne  2b0 <main+0x1b0>
     2c8:	01 00 00 00 	nop 
     2cc:	03 00 00 29 	sethi  %hi(0xa400), %g1
     2d0:	9a 10 61 50 	or  %g1, 0x150, %o5	! a550 <_edata>
     2d4:	82 10 20 01 	mov  1, %g1
     2d8:	c2 23 40 00 	st  %g1, [ %o5 ]
     2dc:	03 00 00 27 	sethi  %hi(0x9c00), %g1
     2e0:	82 10 61 98 	or  %g1, 0x198, %g1	! 9d98 <_data_start>
     2e4:	c2 00 40 00 	ld  [ %g1 ], %g1
     2e8:	c0 20 40 00 	clr  [ %g1 ]
     2ec:	40 00 01 06 	call  704 <pthread_my_exit>
     2f0:	01 00 00 00 	nop 
     2f4:	10 80 00 0f 	b  330 <main+0x230>
     2f8:	01 00 00 00 	nop 
     2fc:	03 00 00 29 	sethi  %hi(0xa400), %g1
     300:	90 10 61 dc 	or  %g1, 0x1dc, %o0	! a5dc <mutex_print>
     304:	40 00 01 8e 	call  93c <pthread_mutex_lock>
     308:	01 00 00 00 	nop 
     30c:	03 00 00 26 	sethi  %hi(0x9800), %g1
     310:	90 10 60 58 	or  %g1, 0x58, %o0	! 9858 <__CTOR_END__+0x1a8>
     314:	d2 07 bf f4 	ld  [ %fp + -12 ], %o1
     318:	40 00 06 0d 	call  1b4c <printf>
     31c:	01 00 00 00 	nop 
     320:	03 00 00 29 	sethi  %hi(0xa400), %g1
     324:	90 10 61 dc 	or  %g1, 0x1dc, %o0	! a5dc <mutex_print>
     328:	40 00 01 b2 	call  9f0 <pthread_mutex_unlock>
     32c:	01 00 00 00 	nop 
     330:	90 10 20 00 	clr  %o0	! 0 <__DYNAMIC>
     334:	40 00 1c d1 	call  7678 <_exit>
     338:	01 00 00 00 	nop 
     33c:	01 00 00 00 	nop 

00000340 <initNode>:
     340:	9d e3 bf 98 	save  %sp, -104, %sp
     344:	f8 07 a0 40 	ld  [ %fp + 0x40 ], %i4
     348:	f0 27 a0 44 	st  %i0, [ %fp + 0x44 ]
     34c:	f2 27 a0 48 	st  %i1, [ %fp + 0x48 ]
     350:	f4 27 a0 4c 	st  %i2, [ %fp + 0x4c ]
     354:	fa 07 a0 44 	ld  [ %fp + 0x44 ], %i5
     358:	c2 07 a0 4c 	ld  [ %fp + 0x4c ], %g1
     35c:	c2 27 60 04 	st  %g1, [ %i5 + 4 ]
     360:	fa 07 a0 44 	ld  [ %fp + 0x44 ], %i5
     364:	c2 07 a0 48 	ld  [ %fp + 0x48 ], %g1
     368:	c2 27 40 00 	st  %g1, [ %i5 ]
     36c:	b0 10 00 1c 	mov  %i4, %i0
     370:	81 c7 e0 0c 	jmp  %i7 + 0xc
     374:	81 e8 00 00 	restore 

00000378 <initQueue>:
     378:	9d e3 bf 98 	save  %sp, -104, %sp
     37c:	f0 27 a0 44 	st  %i0, [ %fp + 0x44 ]
     380:	03 00 00 27 	sethi  %hi(0x9c00), %g1
     384:	82 10 61 98 	or  %g1, 0x198, %g1	! 9d98 <_data_start>
     388:	c2 00 40 00 	ld  [ %g1 ], %g1
     38c:	c2 00 40 00 	ld  [ %g1 ], %g1
     390:	80 a0 60 00 	cmp  %g1, 0
     394:	12 bf ff fb 	bne  380 <initQueue+0x8>
     398:	01 00 00 00 	nop 
     39c:	fa 07 a0 44 	ld  [ %fp + 0x44 ], %i5
     3a0:	82 10 3f ff 	mov  -1, %g1
     3a4:	c2 27 40 00 	st  %g1, [ %i5 ]
     3a8:	fa 07 a0 44 	ld  [ %fp + 0x44 ], %i5
     3ac:	82 10 3f ff 	mov  -1, %g1
     3b0:	c2 27 60 04 	st  %g1, [ %i5 + 4 ]
     3b4:	c2 07 a0 44 	ld  [ %fp + 0x44 ], %g1
     3b8:	c0 20 63 08 	clr  [ %g1 + 0x308 ]
     3bc:	03 00 00 27 	sethi  %hi(0x9c00), %g1
     3c0:	82 10 61 98 	or  %g1, 0x198, %g1	! 9d98 <_data_start>
     3c4:	c2 00 40 00 	ld  [ %g1 ], %g1
     3c8:	c0 20 40 00 	clr  [ %g1 ]
     3cc:	81 c7 e0 08 	ret 
     3d0:	81 e8 00 00 	restore 

000003d4 <printQueue>:
     3d4:	9d e3 bf 90 	save  %sp, -112, %sp
     3d8:	f0 27 a0 44 	st  %i0, [ %fp + 0x44 ]
     3dc:	03 00 00 29 	sethi  %hi(0xa400), %g1
     3e0:	90 10 61 dc 	or  %g1, 0x1dc, %o0	! a5dc <mutex_print>
     3e4:	40 00 01 56 	call  93c <pthread_mutex_lock>
     3e8:	01 00 00 00 	nop 
     3ec:	03 00 00 26 	sethi  %hi(0x9800), %g1
     3f0:	90 10 60 68 	or  %g1, 0x68, %o0	! 9868 <__CTOR_END__+0x1b8>
     3f4:	40 00 05 d6 	call  1b4c <printf>
     3f8:	01 00 00 00 	nop 
     3fc:	da 07 a0 44 	ld  [ %fp + 0x44 ], %o5
     400:	03 00 00 26 	sethi  %hi(0x9800), %g1
     404:	90 10 60 80 	or  %g1, 0x80, %o0	! 9880 <__CTOR_END__+0x1d0>
     408:	d2 03 63 08 	ld  [ %o5 + 0x308 ], %o1
     40c:	40 00 05 d0 	call  1b4c <printf>
     410:	01 00 00 00 	nop 
     414:	da 07 a0 44 	ld  [ %fp + 0x44 ], %o5
     418:	03 00 00 26 	sethi  %hi(0x9800), %g1
     41c:	90 10 60 98 	or  %g1, 0x98, %o0	! 9898 <__CTOR_END__+0x1e8>
     420:	d2 03 40 00 	ld  [ %o5 ], %o1
     424:	40 00 05 ca 	call  1b4c <printf>
     428:	01 00 00 00 	nop 
     42c:	da 07 a0 44 	ld  [ %fp + 0x44 ], %o5
     430:	03 00 00 26 	sethi  %hi(0x9800), %g1
     434:	90 10 60 a8 	or  %g1, 0xa8, %o0	! 98a8 <__CTOR_END__+0x1f8>
     438:	d2 03 60 04 	ld  [ %o5 + 4 ], %o1
     43c:	40 00 05 c4 	call  1b4c <printf>
     440:	01 00 00 00 	nop 
     444:	03 00 00 29 	sethi  %hi(0xa400), %g1
     448:	90 10 61 dc 	or  %g1, 0x1dc, %o0	! a5dc <mutex_print>
     44c:	40 00 01 69 	call  9f0 <pthread_mutex_unlock>
     450:	01 00 00 00 	nop 
     454:	01 00 00 00 	nop 
     458:	81 c7 e0 08 	ret 
     45c:	81 e8 00 00 	restore 

00000460 <isEmpty>:
     460:	9d e3 bf 90 	save  %sp, -112, %sp
     464:	f0 27 a0 44 	st  %i0, [ %fp + 0x44 ]
     468:	c2 07 a0 44 	ld  [ %fp + 0x44 ], %g1
     46c:	c2 00 63 08 	ld  [ %g1 + 0x308 ], %g1
     470:	80 a0 60 00 	cmp  %g1, 0
     474:	12 80 00 06 	bne  48c <isEmpty+0x2c>
     478:	01 00 00 00 	nop 
     47c:	82 10 20 01 	mov  1, %g1	! 1 <__DYNAMIC+0x1>
     480:	c2 27 bf f4 	st  %g1, [ %fp + -12 ]
     484:	10 80 00 03 	b  490 <isEmpty+0x30>
     488:	01 00 00 00 	nop 
     48c:	c0 27 bf f4 	clr  [ %fp + -12 ]
     490:	f0 07 bf f4 	ld  [ %fp + -12 ], %i0
     494:	81 c7 e0 08 	ret 
     498:	81 e8 00 00 	restore 

0000049c <enqueue>:
     49c:	9d e3 bf 98 	save  %sp, -104, %sp
     4a0:	f0 27 a0 44 	st  %i0, [ %fp + 0x44 ]
     4a4:	f2 27 a0 48 	st  %i1, [ %fp + 0x48 ]
     4a8:	d0 07 a0 44 	ld  [ %fp + 0x44 ], %o0
     4ac:	7f ff ff ed 	call  460 <isEmpty>
     4b0:	01 00 00 00 	nop 
     4b4:	82 10 00 08 	mov  %o0, %g1
     4b8:	80 a0 60 00 	cmp  %g1, 0
     4bc:	02 80 00 1d 	be  530 <enqueue+0x94>
     4c0:	01 00 00 00 	nop 
     4c4:	da 07 a0 44 	ld  [ %fp + 0x44 ], %o5
     4c8:	c2 07 a0 44 	ld  [ %fp + 0x44 ], %g1
     4cc:	c2 00 40 00 	ld  [ %g1 ], %g1
     4d0:	82 00 60 01 	inc  %g1
     4d4:	c2 23 40 00 	st  %g1, [ %o5 ]
     4d8:	da 07 a0 44 	ld  [ %fp + 0x44 ], %o5
     4dc:	c2 07 a0 44 	ld  [ %fp + 0x44 ], %g1
     4e0:	c2 00 60 04 	ld  [ %g1 + 4 ], %g1
     4e4:	82 00 60 01 	inc  %g1
     4e8:	c2 23 60 04 	st  %g1, [ %o5 + 4 ]
     4ec:	d8 07 a0 44 	ld  [ %fp + 0x44 ], %o4
     4f0:	c2 07 a0 44 	ld  [ %fp + 0x44 ], %g1
     4f4:	da 00 60 04 	ld  [ %g1 + 4 ], %o5
     4f8:	82 10 00 0d 	mov  %o5, %g1
     4fc:	82 00 40 01 	add  %g1, %g1, %g1
     500:	82 00 40 0d 	add  %g1, %o5, %g1
     504:	83 28 60 02 	sll  %g1, 2, %g1
     508:	98 00 40 0c 	add  %g1, %o4, %o4
     50c:	da 07 a0 48 	ld  [ %fp + 0x48 ], %o5
     510:	c2 03 40 00 	ld  [ %o5 ], %g1
     514:	c2 23 20 08 	st  %g1, [ %o4 + 8 ]
     518:	c2 03 60 04 	ld  [ %o5 + 4 ], %g1
     51c:	c2 23 20 0c 	st  %g1, [ %o4 + 0xc ]
     520:	c2 03 60 08 	ld  [ %o5 + 8 ], %g1
     524:	c2 23 20 10 	st  %g1, [ %o4 + 0x10 ]
     528:	10 80 00 16 	b  580 <enqueue+0xe4>
     52c:	01 00 00 00 	nop 
     530:	da 07 a0 44 	ld  [ %fp + 0x44 ], %o5
     534:	c2 07 a0 44 	ld  [ %fp + 0x44 ], %g1
     538:	c2 00 60 04 	ld  [ %g1 + 4 ], %g1
     53c:	82 00 60 01 	inc  %g1
     540:	c2 23 60 04 	st  %g1, [ %o5 + 4 ]
     544:	d8 07 a0 44 	ld  [ %fp + 0x44 ], %o4
     548:	c2 07 a0 44 	ld  [ %fp + 0x44 ], %g1
     54c:	da 00 60 04 	ld  [ %g1 + 4 ], %o5
     550:	82 10 00 0d 	mov  %o5, %g1
     554:	82 00 40 01 	add  %g1, %g1, %g1
     558:	82 00 40 0d 	add  %g1, %o5, %g1
     55c:	83 28 60 02 	sll  %g1, 2, %g1
     560:	98 00 40 0c 	add  %g1, %o4, %o4
     564:	da 07 a0 48 	ld  [ %fp + 0x48 ], %o5
     568:	c2 03 40 00 	ld  [ %o5 ], %g1
     56c:	c2 23 20 08 	st  %g1, [ %o4 + 8 ]
     570:	c2 03 60 04 	ld  [ %o5 + 4 ], %g1
     574:	c2 23 20 0c 	st  %g1, [ %o4 + 0xc ]
     578:	c2 03 60 08 	ld  [ %o5 + 8 ], %g1
     57c:	c2 23 20 10 	st  %g1, [ %o4 + 0x10 ]
     580:	da 07 a0 44 	ld  [ %fp + 0x44 ], %o5
     584:	c2 07 a0 44 	ld  [ %fp + 0x44 ], %g1
     588:	c2 00 63 08 	ld  [ %g1 + 0x308 ], %g1
     58c:	82 00 60 01 	inc  %g1
     590:	c2 23 63 08 	st  %g1, [ %o5 + 0x308 ]
     594:	81 c7 e0 08 	ret 
     598:	81 e8 00 00 	restore 

0000059c <dequeue>:
     59c:	9d e3 bf 90 	save  %sp, -112, %sp
     5a0:	f0 27 a0 44 	st  %i0, [ %fp + 0x44 ]
     5a4:	d0 07 a0 44 	ld  [ %fp + 0x44 ], %o0
     5a8:	7f ff ff ae 	call  460 <isEmpty>
     5ac:	01 00 00 00 	nop 
     5b0:	82 10 00 08 	mov  %o0, %g1
     5b4:	80 a0 60 00 	cmp  %g1, 0
     5b8:	12 80 00 29 	bne  65c <dequeue+0xc0>
     5bc:	01 00 00 00 	nop 
     5c0:	c2 07 a0 44 	ld  [ %fp + 0x44 ], %g1
     5c4:	c2 00 40 00 	ld  [ %g1 ], %g1
     5c8:	c2 27 bf f4 	st  %g1, [ %fp + -12 ]
     5cc:	c2 07 a0 44 	ld  [ %fp + 0x44 ], %g1
     5d0:	da 07 a0 44 	ld  [ %fp + 0x44 ], %o5
     5d4:	d8 00 40 00 	ld  [ %g1 ], %o4
     5d8:	c2 03 60 04 	ld  [ %o5 + 4 ], %g1
     5dc:	80 a3 00 01 	cmp  %o4, %g1
     5e0:	12 80 00 0a 	bne  608 <dequeue+0x6c>
     5e4:	01 00 00 00 	nop 
     5e8:	d8 07 a0 44 	ld  [ %fp + 0x44 ], %o4
     5ec:	da 07 a0 44 	ld  [ %fp + 0x44 ], %o5
     5f0:	82 10 3f ff 	mov  -1, %g1
     5f4:	c2 23 60 04 	st  %g1, [ %o5 + 4 ]
     5f8:	82 10 3f ff 	mov  -1, %g1
     5fc:	c2 23 00 00 	st  %g1, [ %o4 ]
     600:	10 80 00 07 	b  61c <dequeue+0x80>
     604:	01 00 00 00 	nop 
     608:	da 07 a0 44 	ld  [ %fp + 0x44 ], %o5
     60c:	c2 07 a0 44 	ld  [ %fp + 0x44 ], %g1
     610:	c2 00 40 00 	ld  [ %g1 ], %g1
     614:	82 00 60 01 	inc  %g1
     618:	c2 23 40 00 	st  %g1, [ %o5 ]
     61c:	da 07 a0 44 	ld  [ %fp + 0x44 ], %o5
     620:	c2 07 a0 44 	ld  [ %fp + 0x44 ], %g1
     624:	c2 00 63 08 	ld  [ %g1 + 0x308 ], %g1
     628:	82 00 7f ff 	add  %g1, -1, %g1
     62c:	c2 23 63 08 	st  %g1, [ %o5 + 0x308 ]
     630:	da 07 bf f4 	ld  [ %fp + -12 ], %o5
     634:	82 10 00 0d 	mov  %o5, %g1
     638:	82 00 40 01 	add  %g1, %g1, %g1
     63c:	82 00 40 0d 	add  %g1, %o5, %g1
     640:	9b 28 60 02 	sll  %g1, 2, %o5
     644:	c2 07 a0 44 	ld  [ %fp + 0x44 ], %g1
     648:	82 03 40 01 	add  %o5, %g1, %g1
     64c:	82 00 60 08 	add  %g1, 8, %g1
     650:	c2 27 bf f0 	st  %g1, [ %fp + -16 ]
     654:	10 80 00 07 	b  670 <dequeue+0xd4>
     658:	01 00 00 00 	nop 
     65c:	03 00 00 26 	sethi  %hi(0x9800), %g1
     660:	90 10 60 b8 	or  %g1, 0xb8, %o0	! 98b8 <__CTOR_END__+0x208>
     664:	40 00 05 3a 	call  1b4c <printf>
     668:	01 00 00 00 	nop 
     66c:	c0 27 bf f0 	clr  [ %fp + -16 ]
     670:	f0 07 bf f0 	ld  [ %fp + -16 ], %i0
     674:	81 c7 e0 08 	ret 
     678:	81 e8 00 00 	restore 

0000067c <destroy>:
     67c:	9d e3 bf 98 	save  %sp, -104, %sp
     680:	f0 27 a0 44 	st  %i0, [ %fp + 0x44 ]
     684:	81 c7 e0 08 	ret 
     688:	81 e8 00 00 	restore 

0000068c <size>:
     68c:	9d e3 bf 98 	save  %sp, -104, %sp
     690:	f0 27 a0 44 	st  %i0, [ %fp + 0x44 ]
     694:	c2 07 a0 44 	ld  [ %fp + 0x44 ], %g1
     698:	c2 00 63 08 	ld  [ %g1 + 0x308 ], %g1
     69c:	b0 10 00 01 	mov  %g1, %i0
     6a0:	81 c7 e0 08 	ret 
     6a4:	81 e8 00 00 	restore 

000006a8 <pthread_attr_setdetachstate>:
     6a8:	9d e3 bf 98 	save  %sp, -104, %sp
     6ac:	f0 27 a0 44 	st  %i0, [ %fp + 0x44 ]
     6b0:	f2 27 a0 48 	st  %i1, [ %fp + 0x48 ]
     6b4:	82 10 20 00 	clr  %g1
     6b8:	b0 10 00 01 	mov  %g1, %i0
     6bc:	81 c7 e0 08 	ret 
     6c0:	81 e8 00 00 	restore 

000006c4 <pthread_attr_getdetachstate>:
     6c4:	9d e3 bf 98 	save  %sp, -104, %sp
     6c8:	f0 27 a0 44 	st  %i0, [ %fp + 0x44 ]
     6cc:	f2 27 a0 48 	st  %i1, [ %fp + 0x48 ]
     6d0:	82 10 20 00 	clr  %g1
     6d4:	b0 10 00 01 	mov  %g1, %i0
     6d8:	81 c7 e0 08 	ret 
     6dc:	81 e8 00 00 	restore 

000006e0 <pthread_attr_init>:
     6e0:	9d e3 bf 98 	save  %sp, -104, %sp
     6e4:	f0 27 a0 44 	st  %i0, [ %fp + 0x44 ]
     6e8:	b0 10 00 01 	mov  %g1, %i0
     6ec:	81 c7 e0 08 	ret 
     6f0:	81 e8 00 00 	restore 

000006f4 <pthread_exit>:
     6f4:	9d e3 bf 98 	save  %sp, -104, %sp
     6f8:	f0 27 a0 44 	st  %i0, [ %fp + 0x44 ]
     6fc:	81 c7 e0 08 	ret 
     700:	81 e8 00 00 	restore 

00000704 <pthread_my_exit>:
     704:	9d e3 bf 98 	save  %sp, -104, %sp
     708:	01 00 00 00 	nop 
     70c:	03 00 00 27 	sethi  %hi(0x9c00), %g1
     710:	82 10 61 98 	or  %g1, 0x198, %g1	! 9d98 <_data_start>
     714:	c2 00 40 00 	ld  [ %g1 ], %g1
     718:	c2 00 40 00 	ld  [ %g1 ], %g1
     71c:	80 a0 60 00 	cmp  %g1, 0
     720:	12 bf ff fb 	bne  70c <pthread_my_exit+0x8>
     724:	01 00 00 00 	nop 
     728:	03 00 00 29 	sethi  %hi(0xa400), %g1
     72c:	9a 10 61 5c 	or  %g1, 0x15c, %o5	! a55c <pthread_finished>
     730:	82 10 20 01 	mov  1, %g1
     734:	c2 23 40 00 	st  %g1, [ %o5 ]
     738:	03 00 00 27 	sethi  %hi(0x9c00), %g1
     73c:	82 10 61 98 	or  %g1, 0x198, %g1	! 9d98 <_data_start>
     740:	c2 00 40 00 	ld  [ %g1 ], %g1
     744:	c0 20 40 00 	clr  [ %g1 ]
     748:	03 00 00 29 	sethi  %hi(0xa400), %g1
     74c:	90 10 61 dc 	or  %g1, 0x1dc, %o0	! a5dc <mutex_print>
     750:	40 00 00 7b 	call  93c <pthread_mutex_lock>
     754:	01 00 00 00 	nop 
     758:	03 00 00 26 	sethi  %hi(0x9800), %g1
     75c:	90 10 60 c8 	or  %g1, 0xc8, %o0	! 98c8 <__CTOR_END__+0x218>
     760:	40 00 04 fb 	call  1b4c <printf>
     764:	01 00 00 00 	nop 
     768:	03 00 00 29 	sethi  %hi(0xa400), %g1
     76c:	90 10 61 dc 	or  %g1, 0x1dc, %o0	! a5dc <mutex_print>
     770:	40 00 00 a0 	call  9f0 <pthread_mutex_unlock>
     774:	01 00 00 00 	nop 
     778:	01 00 00 00 	nop 
     77c:	81 c7 e0 08 	ret 
     780:	81 e8 00 00 	restore 

00000784 <pthread_join_init>:
     784:	9d e3 bf 98 	save  %sp, -104, %sp
     788:	f0 27 a0 44 	st  %i0, [ %fp + 0x44 ]
     78c:	03 00 00 27 	sethi  %hi(0x9c00), %g1
     790:	82 10 61 98 	or  %g1, 0x198, %g1	! 9d98 <_data_start>
     794:	c2 00 40 00 	ld  [ %g1 ], %g1
     798:	c2 00 40 00 	ld  [ %g1 ], %g1
     79c:	80 a0 60 00 	cmp  %g1, 0
     7a0:	12 bf ff fb 	bne  78c <pthread_join_init+0x8>
     7a4:	01 00 00 00 	nop 
     7a8:	fa 07 a0 44 	ld  [ %fp + 0x44 ], %i5
     7ac:	03 00 00 2a 	sethi  %hi(0xa800), %g1
     7b0:	82 10 60 ec 	or  %g1, 0xec, %g1	! a8ec <pthread_n_workers>
     7b4:	c2 00 40 00 	ld  [ %g1 ], %g1
     7b8:	c2 27 40 00 	st  %g1, [ %i5 ]
     7bc:	03 00 00 29 	sethi  %hi(0xa400), %g1
     7c0:	ba 10 61 d8 	or  %g1, 0x1d8, %i5	! a5d8 <pthread_ended>
     7c4:	03 00 00 2a 	sethi  %hi(0xa800), %g1
     7c8:	82 10 60 ec 	or  %g1, 0xec, %g1	! a8ec <pthread_n_workers>
     7cc:	c2 00 40 00 	ld  [ %g1 ], %g1
     7d0:	c2 27 40 00 	st  %g1, [ %i5 ]
     7d4:	03 00 00 27 	sethi  %hi(0x9c00), %g1
     7d8:	82 10 61 98 	or  %g1, 0x198, %g1	! 9d98 <_data_start>
     7dc:	c2 00 40 00 	ld  [ %g1 ], %g1
     7e0:	c0 20 40 00 	clr  [ %g1 ]
     7e4:	82 10 20 00 	clr  %g1
     7e8:	b0 10 00 01 	mov  %g1, %i0
     7ec:	81 c7 e0 08 	ret 
     7f0:	81 e8 00 00 	restore 

000007f4 <pthread_join_control>:
     7f4:	9d e3 bf 98 	save  %sp, -104, %sp
     7f8:	f0 27 a0 44 	st  %i0, [ %fp + 0x44 ]
     7fc:	03 00 00 27 	sethi  %hi(0x9c00), %g1
     800:	82 10 61 98 	or  %g1, 0x198, %g1	! 9d98 <_data_start>
     804:	c2 00 40 00 	ld  [ %g1 ], %g1
     808:	c2 00 40 00 	ld  [ %g1 ], %g1
     80c:	80 a0 60 00 	cmp  %g1, 0
     810:	12 bf ff fb 	bne  7fc <pthread_join_control+0x8>
     814:	01 00 00 00 	nop 
     818:	da 07 a0 44 	ld  [ %fp + 0x44 ], %o5
     81c:	c2 07 a0 44 	ld  [ %fp + 0x44 ], %g1
     820:	c2 00 40 00 	ld  [ %g1 ], %g1
     824:	82 00 7f ff 	add  %g1, -1, %g1
     828:	c2 23 40 00 	st  %g1, [ %o5 ]
     82c:	d8 07 a0 44 	ld  [ %fp + 0x44 ], %o4
     830:	03 00 00 2a 	sethi  %hi(0xa800), %g1
     834:	9a 10 60 ec 	or  %g1, 0xec, %o5	! a8ec <pthread_n_workers>
     838:	03 00 00 26 	sethi  %hi(0x9800), %g1
     83c:	90 10 60 f0 	or  %g1, 0xf0, %o0	! 98f0 <__CTOR_END__+0x240>
     840:	d2 03 00 00 	ld  [ %o4 ], %o1
     844:	d4 03 40 00 	ld  [ %o5 ], %o2
     848:	40 00 04 c1 	call  1b4c <printf>
     84c:	01 00 00 00 	nop 
     850:	c2 07 a0 44 	ld  [ %fp + 0x44 ], %g1
     854:	c2 00 40 00 	ld  [ %g1 ], %g1
     858:	80 a0 60 00 	cmp  %g1, 0
     85c:	12 80 00 06 	bne  874 <pthread_join_control+0x80>
     860:	01 00 00 00 	nop 
     864:	03 00 00 29 	sethi  %hi(0xa400), %g1
     868:	9a 10 61 64 	or  %g1, 0x164, %o5	! a564 <join_out>
     86c:	82 10 20 01 	mov  1, %g1
     870:	c2 23 40 00 	st  %g1, [ %o5 ]
     874:	03 00 00 27 	sethi  %hi(0x9c00), %g1
     878:	82 10 61 98 	or  %g1, 0x198, %g1	! 9d98 <_data_start>
     87c:	c2 00 40 00 	ld  [ %g1 ], %g1
     880:	c0 20 40 00 	clr  [ %g1 ]
     884:	03 00 00 29 	sethi  %hi(0xa400), %g1
     888:	82 10 61 64 	or  %g1, 0x164, %g1	! a564 <join_out>
     88c:	c2 00 40 00 	ld  [ %g1 ], %g1
     890:	80 a0 60 00 	cmp  %g1, 0
     894:	02 bf ff fc 	be  884 <pthread_join_control+0x90>
     898:	01 00 00 00 	nop 
     89c:	90 10 21 f4 	mov  0x1f4, %o0	! 1f4 <main+0xf4>
     8a0:	40 00 00 6f 	call  a5c <pthread_busywait>
     8a4:	01 00 00 00 	nop 
     8a8:	03 00 00 29 	sethi  %hi(0xa400), %g1
     8ac:	90 10 61 dc 	or  %g1, 0x1dc, %o0	! a5dc <mutex_print>
     8b0:	40 00 00 23 	call  93c <pthread_mutex_lock>
     8b4:	01 00 00 00 	nop 
     8b8:	03 00 00 26 	sethi  %hi(0x9800), %g1
     8bc:	90 10 61 28 	or  %g1, 0x128, %o0	! 9928 <__CTOR_END__+0x278>
     8c0:	40 00 04 a3 	call  1b4c <printf>
     8c4:	01 00 00 00 	nop 
     8c8:	03 00 00 29 	sethi  %hi(0xa400), %g1
     8cc:	90 10 61 dc 	or  %g1, 0x1dc, %o0	! a5dc <mutex_print>
     8d0:	40 00 00 48 	call  9f0 <pthread_mutex_unlock>
     8d4:	01 00 00 00 	nop 
     8d8:	01 00 00 00 	nop 
     8dc:	81 c7 e0 08 	ret 
     8e0:	81 e8 00 00 	restore 

000008e4 <pthread_join>:
     8e4:	9d e3 bf 98 	save  %sp, -104, %sp
     8e8:	f2 27 a0 48 	st  %i1, [ %fp + 0x48 ]
     8ec:	81 c7 e0 08 	ret 
     8f0:	81 e8 00 00 	restore 

000008f4 <pthread_mutex_init>:
     8f4:	9d e3 bf 98 	save  %sp, -104, %sp
     8f8:	f0 27 a0 44 	st  %i0, [ %fp + 0x44 ]
     8fc:	f2 27 a0 48 	st  %i1, [ %fp + 0x48 ]
     900:	03 00 00 27 	sethi  %hi(0x9c00), %g1
     904:	82 10 61 98 	or  %g1, 0x198, %g1	! 9d98 <_data_start>
     908:	c2 00 40 00 	ld  [ %g1 ], %g1
     90c:	c2 00 40 00 	ld  [ %g1 ], %g1
     910:	80 a0 60 00 	cmp  %g1, 0
     914:	12 bf ff fb 	bne  900 <pthread_mutex_init+0xc>
     918:	01 00 00 00 	nop 
     91c:	c2 07 a0 44 	ld  [ %fp + 0x44 ], %g1
     920:	c0 20 40 00 	clr  [ %g1 ]
     924:	03 00 00 27 	sethi  %hi(0x9c00), %g1
     928:	82 10 61 98 	or  %g1, 0x198, %g1	! 9d98 <_data_start>
     92c:	c2 00 40 00 	ld  [ %g1 ], %g1
     930:	c0 20 40 00 	clr  [ %g1 ]
     934:	81 c7 e0 08 	ret 
     938:	81 e8 00 00 	restore 

0000093c <pthread_mutex_lock>:
     93c:	9d e3 bf 90 	save  %sp, -112, %sp
     940:	f0 27 a0 44 	st  %i0, [ %fp + 0x44 ]
     944:	03 00 00 27 	sethi  %hi(0x9c00), %g1
     948:	82 10 61 98 	or  %g1, 0x198, %g1	! 9d98 <_data_start>
     94c:	c2 00 40 00 	ld  [ %g1 ], %g1
     950:	c2 00 40 00 	ld  [ %g1 ], %g1
     954:	80 a0 60 00 	cmp  %g1, 0
     958:	12 bf ff fb 	bne  944 <pthread_mutex_lock+0x8>
     95c:	01 00 00 00 	nop 
     960:	01 00 00 00 	nop 
     964:	c2 07 a0 44 	ld  [ %fp + 0x44 ], %g1
     968:	c2 00 40 00 	ld  [ %g1 ], %g1
     96c:	80 a0 60 01 	cmp  %g1, 1
     970:	02 80 00 04 	be  980 <pthread_mutex_lock+0x44>
     974:	01 00 00 00 	nop 
     978:	10 80 00 12 	b  9c0 <pthread_mutex_lock+0x84>
     97c:	01 00 00 00 	nop 
     980:	03 00 00 27 	sethi  %hi(0x9c00), %g1
     984:	82 10 61 98 	or  %g1, 0x198, %g1	! 9d98 <_data_start>
     988:	c2 00 40 00 	ld  [ %g1 ], %g1
     98c:	c0 20 40 00 	clr  [ %g1 ]
     990:	90 10 21 f4 	mov  0x1f4, %o0
     994:	40 00 00 32 	call  a5c <pthread_busywait>
     998:	01 00 00 00 	nop 
     99c:	03 00 00 27 	sethi  %hi(0x9c00), %g1
     9a0:	82 10 61 98 	or  %g1, 0x198, %g1	! 9d98 <_data_start>
     9a4:	c2 00 40 00 	ld  [ %g1 ], %g1
     9a8:	c2 00 40 00 	ld  [ %g1 ], %g1
     9ac:	80 a0 60 00 	cmp  %g1, 0
     9b0:	12 bf ff fb 	bne  99c <pthread_mutex_lock+0x60>
     9b4:	01 00 00 00 	nop 
     9b8:	10 bf ff eb 	b  964 <pthread_mutex_lock+0x28>
     9bc:	01 00 00 00 	nop 
     9c0:	da 07 a0 44 	ld  [ %fp + 0x44 ], %o5
     9c4:	82 10 20 01 	mov  1, %g1
     9c8:	c2 23 40 00 	st  %g1, [ %o5 ]
     9cc:	03 00 00 27 	sethi  %hi(0x9c00), %g1
     9d0:	82 10 61 98 	or  %g1, 0x198, %g1	! 9d98 <_data_start>
     9d4:	c2 00 40 00 	ld  [ %g1 ], %g1
     9d8:	c0 20 40 00 	clr  [ %g1 ]
     9dc:	c0 27 bf f4 	clr  [ %fp + -12 ]
     9e0:	c2 07 bf f4 	ld  [ %fp + -12 ], %g1
     9e4:	b0 10 00 01 	mov  %g1, %i0
     9e8:	81 c7 e0 08 	ret 
     9ec:	81 e8 00 00 	restore 

000009f0 <pthread_mutex_unlock>:
     9f0:	9d e3 bf 98 	save  %sp, -104, %sp
     9f4:	f0 27 a0 44 	st  %i0, [ %fp + 0x44 ]
     9f8:	03 00 00 27 	sethi  %hi(0x9c00), %g1
     9fc:	82 10 61 98 	or  %g1, 0x198, %g1	! 9d98 <_data_start>
     a00:	c2 00 40 00 	ld  [ %g1 ], %g1
     a04:	c2 00 40 00 	ld  [ %g1 ], %g1
     a08:	80 a0 60 00 	cmp  %g1, 0
     a0c:	12 bf ff fb 	bne  9f8 <pthread_mutex_unlock+0x8>
     a10:	01 00 00 00 	nop 
     a14:	c2 07 a0 44 	ld  [ %fp + 0x44 ], %g1
     a18:	c0 20 40 00 	clr  [ %g1 ]
     a1c:	03 00 00 27 	sethi  %hi(0x9c00), %g1
     a20:	82 10 61 98 	or  %g1, 0x198, %g1	! 9d98 <_data_start>
     a24:	c2 00 40 00 	ld  [ %g1 ], %g1
     a28:	c0 20 40 00 	clr  [ %g1 ]
     a2c:	82 10 20 00 	clr  %g1
     a30:	b0 10 00 01 	mov  %g1, %i0
     a34:	81 c7 e0 08 	ret 
     a38:	81 e8 00 00 	restore 

00000a3c <pthread_mutex_destroy>:
     a3c:	9d e3 bf 98 	save  %sp, -104, %sp
     a40:	f0 27 a0 44 	st  %i0, [ %fp + 0x44 ]
     a44:	d0 07 a0 44 	ld  [ %fp + 0x44 ], %o0
     a48:	40 00 02 34 	call  1318 <free>
     a4c:	01 00 00 00 	nop 
     a50:	01 00 00 00 	nop 
     a54:	81 c7 e0 08 	ret 
     a58:	81 e8 00 00 	restore 

00000a5c <pthread_busywait>:
     a5c:	9d e3 bf 90 	save  %sp, -112, %sp
     a60:	f0 27 a0 44 	st  %i0, [ %fp + 0x44 ]
     a64:	c0 27 bf f4 	clr  [ %fp + -12 ]
     a68:	fa 07 bf f4 	ld  [ %fp + -12 ], %i5
     a6c:	c2 07 a0 44 	ld  [ %fp + 0x44 ], %g1
     a70:	80 a7 40 01 	cmp  %i5, %g1
     a74:	06 80 00 04 	bl  a84 <pthread_busywait+0x28>
     a78:	01 00 00 00 	nop 
     a7c:	10 80 00 07 	b  a98 <pthread_busywait+0x3c>
     a80:	01 00 00 00 	nop 
     a84:	c2 07 bf f4 	ld  [ %fp + -12 ], %g1
     a88:	82 00 60 01 	inc  %g1
     a8c:	c2 27 bf f4 	st  %g1, [ %fp + -12 ]
     a90:	10 bf ff f6 	b  a68 <pthread_busywait+0xc>
     a94:	01 00 00 00 	nop 
     a98:	81 c7 e0 08 	ret 
     a9c:	81 e8 00 00 	restore 

00000aa0 <pthread_init>:
     aa0:	9d e3 bf 98 	save  %sp, -104, %sp
     aa4:	03 00 00 29 	sethi  %hi(0xa400), %g1
     aa8:	90 10 61 e0 	or  %g1, 0x1e0, %o0	! a5e0 <tQueue>
     aac:	7f ff fe 33 	call  378 <initQueue>
     ab0:	01 00 00 00 	nop 
     ab4:	03 00 00 29 	sethi  %hi(0xa400), %g1
     ab8:	90 10 61 cc 	or  %g1, 0x1cc, %o0	! a5cc <join>
     abc:	7f ff ff 32 	call  784 <pthread_join_init>
     ac0:	01 00 00 00 	nop 
     ac4:	03 00 00 27 	sethi  %hi(0x9c00), %g1
     ac8:	82 10 61 98 	or  %g1, 0x198, %g1	! 9d98 <_data_start>
     acc:	c2 00 40 00 	ld  [ %g1 ], %g1
     ad0:	c2 00 40 00 	ld  [ %g1 ], %g1
     ad4:	80 a0 60 00 	cmp  %g1, 0
     ad8:	12 bf ff fb 	bne  ac4 <pthread_init+0x24>
     adc:	01 00 00 00 	nop 
     ae0:	03 00 00 29 	sethi  %hi(0xa400), %g1
     ae4:	82 10 61 58 	or  %g1, 0x158, %g1	! a558 <pthread_numberOfActiveThreads>
     ae8:	c0 20 40 00 	clr  [ %g1 ]
     aec:	03 00 00 29 	sethi  %hi(0xa400), %g1
     af0:	82 10 61 60 	or  %g1, 0x160, %g1	! a560 <pthread_free_for_start>
     af4:	c0 20 40 00 	clr  [ %g1 ]
     af8:	03 00 00 29 	sethi  %hi(0xa400), %g1
     afc:	82 10 61 5c 	or  %g1, 0x15c, %g1	! a55c <pthread_finished>
     b00:	c0 20 40 00 	clr  [ %g1 ]
     b04:	03 00 00 27 	sethi  %hi(0x9c00), %g1
     b08:	82 10 61 98 	or  %g1, 0x198, %g1	! 9d98 <_data_start>
     b0c:	c2 00 40 00 	ld  [ %g1 ], %g1
     b10:	c0 20 40 00 	clr  [ %g1 ]
     b14:	b0 10 00 01 	mov  %g1, %i0
     b18:	81 c7 e0 08 	ret 
     b1c:	81 e8 00 00 	restore 

00000b20 <pthread_executeThread>:
     b20:	9d e3 bf 88 	save  %sp, -120, %sp
     b24:	01 00 00 00 	nop 
     b28:	03 00 00 27 	sethi  %hi(0x9c00), %g1
     b2c:	82 10 61 98 	or  %g1, 0x198, %g1	! 9d98 <_data_start>
     b30:	c2 00 40 00 	ld  [ %g1 ], %g1
     b34:	c2 00 40 00 	ld  [ %g1 ], %g1
     b38:	80 a0 60 00 	cmp  %g1, 0
     b3c:	12 bf ff fb 	bne  b28 <pthread_executeThread+0x8>
     b40:	01 00 00 00 	nop 
     b44:	03 00 00 29 	sethi  %hi(0xa400), %g1
     b48:	9a 10 61 58 	or  %g1, 0x158, %o5	! a558 <pthread_numberOfActiveThreads>
     b4c:	03 00 00 29 	sethi  %hi(0xa400), %g1
     b50:	82 10 61 58 	or  %g1, 0x158, %g1	! a558 <pthread_numberOfActiveThreads>
     b54:	c2 00 40 00 	ld  [ %g1 ], %g1
     b58:	82 00 60 01 	inc  %g1
     b5c:	c2 23 40 00 	st  %g1, [ %o5 ]
     b60:	03 00 00 29 	sethi  %hi(0xa400), %g1
     b64:	82 10 61 58 	or  %g1, 0x158, %g1	! a558 <pthread_numberOfActiveThreads>
     b68:	c2 00 40 00 	ld  [ %g1 ], %g1
     b6c:	c2 27 bf f4 	st  %g1, [ %fp + -12 ]
     b70:	03 00 00 29 	sethi  %hi(0xa400), %g1
     b74:	9a 10 61 58 	or  %g1, 0x158, %o5	! a558 <pthread_numberOfActiveThreads>
     b78:	03 00 00 2a 	sethi  %hi(0xa800), %g1
     b7c:	82 10 60 ec 	or  %g1, 0xec, %g1	! a8ec <pthread_n_workers>
     b80:	da 03 40 00 	ld  [ %o5 ], %o5
     b84:	c2 00 40 00 	ld  [ %g1 ], %g1
     b88:	80 a3 40 01 	cmp  %o5, %g1
     b8c:	12 80 00 13 	bne  bd8 <pthread_executeThread+0xb8>
     b90:	01 00 00 00 	nop 
     b94:	03 00 00 29 	sethi  %hi(0xa400), %g1
     b98:	9a 10 61 58 	or  %g1, 0x158, %o5	! a558 <pthread_numberOfActiveThreads>
     b9c:	03 00 00 26 	sethi  %hi(0x9800), %g1
     ba0:	90 10 61 48 	or  %g1, 0x148, %o0	! 9948 <__CTOR_END__+0x298>
     ba4:	d2 03 40 00 	ld  [ %o5 ], %o1
     ba8:	40 00 03 e9 	call  1b4c <printf>
     bac:	01 00 00 00 	nop 
     bb0:	03 00 00 29 	sethi  %hi(0xa400), %g1
     bb4:	82 10 61 58 	or  %g1, 0x158, %g1	! a558 <pthread_numberOfActiveThreads>
     bb8:	c0 20 40 00 	clr  [ %g1 ]
     bbc:	03 00 00 29 	sethi  %hi(0xa400), %g1
     bc0:	9a 10 61 60 	or  %g1, 0x160, %o5	! a560 <pthread_free_for_start>
     bc4:	82 10 20 01 	mov  1, %g1
     bc8:	c2 23 40 00 	st  %g1, [ %o5 ]
     bcc:	03 00 00 29 	sethi  %hi(0xa400), %g1
     bd0:	82 10 61 54 	or  %g1, 0x154, %g1	! a554 <pthread_created>
     bd4:	c0 20 40 00 	clr  [ %g1 ]
     bd8:	03 00 00 27 	sethi  %hi(0x9c00), %g1
     bdc:	82 10 61 98 	or  %g1, 0x198, %g1	! 9d98 <_data_start>
     be0:	c2 00 40 00 	ld  [ %g1 ], %g1
     be4:	c0 20 40 00 	clr  [ %g1 ]
     be8:	03 00 00 29 	sethi  %hi(0xa400), %g1
     bec:	82 10 61 60 	or  %g1, 0x160, %g1	! a560 <pthread_free_for_start>
     bf0:	c2 00 40 00 	ld  [ %g1 ], %g1
     bf4:	80 a0 60 00 	cmp  %g1, 0
     bf8:	02 bf ff fc 	be  be8 <pthread_executeThread+0xc8>
     bfc:	01 00 00 00 	nop 
     c00:	01 00 00 00 	nop 
     c04:	03 00 00 27 	sethi  %hi(0x9c00), %g1
     c08:	82 10 61 98 	or  %g1, 0x198, %g1	! 9d98 <_data_start>
     c0c:	c2 00 40 00 	ld  [ %g1 ], %g1
     c10:	c2 00 40 00 	ld  [ %g1 ], %g1
     c14:	80 a0 60 00 	cmp  %g1, 0
     c18:	12 bf ff fb 	bne  c04 <pthread_executeThread+0xe4>
     c1c:	01 00 00 00 	nop 
     c20:	03 00 00 29 	sethi  %hi(0xa400), %g1
     c24:	90 10 61 e0 	or  %g1, 0x1e0, %o0	! a5e0 <tQueue>
     c28:	7f ff fe 5d 	call  59c <dequeue>
     c2c:	01 00 00 00 	nop 
     c30:	82 10 00 08 	mov  %o0, %g1
     c34:	c2 27 bf f0 	st  %g1, [ %fp + -16 ]
     c38:	03 00 00 27 	sethi  %hi(0x9c00), %g1
     c3c:	82 10 61 98 	or  %g1, 0x198, %g1	! 9d98 <_data_start>
     c40:	c2 00 40 00 	ld  [ %g1 ], %g1
     c44:	c0 20 40 00 	clr  [ %g1 ]
     c48:	03 00 00 29 	sethi  %hi(0xa400), %g1
     c4c:	90 10 61 dc 	or  %g1, 0x1dc, %o0	! a5dc <mutex_print>
     c50:	7f ff ff 3b 	call  93c <pthread_mutex_lock>
     c54:	01 00 00 00 	nop 
     c58:	da 07 bf f0 	ld  [ %fp + -16 ], %o5
     c5c:	03 00 00 26 	sethi  %hi(0x9800), %g1
     c60:	90 10 61 68 	or  %g1, 0x168, %o0	! 9968 <__CTOR_END__+0x2b8>
     c64:	d2 03 40 00 	ld  [ %o5 ], %o1
     c68:	40 00 03 b9 	call  1b4c <printf>
     c6c:	01 00 00 00 	nop 
     c70:	da 07 bf f0 	ld  [ %fp + -16 ], %o5
     c74:	03 00 00 26 	sethi  %hi(0x9800), %g1
     c78:	90 10 61 a0 	or  %g1, 0x1a0, %o0	! 99a0 <__CTOR_END__+0x2f0>
     c7c:	d2 03 60 04 	ld  [ %o5 + 4 ], %o1
     c80:	40 00 03 b3 	call  1b4c <printf>
     c84:	01 00 00 00 	nop 
     c88:	03 00 00 29 	sethi  %hi(0xa400), %g1
     c8c:	90 10 61 dc 	or  %g1, 0x1dc, %o0	! a5dc <mutex_print>
     c90:	7f ff ff 58 	call  9f0 <pthread_mutex_unlock>
     c94:	01 00 00 00 	nop 
     c98:	c2 07 bf f0 	ld  [ %fp + -16 ], %g1
     c9c:	c2 00 40 00 	ld  [ %g1 ], %g1
     ca0:	c2 27 bf ec 	st  %g1, [ %fp + -20 ]
     ca4:	c2 07 bf f0 	ld  [ %fp + -16 ], %g1
     ca8:	c2 00 60 04 	ld  [ %g1 + 4 ], %g1
     cac:	c2 27 bf e8 	st  %g1, [ %fp + -24 ]
     cb0:	c2 07 bf ec 	ld  [ %fp + -20 ], %g1
     cb4:	d0 07 bf e8 	ld  [ %fp + -24 ], %o0
     cb8:	9f c0 40 00 	call  %g1
     cbc:	01 00 00 00 	nop 
     cc0:	03 00 00 29 	sethi  %hi(0xa400), %g1
     cc4:	90 10 61 dc 	or  %g1, 0x1dc, %o0	! a5dc <mutex_print>
     cc8:	7f ff ff 1d 	call  93c <pthread_mutex_lock>
     ccc:	01 00 00 00 	nop 
     cd0:	da 07 bf f0 	ld  [ %fp + -16 ], %o5
     cd4:	03 00 00 26 	sethi  %hi(0x9800), %g1
     cd8:	90 10 61 c8 	or  %g1, 0x1c8, %o0	! 99c8 <__CTOR_END__+0x318>
     cdc:	d2 03 40 00 	ld  [ %o5 ], %o1
     ce0:	40 00 03 9b 	call  1b4c <printf>
     ce4:	01 00 00 00 	nop 
     ce8:	da 07 bf f0 	ld  [ %fp + -16 ], %o5
     cec:	03 00 00 26 	sethi  %hi(0x9800), %g1
     cf0:	90 10 61 a0 	or  %g1, 0x1a0, %o0	! 99a0 <__CTOR_END__+0x2f0>
     cf4:	d2 03 60 04 	ld  [ %o5 + 4 ], %o1
     cf8:	40 00 03 95 	call  1b4c <printf>
     cfc:	01 00 00 00 	nop 
     d00:	03 00 00 29 	sethi  %hi(0xa400), %g1
     d04:	90 10 61 dc 	or  %g1, 0x1dc, %o0	! a5dc <mutex_print>
     d08:	7f ff ff 3a 	call  9f0 <pthread_mutex_unlock>
     d0c:	01 00 00 00 	nop 
     d10:	03 00 00 29 	sethi  %hi(0xa400), %g1
     d14:	90 10 61 cc 	or  %g1, 0x1cc, %o0	! a5cc <join>
     d18:	7f ff fe b7 	call  7f4 <pthread_join_control>
     d1c:	01 00 00 00 	nop 
     d20:	03 00 00 27 	sethi  %hi(0x9c00), %g1
     d24:	82 10 61 98 	or  %g1, 0x198, %g1	! 9d98 <_data_start>
     d28:	c2 00 40 00 	ld  [ %g1 ], %g1
     d2c:	c2 00 40 00 	ld  [ %g1 ], %g1
     d30:	80 a0 60 00 	cmp  %g1, 0
     d34:	12 bf ff fb 	bne  d20 <pthread_executeThread+0x200>
     d38:	01 00 00 00 	nop 
     d3c:	03 00 00 29 	sethi  %hi(0xa400), %g1
     d40:	9a 10 61 d8 	or  %g1, 0x1d8, %o5	! a5d8 <pthread_ended>
     d44:	03 00 00 29 	sethi  %hi(0xa400), %g1
     d48:	82 10 61 d8 	or  %g1, 0x1d8, %g1	! a5d8 <pthread_ended>
     d4c:	c2 00 40 00 	ld  [ %g1 ], %g1
     d50:	82 00 7f ff 	add  %g1, -1, %g1
     d54:	c2 23 40 00 	st  %g1, [ %o5 ]
     d58:	03 00 00 29 	sethi  %hi(0xa400), %g1
     d5c:	82 10 61 d8 	or  %g1, 0x1d8, %g1	! a5d8 <pthread_ended>
     d60:	c2 00 40 00 	ld  [ %g1 ], %g1
     d64:	c2 27 bf f4 	st  %g1, [ %fp + -12 ]
     d68:	03 00 00 27 	sethi  %hi(0x9c00), %g1
     d6c:	82 10 61 98 	or  %g1, 0x198, %g1	! 9d98 <_data_start>
     d70:	c2 00 40 00 	ld  [ %g1 ], %g1
     d74:	c0 20 40 00 	clr  [ %g1 ]
     d78:	c2 07 bf f4 	ld  [ %fp + -12 ], %g1
     d7c:	80 a0 60 00 	cmp  %g1, 0
     d80:	12 80 00 1f 	bne  dfc <pthread_executeThread+0x2dc>
     d84:	01 00 00 00 	nop 
     d88:	03 00 00 27 	sethi  %hi(0x9c00), %g1
     d8c:	82 10 61 98 	or  %g1, 0x198, %g1	! 9d98 <_data_start>
     d90:	c2 00 40 00 	ld  [ %g1 ], %g1
     d94:	c2 00 40 00 	ld  [ %g1 ], %g1
     d98:	80 a0 60 00 	cmp  %g1, 0
     d9c:	12 bf ff fb 	bne  d88 <pthread_executeThread+0x268>
     da0:	01 00 00 00 	nop 
     da4:	03 00 00 29 	sethi  %hi(0xa400), %g1
     da8:	9a 10 61 cc 	or  %g1, 0x1cc, %o5	! a5cc <join>
     dac:	03 00 00 2a 	sethi  %hi(0xa800), %g1
     db0:	82 10 60 ec 	or  %g1, 0xec, %g1	! a8ec <pthread_n_workers>
     db4:	c2 00 40 00 	ld  [ %g1 ], %g1
     db8:	c2 23 40 00 	st  %g1, [ %o5 ]
     dbc:	03 00 00 29 	sethi  %hi(0xa400), %g1
     dc0:	82 10 61 60 	or  %g1, 0x160, %g1	! a560 <pthread_free_for_start>
     dc4:	c0 20 40 00 	clr  [ %g1 ]
     dc8:	03 00 00 29 	sethi  %hi(0xa400), %g1
     dcc:	82 10 61 64 	or  %g1, 0x164, %g1	! a564 <join_out>
     dd0:	c0 20 40 00 	clr  [ %g1 ]
     dd4:	03 00 00 29 	sethi  %hi(0xa400), %g1
     dd8:	9a 10 61 d8 	or  %g1, 0x1d8, %o5	! a5d8 <pthread_ended>
     ddc:	03 00 00 2a 	sethi  %hi(0xa800), %g1
     de0:	82 10 60 ec 	or  %g1, 0xec, %g1	! a8ec <pthread_n_workers>
     de4:	c2 00 40 00 	ld  [ %g1 ], %g1
     de8:	c2 23 40 00 	st  %g1, [ %o5 ]
     dec:	03 00 00 27 	sethi  %hi(0x9c00), %g1
     df0:	82 10 61 98 	or  %g1, 0x198, %g1	! 9d98 <_data_start>
     df4:	c2 00 40 00 	ld  [ %g1 ], %g1
     df8:	c0 20 40 00 	clr  [ %g1 ]
     dfc:	81 c7 e0 08 	ret 
     e00:	81 e8 00 00 	restore 

00000e04 <pthread_create>:
     e04:	9d e3 bf 70 	save  %sp, -144, %sp
     e08:	f0 27 a0 44 	st  %i0, [ %fp + 0x44 ]
     e0c:	f2 27 a0 48 	st  %i1, [ %fp + 0x48 ]
     e10:	f4 27 a0 4c 	st  %i2, [ %fp + 0x4c ]
     e14:	f6 27 a0 50 	st  %i3, [ %fp + 0x50 ]
     e18:	9a 07 bf e8 	add  %fp, -24, %o5
     e1c:	82 07 bf d8 	add  %fp, -40, %g1
     e20:	c2 23 a0 40 	st  %g1, [ %sp + 0x40 ]
     e24:	90 10 00 0d 	mov  %o5, %o0
     e28:	d2 07 a0 4c 	ld  [ %fp + 0x4c ], %o1
     e2c:	d4 07 a0 50 	ld  [ %fp + 0x50 ], %o2
     e30:	7f ff fd 44 	call  340 <initNode>
     e34:	01 00 00 00 	nop 
     e38:	00 00 00 0c 	unimp  0xc
     e3c:	03 00 00 27 	sethi  %hi(0x9c00), %g1
     e40:	82 10 61 98 	or  %g1, 0x198, %g1	! 9d98 <_data_start>
     e44:	c2 00 40 00 	ld  [ %g1 ], %g1
     e48:	c2 00 40 00 	ld  [ %g1 ], %g1
     e4c:	80 a0 60 00 	cmp  %g1, 0
     e50:	12 bf ff fb 	bne  e3c <pthread_create+0x38>
     e54:	01 00 00 00 	nop 
     e58:	9a 07 bf e8 	add  %fp, -24, %o5
     e5c:	03 00 00 29 	sethi  %hi(0xa400), %g1
     e60:	90 10 61 e0 	or  %g1, 0x1e0, %o0	! a5e0 <tQueue>
     e64:	92 10 00 0d 	mov  %o5, %o1
     e68:	7f ff fd 8d 	call  49c <enqueue>
     e6c:	01 00 00 00 	nop 
     e70:	03 00 00 27 	sethi  %hi(0x9c00), %g1
     e74:	82 10 61 98 	or  %g1, 0x198, %g1	! 9d98 <_data_start>
     e78:	c2 00 40 00 	ld  [ %g1 ], %g1
     e7c:	c0 20 40 00 	clr  [ %g1 ]
     e80:	03 00 00 29 	sethi  %hi(0xa400), %g1
     e84:	90 10 61 e0 	or  %g1, 0x1e0, %o0	! a5e0 <tQueue>
     e88:	7f ff fe 01 	call  68c <size>
     e8c:	01 00 00 00 	nop 
     e90:	82 10 00 08 	mov  %o0, %g1
     e94:	c2 27 bf d4 	st  %g1, [ %fp + -44 ]
     e98:	03 00 00 2a 	sethi  %hi(0xa800), %g1
     e9c:	82 10 60 ec 	or  %g1, 0xec, %g1	! a8ec <pthread_n_workers>
     ea0:	da 07 bf d4 	ld  [ %fp + -44 ], %o5
     ea4:	c2 00 40 00 	ld  [ %g1 ], %g1
     ea8:	80 a3 40 01 	cmp  %o5, %g1
     eac:	12 80 00 13 	bne  ef8 <pthread_create+0xf4>
     eb0:	01 00 00 00 	nop 
     eb4:	03 00 00 27 	sethi  %hi(0x9c00), %g1
     eb8:	82 10 61 98 	or  %g1, 0x198, %g1	! 9d98 <_data_start>
     ebc:	c2 00 40 00 	ld  [ %g1 ], %g1
     ec0:	c2 00 40 00 	ld  [ %g1 ], %g1
     ec4:	80 a0 60 00 	cmp  %g1, 0
     ec8:	12 bf ff fb 	bne  eb4 <pthread_create+0xb0>
     ecc:	01 00 00 00 	nop 
     ed0:	03 00 00 29 	sethi  %hi(0xa400), %g1
     ed4:	9a 10 61 54 	or  %g1, 0x154, %o5	! a554 <pthread_created>
     ed8:	82 10 20 01 	mov  1, %g1
     edc:	c2 23 40 00 	st  %g1, [ %o5 ]
     ee0:	03 00 00 27 	sethi  %hi(0x9c00), %g1
     ee4:	82 10 61 98 	or  %g1, 0x198, %g1	! 9d98 <_data_start>
     ee8:	c2 00 40 00 	ld  [ %g1 ], %g1
     eec:	c0 20 40 00 	clr  [ %g1 ]
     ef0:	7f ff ff 0c 	call  b20 <pthread_executeThread>
     ef4:	01 00 00 00 	nop 
     ef8:	82 10 20 00 	clr  %g1	! 0 <__DYNAMIC>
     efc:	b0 10 00 01 	mov  %g1, %i0
     f00:	81 c7 e0 08 	ret 
     f04:	81 e8 00 00 	restore 

00000f08 <pthread_cond_init>:
     f08:	9d e3 bf 98 	save  %sp, -104, %sp
     f0c:	f0 27 a0 44 	st  %i0, [ %fp + 0x44 ]
     f10:	f2 27 a0 48 	st  %i1, [ %fp + 0x48 ]
     f14:	c2 07 a0 44 	ld  [ %fp + 0x44 ], %g1
     f18:	c0 20 40 00 	clr  [ %g1 ]
     f1c:	b0 10 00 01 	mov  %g1, %i0
     f20:	81 c7 e0 08 	ret 
     f24:	81 e8 00 00 	restore 

00000f28 <pthread_cond_wait>:
     f28:	9d e3 bf 98 	save  %sp, -104, %sp
     f2c:	f0 27 a0 44 	st  %i0, [ %fp + 0x44 ]
     f30:	f2 27 a0 48 	st  %i1, [ %fp + 0x48 ]
     f34:	d0 07 a0 48 	ld  [ %fp + 0x48 ], %o0
     f38:	7f ff fe ae 	call  9f0 <pthread_mutex_unlock>
     f3c:	01 00 00 00 	nop 
     f40:	c2 07 a0 44 	ld  [ %fp + 0x44 ], %g1
     f44:	c2 00 40 00 	ld  [ %g1 ], %g1
     f48:	80 a0 60 00 	cmp  %g1, 0
     f4c:	02 bf ff fd 	be  f40 <pthread_cond_wait+0x18>
     f50:	01 00 00 00 	nop 
     f54:	b0 10 00 01 	mov  %g1, %i0
     f58:	81 c7 e0 08 	ret 
     f5c:	81 e8 00 00 	restore 

00000f60 <pthread_cond_broadcast>:
     f60:	9d e3 bf 90 	save  %sp, -112, %sp
     f64:	f0 27 a0 44 	st  %i0, [ %fp + 0x44 ]
     f68:	fa 07 a0 44 	ld  [ %fp + 0x44 ], %i5
     f6c:	82 10 20 01 	mov  1, %g1
     f70:	c2 27 40 00 	st  %g1, [ %i5 ]
     f74:	c0 27 bf f4 	clr  [ %fp + -12 ]
     f78:	c2 07 bf f4 	ld  [ %fp + -12 ], %g1
     f7c:	80 a0 65 dc 	cmp  %g1, 0x5dc
     f80:	04 80 00 04 	ble  f90 <pthread_cond_broadcast+0x30>
     f84:	01 00 00 00 	nop 
     f88:	10 80 00 07 	b  fa4 <pthread_cond_broadcast+0x44>
     f8c:	01 00 00 00 	nop 
     f90:	c2 07 bf f4 	ld  [ %fp + -12 ], %g1
     f94:	82 00 60 01 	inc  %g1
     f98:	c2 27 bf f4 	st  %g1, [ %fp + -12 ]
     f9c:	10 bf ff f7 	b  f78 <pthread_cond_broadcast+0x18>
     fa0:	01 00 00 00 	nop 
     fa4:	c2 07 a0 44 	ld  [ %fp + 0x44 ], %g1
     fa8:	c0 20 40 00 	clr  [ %g1 ]
     fac:	b0 10 00 01 	mov  %g1, %i0
     fb0:	81 c7 e0 08 	ret 
     fb4:	81 e8 00 00 	restore 

00000fb8 <pthread_barrier_init>:
     fb8:	9d e3 bf 98 	save  %sp, -104, %sp
     fbc:	f0 27 a0 44 	st  %i0, [ %fp + 0x44 ]
     fc0:	f2 27 a0 48 	st  %i1, [ %fp + 0x48 ]
     fc4:	03 00 00 27 	sethi  %hi(0x9c00), %g1
     fc8:	82 10 61 98 	or  %g1, 0x198, %g1	! 9d98 <_data_start>
     fcc:	c2 00 40 00 	ld  [ %g1 ], %g1
     fd0:	c2 00 40 00 	ld  [ %g1 ], %g1
     fd4:	80 a0 60 00 	cmp  %g1, 0
     fd8:	12 bf ff fb 	bne  fc4 <pthread_barrier_init+0xc>
     fdc:	01 00 00 00 	nop 
     fe0:	c2 07 a0 44 	ld  [ %fp + 0x44 ], %g1
     fe4:	c0 20 60 0c 	clr  [ %g1 + 0xc ]
     fe8:	f8 07 a0 44 	ld  [ %fp + 0x44 ], %i4
     fec:	fa 07 a0 44 	ld  [ %fp + 0x44 ], %i5
     ff0:	c2 07 a0 48 	ld  [ %fp + 0x48 ], %g1
     ff4:	c2 27 60 04 	st  %g1, [ %i5 + 4 ]
     ff8:	c2 27 20 08 	st  %g1, [ %i4 + 8 ]
     ffc:	03 00 00 27 	sethi  %hi(0x9c00), %g1
    1000:	82 10 61 98 	or  %g1, 0x198, %g1	! 9d98 <_data_start>
    1004:	c2 00 40 00 	ld  [ %g1 ], %g1
    1008:	c0 20 40 00 	clr  [ %g1 ]
    100c:	81 c7 e0 08 	ret 
    1010:	81 e8 00 00 	restore 

00001014 <pthread_barrier_wait>:
    1014:	9d e3 bf 90 	save  %sp, -112, %sp
    1018:	f0 27 a0 44 	st  %i0, [ %fp + 0x44 ]
    101c:	03 00 00 27 	sethi  %hi(0x9c00), %g1
    1020:	82 10 61 98 	or  %g1, 0x198, %g1	! 9d98 <_data_start>
    1024:	c2 00 40 00 	ld  [ %g1 ], %g1
    1028:	c2 00 40 00 	ld  [ %g1 ], %g1
    102c:	80 a0 60 00 	cmp  %g1, 0
    1030:	12 bf ff fb 	bne  101c <pthread_barrier_wait+0x8>
    1034:	01 00 00 00 	nop 
    1038:	c2 07 a0 44 	ld  [ %fp + 0x44 ], %g1
    103c:	c2 00 60 0c 	ld  [ %g1 + 0xc ], %g1
    1040:	c2 27 bf f0 	st  %g1, [ %fp + -16 ]
    1044:	fa 07 a0 44 	ld  [ %fp + 0x44 ], %i5
    1048:	c2 07 a0 44 	ld  [ %fp + 0x44 ], %g1
    104c:	c2 00 60 08 	ld  [ %g1 + 8 ], %g1
    1050:	82 00 7f ff 	add  %g1, -1, %g1
    1054:	c2 27 60 08 	st  %g1, [ %i5 + 8 ]
    1058:	80 a0 60 00 	cmp  %g1, 0
    105c:	12 80 00 15 	bne  10b0 <pthread_barrier_wait+0x9c>
    1060:	01 00 00 00 	nop 
    1064:	fa 07 a0 44 	ld  [ %fp + 0x44 ], %i5
    1068:	c2 07 a0 44 	ld  [ %fp + 0x44 ], %g1
    106c:	c2 00 60 0c 	ld  [ %g1 + 0xc ], %g1
    1070:	82 18 60 00 	xor  %g1, 0, %g1
    1074:	80 a0 00 01 	cmp  %g0, %g1
    1078:	82 60 3f ff 	subx  %g0, -1, %g1
    107c:	c2 27 60 0c 	st  %g1, [ %i5 + 0xc ]
    1080:	fa 07 a0 44 	ld  [ %fp + 0x44 ], %i5
    1084:	c2 07 a0 44 	ld  [ %fp + 0x44 ], %g1
    1088:	c2 00 60 04 	ld  [ %g1 + 4 ], %g1
    108c:	c2 27 60 08 	st  %g1, [ %i5 + 8 ]
    1090:	03 00 00 27 	sethi  %hi(0x9c00), %g1
    1094:	82 10 61 98 	or  %g1, 0x198, %g1	! 9d98 <_data_start>
    1098:	c2 00 40 00 	ld  [ %g1 ], %g1
    109c:	c0 20 40 00 	clr  [ %g1 ]
    10a0:	82 10 20 01 	mov  1, %g1
    10a4:	c2 27 bf f4 	st  %g1, [ %fp + -12 ]
    10a8:	10 80 00 0e 	b  10e0 <pthread_barrier_wait+0xcc>
    10ac:	01 00 00 00 	nop 
    10b0:	03 00 00 27 	sethi  %hi(0x9c00), %g1
    10b4:	82 10 61 98 	or  %g1, 0x198, %g1	! 9d98 <_data_start>
    10b8:	c2 00 40 00 	ld  [ %g1 ], %g1
    10bc:	c0 20 40 00 	clr  [ %g1 ]
    10c0:	c2 07 a0 44 	ld  [ %fp + 0x44 ], %g1
    10c4:	fa 07 bf f0 	ld  [ %fp + -16 ], %i5
    10c8:	c2 00 60 0c 	ld  [ %g1 + 0xc ], %g1
    10cc:	80 a7 40 01 	cmp  %i5, %g1
    10d0:	02 bf ff fc 	be  10c0 <pthread_barrier_wait+0xac>
    10d4:	01 00 00 00 	nop 
    10d8:	82 10 20 01 	mov  1, %g1	! 1 <__DYNAMIC+0x1>
    10dc:	c2 27 bf f4 	st  %g1, [ %fp + -12 ]
    10e0:	c2 07 bf f4 	ld  [ %fp + -12 ], %g1
    10e4:	b0 10 00 01 	mov  %g1, %i0
    10e8:	81 c7 e0 08 	ret 
    10ec:	81 e8 00 00 	restore 

000010f0 <acPthread_malloc>:
    10f0:	9d e3 bf 90 	save  %sp, -112, %sp
    10f4:	f0 27 a0 44 	st  %i0, [ %fp + 0x44 ]
    10f8:	03 00 00 29 	sethi  %hi(0xa400), %g1
    10fc:	90 10 61 d4 	or  %g1, 0x1d4, %o0	! a5d4 <mutex_malloc>
    1100:	7f ff fe 0f 	call  93c <pthread_mutex_lock>
    1104:	01 00 00 00 	nop 
    1108:	d0 07 a0 44 	ld  [ %fp + 0x44 ], %o0
    110c:	40 00 00 7b 	call  12f8 <malloc>
    1110:	01 00 00 00 	nop 
    1114:	82 10 00 08 	mov  %o0, %g1
    1118:	c2 27 bf f4 	st  %g1, [ %fp + -12 ]
    111c:	03 00 00 29 	sethi  %hi(0xa400), %g1
    1120:	90 10 61 d4 	or  %g1, 0x1d4, %o0	! a5d4 <mutex_malloc>
    1124:	7f ff fe 33 	call  9f0 <pthread_mutex_unlock>
    1128:	01 00 00 00 	nop 
    112c:	c2 07 bf f4 	ld  [ %fp + -12 ], %g1
    1130:	b0 10 00 01 	mov  %g1, %i0
    1134:	81 c7 e0 08 	ret 
    1138:	81 e8 00 00 	restore 

0000113c <acPthread_realloc>:
    113c:	9d e3 bf 90 	save  %sp, -112, %sp
    1140:	f0 27 a0 44 	st  %i0, [ %fp + 0x44 ]
    1144:	f2 27 a0 48 	st  %i1, [ %fp + 0x48 ]
    1148:	03 00 00 29 	sethi  %hi(0xa400), %g1
    114c:	90 10 61 d4 	or  %g1, 0x1d4, %o0	! a5d4 <mutex_malloc>
    1150:	7f ff fd fb 	call  93c <pthread_mutex_lock>
    1154:	01 00 00 00 	nop 
    1158:	d0 07 a0 44 	ld  [ %fp + 0x44 ], %o0
    115c:	d2 07 a0 48 	ld  [ %fp + 0x48 ], %o1
    1160:	40 00 02 8a 	call  1b88 <realloc>
    1164:	01 00 00 00 	nop 
    1168:	d0 27 bf f4 	st  %o0, [ %fp + -12 ]
    116c:	03 00 00 29 	sethi  %hi(0xa400), %g1
    1170:	90 10 61 d4 	or  %g1, 0x1d4, %o0	! a5d4 <mutex_malloc>
    1174:	7f ff fe 1f 	call  9f0 <pthread_mutex_unlock>
    1178:	01 00 00 00 	nop 
    117c:	c2 07 bf f4 	ld  [ %fp + -12 ], %g1
    1180:	b0 10 00 01 	mov  %g1, %i0
    1184:	81 c7 e0 08 	ret 
    1188:	81 e8 00 00 	restore 

0000118c <acPthread_calloc>:
    118c:	9d e3 bf 90 	save  %sp, -112, %sp
    1190:	f0 27 a0 44 	st  %i0, [ %fp + 0x44 ]
    1194:	f2 27 a0 48 	st  %i1, [ %fp + 0x48 ]
    1198:	03 00 00 29 	sethi  %hi(0xa400), %g1
    119c:	90 10 61 d4 	or  %g1, 0x1d4, %o0	! a5d4 <mutex_malloc>
    11a0:	7f ff fd e7 	call  93c <pthread_mutex_lock>
    11a4:	01 00 00 00 	nop 
    11a8:	d0 07 a0 44 	ld  [ %fp + 0x44 ], %o0
    11ac:	d2 07 a0 48 	ld  [ %fp + 0x48 ], %o1
    11b0:	40 00 00 1c 	call  1220 <calloc>
    11b4:	01 00 00 00 	nop 
    11b8:	82 10 00 08 	mov  %o0, %g1
    11bc:	c2 27 bf f4 	st  %g1, [ %fp + -12 ]
    11c0:	03 00 00 29 	sethi  %hi(0xa400), %g1
    11c4:	90 10 61 d4 	or  %g1, 0x1d4, %o0	! a5d4 <mutex_malloc>
    11c8:	7f ff fe 0a 	call  9f0 <pthread_mutex_unlock>
    11cc:	01 00 00 00 	nop 
    11d0:	c2 07 bf f4 	ld  [ %fp + -12 ], %g1
    11d4:	b0 10 00 01 	mov  %g1, %i0
    11d8:	81 c7 e0 08 	ret 
    11dc:	81 e8 00 00 	restore 

000011e0 <acPthread_free>:
    11e0:	9d e3 bf 98 	save  %sp, -104, %sp
    11e4:	f0 27 a0 44 	st  %i0, [ %fp + 0x44 ]
    11e8:	03 00 00 29 	sethi  %hi(0xa400), %g1
    11ec:	90 10 61 d4 	or  %g1, 0x1d4, %o0	! a5d4 <mutex_malloc>
    11f0:	7f ff fd d3 	call  93c <pthread_mutex_lock>
    11f4:	01 00 00 00 	nop 
    11f8:	d0 07 a0 44 	ld  [ %fp + 0x44 ], %o0
    11fc:	40 00 00 47 	call  1318 <free>
    1200:	01 00 00 00 	nop 
    1204:	03 00 00 29 	sethi  %hi(0xa400), %g1
    1208:	90 10 61 d4 	or  %g1, 0x1d4, %o0	! a5d4 <mutex_malloc>
    120c:	7f ff fd f9 	call  9f0 <pthread_mutex_unlock>
    1210:	01 00 00 00 	nop 
    1214:	01 00 00 00 	nop 
    1218:	81 c7 e0 08 	ret 
    121c:	81 e8 00 00 	restore 

00001220 <calloc>:
    1220:	03 00 00 28 	sethi  %hi(0xa000), %g1
    1224:	da 00 61 20 	ld  [ %g1 + 0x120 ], %o5	! a120 <_impure_ptr>
    1228:	98 10 00 08 	mov  %o0, %o4
    122c:	94 10 00 09 	mov  %o1, %o2
    1230:	90 10 00 0d 	mov  %o5, %o0
    1234:	92 10 00 0c 	mov  %o4, %o1
    1238:	82 13 c0 00 	mov  %o7, %g1
    123c:	40 00 00 03 	call  1248 <_calloc_r>
    1240:	9e 10 40 00 	mov  %g1, %o7
    1244:	01 00 00 00 	nop 

00001248 <_calloc_r>:
    1248:	9d e3 bf 98 	save  %sp, -104, %sp
    124c:	92 10 00 1a 	mov  %i2, %o1
    1250:	40 00 19 12 	call  7698 <.umul>
    1254:	90 10 00 19 	mov  %i1, %o0
    1258:	92 10 00 08 	mov  %o0, %o1
    125c:	90 10 00 18 	mov  %i0, %o0
    1260:	40 00 00 ab 	call  150c <_malloc_r>
    1264:	b0 10 20 00 	clr  %i0
    1268:	b4 92 20 00 	orcc  %o0, 0, %i2
    126c:	02 80 00 21 	be  12f0 <_calloc_r+0xa8>
    1270:	9a 10 00 1a 	mov  %i2, %o5
    1274:	c2 06 bf fc 	ld  [ %i2 + -4 ], %g1
    1278:	82 08 7f fc 	and  %g1, -4, %g1
    127c:	92 10 20 00 	clr  %o1
    1280:	82 00 7f fc 	add  %g1, -4, %g1
    1284:	80 a0 60 24 	cmp  %g1, 0x24
    1288:	18 80 00 18 	bgu  12e8 <_calloc_r+0xa0>
    128c:	94 10 00 01 	mov  %g1, %o2
    1290:	80 a0 60 13 	cmp  %g1, 0x13
    1294:	28 80 00 10 	bleu,a   12d4 <_calloc_r+0x8c>
    1298:	c0 23 40 00 	clr  [ %o5 ]
    129c:	c0 26 80 00 	clr  [ %i2 ]
    12a0:	c0 26 a0 04 	clr  [ %i2 + 4 ]
    12a4:	80 a0 60 1b 	cmp  %g1, 0x1b
    12a8:	08 80 00 0a 	bleu  12d0 <_calloc_r+0x88>
    12ac:	9a 06 a0 08 	add  %i2, 8, %o5
    12b0:	80 a0 60 23 	cmp  %g1, 0x23
    12b4:	c0 26 a0 08 	clr  [ %i2 + 8 ]
    12b8:	c0 26 a0 0c 	clr  [ %i2 + 0xc ]
    12bc:	08 80 00 05 	bleu  12d0 <_calloc_r+0x88>
    12c0:	9a 06 a0 10 	add  %i2, 0x10, %o5
    12c4:	c0 26 a0 10 	clr  [ %i2 + 0x10 ]
    12c8:	c0 26 a0 14 	clr  [ %i2 + 0x14 ]
    12cc:	9a 06 a0 18 	add  %i2, 0x18, %o5
    12d0:	c0 23 40 00 	clr  [ %o5 ]
    12d4:	9a 03 60 04 	add  %o5, 4, %o5
    12d8:	c0 23 60 04 	clr  [ %o5 + 4 ]
    12dc:	c0 23 40 00 	clr  [ %o5 ]
    12e0:	10 80 00 04 	b  12f0 <_calloc_r+0xa8>
    12e4:	b0 10 00 1a 	mov  %i2, %i0
    12e8:	40 00 01 dc 	call  1a58 <memset>
    12ec:	b0 10 00 1a 	mov  %i2, %i0
    12f0:	81 c7 e0 08 	ret 
    12f4:	81 e8 00 00 	restore 

000012f8 <malloc>:
    12f8:	03 00 00 28 	sethi  %hi(0xa000), %g1
    12fc:	da 00 61 20 	ld  [ %g1 + 0x120 ], %o5	! a120 <_impure_ptr>
    1300:	92 10 00 08 	mov  %o0, %o1
    1304:	90 10 00 0d 	mov  %o5, %o0
    1308:	82 13 c0 00 	mov  %o7, %g1
    130c:	40 00 00 80 	call  150c <_malloc_r>
    1310:	9e 10 40 00 	mov  %g1, %o7
    1314:	01 00 00 00 	nop 

00001318 <free>:
    1318:	03 00 00 28 	sethi  %hi(0xa000), %g1
    131c:	da 00 61 20 	ld  [ %g1 + 0x120 ], %o5	! a120 <_impure_ptr>
    1320:	92 10 00 08 	mov  %o0, %o1
    1324:	90 10 00 0d 	mov  %o5, %o0
    1328:	82 13 c0 00 	mov  %o7, %g1
    132c:	40 00 10 ba 	call  5614 <_free_r>
    1330:	9e 10 40 00 	mov  %g1, %o7
    1334:	01 00 00 00 	nop 

00001338 <malloc_extend_top>:
    1338:	9d e3 bf 98 	save  %sp, -104, %sp
    133c:	2f 00 00 28 	sethi  %hi(0xa000), %l7
    1340:	ac 15 e1 28 	or  %l7, 0x128, %l6	! a128 <__malloc_av_>
    1344:	e4 05 a0 08 	ld  [ %l6 + 8 ], %l2
    1348:	03 00 00 29 	sethi  %hi(0xa400), %g1
    134c:	d8 04 a0 04 	ld  [ %l2 + 4 ], %o4
    1350:	da 00 61 68 	ld  [ %g1 + 0x168 ], %o5
    1354:	29 00 00 29 	sethi  %hi(0xa400), %l4
    1358:	c2 05 21 34 	ld  [ %l4 + 0x134 ], %g1	! a534 <__malloc_sbrk_base>
    135c:	b2 06 40 0d 	add  %i1, %o5, %i1
    1360:	a6 0b 3f fc 	and  %o4, -4, %l3
    1364:	80 a0 7f ff 	cmp  %g1, -1
    1368:	b2 06 60 10 	add  %i1, 0x10, %i1
    136c:	02 80 00 04 	be  137c <malloc_extend_top+0x44>
    1370:	a2 04 80 13 	add  %l2, %l3, %l1
    1374:	82 06 6f ff 	add  %i1, 0xfff, %g1
    1378:	b2 08 70 00 	and  %g1, -4096, %i1
    137c:	90 10 00 18 	mov  %i0, %o0
    1380:	40 00 03 46 	call  2098 <_sbrk_r>
    1384:	92 10 00 19 	mov  %i1, %o1
    1388:	80 a2 3f ff 	cmp  %o0, -1
    138c:	02 80 00 5e 	be  1504 <malloc_extend_top+0x1cc>
    1390:	a0 10 00 08 	mov  %o0, %l0
    1394:	80 a2 00 11 	cmp  %o0, %l1
    1398:	1a 80 00 05 	bcc  13ac <malloc_extend_top+0x74>
    139c:	2b 00 00 29 	sethi  %hi(0xa400), %l5
    13a0:	80 a4 80 16 	cmp  %l2, %l6
    13a4:	12 80 00 58 	bne  1504 <malloc_extend_top+0x1cc>
    13a8:	01 00 00 00 	nop 
    13ac:	c2 05 61 74 	ld  [ %l5 + 0x174 ], %g1
    13b0:	80 a4 00 11 	cmp  %l0, %l1
    13b4:	82 00 40 19 	add  %g1, %i1, %g1
    13b8:	02 80 00 4b 	be  14e4 <malloc_extend_top+0x1ac>
    13bc:	c2 25 61 74 	st  %g1, [ %l5 + 0x174 ]
    13c0:	c2 05 21 34 	ld  [ %l4 + 0x134 ], %g1
    13c4:	80 a0 7f ff 	cmp  %g1, -1
    13c8:	02 80 00 45 	be  14dc <malloc_extend_top+0x1a4>
    13cc:	c2 05 61 74 	ld  [ %l5 + 0x174 ], %g1
    13d0:	9a 24 00 11 	sub  %l0, %l1, %o5
    13d4:	82 00 40 0d 	add  %g1, %o5, %g1
    13d8:	c2 25 61 74 	st  %g1, [ %l5 + 0x174 ]
    13dc:	9a 8c 20 07 	andcc  %l0, 7, %o5
    13e0:	02 80 00 05 	be  13f4 <malloc_extend_top+0xbc>
    13e4:	a2 10 20 00 	clr  %l1
    13e8:	82 10 20 08 	mov  8, %g1
    13ec:	a2 20 40 0d 	sub  %g1, %o5, %l1
    13f0:	a0 04 00 11 	add  %l0, %l1, %l0
    13f4:	9a 04 00 19 	add  %l0, %i1, %o5
    13f8:	9a 0b 6f ff 	and  %o5, 0xfff, %o5
    13fc:	03 00 00 04 	sethi  %hi(0x1000), %g1
    1400:	90 10 00 18 	mov  %i0, %o0
    1404:	82 20 40 0d 	sub  %g1, %o5, %g1
    1408:	a2 04 40 01 	add  %l1, %g1, %l1
    140c:	40 00 03 23 	call  2098 <_sbrk_r>
    1410:	92 10 00 11 	mov  %l1, %o1
    1414:	80 a2 3f ff 	cmp  %o0, -1
    1418:	22 80 00 2f 	be,a   14d4 <malloc_extend_top+0x19c>
    141c:	a2 10 20 00 	clr  %l1
    1420:	c2 05 61 74 	ld  [ %l5 + 0x174 ], %g1
    1424:	9a 15 e1 28 	or  %l7, 0x128, %o5
    1428:	82 00 40 11 	add  %g1, %l1, %g1
    142c:	c2 25 61 74 	st  %g1, [ %l5 + 0x174 ]
    1430:	80 a4 80 0d 	cmp  %l2, %o5
    1434:	82 22 00 10 	sub  %o0, %l0, %g1
    1438:	e0 23 60 08 	st  %l0, [ %o5 + 8 ]
    143c:	82 00 40 11 	add  %g1, %l1, %g1
    1440:	82 10 60 01 	or  %g1, 1, %g1
    1444:	02 80 00 13 	be  1490 <malloc_extend_top+0x158>
    1448:	c2 24 20 04 	st  %g1, [ %l0 + 4 ]
    144c:	80 a4 e0 0f 	cmp  %l3, 0xf
    1450:	38 80 00 05 	bgu,a   1464 <malloc_extend_top+0x12c>
    1454:	c2 04 a0 04 	ld  [ %l2 + 4 ], %g1
    1458:	82 10 20 01 	mov  1, %g1
    145c:	10 80 00 2a 	b  1504 <malloc_extend_top+0x1cc>
    1460:	c2 24 20 04 	st  %g1, [ %l0 + 4 ]
    1464:	9a 04 ff f4 	add  %l3, -12, %o5
    1468:	82 08 60 01 	and  %g1, 1, %g1
    146c:	a6 0b 7f f8 	and  %o5, -8, %l3
    1470:	82 10 40 13 	or  %g1, %l3, %g1
    1474:	c2 24 a0 04 	st  %g1, [ %l2 + 4 ]
    1478:	9a 04 80 13 	add  %l2, %l3, %o5
    147c:	82 10 20 05 	mov  5, %g1
    1480:	80 a4 e0 0f 	cmp  %l3, 0xf
    1484:	c2 23 60 08 	st  %g1, [ %o5 + 8 ]
    1488:	18 80 00 0e 	bgu  14c0 <malloc_extend_top+0x188>
    148c:	c2 23 60 04 	st  %g1, [ %o5 + 4 ]
    1490:	da 05 61 74 	ld  [ %l5 + 0x174 ], %o5
    1494:	19 00 00 29 	sethi  %hi(0xa400), %o4
    1498:	c2 03 21 6c 	ld  [ %o4 + 0x16c ], %g1	! a56c <__malloc_max_sbrked_mem>
    149c:	80 a3 40 01 	cmp  %o5, %g1
    14a0:	38 80 00 02 	bgu,a   14a8 <malloc_extend_top+0x170>
    14a4:	da 23 21 6c 	st  %o5, [ %o4 + 0x16c ]
    14a8:	19 00 00 29 	sethi  %hi(0xa400), %o4
    14ac:	c2 03 21 70 	ld  [ %o4 + 0x170 ], %g1	! a570 <__malloc_max_total_mem>
    14b0:	80 a3 40 01 	cmp  %o5, %g1
    14b4:	38 80 00 14 	bgu,a   1504 <malloc_extend_top+0x1cc>
    14b8:	da 23 21 70 	st  %o5, [ %o4 + 0x170 ]
    14bc:	30 80 00 12 	b,a   1504 <malloc_extend_top+0x1cc>
    14c0:	92 04 a0 08 	add  %l2, 8, %o1
    14c4:	40 00 10 54 	call  5614 <_free_r>
    14c8:	90 10 00 18 	mov  %i0, %o0
    14cc:	10 bf ff f2 	b  1494 <malloc_extend_top+0x15c>
    14d0:	da 05 61 74 	ld  [ %l5 + 0x174 ], %o5
    14d4:	10 bf ff d3 	b  1420 <malloc_extend_top+0xe8>
    14d8:	90 10 00 10 	mov  %l0, %o0
    14dc:	10 bf ff c0 	b  13dc <malloc_extend_top+0xa4>
    14e0:	e0 25 21 34 	st  %l0, [ %l4 + 0x134 ]
    14e4:	80 8c 2f ff 	btst  0xfff, %l0
    14e8:	12 bf ff b7 	bne  13c4 <malloc_extend_top+0x8c>
    14ec:	c2 05 21 34 	ld  [ %l4 + 0x134 ], %g1
    14f0:	da 05 a0 08 	ld  [ %l6 + 8 ], %o5
    14f4:	82 06 40 13 	add  %i1, %l3, %g1
    14f8:	82 10 60 01 	or  %g1, 1, %g1
    14fc:	10 bf ff e5 	b  1490 <malloc_extend_top+0x158>
    1500:	c2 23 60 04 	st  %g1, [ %o5 + 4 ]
    1504:	81 c7 e0 08 	ret 
    1508:	81 e8 00 00 	restore 

0000150c <_malloc_r>:
    150c:	9d e3 bf 98 	save  %sp, -104, %sp
    1510:	b2 06 60 0b 	add  %i1, 0xb, %i1
    1514:	a2 10 00 18 	mov  %i0, %l1
    1518:	80 a6 60 16 	cmp  %i1, 0x16
    151c:	18 80 00 03 	bgu  1528 <_malloc_r+0x1c>
    1520:	b2 0e 7f f8 	and  %i1, -8, %i1
    1524:	b2 10 20 10 	mov  0x10, %i1
    1528:	80 a6 60 00 	cmp  %i1, 0
    152c:	06 80 01 49 	bl  1a50 <_malloc_r+0x544>
    1530:	b0 10 20 00 	clr  %i0
    1534:	40 00 01 76 	call  1b0c <__malloc_lock>
    1538:	90 10 00 11 	mov  %l1, %o0
    153c:	80 a6 61 f7 	cmp  %i1, 0x1f7
    1540:	18 80 01 15 	bgu  1994 <_malloc_r+0x488>
    1544:	99 36 60 09 	srl  %i1, 9, %o4
    1548:	25 00 00 28 	sethi  %hi(0xa000), %l2
    154c:	82 14 a1 28 	or  %l2, 0x128, %g1	! a128 <__malloc_av_>
    1550:	98 06 40 01 	add  %i1, %g1, %o4
    1554:	f0 03 20 0c 	ld  [ %o4 + 0xc ], %i0
    1558:	80 a6 00 0c 	cmp  %i0, %o4
    155c:	02 80 00 10 	be  159c <_malloc_r+0x90>
    1560:	a1 36 60 03 	srl  %i1, 3, %l0
    1564:	c2 06 20 04 	ld  [ %i0 + 4 ], %g1
    1568:	de 06 20 0c 	ld  [ %i0 + 0xc ], %o7
    156c:	92 08 7f fc 	and  %g1, -4, %o1
    1570:	9a 06 00 09 	add  %i0, %o1, %o5
    1574:	d0 06 20 08 	ld  [ %i0 + 8 ], %o0
    1578:	c2 03 60 04 	ld  [ %o5 + 4 ], %g1
    157c:	d0 23 e0 08 	st  %o0, [ %o7 + 8 ]
    1580:	82 10 60 01 	or  %g1, 1, %g1
    1584:	c2 23 60 04 	st  %g1, [ %o5 + 4 ]
    1588:	de 22 20 0c 	st  %o7, [ %o0 + 0xc ]
    158c:	90 10 00 11 	mov  %l1, %o0
    1590:	40 00 01 61 	call  1b14 <__malloc_unlock>
    1594:	b0 06 20 08 	add  %i0, 8, %i0
    1598:	30 80 01 2e 	b,a   1a50 <_malloc_r+0x544>
    159c:	98 06 20 08 	add  %i0, 8, %o4
    15a0:	f0 03 20 0c 	ld  [ %o4 + 0xc ], %i0
    15a4:	80 a6 00 0c 	cmp  %i0, %o4
    15a8:	32 bf ff f0 	bne,a   1568 <_malloc_r+0x5c>
    15ac:	c2 06 20 04 	ld  [ %i0 + 4 ], %g1
    15b0:	a0 04 20 02 	add  %l0, 2, %l0
    15b4:	27 00 00 28 	sethi  %hi(0xa000), %l3
    15b8:	96 14 e1 30 	or  %l3, 0x130, %o3	! a130 <__malloc_av_+0x8>
    15bc:	f0 02 e0 08 	ld  [ %o3 + 8 ], %i0
    15c0:	80 a6 00 0b 	cmp  %i0, %o3
    15c4:	22 80 00 24 	be,a   1654 <_malloc_r+0x148>
    15c8:	25 00 00 28 	sethi  %hi(0xa000), %l2
    15cc:	c2 06 20 04 	ld  [ %i0 + 4 ], %g1
    15d0:	92 08 7f fc 	and  %g1, -4, %o1
    15d4:	94 22 40 19 	sub  %o1, %i1, %o2
    15d8:	80 a2 a0 0f 	cmp  %o2, 0xf
    15dc:	14 80 00 e5 	bg  1970 <_malloc_r+0x464>
    15e0:	80 a2 a0 00 	cmp  %o2, 0
    15e4:	d6 22 e0 0c 	st  %o3, [ %o3 + 0xc ]
    15e8:	06 80 00 08 	bl  1608 <_malloc_r+0xfc>
    15ec:	d6 22 e0 08 	st  %o3, [ %o3 + 8 ]
    15f0:	9a 06 00 09 	add  %i0, %o1, %o5
    15f4:	c2 03 60 04 	ld  [ %o5 + 4 ], %g1
    15f8:	90 10 00 11 	mov  %l1, %o0
    15fc:	82 10 60 01 	or  %g1, 1, %g1
    1600:	10 bf ff e4 	b  1590 <_malloc_r+0x84>
    1604:	c2 23 60 04 	st  %g1, [ %o5 + 4 ]
    1608:	80 a2 61 ff 	cmp  %o1, 0x1ff
    160c:	38 80 00 a1 	bgu,a   1890 <_malloc_r+0x384>
    1610:	97 32 60 09 	srl  %o1, 9, %o3
    1614:	96 02 ff f8 	add  %o3, -8, %o3
    1618:	9b 32 60 03 	srl  %o1, 3, %o5
    161c:	83 2b 60 03 	sll  %o5, 3, %g1
    1620:	9e 00 40 0b 	add  %g1, %o3, %o7
    1624:	d0 03 e0 08 	ld  [ %o7 + 8 ], %o0
    1628:	d8 02 e0 04 	ld  [ %o3 + 4 ], %o4
    162c:	de 26 20 0c 	st  %o7, [ %i0 + 0xc ]
    1630:	d0 26 20 08 	st  %o0, [ %i0 + 8 ]
    1634:	9b 33 60 02 	srl  %o5, 2, %o5
    1638:	82 10 20 01 	mov  1, %g1
    163c:	f0 22 20 0c 	st  %i0, [ %o0 + 0xc ]
    1640:	83 28 40 0d 	sll  %g1, %o5, %g1
    1644:	f0 23 e0 08 	st  %i0, [ %o7 + 8 ]
    1648:	98 13 00 01 	or  %o4, %g1, %o4
    164c:	d8 22 e0 04 	st  %o4, [ %o3 + 4 ]
    1650:	25 00 00 28 	sethi  %hi(0xa000), %l2
    1654:	82 14 a1 28 	or  %l2, 0x128, %g1	! a128 <__malloc_av_>
    1658:	d8 00 60 04 	ld  [ %g1 + 4 ], %o4
    165c:	9b 3c 20 1f 	sra  %l0, 0x1f, %o5
    1660:	82 10 20 01 	mov  1, %g1
    1664:	9b 33 60 1e 	srl  %o5, 0x1e, %o5
    1668:	9a 04 00 0d 	add  %l0, %o5, %o5
    166c:	9b 3b 60 02 	sra  %o5, 2, %o5
    1670:	97 28 40 0d 	sll  %g1, %o5, %o3
    1674:	80 a2 c0 0c 	cmp  %o3, %o4
    1678:	38 80 00 42 	bgu,a   1780 <_malloc_r+0x274>
    167c:	a0 14 a1 28 	or  %l2, 0x128, %l0
    1680:	80 8a c0 0c 	btst  %o3, %o4
    1684:	12 80 00 0d 	bne  16b8 <_malloc_r+0x1ac>
    1688:	03 00 00 28 	sethi  %hi(0xa000), %g1
    168c:	82 0c 3f fc 	and  %l0, -4, %g1
    1690:	96 02 c0 0b 	add  %o3, %o3, %o3
    1694:	80 8a c0 0c 	btst  %o3, %o4
    1698:	12 80 00 07 	bne  16b4 <_malloc_r+0x1a8>
    169c:	a0 00 60 04 	add  %g1, 4, %l0
    16a0:	82 10 00 0c 	mov  %o4, %g1
    16a4:	96 02 c0 0b 	add  %o3, %o3, %o3
    16a8:	80 8a c0 01 	btst  %o3, %g1
    16ac:	02 bf ff fe 	be  16a4 <_malloc_r+0x198>
    16b0:	a0 04 20 04 	add  %l0, 4, %l0
    16b4:	03 00 00 28 	sethi  %hi(0xa000), %g1
    16b8:	9e 10 61 28 	or  %g1, 0x128, %o7	! a128 <__malloc_av_>
    16bc:	83 2c 20 03 	sll  %l0, 3, %g1
    16c0:	90 10 00 10 	mov  %l0, %o0
    16c4:	98 00 40 0f 	add  %g1, %o7, %o4
    16c8:	9a 10 00 0c 	mov  %o4, %o5
    16cc:	f0 03 60 0c 	ld  [ %o5 + 0xc ], %i0
    16d0:	80 a6 00 0d 	cmp  %i0, %o5
    16d4:	22 80 00 0f 	be,a   1710 <_malloc_r+0x204>
    16d8:	a0 04 20 01 	inc  %l0
    16dc:	c2 06 20 04 	ld  [ %i0 + 4 ], %g1
    16e0:	92 08 7f fc 	and  %g1, -4, %o1
    16e4:	94 22 40 19 	sub  %o1, %i1, %o2
    16e8:	80 a2 a0 0f 	cmp  %o2, 0xf
    16ec:	14 80 00 58 	bg  184c <_malloc_r+0x340>
    16f0:	80 a2 a0 00 	cmp  %o2, 0
    16f4:	36 80 00 50 	bge,a   1834 <_malloc_r+0x328>
    16f8:	9a 06 00 09 	add  %i0, %o1, %o5
    16fc:	f0 06 20 0c 	ld  [ %i0 + 0xc ], %i0
    1700:	80 a6 00 0d 	cmp  %i0, %o5
    1704:	32 bf ff f7 	bne,a   16e0 <_malloc_r+0x1d4>
    1708:	c2 06 20 04 	ld  [ %i0 + 4 ], %g1
    170c:	a0 04 20 01 	inc  %l0
    1710:	80 8c 20 03 	btst  3, %l0
    1714:	12 bf ff ee 	bne  16cc <_malloc_r+0x1c0>
    1718:	9a 03 60 08 	add  %o5, 8, %o5
    171c:	80 8a 20 03 	btst  3, %o0
    1720:	02 80 00 41 	be  1824 <_malloc_r+0x318>
    1724:	98 03 3f f8 	add  %o4, -8, %o4
    1728:	c2 03 20 08 	ld  [ %o4 + 8 ], %g1
    172c:	80 a0 40 0c 	cmp  %g1, %o4
    1730:	02 bf ff fb 	be  171c <_malloc_r+0x210>
    1734:	90 02 3f ff 	add  %o0, -1, %o0
    1738:	25 00 00 28 	sethi  %hi(0xa000), %l2
    173c:	82 14 a1 28 	or  %l2, 0x128, %g1	! a128 <__malloc_av_>
    1740:	c2 00 60 04 	ld  [ %g1 + 4 ], %g1
    1744:	96 02 c0 0b 	add  %o3, %o3, %o3
    1748:	80 a2 c0 01 	cmp  %o3, %g1
    174c:	18 80 00 0c 	bgu  177c <_malloc_r+0x270>
    1750:	80 a2 e0 00 	cmp  %o3, 0
    1754:	02 80 00 0a 	be  177c <_malloc_r+0x270>
    1758:	80 8a c0 01 	btst  %o3, %g1
    175c:	32 bf ff d9 	bne,a   16c0 <_malloc_r+0x1b4>
    1760:	83 2c 20 03 	sll  %l0, 3, %g1
    1764:	96 02 c0 0b 	add  %o3, %o3, %o3
    1768:	80 8a c0 01 	btst  %o3, %g1
    176c:	02 bf ff fe 	be  1764 <_malloc_r+0x258>
    1770:	a0 04 20 04 	add  %l0, 4, %l0
    1774:	10 bf ff d3 	b  16c0 <_malloc_r+0x1b4>
    1778:	83 2c 20 03 	sll  %l0, 3, %g1
    177c:	a0 14 a1 28 	or  %l2, 0x128, %l0
    1780:	da 04 20 08 	ld  [ %l0 + 8 ], %o5
    1784:	c2 03 60 04 	ld  [ %o5 + 4 ], %g1
    1788:	82 08 7f fc 	and  %g1, -4, %g1
    178c:	80 a0 40 19 	cmp  %g1, %i1
    1790:	94 20 40 19 	sub  %g1, %i1, %o2
    1794:	9a 40 20 00 	addx  %g0, 0, %o5
    1798:	80 a2 a0 0f 	cmp  %o2, 0xf
    179c:	04 80 00 03 	ble  17a8 <_malloc_r+0x29c>
    17a0:	98 10 20 01 	mov  1, %o4
    17a4:	98 10 20 00 	clr  %o4
    17a8:	80 93 40 0c 	orcc  %o5, %o4, %g0
    17ac:	02 80 00 12 	be  17f4 <_malloc_r+0x2e8>
    17b0:	98 14 a1 28 	or  %l2, 0x128, %o4
    17b4:	90 10 00 11 	mov  %l1, %o0
    17b8:	7f ff fe e0 	call  1338 <malloc_extend_top>
    17bc:	92 10 00 19 	mov  %i1, %o1
    17c0:	da 04 20 08 	ld  [ %l0 + 8 ], %o5
    17c4:	c2 03 60 04 	ld  [ %o5 + 4 ], %g1
    17c8:	82 08 7f fc 	and  %g1, -4, %g1
    17cc:	80 a0 40 19 	cmp  %g1, %i1
    17d0:	94 20 40 19 	sub  %g1, %i1, %o2
    17d4:	9a 40 20 00 	addx  %g0, 0, %o5
    17d8:	80 a2 a0 0f 	cmp  %o2, 0xf
    17dc:	04 80 00 03 	ble  17e8 <_malloc_r+0x2dc>
    17e0:	98 10 20 01 	mov  1, %o4
    17e4:	98 10 20 00 	clr  %o4
    17e8:	80 93 40 0c 	orcc  %o5, %o4, %g0
    17ec:	12 80 00 0a 	bne  1814 <_malloc_r+0x308>
    17f0:	98 14 a1 28 	or  %l2, 0x128, %o4
    17f4:	f0 03 20 08 	ld  [ %o4 + 8 ], %i0
    17f8:	82 16 60 01 	or  %i1, 1, %g1
    17fc:	c2 26 20 04 	st  %g1, [ %i0 + 4 ]
    1800:	9a 06 00 19 	add  %i0, %i1, %o5
    1804:	82 12 a0 01 	or  %o2, 1, %g1
    1808:	da 23 20 08 	st  %o5, [ %o4 + 8 ]
    180c:	10 bf ff 60 	b  158c <_malloc_r+0x80>
    1810:	c2 23 60 04 	st  %g1, [ %o5 + 4 ]
    1814:	90 10 00 11 	mov  %l1, %o0
    1818:	40 00 00 bf 	call  1b14 <__malloc_unlock>
    181c:	b0 10 20 00 	clr  %i0
    1820:	30 80 00 8c 	b,a   1a50 <_malloc_r+0x544>
    1824:	c2 03 e0 04 	ld  [ %o7 + 4 ], %g1
    1828:	82 28 40 0b 	andn  %g1, %o3, %g1
    182c:	10 bf ff c3 	b  1738 <_malloc_r+0x22c>
    1830:	c2 23 e0 04 	st  %g1, [ %o7 + 4 ]
    1834:	de 06 20 0c 	ld  [ %i0 + 0xc ], %o7
    1838:	c2 03 60 04 	ld  [ %o5 + 4 ], %g1
    183c:	d0 06 20 08 	ld  [ %i0 + 8 ], %o0
    1840:	82 10 60 01 	or  %g1, 1, %g1
    1844:	10 bf ff 50 	b  1584 <_malloc_r+0x78>
    1848:	d0 23 e0 08 	st  %o0, [ %o7 + 8 ]
    184c:	de 06 20 0c 	ld  [ %i0 + 0xc ], %o7
    1850:	d0 06 20 08 	ld  [ %i0 + 8 ], %o0
    1854:	92 06 00 19 	add  %i0, %i1, %o1
    1858:	d0 23 e0 08 	st  %o0, [ %o7 + 8 ]
    185c:	de 22 20 0c 	st  %o7, [ %o0 + 0xc ]
    1860:	82 14 e1 30 	or  %l3, 0x130, %g1
    1864:	d2 20 60 0c 	st  %o1, [ %g1 + 0xc ]
    1868:	d2 20 60 08 	st  %o1, [ %g1 + 8 ]
    186c:	9a 16 60 01 	or  %i1, 1, %o5
    1870:	d4 22 40 0a 	st  %o2, [ %o1 + %o2 ]
    1874:	da 26 20 04 	st  %o5, [ %i0 + 4 ]
    1878:	c2 22 60 08 	st  %g1, [ %o1 + 8 ]
    187c:	c2 22 60 0c 	st  %g1, [ %o1 + 0xc ]
    1880:	82 12 a0 01 	or  %o2, 1, %g1
    1884:	90 10 00 11 	mov  %l1, %o0
    1888:	10 bf ff 42 	b  1590 <_malloc_r+0x84>
    188c:	c2 22 60 04 	st  %g1, [ %o1 + 4 ]
    1890:	80 a2 e0 00 	cmp  %o3, 0
    1894:	02 80 00 16 	be  18ec <_malloc_r+0x3e0>
    1898:	9b 32 60 03 	srl  %o1, 3, %o5
    189c:	83 32 60 06 	srl  %o1, 6, %g1
    18a0:	80 a2 e0 04 	cmp  %o3, 4
    18a4:	08 80 00 12 	bleu  18ec <_malloc_r+0x3e0>
    18a8:	9a 00 60 38 	add  %g1, 0x38, %o5
    18ac:	80 a2 e0 14 	cmp  %o3, 0x14
    18b0:	08 80 00 0f 	bleu  18ec <_malloc_r+0x3e0>
    18b4:	9a 02 e0 5b 	add  %o3, 0x5b, %o5
    18b8:	83 32 60 0c 	srl  %o1, 0xc, %g1
    18bc:	80 a2 e0 54 	cmp  %o3, 0x54
    18c0:	08 80 00 0b 	bleu  18ec <_malloc_r+0x3e0>
    18c4:	9a 00 60 6e 	add  %g1, 0x6e, %o5
    18c8:	83 32 60 0f 	srl  %o1, 0xf, %g1
    18cc:	80 a2 e1 54 	cmp  %o3, 0x154
    18d0:	08 80 00 07 	bleu  18ec <_malloc_r+0x3e0>
    18d4:	9a 00 60 77 	add  %g1, 0x77, %o5
    18d8:	83 32 60 12 	srl  %o1, 0x12, %g1
    18dc:	80 a2 e5 54 	cmp  %o3, 0x554
    18e0:	08 80 00 03 	bleu  18ec <_malloc_r+0x3e0>
    18e4:	9a 00 60 7c 	add  %g1, 0x7c, %o5
    18e8:	9a 10 20 7e 	mov  0x7e, %o5
    18ec:	96 14 a1 28 	or  %l2, 0x128, %o3
    18f0:	83 2b 60 03 	sll  %o5, 3, %g1
    18f4:	9e 00 40 0b 	add  %g1, %o3, %o7
    18f8:	d0 03 e0 08 	ld  [ %o7 + 8 ], %o0
    18fc:	80 a2 00 0f 	cmp  %o0, %o7
    1900:	22 80 00 16 	be,a   1958 <_malloc_r+0x44c>
    1904:	c2 02 e0 04 	ld  [ %o3 + 4 ], %g1
    1908:	c2 02 20 04 	ld  [ %o0 + 4 ], %g1
    190c:	82 08 7f fc 	and  %g1, -4, %g1
    1910:	80 a2 40 01 	cmp  %o1, %g1
    1914:	3a 80 00 0c 	bcc,a   1944 <_malloc_r+0x438>
    1918:	de 02 20 0c 	ld  [ %o0 + 0xc ], %o7
    191c:	d0 02 20 08 	ld  [ %o0 + 8 ], %o0
    1920:	80 a2 00 0f 	cmp  %o0, %o7
    1924:	22 80 00 08 	be,a   1944 <_malloc_r+0x438>
    1928:	de 02 20 0c 	ld  [ %o0 + 0xc ], %o7
    192c:	c2 02 20 04 	ld  [ %o0 + 4 ], %g1
    1930:	82 08 7f fc 	and  %g1, -4, %g1
    1934:	80 a2 40 01 	cmp  %o1, %g1
    1938:	2a bf ff fa 	bcs,a   1920 <_malloc_r+0x414>
    193c:	d0 02 20 08 	ld  [ %o0 + 8 ], %o0
    1940:	de 02 20 0c 	ld  [ %o0 + 0xc ], %o7
    1944:	de 26 20 0c 	st  %o7, [ %i0 + 0xc ]
    1948:	d0 26 20 08 	st  %o0, [ %i0 + 8 ]
    194c:	f0 22 20 0c 	st  %i0, [ %o0 + 0xc ]
    1950:	10 bf ff 40 	b  1650 <_malloc_r+0x144>
    1954:	f0 23 e0 08 	st  %i0, [ %o7 + 8 ]
    1958:	99 33 60 02 	srl  %o5, 2, %o4
    195c:	9a 10 20 01 	mov  1, %o5
    1960:	9b 2b 40 0c 	sll  %o5, %o4, %o5
    1964:	82 10 40 0d 	or  %g1, %o5, %g1
    1968:	10 bf ff f7 	b  1944 <_malloc_r+0x438>
    196c:	c2 22 e0 04 	st  %g1, [ %o3 + 4 ]
    1970:	92 06 00 19 	add  %i0, %i1, %o1
    1974:	d2 22 e0 0c 	st  %o1, [ %o3 + 0xc ]
    1978:	d2 22 e0 08 	st  %o1, [ %o3 + 8 ]
    197c:	82 16 60 01 	or  %i1, 1, %g1
    1980:	d4 22 40 0a 	st  %o2, [ %o1 + %o2 ]
    1984:	c2 26 20 04 	st  %g1, [ %i0 + 4 ]
    1988:	d6 22 60 08 	st  %o3, [ %o1 + 8 ]
    198c:	10 bf ff bd 	b  1880 <_malloc_r+0x374>
    1990:	d6 22 60 0c 	st  %o3, [ %o1 + 0xc ]
    1994:	80 a3 20 00 	cmp  %o4, 0
    1998:	02 80 00 16 	be  19f0 <_malloc_r+0x4e4>
    199c:	a1 36 60 03 	srl  %i1, 3, %l0
    19a0:	83 36 60 06 	srl  %i1, 6, %g1
    19a4:	80 a3 20 04 	cmp  %o4, 4
    19a8:	08 80 00 12 	bleu  19f0 <_malloc_r+0x4e4>
    19ac:	a0 00 60 38 	add  %g1, 0x38, %l0
    19b0:	80 a3 20 14 	cmp  %o4, 0x14
    19b4:	08 80 00 0f 	bleu  19f0 <_malloc_r+0x4e4>
    19b8:	a0 03 20 5b 	add  %o4, 0x5b, %l0
    19bc:	83 36 60 0c 	srl  %i1, 0xc, %g1
    19c0:	80 a3 20 54 	cmp  %o4, 0x54
    19c4:	08 80 00 0b 	bleu  19f0 <_malloc_r+0x4e4>
    19c8:	a0 00 60 6e 	add  %g1, 0x6e, %l0
    19cc:	83 36 60 0f 	srl  %i1, 0xf, %g1
    19d0:	80 a3 21 54 	cmp  %o4, 0x154
    19d4:	08 80 00 07 	bleu  19f0 <_malloc_r+0x4e4>
    19d8:	a0 00 60 77 	add  %g1, 0x77, %l0
    19dc:	83 36 60 12 	srl  %i1, 0x12, %g1
    19e0:	80 a3 25 54 	cmp  %o4, 0x554
    19e4:	08 80 00 03 	bleu  19f0 <_malloc_r+0x4e4>
    19e8:	a0 00 60 7c 	add  %g1, 0x7c, %l0
    19ec:	a0 10 20 7e 	mov  0x7e, %l0
    19f0:	9b 2c 20 03 	sll  %l0, 3, %o5
    19f4:	25 00 00 28 	sethi  %hi(0xa000), %l2
    19f8:	82 14 a1 28 	or  %l2, 0x128, %g1	! a128 <__malloc_av_>
    19fc:	9a 03 40 01 	add  %o5, %g1, %o5
    1a00:	f0 03 60 0c 	ld  [ %o5 + 0xc ], %i0
    1a04:	80 a6 00 0d 	cmp  %i0, %o5
    1a08:	22 bf fe eb 	be,a   15b4 <_malloc_r+0xa8>
    1a0c:	a0 04 20 01 	inc  %l0
    1a10:	c2 06 20 04 	ld  [ %i0 + 4 ], %g1
    1a14:	92 08 7f fc 	and  %g1, -4, %o1
    1a18:	94 22 40 19 	sub  %o1, %i1, %o2
    1a1c:	80 a2 a0 0f 	cmp  %o2, 0xf
    1a20:	14 80 00 0a 	bg  1a48 <_malloc_r+0x53c>
    1a24:	80 a2 a0 00 	cmp  %o2, 0
    1a28:	36 bf fe d2 	bge,a   1570 <_malloc_r+0x64>
    1a2c:	de 06 20 0c 	ld  [ %i0 + 0xc ], %o7
    1a30:	f0 06 20 0c 	ld  [ %i0 + 0xc ], %i0
    1a34:	80 a6 00 0d 	cmp  %i0, %o5
    1a38:	32 bf ff f7 	bne,a   1a14 <_malloc_r+0x508>
    1a3c:	c2 06 20 04 	ld  [ %i0 + 4 ], %g1
    1a40:	10 bf fe dd 	b  15b4 <_malloc_r+0xa8>
    1a44:	a0 04 20 01 	inc  %l0
    1a48:	10 bf ff fe 	b  1a40 <_malloc_r+0x534>
    1a4c:	a0 04 3f ff 	add  %l0, -1, %l0
    1a50:	81 c7 e0 08 	ret 
    1a54:	81 e8 00 00 	restore 

00001a58 <memset>:
    1a58:	92 0a 60 ff 	and  %o1, 0xff, %o1
    1a5c:	80 a2 a0 03 	cmp  %o2, 3
    1a60:	08 80 00 20 	bleu  1ae0 <memset+0x88>
    1a64:	82 10 00 08 	mov  %o0, %g1
    1a68:	80 8a 20 03 	btst  3, %o0
    1a6c:	32 80 00 1e 	bne,a   1ae4 <memset+0x8c>
    1a70:	94 02 bf ff 	add  %o2, -1, %o2
    1a74:	83 2a 60 08 	sll  %o1, 8, %g1
    1a78:	9a 10 00 08 	mov  %o0, %o5
    1a7c:	98 10 40 09 	or  %g1, %o1, %o4
    1a80:	83 2b 20 10 	sll  %o4, 0x10, %g1
    1a84:	80 a2 a0 0f 	cmp  %o2, 0xf
    1a88:	08 80 00 0d 	bleu  1abc <memset+0x64>
    1a8c:	98 13 00 01 	or  %o4, %g1, %o4
    1a90:	d8 23 40 00 	st  %o4, [ %o5 ]
    1a94:	9a 03 60 04 	add  %o5, 4, %o5
    1a98:	d8 23 40 00 	st  %o4, [ %o5 ]
    1a9c:	9a 03 60 04 	add  %o5, 4, %o5
    1aa0:	d8 23 40 00 	st  %o4, [ %o5 ]
    1aa4:	94 02 bf f0 	add  %o2, -16, %o2
    1aa8:	9a 03 60 04 	add  %o5, 4, %o5
    1aac:	80 a2 a0 0f 	cmp  %o2, 0xf
    1ab0:	d8 23 40 00 	st  %o4, [ %o5 ]
    1ab4:	18 bf ff f7 	bgu  1a90 <memset+0x38>
    1ab8:	9a 03 60 04 	add  %o5, 4, %o5
    1abc:	80 a2 a0 03 	cmp  %o2, 3
    1ac0:	28 80 00 08 	bleu,a   1ae0 <memset+0x88>
    1ac4:	82 10 00 0d 	mov  %o5, %g1
    1ac8:	d8 23 40 00 	st  %o4, [ %o5 ]
    1acc:	94 02 bf fc 	add  %o2, -4, %o2
    1ad0:	80 a2 a0 03 	cmp  %o2, 3
    1ad4:	18 bf ff fd 	bgu  1ac8 <memset+0x70>
    1ad8:	9a 03 60 04 	add  %o5, 4, %o5
    1adc:	82 10 00 0d 	mov  %o5, %g1
    1ae0:	94 02 bf ff 	add  %o2, -1, %o2
    1ae4:	80 a2 bf ff 	cmp  %o2, -1
    1ae8:	02 80 00 07 	be  1b04 <memset+0xac>
    1aec:	01 00 00 00 	nop 
    1af0:	d2 28 40 00 	stb  %o1, [ %g1 ]
    1af4:	94 02 bf ff 	add  %o2, -1, %o2
    1af8:	80 a2 bf ff 	cmp  %o2, -1
    1afc:	12 bf ff fd 	bne  1af0 <memset+0x98>
    1b00:	82 00 60 01 	inc  %g1
    1b04:	81 c3 e0 08 	retl 
    1b08:	01 00 00 00 	nop 

00001b0c <__malloc_lock>:
    1b0c:	81 c3 e0 08 	retl 
    1b10:	01 00 00 00 	nop 

00001b14 <__malloc_unlock>:
    1b14:	81 c3 e0 08 	retl 
    1b18:	01 00 00 00 	nop 

00001b1c <_printf_r>:
    1b1c:	9d e3 bf 98 	save  %sp, -104, %sp
    1b20:	d2 06 20 08 	ld  [ %i0 + 8 ], %o1
    1b24:	90 10 00 18 	mov  %i0, %o0
    1b28:	f4 27 a0 4c 	st  %i2, [ %fp + 0x4c ]
    1b2c:	f6 27 a0 50 	st  %i3, [ %fp + 0x50 ]
    1b30:	f8 27 a0 54 	st  %i4, [ %fp + 0x54 ]
    1b34:	fa 27 a0 58 	st  %i5, [ %fp + 0x58 ]
    1b38:	94 10 00 19 	mov  %i1, %o2
    1b3c:	40 00 02 0d 	call  2370 <_vfprintf_r>
    1b40:	96 07 a0 4c 	add  %fp, 0x4c, %o3
    1b44:	81 c7 e0 08 	ret 
    1b48:	91 e8 00 08 	restore  %g0, %o0, %o0

00001b4c <printf>:
    1b4c:	9d e3 bf 98 	save  %sp, -104, %sp
    1b50:	03 00 00 28 	sethi  %hi(0xa000), %g1
    1b54:	da 00 61 20 	ld  [ %g1 + 0x120 ], %o5	! a120 <_impure_ptr>
    1b58:	f2 27 a0 48 	st  %i1, [ %fp + 0x48 ]
    1b5c:	f4 27 a0 4c 	st  %i2, [ %fp + 0x4c ]
    1b60:	f6 27 a0 50 	st  %i3, [ %fp + 0x50 ]
    1b64:	f8 27 a0 54 	st  %i4, [ %fp + 0x54 ]
    1b68:	fa 27 a0 58 	st  %i5, [ %fp + 0x58 ]
    1b6c:	d0 03 60 08 	ld  [ %o5 + 8 ], %o0
    1b70:	92 10 00 18 	mov  %i0, %o1
    1b74:	da 22 20 54 	st  %o5, [ %o0 + 0x54 ]
    1b78:	40 00 01 e7 	call  2314 <vfprintf>
    1b7c:	94 07 a0 48 	add  %fp, 0x48, %o2
    1b80:	81 c7 e0 08 	ret 
    1b84:	91 e8 00 08 	restore  %g0, %o0, %o0

00001b88 <realloc>:
    1b88:	03 00 00 28 	sethi  %hi(0xa000), %g1
    1b8c:	da 00 61 20 	ld  [ %g1 + 0x120 ], %o5	! a120 <_impure_ptr>
    1b90:	98 10 00 08 	mov  %o0, %o4
    1b94:	94 10 00 09 	mov  %o1, %o2
    1b98:	90 10 00 0d 	mov  %o5, %o0
    1b9c:	92 10 00 0c 	mov  %o4, %o1
    1ba0:	82 13 c0 00 	mov  %o7, %g1
    1ba4:	40 00 00 03 	call  1bb0 <_realloc_r>
    1ba8:	9e 10 40 00 	mov  %g1, %o7
    1bac:	01 00 00 00 	nop 

00001bb0 <_realloc_r>:
    1bb0:	9d e3 bf 98 	save  %sp, -104, %sp
    1bb4:	80 a6 60 00 	cmp  %i1, 0
    1bb8:	02 80 01 34 	be  2088 <_realloc_r+0x4d8>
    1bbc:	aa 10 00 18 	mov  %i0, %l5
    1bc0:	a0 06 7f f8 	add  %i1, -8, %l0
    1bc4:	7f ff ff d2 	call  1b0c <__malloc_lock>
    1bc8:	90 10 00 18 	mov  %i0, %o0
    1bcc:	d2 04 20 04 	ld  [ %l0 + 4 ], %o1
    1bd0:	82 06 a0 0b 	add  %i2, 0xb, %g1
    1bd4:	a4 0a 7f fc 	and  %o1, -4, %l2
    1bd8:	80 a0 60 16 	cmp  %g1, 0x16
    1bdc:	a6 10 00 10 	mov  %l0, %l3
    1be0:	a2 10 00 12 	mov  %l2, %l1
    1be4:	18 80 00 03 	bgu  1bf0 <_realloc_r+0x40>
    1be8:	a8 08 7f f8 	and  %g1, -8, %l4
    1bec:	a8 10 20 10 	mov  0x10, %l4
    1bf0:	80 a5 20 00 	cmp  %l4, 0
    1bf4:	06 80 01 27 	bl  2090 <_realloc_r+0x4e0>
    1bf8:	90 10 20 00 	clr  %o0
    1bfc:	80 a4 40 14 	cmp  %l1, %l4
    1c00:	16 80 00 6d 	bge  1db4 <_realloc_r+0x204>
    1c04:	9a 24 80 14 	sub  %l2, %l4, %o5
    1c08:	2d 00 00 28 	sethi  %hi(0xa000), %l6
    1c0c:	90 15 a1 28 	or  %l6, 0x128, %o0	! a128 <__malloc_av_>
    1c10:	d4 02 20 08 	ld  [ %o0 + 8 ], %o2
    1c14:	96 04 c0 11 	add  %l3, %l1, %o3
    1c18:	80 a2 c0 0a 	cmp  %o3, %o2
    1c1c:	02 80 00 09 	be  1c40 <_realloc_r+0x90>
    1c20:	d8 02 e0 04 	ld  [ %o3 + 4 ], %o4
    1c24:	82 0b 3f fe 	and  %o4, -2, %g1
    1c28:	82 02 c0 01 	add  %o3, %g1, %g1
    1c2c:	da 00 60 04 	ld  [ %g1 + 4 ], %o5
    1c30:	80 8b 60 01 	btst  1, %o5
    1c34:	32 80 01 13 	bne,a   2080 <_realloc_r+0x4d0>
    1c38:	96 10 20 00 	clr  %o3
    1c3c:	80 a2 c0 0a 	cmp  %o3, %o2
    1c40:	02 80 00 fe 	be  2038 <_realloc_r+0x488>
    1c44:	94 0b 3f fc 	and  %o4, -4, %o2
    1c48:	98 02 80 11 	add  %o2, %l1, %o4
    1c4c:	80 a3 00 14 	cmp  %o4, %l4
    1c50:	36 80 00 f5 	bge,a   2024 <_realloc_r+0x474>
    1c54:	da 02 e0 08 	ld  [ %o3 + 8 ], %o5
    1c58:	80 8a 60 01 	btst  1, %o1
    1c5c:	12 80 00 16 	bne  1cb4 <_realloc_r+0x104>
    1c60:	80 a2 e0 00 	cmp  %o3, 0
    1c64:	da 04 c0 00 	ld  [ %l3 ], %o5
    1c68:	a4 24 c0 0d 	sub  %l3, %o5, %l2
    1c6c:	c2 04 a0 04 	ld  [ %l2 + 4 ], %g1
    1c70:	02 80 00 0b 	be  1c9c <_realloc_r+0xec>
    1c74:	98 08 7f fc 	and  %g1, -4, %o4
    1c78:	82 15 a1 28 	or  %l6, 0x128, %g1
    1c7c:	da 00 60 08 	ld  [ %g1 + 8 ], %o5
    1c80:	80 a2 c0 0d 	cmp  %o3, %o5
    1c84:	02 80 00 a9 	be  1f28 <_realloc_r+0x378>
    1c88:	82 02 80 0c 	add  %o2, %o4, %g1
    1c8c:	92 00 40 11 	add  %g1, %l1, %o1
    1c90:	80 a2 40 14 	cmp  %o1, %l4
    1c94:	36 80 00 9a 	bge,a   1efc <_realloc_r+0x34c>
    1c98:	da 02 e0 08 	ld  [ %o3 + 8 ], %o5
    1c9c:	80 a4 a0 00 	cmp  %l2, 0
    1ca0:	02 80 00 05 	be  1cb4 <_realloc_r+0x104>
    1ca4:	98 03 00 11 	add  %o4, %l1, %o4
    1ca8:	80 a3 00 14 	cmp  %o4, %l4
    1cac:	36 80 00 63 	bge,a   1e38 <_realloc_r+0x288>
    1cb0:	c2 04 a0 0c 	ld  [ %l2 + 0xc ], %g1
    1cb4:	92 10 00 1a 	mov  %i2, %o1
    1cb8:	7f ff fe 15 	call  150c <_malloc_r>
    1cbc:	90 10 00 15 	mov  %l5, %o0
    1cc0:	b0 92 20 00 	orcc  %o0, 0, %i0
    1cc4:	02 80 00 59 	be  1e28 <_realloc_r+0x278>
    1cc8:	a0 06 3f f8 	add  %i0, -8, %l0
    1ccc:	c2 04 e0 04 	ld  [ %l3 + 4 ], %g1
    1cd0:	82 08 7f fe 	and  %g1, -2, %g1
    1cd4:	82 04 c0 01 	add  %l3, %g1, %g1
    1cd8:	80 a4 00 01 	cmp  %l0, %g1
    1cdc:	02 80 00 31 	be  1da0 <_realloc_r+0x1f0>
    1ce0:	94 04 7f fc 	add  %l1, -4, %o2
    1ce4:	80 a2 a0 24 	cmp  %o2, 0x24
    1ce8:	18 80 00 2a 	bgu  1d90 <_realloc_r+0x1e0>
    1cec:	80 a2 a0 13 	cmp  %o2, 0x13
    1cf0:	96 10 00 19 	mov  %i1, %o3
    1cf4:	08 80 00 18 	bleu  1d54 <_realloc_r+0x1a4>
    1cf8:	98 10 00 18 	mov  %i0, %o4
    1cfc:	c2 06 40 00 	ld  [ %i1 ], %g1
    1d00:	80 a2 a0 1b 	cmp  %o2, 0x1b
    1d04:	c2 26 00 00 	st  %g1, [ %i0 ]
    1d08:	da 06 60 04 	ld  [ %i1 + 4 ], %o5
    1d0c:	96 06 60 08 	add  %i1, 8, %o3
    1d10:	da 26 20 04 	st  %o5, [ %i0 + 4 ]
    1d14:	08 80 00 10 	bleu  1d54 <_realloc_r+0x1a4>
    1d18:	98 06 20 08 	add  %i0, 8, %o4
    1d1c:	c2 06 60 08 	ld  [ %i1 + 8 ], %g1
    1d20:	80 a2 a0 23 	cmp  %o2, 0x23
    1d24:	c2 26 20 08 	st  %g1, [ %i0 + 8 ]
    1d28:	da 06 60 0c 	ld  [ %i1 + 0xc ], %o5
    1d2c:	96 06 60 10 	add  %i1, 0x10, %o3
    1d30:	da 26 20 0c 	st  %o5, [ %i0 + 0xc ]
    1d34:	08 80 00 08 	bleu  1d54 <_realloc_r+0x1a4>
    1d38:	98 06 20 10 	add  %i0, 0x10, %o4
    1d3c:	c2 06 60 10 	ld  [ %i1 + 0x10 ], %g1
    1d40:	96 06 60 18 	add  %i1, 0x18, %o3
    1d44:	c2 26 20 10 	st  %g1, [ %i0 + 0x10 ]
    1d48:	da 06 60 14 	ld  [ %i1 + 0x14 ], %o5
    1d4c:	98 06 20 18 	add  %i0, 0x18, %o4
    1d50:	da 26 20 14 	st  %o5, [ %i0 + 0x14 ]
    1d54:	c2 02 c0 00 	ld  [ %o3 ], %g1
    1d58:	96 02 e0 04 	add  %o3, 4, %o3
    1d5c:	c2 23 00 00 	st  %g1, [ %o4 ]
    1d60:	da 02 c0 00 	ld  [ %o3 ], %o5
    1d64:	98 03 20 04 	add  %o4, 4, %o4
    1d68:	da 23 00 00 	st  %o5, [ %o4 ]
    1d6c:	c2 02 e0 04 	ld  [ %o3 + 4 ], %g1
    1d70:	c2 23 20 04 	st  %g1, [ %o4 + 4 ]
    1d74:	92 10 00 19 	mov  %i1, %o1
    1d78:	40 00 0e 27 	call  5614 <_free_r>
    1d7c:	90 10 00 15 	mov  %l5, %o0
    1d80:	7f ff ff 65 	call  1b14 <__malloc_unlock>
    1d84:	90 10 00 15 	mov  %l5, %o0
    1d88:	10 80 00 c2 	b  2090 <_realloc_r+0x4e0>
    1d8c:	90 10 00 18 	mov  %i0, %o0
    1d90:	40 00 10 f4 	call  6160 <memcpy>
    1d94:	92 10 00 19 	mov  %i1, %o1
    1d98:	10 bf ff f8 	b  1d78 <_realloc_r+0x1c8>
    1d9c:	92 10 00 19 	mov  %i1, %o1
    1da0:	c2 04 20 04 	ld  [ %l0 + 4 ], %g1
    1da4:	a0 10 00 13 	mov  %l3, %l0
    1da8:	82 08 7f fc 	and  %g1, -4, %g1
    1dac:	a4 04 40 01 	add  %l1, %g1, %l2
    1db0:	9a 24 80 14 	sub  %l2, %l4, %o5
    1db4:	80 a3 60 0f 	cmp  %o5, 0xf
    1db8:	18 80 00 0d 	bgu  1dec <_realloc_r+0x23c>
    1dbc:	98 04 00 12 	add  %l0, %l2, %o4
    1dc0:	c2 04 20 04 	ld  [ %l0 + 4 ], %g1
    1dc4:	82 08 60 01 	and  %g1, 1, %g1
    1dc8:	82 10 40 12 	or  %g1, %l2, %g1
    1dcc:	c2 24 20 04 	st  %g1, [ %l0 + 4 ]
    1dd0:	da 03 20 04 	ld  [ %o4 + 4 ], %o5
    1dd4:	9a 13 60 01 	or  %o5, 1, %o5
    1dd8:	da 23 20 04 	st  %o5, [ %o4 + 4 ]
    1ddc:	7f ff ff 4e 	call  1b14 <__malloc_unlock>
    1de0:	90 10 00 15 	mov  %l5, %o0
    1de4:	10 80 00 ab 	b  2090 <_realloc_r+0x4e0>
    1de8:	90 04 20 08 	add  %l0, 8, %o0
    1dec:	c2 04 20 04 	ld  [ %l0 + 4 ], %g1
    1df0:	92 04 00 14 	add  %l0, %l4, %o1
    1df4:	82 08 60 01 	and  %g1, 1, %g1
    1df8:	82 10 40 14 	or  %g1, %l4, %g1
    1dfc:	c2 24 20 04 	st  %g1, [ %l0 + 4 ]
    1e00:	98 02 40 0d 	add  %o1, %o5, %o4
    1e04:	9a 13 60 01 	or  %o5, 1, %o5
    1e08:	da 22 60 04 	st  %o5, [ %o1 + 4 ]
    1e0c:	c2 03 20 04 	ld  [ %o4 + 4 ], %g1
    1e10:	92 02 60 08 	add  %o1, 8, %o1
    1e14:	82 10 60 01 	or  %g1, 1, %g1
    1e18:	90 10 00 15 	mov  %l5, %o0
    1e1c:	40 00 0d fe 	call  5614 <_free_r>
    1e20:	c2 23 20 04 	st  %g1, [ %o4 + 4 ]
    1e24:	30 bf ff ee 	b,a   1ddc <_realloc_r+0x22c>
    1e28:	7f ff ff 3b 	call  1b14 <__malloc_unlock>
    1e2c:	90 10 00 15 	mov  %l5, %o0
    1e30:	10 80 00 98 	b  2090 <_realloc_r+0x4e0>
    1e34:	90 10 20 00 	clr  %o0
    1e38:	da 04 a0 08 	ld  [ %l2 + 8 ], %o5
    1e3c:	a0 10 00 12 	mov  %l2, %l0
    1e40:	da 20 60 08 	st  %o5, [ %g1 + 8 ]
    1e44:	94 04 7f fc 	add  %l1, -4, %o2
    1e48:	c2 23 60 0c 	st  %g1, [ %o5 + 0xc ]
    1e4c:	a4 10 00 0c 	mov  %o4, %l2
    1e50:	80 a2 a0 24 	cmp  %o2, 0x24
    1e54:	18 80 00 25 	bgu  1ee8 <_realloc_r+0x338>
    1e58:	b0 04 20 08 	add  %l0, 8, %i0
    1e5c:	90 10 00 18 	mov  %i0, %o0
    1e60:	80 a2 a0 13 	cmp  %o2, 0x13
    1e64:	08 80 00 18 	bleu  1ec4 <_realloc_r+0x314>
    1e68:	98 10 00 19 	mov  %i1, %o4
    1e6c:	c2 06 40 00 	ld  [ %i1 ], %g1
    1e70:	80 a2 a0 1b 	cmp  %o2, 0x1b
    1e74:	c2 24 20 08 	st  %g1, [ %l0 + 8 ]
    1e78:	da 06 60 04 	ld  [ %i1 + 4 ], %o5
    1e7c:	98 06 60 08 	add  %i1, 8, %o4
    1e80:	da 24 20 0c 	st  %o5, [ %l0 + 0xc ]
    1e84:	08 80 00 10 	bleu  1ec4 <_realloc_r+0x314>
    1e88:	90 04 20 10 	add  %l0, 0x10, %o0
    1e8c:	c2 06 60 08 	ld  [ %i1 + 8 ], %g1
    1e90:	80 a2 a0 23 	cmp  %o2, 0x23
    1e94:	c2 24 20 10 	st  %g1, [ %l0 + 0x10 ]
    1e98:	da 06 60 0c 	ld  [ %i1 + 0xc ], %o5
    1e9c:	98 06 60 10 	add  %i1, 0x10, %o4
    1ea0:	da 24 20 14 	st  %o5, [ %l0 + 0x14 ]
    1ea4:	08 80 00 08 	bleu  1ec4 <_realloc_r+0x314>
    1ea8:	90 04 20 18 	add  %l0, 0x18, %o0
    1eac:	c2 06 60 10 	ld  [ %i1 + 0x10 ], %g1
    1eb0:	98 06 60 18 	add  %i1, 0x18, %o4
    1eb4:	c2 24 20 18 	st  %g1, [ %l0 + 0x18 ]
    1eb8:	da 06 60 14 	ld  [ %i1 + 0x14 ], %o5
    1ebc:	90 04 20 20 	add  %l0, 0x20, %o0
    1ec0:	da 24 20 1c 	st  %o5, [ %l0 + 0x1c ]
    1ec4:	c2 03 00 00 	ld  [ %o4 ], %g1
    1ec8:	98 03 20 04 	add  %o4, 4, %o4
    1ecc:	c2 22 00 00 	st  %g1, [ %o0 ]
    1ed0:	da 03 00 00 	ld  [ %o4 ], %o5
    1ed4:	90 02 20 04 	add  %o0, 4, %o0
    1ed8:	da 22 00 00 	st  %o5, [ %o0 ]
    1edc:	c2 03 20 04 	ld  [ %o4 + 4 ], %g1
    1ee0:	10 bf ff b4 	b  1db0 <_realloc_r+0x200>
    1ee4:	c2 22 20 04 	st  %g1, [ %o0 + 4 ]
    1ee8:	90 10 00 18 	mov  %i0, %o0
    1eec:	40 00 10 9d 	call  6160 <memcpy>
    1ef0:	92 10 00 19 	mov  %i1, %o1
    1ef4:	10 bf ff b0 	b  1db4 <_realloc_r+0x204>
    1ef8:	9a 24 80 14 	sub  %l2, %l4, %o5
    1efc:	c2 02 e0 0c 	ld  [ %o3 + 0xc ], %g1
    1f00:	a0 10 00 12 	mov  %l2, %l0
    1f04:	da 20 60 08 	st  %o5, [ %g1 + 8 ]
    1f08:	c2 23 60 0c 	st  %g1, [ %o5 + 0xc ]
    1f0c:	da 04 a0 08 	ld  [ %l2 + 8 ], %o5
    1f10:	c2 04 a0 0c 	ld  [ %l2 + 0xc ], %g1
    1f14:	94 04 7f fc 	add  %l1, -4, %o2
    1f18:	da 20 60 08 	st  %o5, [ %g1 + 8 ]
    1f1c:	c2 23 60 0c 	st  %g1, [ %o5 + 0xc ]
    1f20:	10 bf ff cc 	b  1e50 <_realloc_r+0x2a0>
    1f24:	a4 10 00 09 	mov  %o1, %l2
    1f28:	9a 05 20 10 	add  %l4, 0x10, %o5
    1f2c:	ae 00 40 11 	add  %g1, %l1, %l7
    1f30:	80 a5 c0 0d 	cmp  %l7, %o5
    1f34:	06 bf ff 5b 	bl  1ca0 <_realloc_r+0xf0>
    1f38:	80 a4 a0 00 	cmp  %l2, 0
    1f3c:	c2 04 a0 0c 	ld  [ %l2 + 0xc ], %g1
    1f40:	da 04 a0 08 	ld  [ %l2 + 8 ], %o5
    1f44:	94 04 7f fc 	add  %l1, -4, %o2
    1f48:	da 20 60 08 	st  %o5, [ %g1 + 8 ]
    1f4c:	c2 23 60 0c 	st  %g1, [ %o5 + 0xc ]
    1f50:	80 a2 a0 24 	cmp  %o2, 0x24
    1f54:	18 80 00 2f 	bgu  2010 <_realloc_r+0x460>
    1f58:	b0 04 a0 08 	add  %l2, 8, %i0
    1f5c:	80 a2 a0 13 	cmp  %o2, 0x13
    1f60:	96 10 00 19 	mov  %i1, %o3
    1f64:	08 80 00 18 	bleu  1fc4 <_realloc_r+0x414>
    1f68:	98 10 00 18 	mov  %i0, %o4
    1f6c:	c2 06 40 00 	ld  [ %i1 ], %g1
    1f70:	80 a2 a0 1b 	cmp  %o2, 0x1b
    1f74:	c2 24 a0 08 	st  %g1, [ %l2 + 8 ]
    1f78:	da 06 60 04 	ld  [ %i1 + 4 ], %o5
    1f7c:	96 06 60 08 	add  %i1, 8, %o3
    1f80:	da 24 a0 0c 	st  %o5, [ %l2 + 0xc ]
    1f84:	08 80 00 10 	bleu  1fc4 <_realloc_r+0x414>
    1f88:	98 04 a0 10 	add  %l2, 0x10, %o4
    1f8c:	c2 06 60 08 	ld  [ %i1 + 8 ], %g1
    1f90:	80 a2 a0 23 	cmp  %o2, 0x23
    1f94:	c2 24 a0 10 	st  %g1, [ %l2 + 0x10 ]
    1f98:	da 06 60 0c 	ld  [ %i1 + 0xc ], %o5
    1f9c:	96 06 60 10 	add  %i1, 0x10, %o3
    1fa0:	da 24 a0 14 	st  %o5, [ %l2 + 0x14 ]
    1fa4:	08 80 00 08 	bleu  1fc4 <_realloc_r+0x414>
    1fa8:	98 04 a0 18 	add  %l2, 0x18, %o4
    1fac:	c2 06 60 10 	ld  [ %i1 + 0x10 ], %g1
    1fb0:	96 06 60 18 	add  %i1, 0x18, %o3
    1fb4:	c2 24 a0 18 	st  %g1, [ %l2 + 0x18 ]
    1fb8:	da 06 60 14 	ld  [ %i1 + 0x14 ], %o5
    1fbc:	98 04 a0 20 	add  %l2, 0x20, %o4
    1fc0:	da 24 a0 1c 	st  %o5, [ %l2 + 0x1c ]
    1fc4:	c2 02 c0 00 	ld  [ %o3 ], %g1
    1fc8:	96 02 e0 04 	add  %o3, 4, %o3
    1fcc:	c2 23 00 00 	st  %g1, [ %o4 ]
    1fd0:	da 02 c0 00 	ld  [ %o3 ], %o5
    1fd4:	98 03 20 04 	add  %o4, 4, %o4
    1fd8:	da 23 00 00 	st  %o5, [ %o4 ]
    1fdc:	c2 02 e0 04 	ld  [ %o3 + 4 ], %g1
    1fe0:	c2 23 20 04 	st  %g1, [ %o4 + 4 ]
    1fe4:	98 04 80 14 	add  %l2, %l4, %o4
    1fe8:	82 25 c0 14 	sub  %l7, %l4, %g1
    1fec:	82 10 60 01 	or  %g1, 1, %g1
    1ff0:	c2 23 20 04 	st  %g1, [ %o4 + 4 ]
    1ff4:	da 04 a0 04 	ld  [ %l2 + 4 ], %o5
    1ff8:	82 15 a1 28 	or  %l6, 0x128, %g1
    1ffc:	9a 0b 60 01 	and  %o5, 1, %o5
    2000:	d8 20 60 08 	st  %o4, [ %g1 + 8 ]
    2004:	9a 13 40 14 	or  %o5, %l4, %o5
    2008:	10 bf ff 5e 	b  1d80 <_realloc_r+0x1d0>
    200c:	da 24 a0 04 	st  %o5, [ %l2 + 4 ]
    2010:	92 10 00 19 	mov  %i1, %o1
    2014:	40 00 10 53 	call  6160 <memcpy>
    2018:	90 10 00 18 	mov  %i0, %o0
    201c:	10 bf ff f3 	b  1fe8 <_realloc_r+0x438>
    2020:	98 04 80 14 	add  %l2, %l4, %o4
    2024:	c2 02 e0 0c 	ld  [ %o3 + 0xc ], %g1
    2028:	a4 10 00 0c 	mov  %o4, %l2
    202c:	da 20 60 08 	st  %o5, [ %g1 + 8 ]
    2030:	10 bf ff 60 	b  1db0 <_realloc_r+0x200>
    2034:	c2 23 60 0c 	st  %g1, [ %o5 + 0xc ]
    2038:	9a 02 80 11 	add  %o2, %l1, %o5
    203c:	82 05 20 10 	add  %l4, 0x10, %g1
    2040:	80 a3 40 01 	cmp  %o5, %g1
    2044:	06 bf ff 06 	bl  1c5c <_realloc_r+0xac>
    2048:	80 8a 60 01 	btst  1, %o1
    204c:	98 04 c0 14 	add  %l3, %l4, %o4
    2050:	82 23 40 14 	sub  %o5, %l4, %g1
    2054:	82 10 60 01 	or  %g1, 1, %g1
    2058:	c2 23 20 04 	st  %g1, [ %o4 + 4 ]
    205c:	da 04 e0 04 	ld  [ %l3 + 4 ], %o5
    2060:	d8 22 20 08 	st  %o4, [ %o0 + 8 ]
    2064:	9a 0b 60 01 	and  %o5, 1, %o5
    2068:	90 10 00 15 	mov  %l5, %o0
    206c:	9a 13 40 14 	or  %o5, %l4, %o5
    2070:	7f ff fe a9 	call  1b14 <__malloc_unlock>
    2074:	da 24 e0 04 	st  %o5, [ %l3 + 4 ]
    2078:	10 80 00 06 	b  2090 <_realloc_r+0x4e0>
    207c:	90 04 e0 08 	add  %l3, 8, %o0
    2080:	10 bf fe f6 	b  1c58 <_realloc_r+0xa8>
    2084:	94 10 20 00 	clr  %o2
    2088:	7f ff fd 21 	call  150c <_malloc_r>
    208c:	93 e8 00 1a 	restore  %g0, %i2, %o1
    2090:	81 c7 e0 08 	ret 
    2094:	91 e8 00 08 	restore  %g0, %o0, %o0

00002098 <_sbrk_r>:
    2098:	9d e3 bf 98 	save  %sp, -104, %sp
    209c:	90 10 00 19 	mov  %i1, %o0
    20a0:	33 00 00 2a 	sethi  %hi(0xa800), %i1
    20a4:	40 00 15 6f 	call  7660 <sbrk>
    20a8:	c0 26 60 f0 	clr  [ %i1 + 0xf0 ]	! a8f0 <errno>
    20ac:	80 a2 3f ff 	cmp  %o0, -1
    20b0:	12 80 00 06 	bne  20c8 <_sbrk_r+0x30>
    20b4:	c2 06 60 f0 	ld  [ %i1 + 0xf0 ], %g1
    20b8:	80 a0 60 00 	cmp  %g1, 0
    20bc:	02 80 00 03 	be  20c8 <_sbrk_r+0x30>
    20c0:	01 00 00 00 	nop 
    20c4:	c2 26 00 00 	st  %g1, [ %i0 ]
    20c8:	81 c7 e0 08 	ret 
    20cc:	91 e8 00 08 	restore  %g0, %o0, %o0
    20d0:	00 00 24 e0 	unimp  0x24e0
    20d4:	00 00 3a 00 	unimp  0x3a00
    20d8:	00 00 3a 00 	unimp  0x3a00
    20dc:	00 00 25 00 	unimp  0x2500
    20e0:	00 00 3a 00 	unimp  0x3a00
    20e4:	00 00 3a 00 	unimp  0x3a00
    20e8:	00 00 3a 00 	unimp  0x3a00
    20ec:	00 00 3a 00 	unimp  0x3a00
    20f0:	00 00 3a 00 	unimp  0x3a00
    20f4:	00 00 3a 00 	unimp  0x3a00
    20f8:	00 00 25 0c 	unimp  0x250c
    20fc:	00 00 25 34 	unimp  0x2534
    2100:	00 00 3a 00 	unimp  0x3a00
    2104:	00 00 25 28 	unimp  0x2528
    2108:	00 00 25 3c 	unimp  0x253c
    210c:	00 00 3a 00 	unimp  0x3a00
    2110:	00 00 25 b0 	unimp  0x25b0
    2114:	00 00 25 bc 	unimp  0x25bc
    2118:	00 00 25 bc 	unimp  0x25bc
    211c:	00 00 25 bc 	unimp  0x25bc
    2120:	00 00 25 bc 	unimp  0x25bc
    2124:	00 00 25 bc 	unimp  0x25bc
    2128:	00 00 25 bc 	unimp  0x25bc
    212c:	00 00 25 bc 	unimp  0x25bc
    2130:	00 00 25 bc 	unimp  0x25bc
    2134:	00 00 25 bc 	unimp  0x25bc
    2138:	00 00 3a 00 	unimp  0x3a00
    213c:	00 00 3a 00 	unimp  0x3a00
    2140:	00 00 3a 00 	unimp  0x3a00
    2144:	00 00 3a 00 	unimp  0x3a00
    2148:	00 00 3a 00 	unimp  0x3a00
    214c:	00 00 3a 00 	unimp  0x3a00
    2150:	00 00 3a 00 	unimp  0x3a00
    2154:	00 00 3a 00 	unimp  0x3a00
    2158:	00 00 3a 00 	unimp  0x3a00
    215c:	00 00 3a 00 	unimp  0x3a00
    2160:	00 00 25 f4 	unimp  0x25f4
    2164:	00 00 36 ac 	unimp  0x36ac
    2168:	00 00 3a 00 	unimp  0x3a00
    216c:	00 00 36 ac 	unimp  0x36ac
    2170:	00 00 3a 00 	unimp  0x3a00
    2174:	00 00 3a 00 	unimp  0x3a00
    2178:	00 00 3a 00 	unimp  0x3a00
    217c:	00 00 3a 00 	unimp  0x3a00
    2180:	00 00 35 28 	unimp  0x3528
    2184:	00 00 3a 00 	unimp  0x3a00
    2188:	00 00 3a 00 	unimp  0x3a00
    218c:	00 00 35 34 	unimp  0x3534
    2190:	00 00 3a 00 	unimp  0x3a00
    2194:	00 00 3a 00 	unimp  0x3a00
    2198:	00 00 3a 00 	unimp  0x3a00
    219c:	00 00 3a 00 	unimp  0x3a00
    21a0:	00 00 3a 00 	unimp  0x3a00
    21a4:	00 00 35 9c 	unimp  0x359c
    21a8:	00 00 3a 00 	unimp  0x3a00
    21ac:	00 00 3a 00 	unimp  0x3a00
    21b0:	00 00 36 00 	unimp  0x3600
    21b4:	00 00 3a 00 	unimp  0x3a00
    21b8:	00 00 3a 00 	unimp  0x3a00
    21bc:	00 00 3a 00 	unimp  0x3a00
    21c0:	00 00 3a 00 	unimp  0x3a00
    21c4:	00 00 3a 00 	unimp  0x3a00
    21c8:	00 00 3a 00 	unimp  0x3a00
    21cc:	00 00 3a 00 	unimp  0x3a00
    21d0:	00 00 3a 00 	unimp  0x3a00
    21d4:	00 00 3a 00 	unimp  0x3a00
    21d8:	00 00 3a 00 	unimp  0x3a00
    21dc:	00 00 36 90 	unimp  0x3690
    21e0:	00 00 25 f8 	unimp  0x25f8
    21e4:	00 00 36 ac 	unimp  0x36ac
    21e8:	00 00 36 ac 	unimp  0x36ac
    21ec:	00 00 36 ac 	unimp  0x36ac
    21f0:	00 00 38 e0 	unimp  0x38e0
    21f4:	00 00 25 f8 	unimp  0x25f8
    21f8:	00 00 3a 00 	unimp  0x3a00
    21fc:	00 00 3a 00 	unimp  0x3a00
    2200:	00 00 38 ec 	unimp  0x38ec
    2204:	00 00 3a 00 	unimp  0x3a00
    2208:	00 00 39 14 	unimp  0x3914
    220c:	00 00 35 38 	unimp  0x3538
    2210:	00 00 39 68 	unimp  0x3968
    2214:	00 00 39 08 	unimp  0x3908
    2218:	00 00 3a 00 	unimp  0x3a00
    221c:	00 00 39 94 	unimp  0x3994
    2220:	00 00 3a 00 	unimp  0x3a00
    2224:	00 00 35 a0 	unimp  0x35a0
    2228:	00 00 3a 00 	unimp  0x3a00
    222c:	00 00 3a 00 	unimp  0x3a00
    2230:	00 00 3a 4c 	unimp  0x3a4c

00002234 <__sprint>:
    2234:	9d e3 bf 98 	save  %sp, -104, %sp
    2238:	c2 06 60 08 	ld  [ %i1 + 8 ], %g1
    223c:	80 a0 60 00 	cmp  %g1, 0
    2240:	12 80 00 05 	bne  2254 <__sprint+0x20>
    2244:	90 10 00 18 	mov  %i0, %o0
    2248:	c0 26 60 04 	clr  [ %i1 + 4 ]
    224c:	10 80 00 06 	b  2264 <__sprint+0x30>
    2250:	90 10 20 00 	clr  %o0
    2254:	40 00 0d d5 	call  59a8 <__sfvwrite>
    2258:	92 10 00 19 	mov  %i1, %o1
    225c:	c0 26 60 04 	clr  [ %i1 + 4 ]
    2260:	c0 26 60 08 	clr  [ %i1 + 8 ]
    2264:	81 c7 e0 08 	ret 
    2268:	91 e8 00 08 	restore  %g0, %o0, %o0

0000226c <__sbprintf>:
    226c:	9d e3 bb 38 	save  %sp, -1224, %sp
    2270:	c2 16 20 0c 	lduh  [ %i0 + 0xc ], %g1
    2274:	da 16 20 0e 	lduh  [ %i0 + 0xe ], %o5
    2278:	d4 06 20 54 	ld  [ %i0 + 0x54 ], %o2
    227c:	d8 06 20 1c 	ld  [ %i0 + 0x1c ], %o4
    2280:	d6 06 20 24 	ld  [ %i0 + 0x24 ], %o3
    2284:	82 08 7f fd 	and  %g1, -3, %g1
    2288:	da 37 bf a6 	sth  %o5, [ %fp + -90 ]
    228c:	c2 37 bf a4 	sth  %g1, [ %fp + -92 ]
    2290:	9a 10 24 00 	mov  0x400, %o5
    2294:	82 07 bb 98 	add  %fp, -1128, %g1
    2298:	d4 27 bf ec 	st  %o2, [ %fp + -20 ]
    229c:	a0 10 00 18 	mov  %i0, %l0
    22a0:	94 10 00 1a 	mov  %i2, %o2
    22a4:	d8 27 bf b4 	st  %o4, [ %fp + -76 ]
    22a8:	d6 27 bf bc 	st  %o3, [ %fp + -68 ]
    22ac:	92 10 00 19 	mov  %i1, %o1
    22b0:	c0 27 bf b0 	clr  [ %fp + -80 ]
    22b4:	c2 27 bf a8 	st  %g1, [ %fp + -88 ]
    22b8:	c2 27 bf 98 	st  %g1, [ %fp + -104 ]
    22bc:	da 27 bf ac 	st  %o5, [ %fp + -84 ]
    22c0:	da 27 bf a0 	st  %o5, [ %fp + -96 ]
    22c4:	b4 07 bf 98 	add  %fp, -104, %i2
    22c8:	40 00 00 13 	call  2314 <vfprintf>
    22cc:	90 10 00 1a 	mov  %i2, %o0
    22d0:	b0 92 20 00 	orcc  %o0, 0, %i0
    22d4:	06 80 00 08 	bl  22f4 <__sbprintf+0x88>
    22d8:	c2 17 bf a4 	lduh  [ %fp + -92 ], %g1
    22dc:	40 00 0c 06 	call  52f4 <fflush>
    22e0:	90 10 00 1a 	mov  %i2, %o0
    22e4:	80 a2 20 00 	cmp  %o0, 0
    22e8:	32 80 00 02 	bne,a   22f0 <__sbprintf+0x84>
    22ec:	b0 10 3f ff 	mov  -1, %i0
    22f0:	c2 17 bf a4 	lduh  [ %fp + -92 ], %g1
    22f4:	80 88 60 40 	btst  0x40, %g1
    22f8:	02 80 00 05 	be  230c <__sbprintf+0xa0>
    22fc:	01 00 00 00 	nop 
    2300:	c2 14 20 0c 	lduh  [ %l0 + 0xc ], %g1
    2304:	82 10 60 40 	or  %g1, 0x40, %g1
    2308:	c2 34 20 0c 	sth  %g1, [ %l0 + 0xc ]
    230c:	81 c7 e0 08 	ret 
    2310:	81 e8 00 00 	restore 

00002314 <vfprintf>:
    2314:	9d e3 bf 98 	save  %sp, -104, %sp
    2318:	a0 10 00 18 	mov  %i0, %l0
    231c:	f0 06 20 54 	ld  [ %i0 + 0x54 ], %i0
    2320:	98 10 00 19 	mov  %i1, %o4
    2324:	80 a6 20 00 	cmp  %i0, 0
    2328:	12 80 00 06 	bne  2340 <vfprintf+0x2c>
    232c:	b6 10 00 1a 	mov  %i2, %i3
    2330:	03 00 00 28 	sethi  %hi(0xa000), %g1
    2334:	da 00 61 20 	ld  [ %g1 + 0x120 ], %o5	! a120 <_impure_ptr>
    2338:	b0 10 00 0d 	mov  %o5, %i0
    233c:	da 24 20 54 	st  %o5, [ %l0 + 0x54 ]
    2340:	c2 06 20 38 	ld  [ %i0 + 0x38 ], %g1
    2344:	b2 10 00 10 	mov  %l0, %i1
    2348:	b4 10 00 0c 	mov  %o4, %i2
    234c:	80 a0 60 00 	cmp  %g1, 0
    2350:	02 80 00 04 	be  2360 <vfprintf+0x4c>
    2354:	90 10 00 18 	mov  %i0, %o0
    2358:	40 00 00 06 	call  2370 <_vfprintf_r>
    235c:	81 e8 00 00 	restore 
    2360:	40 00 0c 92 	call  55a8 <__sinit>
    2364:	01 00 00 00 	nop 
    2368:	10 bf ff fc 	b  2358 <vfprintf+0x44>
    236c:	f0 04 20 54 	ld  [ %l0 + 0x54 ], %i0

00002370 <_vfprintf_r>:
    2370:	9d e3 bd 78 	save  %sp, -648, %sp
    2374:	40 00 0e d3 	call  5ec0 <localeconv>
    2378:	01 00 00 00 	nop 
    237c:	d0 02 00 00 	ld  [ %o0 ], %o0
    2380:	92 10 20 00 	clr  %o1
    2384:	d0 27 bd fc 	st  %o0, [ %fp + -516 ]
    2388:	94 10 20 08 	mov  8, %o2
    238c:	7f ff fd b3 	call  1a58 <memset>
    2390:	90 07 be 30 	add  %fp, -464, %o0
    2394:	c2 16 60 0c 	lduh  [ %i1 + 0xc ], %g1
    2398:	f0 27 a0 44 	st  %i0, [ %fp + 0x44 ]
    239c:	80 88 60 08 	btst  8, %g1
    23a0:	c0 27 bd f0 	clr  [ %fp + -528 ]
    23a4:	c0 27 bd f4 	clr  [ %fp + -524 ]
    23a8:	c0 27 bd ec 	clr  [ %fp + -532 ]
    23ac:	c0 27 bd e8 	clr  [ %fp + -536 ]
    23b0:	02 80 00 06 	be  23c8 <_vfprintf_r+0x58>
    23b4:	da 16 60 0c 	lduh  [ %i1 + 0xc ], %o5
    23b8:	c2 06 60 10 	ld  [ %i1 + 0x10 ], %g1
    23bc:	80 a0 60 00 	cmp  %g1, 0
    23c0:	12 80 00 09 	bne  23e4 <_vfprintf_r+0x74>
    23c4:	82 0b 60 1a 	and  %o5, 0x1a, %g1
    23c8:	40 00 06 49 	call  3cec <__swsetup>
    23cc:	90 10 00 19 	mov  %i1, %o0
    23d0:	80 a2 20 00 	cmp  %o0, 0
    23d4:	12 80 05 af 	bne  3a90 <_vfprintf_r+0x1720>
    23d8:	90 10 3f ff 	mov  -1, %o0
    23dc:	da 16 60 0c 	lduh  [ %i1 + 0xc ], %o5
    23e0:	82 0b 60 1a 	and  %o5, 0x1a, %g1
    23e4:	80 a0 60 0a 	cmp  %g1, 0xa
    23e8:	22 80 05 a4 	be,a   3a78 <_vfprintf_r+0x1708>
    23ec:	c2 56 60 0e 	ldsh  [ %i1 + 0xe ], %g1
    23f0:	a4 07 bf a0 	add  %fp, -96, %l2
    23f4:	c0 27 bf e8 	clr  [ %fp + -24 ]
    23f8:	c0 27 bf e4 	clr  [ %fp + -28 ]
    23fc:	e4 27 bf e0 	st  %l2, [ %fp + -32 ]
    2400:	b0 10 00 12 	mov  %l2, %i0
    2404:	c0 27 be 04 	clr  [ %fp + -508 ]
    2408:	a6 10 00 1a 	mov  %i2, %l3
    240c:	03 00 00 28 	sethi  %hi(0xa000), %g1
    2410:	19 00 00 29 	sethi  %hi(0xa400), %o4
    2414:	d0 00 61 20 	ld  [ %g1 + 0x120 ], %o0
    2418:	d6 03 21 38 	ld  [ %o4 + 0x138 ], %o3
    241c:	92 07 be 14 	add  %fp, -492, %o1
    2420:	94 10 00 1a 	mov  %i2, %o2
    2424:	40 00 0f 00 	call  6024 <_mbtowc_r>
    2428:	98 07 be 30 	add  %fp, -464, %o4
    242c:	a0 92 20 00 	orcc  %o0, 0, %l0
    2430:	04 80 00 06 	ble  2448 <_vfprintf_r+0xd8>
    2434:	c2 07 be 14 	ld  [ %fp + -492 ], %g1
    2438:	80 a0 60 25 	cmp  %g1, 0x25
    243c:	12 bf ff f4 	bne  240c <_vfprintf_r+0x9c>
    2440:	b4 06 80 10 	add  %i2, %l0, %i2
    2444:	b4 06 bf ff 	add  %i2, -1, %i2
    2448:	a2 a6 80 13 	subcc  %i2, %l3, %l1
    244c:	02 80 00 11 	be  2490 <_vfprintf_r+0x120>
    2450:	80 a4 20 00 	cmp  %l0, 0
    2454:	e2 24 a0 04 	st  %l1, [ %l2 + 4 ]
    2458:	da 07 bf e4 	ld  [ %fp + -28 ], %o5
    245c:	c2 07 bf e8 	ld  [ %fp + -24 ], %g1
    2460:	9a 03 60 01 	inc  %o5
    2464:	e6 24 80 00 	st  %l3, [ %l2 ]
    2468:	82 00 40 11 	add  %g1, %l1, %g1
    246c:	80 a3 60 07 	cmp  %o5, 7
    2470:	c2 27 bf e8 	st  %g1, [ %fp + -24 ]
    2474:	da 27 bf e4 	st  %o5, [ %fp + -28 ]
    2478:	14 80 05 78 	bg  3a58 <_vfprintf_r+0x16e8>
    247c:	a4 04 a0 08 	add  %l2, 8, %l2
    2480:	da 07 be 04 	ld  [ %fp + -508 ], %o5
    2484:	9a 03 40 11 	add  %o5, %l1, %o5
    2488:	da 27 be 04 	st  %o5, [ %fp + -508 ]
    248c:	80 a4 20 00 	cmp  %l0, 0
    2490:	04 80 05 62 	ble  3a18 <_vfprintf_r+0x16a8>
    2494:	b4 06 a0 01 	inc  %i2
    2498:	c0 2f be 0a 	clrb  [ %fp + -502 ]
    249c:	da 0e 80 00 	ldub  [ %i2 ], %o5
    24a0:	ba 10 20 00 	clr  %i5
    24a4:	b8 10 20 00 	clr  %i4
    24a8:	c0 27 be 00 	clr  [ %fp + -512 ]
    24ac:	ac 10 3f ff 	mov  -1, %l6
    24b0:	83 2b 60 18 	sll  %o5, 0x18, %g1
    24b4:	b4 06 a0 01 	inc  %i2
    24b8:	a9 38 60 18 	sra  %g1, 0x18, %l4
    24bc:	82 05 3f e0 	add  %l4, -32, %g1
    24c0:	80 a0 60 58 	cmp  %g1, 0x58
    24c4:	18 80 05 4f 	bgu  3a00 <_vfprintf_r+0x1690>
    24c8:	83 28 60 02 	sll  %g1, 2, %g1
    24cc:	1b 00 00 08 	sethi  %hi(0x2000), %o5
    24d0:	9a 13 60 d0 	or  %o5, 0xd0, %o5	! 20d0 <_sbrk_r+0x38>
    24d4:	d8 03 40 01 	ld  [ %o5 + %g1 ], %o4
    24d8:	81 c3 00 00 	jmp  %o4
    24dc:	01 00 00 00 	nop 
    24e0:	c2 4f be 0a 	ldsb  [ %fp + -502 ], %g1
    24e4:	80 a0 60 00 	cmp  %g1, 0
    24e8:	02 80 00 04 	be  24f8 <_vfprintf_r+0x188>
    24ec:	9a 10 20 20 	mov  0x20, %o5
    24f0:	10 bf ff f0 	b  24b0 <_vfprintf_r+0x140>
    24f4:	da 0e 80 00 	ldub  [ %i2 ], %o5
    24f8:	10 bf ff fe 	b  24f0 <_vfprintf_r+0x180>
    24fc:	da 2f be 0a 	stb  %o5, [ %fp + -502 ]
    2500:	da 0e 80 00 	ldub  [ %i2 ], %o5
    2504:	10 bf ff eb 	b  24b0 <_vfprintf_r+0x140>
    2508:	ba 17 60 01 	or  %i5, 1, %i5
    250c:	c2 06 c0 00 	ld  [ %i3 ], %g1
    2510:	b6 06 e0 04 	add  %i3, 4, %i3
    2514:	80 a0 60 00 	cmp  %g1, 0
    2518:	16 bf ff f6 	bge  24f0 <_vfprintf_r+0x180>
    251c:	c2 27 be 00 	st  %g1, [ %fp + -512 ]
    2520:	82 20 00 01 	neg  %g1
    2524:	c2 27 be 00 	st  %g1, [ %fp + -512 ]
    2528:	da 0e 80 00 	ldub  [ %i2 ], %o5
    252c:	10 bf ff e1 	b  24b0 <_vfprintf_r+0x140>
    2530:	ba 17 60 04 	or  %i5, 4, %i5
    2534:	10 bf ff f1 	b  24f8 <_vfprintf_r+0x188>
    2538:	9a 10 20 2b 	mov  0x2b, %o5
    253c:	e8 4e 80 00 	ldsb  [ %i2 ], %l4
    2540:	80 a5 20 2a 	cmp  %l4, 0x2a
    2544:	02 80 00 15 	be  2598 <_vfprintf_r+0x228>
    2548:	b4 06 a0 01 	inc  %i2
    254c:	82 05 3f d0 	add  %l4, -48, %g1
    2550:	80 a0 60 09 	cmp  %g1, 9
    2554:	18 80 00 0c 	bgu  2584 <_vfprintf_r+0x214>
    2558:	a0 10 20 00 	clr  %l0
    255c:	83 2c 20 02 	sll  %l0, 2, %g1
    2560:	82 00 40 10 	add  %g1, %l0, %g1
    2564:	82 00 40 01 	add  %g1, %g1, %g1
    2568:	82 00 40 14 	add  %g1, %l4, %g1
    256c:	e8 4e 80 00 	ldsb  [ %i2 ], %l4
    2570:	a0 00 7f d0 	add  %g1, -48, %l0
    2574:	9a 05 3f d0 	add  %l4, -48, %o5
    2578:	80 a3 60 09 	cmp  %o5, 9
    257c:	08 bf ff f8 	bleu  255c <_vfprintf_r+0x1ec>
    2580:	b4 06 a0 01 	inc  %i2
    2584:	80 a4 3f ff 	cmp  %l0, -1
    2588:	16 bf ff cd 	bge  24bc <_vfprintf_r+0x14c>
    258c:	ac 10 00 10 	mov  %l0, %l6
    2590:	10 bf ff cb 	b  24bc <_vfprintf_r+0x14c>
    2594:	ac 10 3f ff 	mov  -1, %l6
    2598:	ec 06 c0 00 	ld  [ %i3 ], %l6
    259c:	80 a5 a0 00 	cmp  %l6, 0
    25a0:	16 bf ff d4 	bge  24f0 <_vfprintf_r+0x180>
    25a4:	b6 06 e0 04 	add  %i3, 4, %i3
    25a8:	10 bf ff c1 	b  24ac <_vfprintf_r+0x13c>
    25ac:	da 0e 80 00 	ldub  [ %i2 ], %o5
    25b0:	da 0e 80 00 	ldub  [ %i2 ], %o5
    25b4:	10 bf ff bf 	b  24b0 <_vfprintf_r+0x140>
    25b8:	ba 17 60 80 	or  %i5, 0x80, %i5
    25bc:	a0 10 20 00 	clr  %l0
    25c0:	83 2c 20 02 	sll  %l0, 2, %g1
    25c4:	82 00 40 10 	add  %g1, %l0, %g1
    25c8:	82 00 40 01 	add  %g1, %g1, %g1
    25cc:	82 00 40 14 	add  %g1, %l4, %g1
    25d0:	e8 4e 80 00 	ldsb  [ %i2 ], %l4
    25d4:	a0 00 7f d0 	add  %g1, -48, %l0
    25d8:	9a 05 3f d0 	add  %l4, -48, %o5
    25dc:	b4 06 a0 01 	inc  %i2
    25e0:	80 a3 60 09 	cmp  %o5, 9
    25e4:	08 bf ff f7 	bleu  25c0 <_vfprintf_r+0x250>
    25e8:	e0 27 be 00 	st  %l0, [ %fp + -512 ]
    25ec:	10 bf ff b5 	b  24c0 <_vfprintf_r+0x150>
    25f0:	82 05 3f e0 	add  %l4, -32, %g1
    25f4:	ba 17 60 10 	or  %i5, 0x10, %i5
    25f8:	80 8f 60 20 	btst  0x20, %i5
    25fc:	02 80 03 bd 	be  34f0 <_vfprintf_r+0x1180>
    2600:	80 8f 60 10 	btst  0x10, %i5
    2604:	da 06 e0 04 	ld  [ %i3 + 4 ], %o5
    2608:	d8 06 c0 00 	ld  [ %i3 ], %o4
    260c:	b6 06 e0 08 	add  %i3, 8, %i3
    2610:	d8 3f be 28 	std  %o4, [ %fp + -472 ]
    2614:	e0 1f be 28 	ldd  [ %fp + -472 ], %l0
    2618:	80 a4 20 00 	cmp  %l0, 0
    261c:	26 80 03 b1 	bl,a   34e0 <_vfprintf_r+0x1170>
    2620:	a2 a0 00 11 	subcc  %g0, %l1, %l1
    2624:	98 10 20 01 	mov  1, %o4
    2628:	b8 95 a0 00 	orcc  %l6, 0, %i4
    262c:	36 80 00 02 	bge,a   2634 <_vfprintf_r+0x2c4>
    2630:	ba 0f 7f 7f 	and  %i5, -129, %i5
    2634:	80 94 00 11 	orcc  %l0, %l1, %g0
    2638:	a6 07 bf 9c 	add  %fp, -100, %l3
    263c:	02 80 00 03 	be  2648 <_vfprintf_r+0x2d8>
    2640:	9a 10 20 00 	clr  %o5
    2644:	9a 10 20 01 	mov  1, %o5
    2648:	80 a0 00 1c 	cmp  %g0, %i4
    264c:	82 40 20 00 	addx  %g0, 0, %g1
    2650:	80 93 40 01 	orcc  %o5, %g1, %g0
    2654:	02 80 03 9a 	be  34bc <_vfprintf_r+0x114c>
    2658:	80 8b 20 ff 	btst  0xff, %o4
    265c:	82 0b 20 ff 	and  %o4, 0xff, %g1
    2660:	80 a0 60 01 	cmp  %g1, 1
    2664:	22 80 03 74 	be,a   3434 <_vfprintf_r+0x10c4>
    2668:	80 a4 20 00 	cmp  %l0, 0
    266c:	04 80 03 5a 	ble  33d4 <_vfprintf_r+0x1064>
    2670:	80 a0 60 02 	cmp  %g1, 2
    2674:	02 80 03 49 	be  3398 <_vfprintf_r+0x1028>
    2678:	da 07 bd e8 	ld  [ %fp + -536 ], %o5
    267c:	03 00 00 26 	sethi  %hi(0x9800), %g1
    2680:	a6 10 62 18 	or  %g1, 0x218, %l3	! 9a18 <zeroes.1+0x10>
    2684:	40 00 13 7e 	call  747c <strlen>
    2688:	90 10 00 13 	mov  %l3, %o0
    268c:	aa 10 00 08 	mov  %o0, %l5
    2690:	80 a5 40 1c 	cmp  %l5, %i4
    2694:	16 80 00 03 	bge  26a0 <_vfprintf_r+0x330>
    2698:	ae 10 00 15 	mov  %l5, %l7
    269c:	ae 10 00 1c 	mov  %i4, %l7
    26a0:	c2 4f be 0a 	ldsb  [ %fp + -502 ], %g1
    26a4:	80 a0 60 00 	cmp  %g1, 0
    26a8:	02 80 03 36 	be  3380 <_vfprintf_r+0x1010>
    26ac:	da 0f be 0a 	ldub  [ %fp + -502 ], %o5
    26b0:	ae 05 e0 01 	inc  %l7
    26b4:	ac 8f 60 84 	andcc  %i5, 0x84, %l6
    26b8:	12 80 00 29 	bne  275c <_vfprintf_r+0x3ec>
    26bc:	83 2b 60 18 	sll  %o5, 0x18, %g1
    26c0:	c2 07 be 00 	ld  [ %fp + -512 ], %g1
    26c4:	a0 20 40 17 	sub  %g1, %l7, %l0
    26c8:	80 a4 20 00 	cmp  %l0, 0
    26cc:	04 80 00 23 	ble  2758 <_vfprintf_r+0x3e8>
    26d0:	80 a4 20 10 	cmp  %l0, 0x10
    26d4:	04 80 00 13 	ble  2720 <_vfprintf_r+0x3b0>
    26d8:	19 00 00 26 	sethi  %hi(0x9800), %o4
    26dc:	a2 13 21 f8 	or  %o4, 0x1f8, %l1	! 99f8 <blanks.0>
    26e0:	82 10 20 10 	mov  0x10, %g1
    26e4:	c2 24 a0 04 	st  %g1, [ %l2 + 4 ]
    26e8:	da 07 bf e4 	ld  [ %fp + -28 ], %o5
    26ec:	c2 07 bf e8 	ld  [ %fp + -24 ], %g1
    26f0:	9a 03 60 01 	inc  %o5
    26f4:	e2 24 80 00 	st  %l1, [ %l2 ]
    26f8:	82 00 60 10 	add  %g1, 0x10, %g1
    26fc:	80 a3 60 07 	cmp  %o5, 7
    2700:	c2 27 bf e8 	st  %g1, [ %fp + -24 ]
    2704:	da 27 bf e4 	st  %o5, [ %fp + -28 ]
    2708:	14 80 03 16 	bg  3360 <_vfprintf_r+0xff0>
    270c:	a4 04 a0 08 	add  %l2, 8, %l2
    2710:	a0 04 3f f0 	add  %l0, -16, %l0
    2714:	80 a4 20 10 	cmp  %l0, 0x10
    2718:	14 bf ff f3 	bg  26e4 <_vfprintf_r+0x374>
    271c:	82 10 20 10 	mov  0x10, %g1
    2720:	e0 24 a0 04 	st  %l0, [ %l2 + 4 ]
    2724:	c2 07 bf e8 	ld  [ %fp + -24 ], %g1
    2728:	da 07 bf e4 	ld  [ %fp + -28 ], %o5
    272c:	82 00 40 10 	add  %g1, %l0, %g1
    2730:	9a 03 60 01 	inc  %o5
    2734:	c2 27 bf e8 	st  %g1, [ %fp + -24 ]
    2738:	19 00 00 26 	sethi  %hi(0x9800), %o4
    273c:	80 a3 60 07 	cmp  %o5, 7
    2740:	82 13 21 f8 	or  %o4, 0x1f8, %g1
    2744:	da 27 bf e4 	st  %o5, [ %fp + -28 ]
    2748:	c2 24 80 00 	st  %g1, [ %l2 ]
    274c:	14 80 02 fd 	bg  3340 <_vfprintf_r+0xfd0>
    2750:	a4 04 a0 08 	add  %l2, 8, %l2
    2754:	da 0f be 0a 	ldub  [ %fp + -502 ], %o5
    2758:	83 2b 60 18 	sll  %o5, 0x18, %g1
    275c:	80 a0 60 00 	cmp  %g1, 0
    2760:	02 80 02 de 	be  32d8 <_vfprintf_r+0xf68>
    2764:	80 8f 60 02 	btst  2, %i5
    2768:	9a 10 20 01 	mov  1, %o5
    276c:	da 24 a0 04 	st  %o5, [ %l2 + 4 ]
    2770:	c2 07 bf e8 	ld  [ %fp + -24 ], %g1
    2774:	da 07 bf e4 	ld  [ %fp + -28 ], %o5
    2778:	82 00 60 01 	inc  %g1
    277c:	9a 03 60 01 	inc  %o5
    2780:	c2 27 bf e8 	st  %g1, [ %fp + -24 ]
    2784:	80 a3 60 07 	cmp  %o5, 7
    2788:	82 07 be 0a 	add  %fp, -502, %g1
    278c:	da 27 bf e4 	st  %o5, [ %fp + -28 ]
    2790:	c2 24 80 00 	st  %g1, [ %l2 ]
    2794:	14 80 02 c8 	bg  32b4 <_vfprintf_r+0xf44>
    2798:	a4 04 a0 08 	add  %l2, 8, %l2
    279c:	80 a5 a0 80 	cmp  %l6, 0x80
    27a0:	02 80 02 92 	be  31e8 <_vfprintf_r+0xe78>
    27a4:	da 07 be 00 	ld  [ %fp + -512 ], %o5
    27a8:	a0 27 00 15 	sub  %i4, %l5, %l0
    27ac:	80 a4 20 00 	cmp  %l0, 0
    27b0:	04 80 00 21 	ble  2834 <_vfprintf_r+0x4c4>
    27b4:	80 a4 20 10 	cmp  %l0, 0x10
    27b8:	04 80 00 13 	ble  2804 <_vfprintf_r+0x494>
    27bc:	2d 00 00 26 	sethi  %hi(0x9800), %l6
    27c0:	a2 15 a2 08 	or  %l6, 0x208, %l1	! 9a08 <zeroes.1>
    27c4:	82 10 20 10 	mov  0x10, %g1
    27c8:	c2 24 a0 04 	st  %g1, [ %l2 + 4 ]
    27cc:	da 07 bf e4 	ld  [ %fp + -28 ], %o5
    27d0:	c2 07 bf e8 	ld  [ %fp + -24 ], %g1
    27d4:	9a 03 60 01 	inc  %o5
    27d8:	e2 24 80 00 	st  %l1, [ %l2 ]
    27dc:	82 00 60 10 	add  %g1, 0x10, %g1
    27e0:	80 a3 60 07 	cmp  %o5, 7
    27e4:	c2 27 bf e8 	st  %g1, [ %fp + -24 ]
    27e8:	da 27 bf e4 	st  %o5, [ %fp + -28 ]
    27ec:	14 80 02 77 	bg  31c8 <_vfprintf_r+0xe58>
    27f0:	a4 04 a0 08 	add  %l2, 8, %l2
    27f4:	a0 04 3f f0 	add  %l0, -16, %l0
    27f8:	80 a4 20 10 	cmp  %l0, 0x10
    27fc:	14 bf ff f3 	bg  27c8 <_vfprintf_r+0x458>
    2800:	82 10 20 10 	mov  0x10, %g1
    2804:	e0 24 a0 04 	st  %l0, [ %l2 + 4 ]
    2808:	c2 07 bf e8 	ld  [ %fp + -24 ], %g1
    280c:	da 07 bf e4 	ld  [ %fp + -28 ], %o5
    2810:	82 00 40 10 	add  %g1, %l0, %g1
    2814:	9a 03 60 01 	inc  %o5
    2818:	c2 27 bf e8 	st  %g1, [ %fp + -24 ]
    281c:	80 a3 60 07 	cmp  %o5, 7
    2820:	82 15 a2 08 	or  %l6, 0x208, %g1
    2824:	da 27 bf e4 	st  %o5, [ %fp + -28 ]
    2828:	c2 24 80 00 	st  %g1, [ %l2 ]
    282c:	14 80 02 5f 	bg  31a8 <_vfprintf_r+0xe38>
    2830:	a4 04 a0 08 	add  %l2, 8, %l2
    2834:	80 8f 61 00 	btst  0x100, %i5
    2838:	12 80 00 66 	bne  29d0 <_vfprintf_r+0x660>
    283c:	80 a5 20 65 	cmp  %l4, 0x65
    2840:	ea 24 a0 04 	st  %l5, [ %l2 + 4 ]
    2844:	c2 07 bf e8 	ld  [ %fp + -24 ], %g1
    2848:	e6 24 80 00 	st  %l3, [ %l2 ]
    284c:	82 00 40 15 	add  %g1, %l5, %g1
    2850:	da 07 bf e4 	ld  [ %fp + -28 ], %o5
    2854:	c2 27 bf e8 	st  %g1, [ %fp + -24 ]
    2858:	9a 03 60 01 	inc  %o5
    285c:	80 a3 60 07 	cmp  %o5, 7
    2860:	da 27 bf e4 	st  %o5, [ %fp + -28 ]
    2864:	14 80 00 52 	bg  29ac <_vfprintf_r+0x63c>
    2868:	a4 04 a0 08 	add  %l2, 8, %l2
    286c:	80 8f 60 04 	btst  4, %i5
    2870:	02 80 00 26 	be  2908 <_vfprintf_r+0x598>
    2874:	da 07 be 00 	ld  [ %fp + -512 ], %o5
    2878:	a0 23 40 17 	sub  %o5, %l7, %l0
    287c:	80 a4 20 00 	cmp  %l0, 0
    2880:	04 80 00 22 	ble  2908 <_vfprintf_r+0x598>
    2884:	80 a4 20 10 	cmp  %l0, 0x10
    2888:	04 80 00 13 	ble  28d4 <_vfprintf_r+0x564>
    288c:	03 00 00 26 	sethi  %hi(0x9800), %g1
    2890:	a2 10 61 f8 	or  %g1, 0x1f8, %l1	! 99f8 <blanks.0>
    2894:	82 10 20 10 	mov  0x10, %g1
    2898:	c2 24 a0 04 	st  %g1, [ %l2 + 4 ]
    289c:	da 07 bf e4 	ld  [ %fp + -28 ], %o5
    28a0:	c2 07 bf e8 	ld  [ %fp + -24 ], %g1
    28a4:	9a 03 60 01 	inc  %o5
    28a8:	e2 24 80 00 	st  %l1, [ %l2 ]
    28ac:	82 00 60 10 	add  %g1, 0x10, %g1
    28b0:	80 a3 60 07 	cmp  %o5, 7
    28b4:	c2 27 bf e8 	st  %g1, [ %fp + -24 ]
    28b8:	da 27 bf e4 	st  %o5, [ %fp + -28 ]
    28bc:	14 80 00 34 	bg  298c <_vfprintf_r+0x61c>
    28c0:	a4 04 a0 08 	add  %l2, 8, %l2
    28c4:	a0 04 3f f0 	add  %l0, -16, %l0
    28c8:	80 a4 20 10 	cmp  %l0, 0x10
    28cc:	14 bf ff f3 	bg  2898 <_vfprintf_r+0x528>
    28d0:	82 10 20 10 	mov  0x10, %g1
    28d4:	e0 24 a0 04 	st  %l0, [ %l2 + 4 ]
    28d8:	c2 07 bf e8 	ld  [ %fp + -24 ], %g1
    28dc:	da 07 bf e4 	ld  [ %fp + -28 ], %o5
    28e0:	82 00 40 10 	add  %g1, %l0, %g1
    28e4:	9a 03 60 01 	inc  %o5
    28e8:	c2 27 bf e8 	st  %g1, [ %fp + -24 ]
    28ec:	19 00 00 26 	sethi  %hi(0x9800), %o4
    28f0:	80 a3 60 07 	cmp  %o5, 7
    28f4:	82 13 21 f8 	or  %o4, 0x1f8, %g1
    28f8:	da 27 bf e4 	st  %o5, [ %fp + -28 ]
    28fc:	14 80 00 1c 	bg  296c <_vfprintf_r+0x5fc>
    2900:	c2 24 80 00 	st  %g1, [ %l2 ]
    2904:	da 07 be 00 	ld  [ %fp + -512 ], %o5
    2908:	80 a5 c0 0d 	cmp  %l7, %o5
    290c:	16 80 00 03 	bge  2918 <_vfprintf_r+0x5a8>
    2910:	82 10 00 17 	mov  %l7, %g1
    2914:	82 10 00 0d 	mov  %o5, %g1
    2918:	d8 07 be 04 	ld  [ %fp + -508 ], %o4
    291c:	98 03 00 01 	add  %o4, %g1, %o4
    2920:	c2 07 bf e8 	ld  [ %fp + -24 ], %g1
    2924:	80 a0 60 00 	cmp  %g1, 0
    2928:	12 80 00 05 	bne  293c <_vfprintf_r+0x5cc>
    292c:	d8 27 be 04 	st  %o4, [ %fp + -508 ]
    2930:	c0 27 bf e4 	clr  [ %fp + -28 ]
    2934:	10 bf fe b5 	b  2408 <_vfprintf_r+0x98>
    2938:	a4 10 00 18 	mov  %i0, %l2
    293c:	92 07 bf e0 	add  %fp, -32, %o1
    2940:	7f ff fe 3d 	call  2234 <__sprint>
    2944:	90 10 00 19 	mov  %i1, %o0
    2948:	80 a2 20 00 	cmp  %o0, 0
    294c:	22 bf ff fa 	be,a   2934 <_vfprintf_r+0x5c4>
    2950:	c0 27 bf e4 	clr  [ %fp + -28 ]
    2954:	c2 16 60 0c 	lduh  [ %i1 + 0xc ], %g1
    2958:	80 88 60 40 	btst  0x40, %g1
    295c:	02 80 04 4d 	be  3a90 <_vfprintf_r+0x1720>
    2960:	d0 07 be 04 	ld  [ %fp + -508 ], %o0
    2964:	10 80 04 4b 	b  3a90 <_vfprintf_r+0x1720>
    2968:	90 10 3f ff 	mov  -1, %o0
    296c:	92 07 bf e0 	add  %fp, -32, %o1
    2970:	7f ff fe 31 	call  2234 <__sprint>
    2974:	90 10 00 19 	mov  %i1, %o0
    2978:	80 a2 20 00 	cmp  %o0, 0
    297c:	02 bf ff e3 	be  2908 <_vfprintf_r+0x598>
    2980:	da 07 be 00 	ld  [ %fp + -512 ], %o5
    2984:	10 bf ff f5 	b  2958 <_vfprintf_r+0x5e8>
    2988:	c2 16 60 0c 	lduh  [ %i1 + 0xc ], %g1
    298c:	90 10 00 19 	mov  %i1, %o0
    2990:	7f ff fe 29 	call  2234 <__sprint>
    2994:	92 07 bf e0 	add  %fp, -32, %o1
    2998:	80 a2 20 00 	cmp  %o0, 0
    299c:	12 bf ff ee 	bne  2954 <_vfprintf_r+0x5e4>
    29a0:	a4 10 00 18 	mov  %i0, %l2
    29a4:	10 bf ff c9 	b  28c8 <_vfprintf_r+0x558>
    29a8:	a0 04 3f f0 	add  %l0, -16, %l0
    29ac:	92 07 bf e0 	add  %fp, -32, %o1
    29b0:	90 10 00 19 	mov  %i1, %o0
    29b4:	7f ff fe 20 	call  2234 <__sprint>
    29b8:	a4 10 00 18 	mov  %i0, %l2
    29bc:	80 a2 20 00 	cmp  %o0, 0
    29c0:	02 bf ff ac 	be  2870 <_vfprintf_r+0x500>
    29c4:	80 8f 60 04 	btst  4, %i5
    29c8:	10 bf ff e4 	b  2958 <_vfprintf_r+0x5e8>
    29cc:	c2 16 60 0c 	lduh  [ %i1 + 0xc ], %g1
    29d0:	04 80 01 66 	ble  2f68 <_vfprintf_r+0xbf8>
    29d4:	c2 07 be 0c 	ld  [ %fp + -500 ], %g1
    29d8:	03 00 00 26 	sethi  %hi(0x9800), %g1
    29dc:	d0 1f bd f0 	ldd  [ %fp + -528 ], %o0
    29e0:	40 00 18 b1 	call  8ca4 <__eqdf2>
    29e4:	d4 18 62 90 	ldd  [ %g1 + 0x290 ], %o2
    29e8:	80 a2 20 00 	cmp  %o0, 0
    29ec:	12 80 00 5e 	bne  2b64 <_vfprintf_r+0x7f4>
    29f0:	d2 07 be 10 	ld  [ %fp + -496 ], %o1
    29f4:	a0 10 20 01 	mov  1, %l0
    29f8:	e0 24 a0 04 	st  %l0, [ %l2 + 4 ]
    29fc:	c2 07 bf e8 	ld  [ %fp + -24 ], %g1
    2a00:	da 07 bf e4 	ld  [ %fp + -28 ], %o5
    2a04:	82 00 60 01 	inc  %g1
    2a08:	9a 03 60 01 	inc  %o5
    2a0c:	c2 27 bf e8 	st  %g1, [ %fp + -24 ]
    2a10:	80 a3 60 07 	cmp  %o5, 7
    2a14:	03 00 00 26 	sethi  %hi(0x9800), %g1
    2a18:	da 27 bf e4 	st  %o5, [ %fp + -28 ]
    2a1c:	82 10 62 38 	or  %g1, 0x238, %g1
    2a20:	c2 24 80 00 	st  %g1, [ %l2 ]
    2a24:	14 80 00 48 	bg  2b44 <_vfprintf_r+0x7d4>
    2a28:	a4 04 a0 08 	add  %l2, 8, %l2
    2a2c:	da 07 be 10 	ld  [ %fp + -496 ], %o5
    2a30:	c2 07 be 0c 	ld  [ %fp + -500 ], %g1
    2a34:	80 a3 40 01 	cmp  %o5, %g1
    2a38:	26 80 00 06 	bl,a   2a50 <_vfprintf_r+0x6e0>
    2a3c:	e0 24 a0 04 	st  %l0, [ %l2 + 4 ]
    2a40:	80 8f 60 01 	btst  1, %i5
    2a44:	02 bf ff 8b 	be  2870 <_vfprintf_r+0x500>
    2a48:	80 8f 60 04 	btst  4, %i5
    2a4c:	e0 24 a0 04 	st  %l0, [ %l2 + 4 ]
    2a50:	d8 07 bd fc 	ld  [ %fp + -516 ], %o4
    2a54:	da 07 bf e4 	ld  [ %fp + -28 ], %o5
    2a58:	c2 07 bf e8 	ld  [ %fp + -24 ], %g1
    2a5c:	9a 03 60 01 	inc  %o5
    2a60:	d8 24 80 00 	st  %o4, [ %l2 ]
    2a64:	82 00 60 01 	inc  %g1
    2a68:	80 a3 60 07 	cmp  %o5, 7
    2a6c:	c2 27 bf e8 	st  %g1, [ %fp + -24 ]
    2a70:	da 27 bf e4 	st  %o5, [ %fp + -28 ]
    2a74:	14 80 00 2c 	bg  2b24 <_vfprintf_r+0x7b4>
    2a78:	a4 04 a0 08 	add  %l2, 8, %l2
    2a7c:	c2 07 be 0c 	ld  [ %fp + -500 ], %g1
    2a80:	a0 00 7f ff 	add  %g1, -1, %l0
    2a84:	80 a4 20 00 	cmp  %l0, 0
    2a88:	04 bf ff 79 	ble  286c <_vfprintf_r+0x4fc>
    2a8c:	80 a4 20 10 	cmp  %l0, 0x10
    2a90:	04 80 00 13 	ble  2adc <_vfprintf_r+0x76c>
    2a94:	2d 00 00 26 	sethi  %hi(0x9800), %l6
    2a98:	a2 15 a2 08 	or  %l6, 0x208, %l1	! 9a08 <zeroes.1>
    2a9c:	82 10 20 10 	mov  0x10, %g1
    2aa0:	c2 24 a0 04 	st  %g1, [ %l2 + 4 ]
    2aa4:	da 07 bf e4 	ld  [ %fp + -28 ], %o5
    2aa8:	c2 07 bf e8 	ld  [ %fp + -24 ], %g1
    2aac:	9a 03 60 01 	inc  %o5
    2ab0:	e2 24 80 00 	st  %l1, [ %l2 ]
    2ab4:	82 00 60 10 	add  %g1, 0x10, %g1
    2ab8:	80 a3 60 07 	cmp  %o5, 7
    2abc:	c2 27 bf e8 	st  %g1, [ %fp + -24 ]
    2ac0:	da 27 bf e4 	st  %o5, [ %fp + -28 ]
    2ac4:	14 80 00 10 	bg  2b04 <_vfprintf_r+0x794>
    2ac8:	a4 04 a0 08 	add  %l2, 8, %l2
    2acc:	a0 04 3f f0 	add  %l0, -16, %l0
    2ad0:	80 a4 20 10 	cmp  %l0, 0x10
    2ad4:	14 bf ff f3 	bg  2aa0 <_vfprintf_r+0x730>
    2ad8:	82 10 20 10 	mov  0x10, %g1
    2adc:	e0 24 a0 04 	st  %l0, [ %l2 + 4 ]
    2ae0:	c2 07 bf e8 	ld  [ %fp + -24 ], %g1
    2ae4:	da 07 bf e4 	ld  [ %fp + -28 ], %o5
    2ae8:	82 00 40 10 	add  %g1, %l0, %g1
    2aec:	9a 03 60 01 	inc  %o5
    2af0:	c2 27 bf e8 	st  %g1, [ %fp + -24 ]
    2af4:	80 a3 60 07 	cmp  %o5, 7
    2af8:	82 15 a2 08 	or  %l6, 0x208, %g1
    2afc:	10 bf ff 59 	b  2860 <_vfprintf_r+0x4f0>
    2b00:	c2 24 80 00 	st  %g1, [ %l2 ]
    2b04:	90 10 00 19 	mov  %i1, %o0
    2b08:	7f ff fd cb 	call  2234 <__sprint>
    2b0c:	92 07 bf e0 	add  %fp, -32, %o1
    2b10:	80 a2 20 00 	cmp  %o0, 0
    2b14:	12 bf ff 90 	bne  2954 <_vfprintf_r+0x5e4>
    2b18:	a4 10 00 18 	mov  %i0, %l2
    2b1c:	10 bf ff ed 	b  2ad0 <_vfprintf_r+0x760>
    2b20:	a0 04 3f f0 	add  %l0, -16, %l0
    2b24:	92 07 bf e0 	add  %fp, -32, %o1
    2b28:	7f ff fd c3 	call  2234 <__sprint>
    2b2c:	90 10 00 19 	mov  %i1, %o0
    2b30:	80 a2 20 00 	cmp  %o0, 0
    2b34:	12 bf ff 88 	bne  2954 <_vfprintf_r+0x5e4>
    2b38:	a4 10 00 18 	mov  %i0, %l2
    2b3c:	10 bf ff d1 	b  2a80 <_vfprintf_r+0x710>
    2b40:	c2 07 be 0c 	ld  [ %fp + -500 ], %g1
    2b44:	92 07 bf e0 	add  %fp, -32, %o1
    2b48:	7f ff fd bb 	call  2234 <__sprint>
    2b4c:	90 10 00 19 	mov  %i1, %o0
    2b50:	80 a2 20 00 	cmp  %o0, 0
    2b54:	12 bf ff 80 	bne  2954 <_vfprintf_r+0x5e4>
    2b58:	a4 10 00 18 	mov  %i0, %l2
    2b5c:	10 bf ff b5 	b  2a30 <_vfprintf_r+0x6c0>
    2b60:	da 07 be 10 	ld  [ %fp + -496 ], %o5
    2b64:	80 a2 60 00 	cmp  %o1, 0
    2b68:	04 80 00 8e 	ble  2da0 <_vfprintf_r+0xa30>
    2b6c:	c2 07 be 0c 	ld  [ %fp + -500 ], %g1
    2b70:	80 a2 40 01 	cmp  %o1, %g1
    2b74:	26 80 00 5a 	bl,a   2cdc <_vfprintf_r+0x96c>
    2b78:	d2 24 a0 04 	st  %o1, [ %l2 + 4 ]
    2b7c:	c2 24 a0 04 	st  %g1, [ %l2 + 4 ]
    2b80:	90 10 00 01 	mov  %g1, %o0
    2b84:	da 07 bf e4 	ld  [ %fp + -28 ], %o5
    2b88:	c2 07 bf e8 	ld  [ %fp + -24 ], %g1
    2b8c:	9a 03 60 01 	inc  %o5
    2b90:	e6 24 80 00 	st  %l3, [ %l2 ]
    2b94:	82 00 40 08 	add  %g1, %o0, %g1
    2b98:	80 a3 60 07 	cmp  %o5, 7
    2b9c:	da 27 bf e4 	st  %o5, [ %fp + -28 ]
    2ba0:	c2 27 bf e8 	st  %g1, [ %fp + -24 ]
    2ba4:	14 80 00 46 	bg  2cbc <_vfprintf_r+0x94c>
    2ba8:	a4 04 a0 08 	add  %l2, 8, %l2
    2bac:	c2 07 be 10 	ld  [ %fp + -496 ], %g1
    2bb0:	a0 20 40 08 	sub  %g1, %o0, %l0
    2bb4:	80 a4 20 00 	cmp  %l0, 0
    2bb8:	04 80 00 21 	ble  2c3c <_vfprintf_r+0x8cc>
    2bbc:	80 a4 20 10 	cmp  %l0, 0x10
    2bc0:	04 80 00 13 	ble  2c0c <_vfprintf_r+0x89c>
    2bc4:	2d 00 00 26 	sethi  %hi(0x9800), %l6
    2bc8:	a2 15 a2 08 	or  %l6, 0x208, %l1	! 9a08 <zeroes.1>
    2bcc:	82 10 20 10 	mov  0x10, %g1
    2bd0:	c2 24 a0 04 	st  %g1, [ %l2 + 4 ]
    2bd4:	da 07 bf e4 	ld  [ %fp + -28 ], %o5
    2bd8:	c2 07 bf e8 	ld  [ %fp + -24 ], %g1
    2bdc:	9a 03 60 01 	inc  %o5
    2be0:	e2 24 80 00 	st  %l1, [ %l2 ]
    2be4:	82 00 60 10 	add  %g1, 0x10, %g1
    2be8:	80 a3 60 07 	cmp  %o5, 7
    2bec:	c2 27 bf e8 	st  %g1, [ %fp + -24 ]
    2bf0:	da 27 bf e4 	st  %o5, [ %fp + -28 ]
    2bf4:	14 80 00 2a 	bg  2c9c <_vfprintf_r+0x92c>
    2bf8:	a4 04 a0 08 	add  %l2, 8, %l2
    2bfc:	a0 04 3f f0 	add  %l0, -16, %l0
    2c00:	80 a4 20 10 	cmp  %l0, 0x10
    2c04:	14 bf ff f3 	bg  2bd0 <_vfprintf_r+0x860>
    2c08:	82 10 20 10 	mov  0x10, %g1
    2c0c:	e0 24 a0 04 	st  %l0, [ %l2 + 4 ]
    2c10:	c2 07 bf e8 	ld  [ %fp + -24 ], %g1
    2c14:	da 07 bf e4 	ld  [ %fp + -28 ], %o5
    2c18:	82 00 40 10 	add  %g1, %l0, %g1
    2c1c:	9a 03 60 01 	inc  %o5
    2c20:	c2 27 bf e8 	st  %g1, [ %fp + -24 ]
    2c24:	80 a3 60 07 	cmp  %o5, 7
    2c28:	82 15 a2 08 	or  %l6, 0x208, %g1
    2c2c:	da 27 bf e4 	st  %o5, [ %fp + -28 ]
    2c30:	c2 24 80 00 	st  %g1, [ %l2 ]
    2c34:	14 80 00 12 	bg  2c7c <_vfprintf_r+0x90c>
    2c38:	a4 04 a0 08 	add  %l2, 8, %l2
    2c3c:	80 8f 60 01 	btst  1, %i5
    2c40:	22 bf ff 0c 	be,a   2870 <_vfprintf_r+0x500>
    2c44:	80 8f 60 04 	btst  4, %i5
    2c48:	9a 10 20 01 	mov  1, %o5
    2c4c:	da 24 a0 04 	st  %o5, [ %l2 + 4 ]
    2c50:	c2 07 bf e8 	ld  [ %fp + -24 ], %g1
    2c54:	da 07 bf e4 	ld  [ %fp + -28 ], %o5
    2c58:	82 00 60 01 	inc  %g1
    2c5c:	9a 03 60 01 	inc  %o5
    2c60:	c2 27 bf e8 	st  %g1, [ %fp + -24 ]
    2c64:	80 a3 60 07 	cmp  %o5, 7
    2c68:	03 00 00 26 	sethi  %hi(0x9800), %g1
    2c6c:	da 27 bf e4 	st  %o5, [ %fp + -28 ]
    2c70:	82 10 62 40 	or  %g1, 0x240, %g1
    2c74:	10 bf fe fc 	b  2864 <_vfprintf_r+0x4f4>
    2c78:	c2 24 80 00 	st  %g1, [ %l2 ]
    2c7c:	92 07 bf e0 	add  %fp, -32, %o1
    2c80:	7f ff fd 6d 	call  2234 <__sprint>
    2c84:	90 10 00 19 	mov  %i1, %o0
    2c88:	80 a2 20 00 	cmp  %o0, 0
    2c8c:	12 bf ff 32 	bne  2954 <_vfprintf_r+0x5e4>
    2c90:	a4 10 00 18 	mov  %i0, %l2
    2c94:	10 bf ff eb 	b  2c40 <_vfprintf_r+0x8d0>
    2c98:	80 8f 60 01 	btst  1, %i5
    2c9c:	90 10 00 19 	mov  %i1, %o0
    2ca0:	7f ff fd 65 	call  2234 <__sprint>
    2ca4:	92 07 bf e0 	add  %fp, -32, %o1
    2ca8:	80 a2 20 00 	cmp  %o0, 0
    2cac:	12 bf ff 2a 	bne  2954 <_vfprintf_r+0x5e4>
    2cb0:	a4 10 00 18 	mov  %i0, %l2
    2cb4:	10 bf ff d3 	b  2c00 <_vfprintf_r+0x890>
    2cb8:	a0 04 3f f0 	add  %l0, -16, %l0
    2cbc:	92 07 bf e0 	add  %fp, -32, %o1
    2cc0:	7f ff fd 5d 	call  2234 <__sprint>
    2cc4:	90 10 00 19 	mov  %i1, %o0
    2cc8:	80 a2 20 00 	cmp  %o0, 0
    2ccc:	12 bf ff 22 	bne  2954 <_vfprintf_r+0x5e4>
    2cd0:	d0 07 be 0c 	ld  [ %fp + -500 ], %o0
    2cd4:	10 bf ff b6 	b  2bac <_vfprintf_r+0x83c>
    2cd8:	a4 10 00 18 	mov  %i0, %l2
    2cdc:	da 07 bf e4 	ld  [ %fp + -28 ], %o5
    2ce0:	c2 07 bf e8 	ld  [ %fp + -24 ], %g1
    2ce4:	9a 03 60 01 	inc  %o5
    2ce8:	e6 24 80 00 	st  %l3, [ %l2 ]
    2cec:	82 00 40 09 	add  %g1, %o1, %g1
    2cf0:	80 a3 60 07 	cmp  %o5, 7
    2cf4:	da 27 bf e4 	st  %o5, [ %fp + -28 ]
    2cf8:	c2 27 bf e8 	st  %g1, [ %fp + -24 ]
    2cfc:	14 80 00 21 	bg  2d80 <_vfprintf_r+0xa10>
    2d00:	a4 04 a0 08 	add  %l2, 8, %l2
    2d04:	9a 10 20 01 	mov  1, %o5
    2d08:	da 24 a0 04 	st  %o5, [ %l2 + 4 ]
    2d0c:	c2 07 bf e8 	ld  [ %fp + -24 ], %g1
    2d10:	da 07 bf e4 	ld  [ %fp + -28 ], %o5
    2d14:	82 00 60 01 	inc  %g1
    2d18:	9a 03 60 01 	inc  %o5
    2d1c:	c2 27 bf e8 	st  %g1, [ %fp + -24 ]
    2d20:	80 a3 60 07 	cmp  %o5, 7
    2d24:	03 00 00 26 	sethi  %hi(0x9800), %g1
    2d28:	a6 04 c0 09 	add  %l3, %o1, %l3
    2d2c:	82 10 62 40 	or  %g1, 0x240, %g1
    2d30:	da 27 bf e4 	st  %o5, [ %fp + -28 ]
    2d34:	c2 24 80 00 	st  %g1, [ %l2 ]
    2d38:	14 80 00 0a 	bg  2d60 <_vfprintf_r+0x9f0>
    2d3c:	a4 04 a0 08 	add  %l2, 8, %l2
    2d40:	c2 07 be 10 	ld  [ %fp + -496 ], %g1
    2d44:	da 07 be 0c 	ld  [ %fp + -500 ], %o5
    2d48:	e6 24 80 00 	st  %l3, [ %l2 ]
    2d4c:	9a 23 40 01 	sub  %o5, %g1, %o5
    2d50:	da 24 a0 04 	st  %o5, [ %l2 + 4 ]
    2d54:	c2 07 bf e8 	ld  [ %fp + -24 ], %g1
    2d58:	10 bf fe be 	b  2850 <_vfprintf_r+0x4e0>
    2d5c:	82 00 40 0d 	add  %g1, %o5, %g1
    2d60:	92 07 bf e0 	add  %fp, -32, %o1
    2d64:	7f ff fd 34 	call  2234 <__sprint>
    2d68:	90 10 00 19 	mov  %i1, %o0
    2d6c:	80 a2 20 00 	cmp  %o0, 0
    2d70:	12 bf fe f9 	bne  2954 <_vfprintf_r+0x5e4>
    2d74:	a4 10 00 18 	mov  %i0, %l2
    2d78:	10 bf ff f3 	b  2d44 <_vfprintf_r+0x9d4>
    2d7c:	c2 07 be 10 	ld  [ %fp + -496 ], %g1
    2d80:	92 07 bf e0 	add  %fp, -32, %o1
    2d84:	7f ff fd 2c 	call  2234 <__sprint>
    2d88:	90 10 00 19 	mov  %i1, %o0
    2d8c:	80 a2 20 00 	cmp  %o0, 0
    2d90:	12 bf fe f1 	bne  2954 <_vfprintf_r+0x5e4>
    2d94:	d2 07 be 10 	ld  [ %fp + -496 ], %o1
    2d98:	10 bf ff db 	b  2d04 <_vfprintf_r+0x994>
    2d9c:	a4 10 00 18 	mov  %i0, %l2
    2da0:	a0 10 20 01 	mov  1, %l0
    2da4:	e0 24 a0 04 	st  %l0, [ %l2 + 4 ]
    2da8:	c2 07 bf e8 	ld  [ %fp + -24 ], %g1
    2dac:	da 07 bf e4 	ld  [ %fp + -28 ], %o5
    2db0:	82 00 60 01 	inc  %g1
    2db4:	9a 03 60 01 	inc  %o5
    2db8:	c2 27 bf e8 	st  %g1, [ %fp + -24 ]
    2dbc:	80 a3 60 07 	cmp  %o5, 7
    2dc0:	03 00 00 26 	sethi  %hi(0x9800), %g1
    2dc4:	da 27 bf e4 	st  %o5, [ %fp + -28 ]
    2dc8:	82 10 62 38 	or  %g1, 0x238, %g1
    2dcc:	c2 24 80 00 	st  %g1, [ %l2 ]
    2dd0:	14 80 00 5e 	bg  2f48 <_vfprintf_r+0xbd8>
    2dd4:	a4 04 a0 08 	add  %l2, 8, %l2
    2dd8:	c2 07 be 10 	ld  [ %fp + -496 ], %g1
    2ddc:	80 a0 60 00 	cmp  %g1, 0
    2de0:	12 80 00 07 	bne  2dfc <_vfprintf_r+0xa8c>
    2de4:	da 07 bd fc 	ld  [ %fp + -516 ], %o5
    2de8:	c2 07 be 0c 	ld  [ %fp + -500 ], %g1
    2dec:	80 a0 60 00 	cmp  %g1, 0
    2df0:	02 bf fe a0 	be  2870 <_vfprintf_r+0x500>
    2df4:	80 8f 60 04 	btst  4, %i5
    2df8:	da 07 bd fc 	ld  [ %fp + -516 ], %o5
    2dfc:	e0 24 a0 04 	st  %l0, [ %l2 + 4 ]
    2e00:	da 24 80 00 	st  %o5, [ %l2 ]
    2e04:	c2 07 bf e8 	ld  [ %fp + -24 ], %g1
    2e08:	da 07 bf e4 	ld  [ %fp + -28 ], %o5
    2e0c:	82 00 60 01 	inc  %g1
    2e10:	9a 03 60 01 	inc  %o5
    2e14:	c2 27 bf e8 	st  %g1, [ %fp + -24 ]
    2e18:	80 a3 60 07 	cmp  %o5, 7
    2e1c:	da 27 bf e4 	st  %o5, [ %fp + -28 ]
    2e20:	14 80 00 42 	bg  2f28 <_vfprintf_r+0xbb8>
    2e24:	a4 04 a0 08 	add  %l2, 8, %l2
    2e28:	c2 07 be 10 	ld  [ %fp + -496 ], %g1
    2e2c:	a0 20 00 01 	neg  %g1, %l0
    2e30:	80 a4 20 00 	cmp  %l0, 0
    2e34:	04 80 00 23 	ble  2ec0 <_vfprintf_r+0xb50>
    2e38:	c2 07 be 0c 	ld  [ %fp + -500 ], %g1
    2e3c:	80 a4 20 10 	cmp  %l0, 0x10
    2e40:	04 80 00 13 	ble  2e8c <_vfprintf_r+0xb1c>
    2e44:	2d 00 00 26 	sethi  %hi(0x9800), %l6
    2e48:	a2 15 a2 08 	or  %l6, 0x208, %l1	! 9a08 <zeroes.1>
    2e4c:	82 10 20 10 	mov  0x10, %g1
    2e50:	c2 24 a0 04 	st  %g1, [ %l2 + 4 ]
    2e54:	da 07 bf e4 	ld  [ %fp + -28 ], %o5
    2e58:	c2 07 bf e8 	ld  [ %fp + -24 ], %g1
    2e5c:	9a 03 60 01 	inc  %o5
    2e60:	e2 24 80 00 	st  %l1, [ %l2 ]
    2e64:	82 00 60 10 	add  %g1, 0x10, %g1
    2e68:	80 a3 60 07 	cmp  %o5, 7
    2e6c:	c2 27 bf e8 	st  %g1, [ %fp + -24 ]
    2e70:	da 27 bf e4 	st  %o5, [ %fp + -28 ]
    2e74:	14 80 00 25 	bg  2f08 <_vfprintf_r+0xb98>
    2e78:	a4 04 a0 08 	add  %l2, 8, %l2
    2e7c:	a0 04 3f f0 	add  %l0, -16, %l0
    2e80:	80 a4 20 10 	cmp  %l0, 0x10
    2e84:	14 bf ff f3 	bg  2e50 <_vfprintf_r+0xae0>
    2e88:	82 10 20 10 	mov  0x10, %g1
    2e8c:	e0 24 a0 04 	st  %l0, [ %l2 + 4 ]
    2e90:	c2 07 bf e8 	ld  [ %fp + -24 ], %g1
    2e94:	da 07 bf e4 	ld  [ %fp + -28 ], %o5
    2e98:	82 00 40 10 	add  %g1, %l0, %g1
    2e9c:	9a 03 60 01 	inc  %o5
    2ea0:	c2 27 bf e8 	st  %g1, [ %fp + -24 ]
    2ea4:	80 a3 60 07 	cmp  %o5, 7
    2ea8:	82 15 a2 08 	or  %l6, 0x208, %g1
    2eac:	da 27 bf e4 	st  %o5, [ %fp + -28 ]
    2eb0:	c2 24 80 00 	st  %g1, [ %l2 ]
    2eb4:	14 80 00 0d 	bg  2ee8 <_vfprintf_r+0xb78>
    2eb8:	a4 04 a0 08 	add  %l2, 8, %l2
    2ebc:	c2 07 be 0c 	ld  [ %fp + -500 ], %g1
    2ec0:	e6 24 80 00 	st  %l3, [ %l2 ]
    2ec4:	c2 24 a0 04 	st  %g1, [ %l2 + 4 ]
    2ec8:	da 07 bf e8 	ld  [ %fp + -24 ], %o5
    2ecc:	9a 03 40 01 	add  %o5, %g1, %o5
    2ed0:	c2 07 bf e4 	ld  [ %fp + -28 ], %g1
    2ed4:	da 27 bf e8 	st  %o5, [ %fp + -24 ]
    2ed8:	82 00 60 01 	inc  %g1
    2edc:	80 a0 60 07 	cmp  %g1, 7
    2ee0:	10 bf fe 61 	b  2864 <_vfprintf_r+0x4f4>
    2ee4:	c2 27 bf e4 	st  %g1, [ %fp + -28 ]
    2ee8:	92 07 bf e0 	add  %fp, -32, %o1
    2eec:	7f ff fc d2 	call  2234 <__sprint>
    2ef0:	90 10 00 19 	mov  %i1, %o0
    2ef4:	80 a2 20 00 	cmp  %o0, 0
    2ef8:	12 bf fe 97 	bne  2954 <_vfprintf_r+0x5e4>
    2efc:	a4 10 00 18 	mov  %i0, %l2
    2f00:	10 bf ff f0 	b  2ec0 <_vfprintf_r+0xb50>
    2f04:	c2 07 be 0c 	ld  [ %fp + -500 ], %g1
    2f08:	90 10 00 19 	mov  %i1, %o0
    2f0c:	7f ff fc ca 	call  2234 <__sprint>
    2f10:	92 07 bf e0 	add  %fp, -32, %o1
    2f14:	80 a2 20 00 	cmp  %o0, 0
    2f18:	12 bf fe 8f 	bne  2954 <_vfprintf_r+0x5e4>
    2f1c:	a4 10 00 18 	mov  %i0, %l2
    2f20:	10 bf ff d8 	b  2e80 <_vfprintf_r+0xb10>
    2f24:	a0 04 3f f0 	add  %l0, -16, %l0
    2f28:	92 07 bf e0 	add  %fp, -32, %o1
    2f2c:	7f ff fc c2 	call  2234 <__sprint>
    2f30:	90 10 00 19 	mov  %i1, %o0
    2f34:	80 a2 20 00 	cmp  %o0, 0
    2f38:	12 bf fe 87 	bne  2954 <_vfprintf_r+0x5e4>
    2f3c:	a4 10 00 18 	mov  %i0, %l2
    2f40:	10 bf ff bb 	b  2e2c <_vfprintf_r+0xabc>
    2f44:	c2 07 be 10 	ld  [ %fp + -496 ], %g1
    2f48:	92 07 bf e0 	add  %fp, -32, %o1
    2f4c:	7f ff fc ba 	call  2234 <__sprint>
    2f50:	90 10 00 19 	mov  %i1, %o0
    2f54:	80 a2 20 00 	cmp  %o0, 0
    2f58:	12 bf fe 7f 	bne  2954 <_vfprintf_r+0x5e4>
    2f5c:	a4 10 00 18 	mov  %i0, %l2
    2f60:	10 bf ff 9f 	b  2ddc <_vfprintf_r+0xa6c>
    2f64:	c2 07 be 10 	ld  [ %fp + -496 ], %g1
    2f68:	80 a0 60 01 	cmp  %g1, 1
    2f6c:	04 80 00 79 	ble  3150 <_vfprintf_r+0xde0>
    2f70:	80 8f 60 01 	btst  1, %i5
    2f74:	c2 0c c0 00 	ldub  [ %l3 ], %g1
    2f78:	9a 10 20 2e 	mov  0x2e, %o5
    2f7c:	c2 2f be 38 	stb  %g1, [ %fp + -456 ]
    2f80:	da 2f be 39 	stb  %o5, [ %fp + -455 ]
    2f84:	98 10 20 02 	mov  2, %o4
    2f88:	d8 24 a0 04 	st  %o4, [ %l2 + 4 ]
    2f8c:	c2 07 bf e8 	ld  [ %fp + -24 ], %g1
    2f90:	da 07 bf e4 	ld  [ %fp + -28 ], %o5
    2f94:	82 00 60 02 	add  %g1, 2, %g1
    2f98:	9a 03 60 01 	inc  %o5
    2f9c:	c2 27 bf e8 	st  %g1, [ %fp + -24 ]
    2fa0:	80 a3 60 07 	cmp  %o5, 7
    2fa4:	82 07 be 38 	add  %fp, -456, %g1
    2fa8:	da 27 bf e4 	st  %o5, [ %fp + -28 ]
    2fac:	c2 24 80 00 	st  %g1, [ %l2 ]
    2fb0:	a6 04 e0 01 	inc  %l3
    2fb4:	14 80 00 5f 	bg  3130 <_vfprintf_r+0xdc0>
    2fb8:	a4 04 a0 08 	add  %l2, 8, %l2
    2fbc:	03 00 00 26 	sethi  %hi(0x9800), %g1
    2fc0:	d0 1f bd f0 	ldd  [ %fp + -528 ], %o0
    2fc4:	40 00 17 51 	call  8d08 <__nedf2>
    2fc8:	d4 18 62 90 	ldd  [ %g1 + 0x290 ], %o2
    2fcc:	80 a2 20 00 	cmp  %o0, 0
    2fd0:	02 80 00 2e 	be  3088 <_vfprintf_r+0xd18>
    2fd4:	c2 07 be 0c 	ld  [ %fp + -500 ], %g1
    2fd8:	d8 07 be 0c 	ld  [ %fp + -500 ], %o4
    2fdc:	e6 24 80 00 	st  %l3, [ %l2 ]
    2fe0:	82 03 3f ff 	add  %o4, -1, %g1
    2fe4:	c2 24 a0 04 	st  %g1, [ %l2 + 4 ]
    2fe8:	da 07 bf e8 	ld  [ %fp + -24 ], %o5
    2fec:	c2 07 bf e4 	ld  [ %fp + -28 ], %g1
    2ff0:	9a 03 40 0c 	add  %o5, %o4, %o5
    2ff4:	82 00 60 01 	inc  %g1
    2ff8:	9a 03 7f ff 	add  %o5, -1, %o5
    2ffc:	80 a0 60 07 	cmp  %g1, 7
    3000:	da 27 bf e8 	st  %o5, [ %fp + -24 ]
    3004:	c2 27 bf e4 	st  %g1, [ %fp + -28 ]
    3008:	14 80 00 17 	bg  3064 <_vfprintf_r+0xcf4>
    300c:	a4 04 a0 08 	add  %l2, 8, %l2
    3010:	d8 07 bd ec 	ld  [ %fp + -532 ], %o4
    3014:	d8 24 a0 04 	st  %o4, [ %l2 + 4 ]
    3018:	c2 07 bf e8 	ld  [ %fp + -24 ], %g1
    301c:	da 07 bf e4 	ld  [ %fp + -28 ], %o5
    3020:	82 00 40 0c 	add  %g1, %o4, %g1
    3024:	9a 03 60 01 	inc  %o5
    3028:	c2 27 bf e8 	st  %g1, [ %fp + -24 ]
    302c:	80 a3 60 07 	cmp  %o5, 7
    3030:	82 07 bf f0 	add  %fp, -16, %g1
    3034:	da 27 bf e4 	st  %o5, [ %fp + -28 ]
    3038:	c2 24 80 00 	st  %g1, [ %l2 ]
    303c:	04 bf fe 0c 	ble  286c <_vfprintf_r+0x4fc>
    3040:	a4 04 a0 08 	add  %l2, 8, %l2
    3044:	92 07 bf e0 	add  %fp, -32, %o1
    3048:	7f ff fc 7b 	call  2234 <__sprint>
    304c:	90 10 00 19 	mov  %i1, %o0
    3050:	80 a2 20 00 	cmp  %o0, 0
    3054:	12 bf fe 40 	bne  2954 <_vfprintf_r+0x5e4>
    3058:	a4 10 00 18 	mov  %i0, %l2
    305c:	10 bf fe 05 	b  2870 <_vfprintf_r+0x500>
    3060:	80 8f 60 04 	btst  4, %i5
    3064:	92 07 bf e0 	add  %fp, -32, %o1
    3068:	90 10 00 19 	mov  %i1, %o0
    306c:	7f ff fc 72 	call  2234 <__sprint>
    3070:	a4 10 00 18 	mov  %i0, %l2
    3074:	80 a2 20 00 	cmp  %o0, 0
    3078:	02 bf ff e7 	be  3014 <_vfprintf_r+0xca4>
    307c:	d8 07 bd ec 	ld  [ %fp + -532 ], %o4
    3080:	10 bf fe 36 	b  2958 <_vfprintf_r+0x5e8>
    3084:	c2 16 60 0c 	lduh  [ %i1 + 0xc ], %g1
    3088:	a0 00 7f ff 	add  %g1, -1, %l0
    308c:	80 a4 20 00 	cmp  %l0, 0
    3090:	04 bf ff e0 	ble  3010 <_vfprintf_r+0xca0>
    3094:	80 a4 20 10 	cmp  %l0, 0x10
    3098:	04 80 00 13 	ble  30e4 <_vfprintf_r+0xd74>
    309c:	2d 00 00 26 	sethi  %hi(0x9800), %l6
    30a0:	a2 15 a2 08 	or  %l6, 0x208, %l1	! 9a08 <zeroes.1>
    30a4:	82 10 20 10 	mov  0x10, %g1
    30a8:	c2 24 a0 04 	st  %g1, [ %l2 + 4 ]
    30ac:	da 07 bf e4 	ld  [ %fp + -28 ], %o5
    30b0:	c2 07 bf e8 	ld  [ %fp + -24 ], %g1
    30b4:	9a 03 60 01 	inc  %o5
    30b8:	e2 24 80 00 	st  %l1, [ %l2 ]
    30bc:	82 00 60 10 	add  %g1, 0x10, %g1
    30c0:	80 a3 60 07 	cmp  %o5, 7
    30c4:	c2 27 bf e8 	st  %g1, [ %fp + -24 ]
    30c8:	da 27 bf e4 	st  %o5, [ %fp + -28 ]
    30cc:	14 80 00 11 	bg  3110 <_vfprintf_r+0xda0>
    30d0:	a4 04 a0 08 	add  %l2, 8, %l2
    30d4:	a0 04 3f f0 	add  %l0, -16, %l0
    30d8:	80 a4 20 10 	cmp  %l0, 0x10
    30dc:	14 bf ff f3 	bg  30a8 <_vfprintf_r+0xd38>
    30e0:	82 10 20 10 	mov  0x10, %g1
    30e4:	e0 24 a0 04 	st  %l0, [ %l2 + 4 ]
    30e8:	c2 07 bf e8 	ld  [ %fp + -24 ], %g1
    30ec:	da 07 bf e4 	ld  [ %fp + -28 ], %o5
    30f0:	82 00 40 10 	add  %g1, %l0, %g1
    30f4:	9a 03 60 01 	inc  %o5
    30f8:	c2 27 bf e8 	st  %g1, [ %fp + -24 ]
    30fc:	80 a3 60 07 	cmp  %o5, 7
    3100:	82 15 a2 08 	or  %l6, 0x208, %g1
    3104:	da 27 bf e4 	st  %o5, [ %fp + -28 ]
    3108:	10 bf ff c0 	b  3008 <_vfprintf_r+0xc98>
    310c:	c2 24 80 00 	st  %g1, [ %l2 ]
    3110:	90 10 00 19 	mov  %i1, %o0
    3114:	7f ff fc 48 	call  2234 <__sprint>
    3118:	92 07 bf e0 	add  %fp, -32, %o1
    311c:	80 a2 20 00 	cmp  %o0, 0
    3120:	12 bf fe 0d 	bne  2954 <_vfprintf_r+0x5e4>
    3124:	a4 10 00 18 	mov  %i0, %l2
    3128:	10 bf ff ec 	b  30d8 <_vfprintf_r+0xd68>
    312c:	a0 04 3f f0 	add  %l0, -16, %l0
    3130:	92 07 bf e0 	add  %fp, -32, %o1
    3134:	7f ff fc 40 	call  2234 <__sprint>
    3138:	90 10 00 19 	mov  %i1, %o0
    313c:	80 a2 20 00 	cmp  %o0, 0
    3140:	12 bf fe 05 	bne  2954 <_vfprintf_r+0x5e4>
    3144:	a4 10 00 18 	mov  %i0, %l2
    3148:	10 bf ff 9e 	b  2fc0 <_vfprintf_r+0xc50>
    314c:	03 00 00 26 	sethi  %hi(0x9800), %g1
    3150:	32 bf ff 8a 	bne,a   2f78 <_vfprintf_r+0xc08>
    3154:	c2 0c c0 00 	ldub  [ %l3 ], %g1
    3158:	82 10 20 01 	mov  1, %g1
    315c:	c2 24 a0 04 	st  %g1, [ %l2 + 4 ]
    3160:	da 07 bf e4 	ld  [ %fp + -28 ], %o5
    3164:	c2 07 bf e8 	ld  [ %fp + -24 ], %g1
    3168:	9a 03 60 01 	inc  %o5
    316c:	e6 24 80 00 	st  %l3, [ %l2 ]
    3170:	82 00 60 01 	inc  %g1
    3174:	80 a3 60 07 	cmp  %o5, 7
    3178:	c2 27 bf e8 	st  %g1, [ %fp + -24 ]
    317c:	da 27 bf e4 	st  %o5, [ %fp + -28 ]
    3180:	04 bf ff a4 	ble  3010 <_vfprintf_r+0xca0>
    3184:	a4 04 a0 08 	add  %l2, 8, %l2
    3188:	92 07 bf e0 	add  %fp, -32, %o1
    318c:	7f ff fc 2a 	call  2234 <__sprint>
    3190:	90 10 00 19 	mov  %i1, %o0
    3194:	80 a2 20 00 	cmp  %o0, 0
    3198:	12 bf fd ef 	bne  2954 <_vfprintf_r+0x5e4>
    319c:	a4 10 00 18 	mov  %i0, %l2
    31a0:	10 bf ff 9d 	b  3014 <_vfprintf_r+0xca4>
    31a4:	d8 07 bd ec 	ld  [ %fp + -532 ], %o4
    31a8:	92 07 bf e0 	add  %fp, -32, %o1
    31ac:	7f ff fc 22 	call  2234 <__sprint>
    31b0:	90 10 00 19 	mov  %i1, %o0
    31b4:	80 a2 20 00 	cmp  %o0, 0
    31b8:	12 bf fd e7 	bne  2954 <_vfprintf_r+0x5e4>
    31bc:	a4 10 00 18 	mov  %i0, %l2
    31c0:	10 bf fd 9e 	b  2838 <_vfprintf_r+0x4c8>
    31c4:	80 8f 61 00 	btst  0x100, %i5
    31c8:	90 10 00 19 	mov  %i1, %o0
    31cc:	7f ff fc 1a 	call  2234 <__sprint>
    31d0:	92 07 bf e0 	add  %fp, -32, %o1
    31d4:	80 a2 20 00 	cmp  %o0, 0
    31d8:	12 bf fd df 	bne  2954 <_vfprintf_r+0x5e4>
    31dc:	a4 10 00 18 	mov  %i0, %l2
    31e0:	10 bf fd 86 	b  27f8 <_vfprintf_r+0x488>
    31e4:	a0 04 3f f0 	add  %l0, -16, %l0
    31e8:	a0 23 40 17 	sub  %o5, %l7, %l0
    31ec:	80 a4 20 00 	cmp  %l0, 0
    31f0:	04 bf fd 6e 	ble  27a8 <_vfprintf_r+0x438>
    31f4:	80 a4 20 10 	cmp  %l0, 0x10
    31f8:	04 80 00 13 	ble  3244 <_vfprintf_r+0xed4>
    31fc:	2d 00 00 26 	sethi  %hi(0x9800), %l6
    3200:	a2 15 a2 08 	or  %l6, 0x208, %l1	! 9a08 <zeroes.1>
    3204:	82 10 20 10 	mov  0x10, %g1
    3208:	c2 24 a0 04 	st  %g1, [ %l2 + 4 ]
    320c:	da 07 bf e4 	ld  [ %fp + -28 ], %o5
    3210:	c2 07 bf e8 	ld  [ %fp + -24 ], %g1
    3214:	9a 03 60 01 	inc  %o5
    3218:	e2 24 80 00 	st  %l1, [ %l2 ]
    321c:	82 00 60 10 	add  %g1, 0x10, %g1
    3220:	80 a3 60 07 	cmp  %o5, 7
    3224:	c2 27 bf e8 	st  %g1, [ %fp + -24 ]
    3228:	da 27 bf e4 	st  %o5, [ %fp + -28 ]
    322c:	14 80 00 1a 	bg  3294 <_vfprintf_r+0xf24>
    3230:	a4 04 a0 08 	add  %l2, 8, %l2
    3234:	a0 04 3f f0 	add  %l0, -16, %l0
    3238:	80 a4 20 10 	cmp  %l0, 0x10
    323c:	14 bf ff f3 	bg  3208 <_vfprintf_r+0xe98>
    3240:	82 10 20 10 	mov  0x10, %g1
    3244:	e0 24 a0 04 	st  %l0, [ %l2 + 4 ]
    3248:	c2 07 bf e8 	ld  [ %fp + -24 ], %g1
    324c:	da 07 bf e4 	ld  [ %fp + -28 ], %o5
    3250:	82 00 40 10 	add  %g1, %l0, %g1
    3254:	9a 03 60 01 	inc  %o5
    3258:	c2 27 bf e8 	st  %g1, [ %fp + -24 ]
    325c:	80 a3 60 07 	cmp  %o5, 7
    3260:	82 15 a2 08 	or  %l6, 0x208, %g1
    3264:	da 27 bf e4 	st  %o5, [ %fp + -28 ]
    3268:	c2 24 80 00 	st  %g1, [ %l2 ]
    326c:	04 bf fd 4f 	ble  27a8 <_vfprintf_r+0x438>
    3270:	a4 04 a0 08 	add  %l2, 8, %l2
    3274:	92 07 bf e0 	add  %fp, -32, %o1
    3278:	7f ff fb ef 	call  2234 <__sprint>
    327c:	90 10 00 19 	mov  %i1, %o0
    3280:	80 a2 20 00 	cmp  %o0, 0
    3284:	12 bf fd b4 	bne  2954 <_vfprintf_r+0x5e4>
    3288:	a4 10 00 18 	mov  %i0, %l2
    328c:	10 bf fd 48 	b  27ac <_vfprintf_r+0x43c>
    3290:	a0 27 00 15 	sub  %i4, %l5, %l0
    3294:	90 10 00 19 	mov  %i1, %o0
    3298:	7f ff fb e7 	call  2234 <__sprint>
    329c:	92 07 bf e0 	add  %fp, -32, %o1
    32a0:	80 a2 20 00 	cmp  %o0, 0
    32a4:	12 bf fd ac 	bne  2954 <_vfprintf_r+0x5e4>
    32a8:	a4 10 00 18 	mov  %i0, %l2
    32ac:	10 bf ff e3 	b  3238 <_vfprintf_r+0xec8>
    32b0:	a0 04 3f f0 	add  %l0, -16, %l0
    32b4:	92 07 bf e0 	add  %fp, -32, %o1
    32b8:	90 10 00 19 	mov  %i1, %o0
    32bc:	7f ff fb de 	call  2234 <__sprint>
    32c0:	a4 10 00 18 	mov  %i0, %l2
    32c4:	80 a2 20 00 	cmp  %o0, 0
    32c8:	02 bf fd 36 	be  27a0 <_vfprintf_r+0x430>
    32cc:	80 a5 a0 80 	cmp  %l6, 0x80
    32d0:	10 bf fd a2 	b  2958 <_vfprintf_r+0x5e8>
    32d4:	c2 16 60 0c 	lduh  [ %i1 + 0xc ], %g1
    32d8:	02 bf fd 32 	be  27a0 <_vfprintf_r+0x430>
    32dc:	80 a5 a0 80 	cmp  %l6, 0x80
    32e0:	e8 2f be 39 	stb  %l4, [ %fp + -455 ]
    32e4:	82 10 20 30 	mov  0x30, %g1
    32e8:	c2 2f be 38 	stb  %g1, [ %fp + -456 ]
    32ec:	9a 10 20 02 	mov  2, %o5
    32f0:	da 24 a0 04 	st  %o5, [ %l2 + 4 ]
    32f4:	c2 07 bf e8 	ld  [ %fp + -24 ], %g1
    32f8:	da 07 bf e4 	ld  [ %fp + -28 ], %o5
    32fc:	82 00 60 02 	add  %g1, 2, %g1
    3300:	9a 03 60 01 	inc  %o5
    3304:	c2 27 bf e8 	st  %g1, [ %fp + -24 ]
    3308:	80 a3 60 07 	cmp  %o5, 7
    330c:	82 07 be 38 	add  %fp, -456, %g1
    3310:	da 27 bf e4 	st  %o5, [ %fp + -28 ]
    3314:	c2 24 80 00 	st  %g1, [ %l2 ]
    3318:	04 bf fd 21 	ble  279c <_vfprintf_r+0x42c>
    331c:	a4 04 a0 08 	add  %l2, 8, %l2
    3320:	92 07 bf e0 	add  %fp, -32, %o1
    3324:	7f ff fb c4 	call  2234 <__sprint>
    3328:	90 10 00 19 	mov  %i1, %o0
    332c:	80 a2 20 00 	cmp  %o0, 0
    3330:	12 bf fd 89 	bne  2954 <_vfprintf_r+0x5e4>
    3334:	a4 10 00 18 	mov  %i0, %l2
    3338:	10 bf fd 1a 	b  27a0 <_vfprintf_r+0x430>
    333c:	80 a5 a0 80 	cmp  %l6, 0x80
    3340:	92 07 bf e0 	add  %fp, -32, %o1
    3344:	7f ff fb bc 	call  2234 <__sprint>
    3348:	90 10 00 19 	mov  %i1, %o0
    334c:	80 a2 20 00 	cmp  %o0, 0
    3350:	12 bf fd 81 	bne  2954 <_vfprintf_r+0x5e4>
    3354:	da 0f be 0a 	ldub  [ %fp + -502 ], %o5
    3358:	10 bf fd 00 	b  2758 <_vfprintf_r+0x3e8>
    335c:	a4 10 00 18 	mov  %i0, %l2
    3360:	90 10 00 19 	mov  %i1, %o0
    3364:	7f ff fb b4 	call  2234 <__sprint>
    3368:	92 07 bf e0 	add  %fp, -32, %o1
    336c:	80 a2 20 00 	cmp  %o0, 0
    3370:	12 bf fd 79 	bne  2954 <_vfprintf_r+0x5e4>
    3374:	a4 10 00 18 	mov  %i0, %l2
    3378:	10 bf fc e7 	b  2714 <_vfprintf_r+0x3a4>
    337c:	a0 04 3f f0 	add  %l0, -16, %l0
    3380:	80 8f 60 02 	btst  2, %i5
    3384:	32 bf fc cc 	bne,a   26b4 <_vfprintf_r+0x344>
    3388:	ae 05 e0 02 	add  %l7, 2, %l7
    338c:	10 bf fc cb 	b  26b8 <_vfprintf_r+0x348>
    3390:	ac 8f 60 84 	andcc  %i5, 0x84, %l6
    3394:	da 07 bd e8 	ld  [ %fp + -536 ], %o5
    3398:	82 0c 60 0f 	and  %l1, 0xf, %g1
    339c:	d4 0b 40 01 	ldub  [ %o5 + %g1 ], %o2
    33a0:	97 2c 20 1c 	sll  %l0, 0x1c, %o3
    33a4:	83 34 60 04 	srl  %l1, 4, %g1
    33a8:	99 34 20 04 	srl  %l0, 4, %o4
    33ac:	9a 12 c0 01 	or  %o3, %g1, %o5
    33b0:	a6 04 ff ff 	add  %l3, -1, %l3
    33b4:	a0 10 00 0c 	mov  %o4, %l0
    33b8:	d4 2c c0 00 	stb  %o2, [ %l3 ]
    33bc:	80 93 00 0d 	orcc  %o4, %o5, %g0
    33c0:	12 bf ff f5 	bne  3394 <_vfprintf_r+0x1024>
    33c4:	a2 10 00 0d 	mov  %o5, %l1
    33c8:	82 27 80 13 	sub  %fp, %l3, %g1
    33cc:	10 bf fc b1 	b  2690 <_vfprintf_r+0x320>
    33d0:	aa 00 7f 9c 	add  %g1, -100, %l5
    33d4:	80 a0 60 00 	cmp  %g1, 0
    33d8:	12 bf fc aa 	bne  2680 <_vfprintf_r+0x310>
    33dc:	03 00 00 26 	sethi  %hi(0x9800), %g1
    33e0:	95 2c 20 1d 	sll  %l0, 0x1d, %o2
    33e4:	97 34 60 03 	srl  %l1, 3, %o3
    33e8:	82 0c 60 07 	and  %l1, 7, %g1
    33ec:	9a 12 80 0b 	or  %o2, %o3, %o5
    33f0:	99 34 20 03 	srl  %l0, 3, %o4
    33f4:	82 00 60 30 	add  %g1, 0x30, %g1
    33f8:	a6 04 ff ff 	add  %l3, -1, %l3
    33fc:	a0 10 00 0c 	mov  %o4, %l0
    3400:	a2 10 00 0d 	mov  %o5, %l1
    3404:	80 93 00 0d 	orcc  %o4, %o5, %g0
    3408:	12 bf ff f6 	bne  33e0 <_vfprintf_r+0x1070>
    340c:	c2 2c c0 00 	stb  %g1, [ %l3 ]
    3410:	80 8f 60 01 	btst  1, %i5
    3414:	22 bf ff ee 	be,a   33cc <_vfprintf_r+0x105c>
    3418:	82 27 80 13 	sub  %fp, %l3, %g1
    341c:	80 a0 60 30 	cmp  %g1, 0x30
    3420:	02 bf ff ea 	be  33c8 <_vfprintf_r+0x1058>
    3424:	82 10 20 30 	mov  0x30, %g1
    3428:	a6 04 ff ff 	add  %l3, -1, %l3
    342c:	10 bf ff e7 	b  33c8 <_vfprintf_r+0x1058>
    3430:	c2 2c c0 00 	stb  %g1, [ %l3 ]
    3434:	08 80 00 1c 	bleu  34a4 <_vfprintf_r+0x1134>
    3438:	80 a4 20 00 	cmp  %l0, 0
    343c:	90 10 00 10 	mov  %l0, %o0
    3440:	92 10 00 11 	mov  %l1, %o1
    3444:	94 10 20 00 	clr  %o2
    3448:	40 00 12 f7 	call  8024 <__umoddi3>
    344c:	96 10 20 0a 	mov  0xa, %o3
    3450:	9a 10 00 09 	mov  %o1, %o5
    3454:	90 10 00 10 	mov  %l0, %o0
    3458:	92 10 00 11 	mov  %l1, %o1
    345c:	82 03 60 30 	add  %o5, 0x30, %g1
    3460:	a6 04 ff ff 	add  %l3, -1, %l3
    3464:	94 10 20 00 	clr  %o2
    3468:	c2 2c c0 00 	stb  %g1, [ %l3 ]
    346c:	40 00 12 1d 	call  7ce0 <__udivdi3>
    3470:	96 10 20 0a 	mov  0xa, %o3
    3474:	a0 10 00 08 	mov  %o0, %l0
    3478:	80 a4 20 00 	cmp  %l0, 0
    347c:	18 bf ff f0 	bgu  343c <_vfprintf_r+0x10cc>
    3480:	a2 10 00 09 	mov  %o1, %l1
    3484:	80 a4 20 00 	cmp  %l0, 0
    3488:	12 80 00 04 	bne  3498 <_vfprintf_r+0x1128>
    348c:	80 a2 60 09 	cmp  %o1, 9
    3490:	18 bf ff ec 	bgu  3440 <_vfprintf_r+0x10d0>
    3494:	90 10 00 10 	mov  %l0, %o0
    3498:	82 04 60 30 	add  %l1, 0x30, %g1
    349c:	10 bf ff e4 	b  342c <_vfprintf_r+0x10bc>
    34a0:	a6 04 ff ff 	add  %l3, -1, %l3
    34a4:	12 bf ff fd 	bne  3498 <_vfprintf_r+0x1128>
    34a8:	80 a4 60 09 	cmp  %l1, 9
    34ac:	18 bf ff e5 	bgu  3440 <_vfprintf_r+0x10d0>
    34b0:	90 10 00 10 	mov  %l0, %o0
    34b4:	10 bf ff fa 	b  349c <_vfprintf_r+0x112c>
    34b8:	82 04 60 30 	add  %l1, 0x30, %g1
    34bc:	12 bf ff c4 	bne  33cc <_vfprintf_r+0x105c>
    34c0:	82 27 80 13 	sub  %fp, %l3, %g1
    34c4:	80 8f 60 01 	btst  1, %i5
    34c8:	22 bf fc 72 	be,a   2690 <_vfprintf_r+0x320>
    34cc:	aa 00 7f 9c 	add  %g1, -100, %l5
    34d0:	82 10 20 30 	mov  0x30, %g1
    34d4:	a6 07 bf 9b 	add  %fp, -101, %l3
    34d8:	10 bf ff bc 	b  33c8 <_vfprintf_r+0x1058>
    34dc:	c2 2f bf 9b 	stb  %g1, [ %fp + -101 ]
    34e0:	9a 10 20 2d 	mov  0x2d, %o5
    34e4:	a0 60 00 10 	subx  %g0, %l0, %l0
    34e8:	10 bf fc 4f 	b  2624 <_vfprintf_r+0x2b4>
    34ec:	da 2f be 0a 	stb  %o5, [ %fp + -502 ]
    34f0:	32 80 00 0b 	bne,a   351c <_vfprintf_r+0x11ac>
    34f4:	da 06 c0 00 	ld  [ %i3 ], %o5
    34f8:	80 8f 60 40 	btst  0x40, %i5
    34fc:	22 80 00 08 	be,a   351c <_vfprintf_r+0x11ac>
    3500:	da 06 c0 00 	ld  [ %i3 ], %o5
    3504:	da 16 e0 02 	lduh  [ %i3 + 2 ], %o5
    3508:	b6 06 e0 04 	add  %i3, 4, %i3
    350c:	9b 2b 60 10 	sll  %o5, 0x10, %o5
    3510:	a3 3b 60 10 	sra  %o5, 0x10, %l1
    3514:	10 bf fc 41 	b  2618 <_vfprintf_r+0x2a8>
    3518:	a1 3b 60 1f 	sra  %o5, 0x1f, %l0
    351c:	b6 06 e0 04 	add  %i3, 4, %i3
    3520:	10 bf ff fd 	b  3514 <_vfprintf_r+0x11a4>
    3524:	a2 10 00 0d 	mov  %o5, %l1
    3528:	da 0e 80 00 	ldub  [ %i2 ], %o5
    352c:	10 bf fb e1 	b  24b0 <_vfprintf_r+0x140>
    3530:	ba 17 60 08 	or  %i5, 8, %i5
    3534:	ba 17 60 10 	or  %i5, 0x10, %i5
    3538:	80 8f 60 20 	btst  0x20, %i5
    353c:	02 80 00 0a 	be  3564 <_vfprintf_r+0x11f4>
    3540:	80 8f 60 10 	btst  0x10, %i5
    3544:	da 06 e0 04 	ld  [ %i3 + 4 ], %o5
    3548:	d8 06 c0 00 	ld  [ %i3 ], %o4
    354c:	b6 06 e0 08 	add  %i3, 8, %i3
    3550:	d8 3f be 28 	std  %o4, [ %fp + -472 ]
    3554:	e0 1f be 28 	ldd  [ %fp + -472 ], %l0
    3558:	98 10 20 00 	clr  %o4
    355c:	10 bf fc 33 	b  2628 <_vfprintf_r+0x2b8>
    3560:	c0 2f be 0a 	clrb  [ %fp + -502 ]
    3564:	32 80 00 0a 	bne,a   358c <_vfprintf_r+0x121c>
    3568:	da 06 c0 00 	ld  [ %i3 ], %o5
    356c:	80 8f 60 40 	btst  0x40, %i5
    3570:	22 80 00 07 	be,a   358c <_vfprintf_r+0x121c>
    3574:	da 06 c0 00 	ld  [ %i3 ], %o5
    3578:	82 10 00 1b 	mov  %i3, %g1
    357c:	e2 10 60 02 	lduh  [ %g1 + 2 ], %l1
    3580:	b6 06 e0 04 	add  %i3, 4, %i3
    3584:	10 bf ff f5 	b  3558 <_vfprintf_r+0x11e8>
    3588:	a0 10 20 00 	clr  %l0
    358c:	a0 10 20 00 	clr  %l0
    3590:	b6 06 e0 04 	add  %i3, 4, %i3
    3594:	10 bf ff f1 	b  3558 <_vfprintf_r+0x11e8>
    3598:	a2 10 00 0d 	mov  %o5, %l1
    359c:	ba 17 60 10 	or  %i5, 0x10, %i5
    35a0:	80 8f 60 20 	btst  0x20, %i5
    35a4:	02 80 00 09 	be  35c8 <_vfprintf_r+0x1258>
    35a8:	80 8f 60 10 	btst  0x10, %i5
    35ac:	da 06 e0 04 	ld  [ %i3 + 4 ], %o5
    35b0:	d8 06 c0 00 	ld  [ %i3 ], %o4
    35b4:	b6 06 e0 08 	add  %i3, 8, %i3
    35b8:	d8 3f be 28 	std  %o4, [ %fp + -472 ]
    35bc:	e0 1f be 28 	ldd  [ %fp + -472 ], %l0
    35c0:	10 bf ff e7 	b  355c <_vfprintf_r+0x11ec>
    35c4:	98 10 20 01 	mov  1, %o4
    35c8:	32 80 00 0a 	bne,a   35f0 <_vfprintf_r+0x1280>
    35cc:	da 06 c0 00 	ld  [ %i3 ], %o5
    35d0:	80 8f 60 40 	btst  0x40, %i5
    35d4:	22 80 00 07 	be,a   35f0 <_vfprintf_r+0x1280>
    35d8:	da 06 c0 00 	ld  [ %i3 ], %o5
    35dc:	82 10 00 1b 	mov  %i3, %g1
    35e0:	e2 10 60 02 	lduh  [ %g1 + 2 ], %l1
    35e4:	b6 06 e0 04 	add  %i3, 4, %i3
    35e8:	10 bf ff f6 	b  35c0 <_vfprintf_r+0x1250>
    35ec:	a0 10 20 00 	clr  %l0
    35f0:	a0 10 20 00 	clr  %l0
    35f4:	b6 06 e0 04 	add  %i3, 4, %i3
    35f8:	10 bf ff f2 	b  35c0 <_vfprintf_r+0x1250>
    35fc:	a2 10 00 0d 	mov  %o5, %l1
    3600:	03 00 00 26 	sethi  %hi(0x9800), %g1
    3604:	82 10 62 48 	or  %g1, 0x248, %g1	! 9a48 <zeroes.1+0x40>
    3608:	80 8f 60 20 	btst  0x20, %i5
    360c:	02 80 00 12 	be  3654 <_vfprintf_r+0x12e4>
    3610:	c2 27 bd e8 	st  %g1, [ %fp + -536 ]
    3614:	da 06 e0 04 	ld  [ %i3 + 4 ], %o5
    3618:	d8 06 c0 00 	ld  [ %i3 ], %o4
    361c:	b6 06 e0 08 	add  %i3, 8, %i3
    3620:	d8 3f be 28 	std  %o4, [ %fp + -472 ]
    3624:	e0 1f be 28 	ldd  [ %fp + -472 ], %l0
    3628:	80 94 00 11 	orcc  %l0, %l1, %g0
    362c:	98 10 20 02 	mov  2, %o4
    3630:	82 0f 60 01 	and  %i5, 1, %g1
    3634:	02 80 00 03 	be  3640 <_vfprintf_r+0x12d0>
    3638:	9a 10 20 00 	clr  %o5
    363c:	9a 10 20 01 	mov  1, %o5
    3640:	80 88 40 0d 	btst  %g1, %o5
    3644:	32 bf ff c6 	bne,a   355c <_vfprintf_r+0x11ec>
    3648:	ba 17 60 02 	or  %i5, 2, %i5
    364c:	10 bf fb f7 	b  2628 <_vfprintf_r+0x2b8>
    3650:	c0 2f be 0a 	clrb  [ %fp + -502 ]
    3654:	80 8f 60 10 	btst  0x10, %i5
    3658:	32 80 00 0a 	bne,a   3680 <_vfprintf_r+0x1310>
    365c:	da 06 c0 00 	ld  [ %i3 ], %o5
    3660:	80 8f 60 40 	btst  0x40, %i5
    3664:	22 80 00 07 	be,a   3680 <_vfprintf_r+0x1310>
    3668:	da 06 c0 00 	ld  [ %i3 ], %o5
    366c:	82 10 00 1b 	mov  %i3, %g1
    3670:	e2 10 60 02 	lduh  [ %g1 + 2 ], %l1
    3674:	b6 06 e0 04 	add  %i3, 4, %i3
    3678:	10 bf ff ec 	b  3628 <_vfprintf_r+0x12b8>
    367c:	a0 10 20 00 	clr  %l0
    3680:	a0 10 20 00 	clr  %l0
    3684:	b6 06 e0 04 	add  %i3, 4, %i3
    3688:	10 bf ff e8 	b  3628 <_vfprintf_r+0x12b8>
    368c:	a2 10 00 0d 	mov  %o5, %l1
    3690:	da 0e e0 03 	ldub  [ %i3 + 3 ], %o5
    3694:	a6 07 be 40 	add  %fp, -448, %l3
    3698:	c0 2f be 0a 	clrb  [ %fp + -502 ]
    369c:	da 2f be 40 	stb  %o5, [ %fp + -448 ]
    36a0:	b6 06 e0 04 	add  %i3, 4, %i3
    36a4:	10 bf fb fb 	b  2690 <_vfprintf_r+0x320>
    36a8:	aa 10 20 01 	mov  1, %l5
    36ac:	80 a5 bf ff 	cmp  %l6, -1
    36b0:	02 80 00 8a 	be  38d8 <_vfprintf_r+0x1568>
    36b4:	82 1d 20 67 	xor  %l4, 0x67, %g1
    36b8:	80 a0 00 01 	cmp  %g0, %g1
    36bc:	82 1d 20 47 	xor  %l4, 0x47, %g1
    36c0:	98 60 3f ff 	subx  %g0, -1, %o4
    36c4:	80 a0 00 01 	cmp  %g0, %g1
    36c8:	9a 60 3f ff 	subx  %g0, -1, %o5
    36cc:	80 93 00 0d 	orcc  %o4, %o5, %g0
    36d0:	02 80 00 06 	be  36e8 <_vfprintf_r+0x1378>
    36d4:	80 8f 60 08 	btst  8, %i5
    36d8:	80 a5 a0 00 	cmp  %l6, 0
    36dc:	22 80 00 02 	be,a   36e4 <_vfprintf_r+0x1374>
    36e0:	ac 10 20 01 	mov  1, %l6
    36e4:	80 8f 60 08 	btst  8, %i5
    36e8:	02 80 00 78 	be  38c8 <_vfprintf_r+0x1558>
    36ec:	da 06 e0 04 	ld  [ %i3 + 4 ], %o5
    36f0:	d8 06 c0 00 	ld  [ %i3 ], %o4
    36f4:	d8 3f be 20 	std  %o4, [ %fp + -480 ]
    36f8:	d8 1f be 20 	ldd  [ %fp + -480 ], %o4
    36fc:	d8 3f bd f0 	std  %o4, [ %fp + -528 ]
    3700:	d0 1f bd f0 	ldd  [ %fp + -528 ], %o0
    3704:	40 00 0e ce 	call  723c <isinf>
    3708:	b6 06 e0 08 	add  %i3, 8, %i3
    370c:	80 a2 20 00 	cmp  %o0, 0
    3710:	02 80 00 0e 	be  3748 <_vfprintf_r+0x13d8>
    3714:	1b 00 00 26 	sethi  %hi(0x9800), %o5
    3718:	d0 1f bd f0 	ldd  [ %fp + -528 ], %o0
    371c:	40 00 15 c6 	call  8e34 <__ltdf2>
    3720:	d4 1b 62 90 	ldd  [ %o5 + 0x290 ], %o2
    3724:	80 a2 20 00 	cmp  %o0, 0
    3728:	06 80 00 06 	bl  3740 <_vfprintf_r+0x13d0>
    372c:	9a 10 20 2d 	mov  0x2d, %o5
    3730:	03 00 00 26 	sethi  %hi(0x9800), %g1
    3734:	aa 10 20 03 	mov  3, %l5
    3738:	10 bf fb d6 	b  2690 <_vfprintf_r+0x320>
    373c:	a6 10 62 60 	or  %g1, 0x260, %l3
    3740:	10 bf ff fc 	b  3730 <_vfprintf_r+0x13c0>
    3744:	da 2f be 0a 	stb  %o5, [ %fp + -502 ]
    3748:	d0 1f bd f0 	ldd  [ %fp + -528 ], %o0
    374c:	40 00 0e ca 	call  7274 <isnan>
    3750:	aa 10 20 03 	mov  3, %l5
    3754:	03 00 00 26 	sethi  %hi(0x9800), %g1
    3758:	80 a2 20 00 	cmp  %o0, 0
    375c:	12 bf fb cd 	bne  2690 <_vfprintf_r+0x320>
    3760:	a6 10 62 68 	or  %g1, 0x268, %l3
    3764:	9a 07 be 0c 	add  %fp, -500, %o5
    3768:	d0 07 a0 44 	ld  [ %fp + 0x44 ], %o0
    376c:	da 23 a0 64 	st  %o5, [ %sp + 0x64 ]
    3770:	d8 1f bd f0 	ldd  [ %fp + -528 ], %o4
    3774:	82 07 be 10 	add  %fp, -496, %g1
    3778:	92 10 00 0c 	mov  %o4, %o1
    377c:	c2 23 a0 5c 	st  %g1, [ %sp + 0x5c ]
    3780:	94 10 00 0d 	mov  %o5, %o2
    3784:	96 10 00 16 	mov  %l6, %o3
    3788:	9a 07 be 0b 	add  %fp, -501, %o5
    378c:	e8 23 a0 60 	st  %l4, [ %sp + 0x60 ]
    3790:	ba 17 61 00 	or  %i5, 0x100, %i5
    3794:	40 00 00 c1 	call  3a98 <cvt>
    3798:	98 10 00 1d 	mov  %i5, %o4
    379c:	96 1d 20 67 	xor  %l4, 0x67, %o3
    37a0:	80 a0 00 0b 	cmp  %g0, %o3
    37a4:	82 1d 20 47 	xor  %l4, 0x47, %g1
    37a8:	98 60 3f ff 	subx  %g0, -1, %o4
    37ac:	80 a0 00 01 	cmp  %g0, %g1
    37b0:	9a 60 3f ff 	subx  %g0, -1, %o5
    37b4:	80 93 00 0d 	orcc  %o4, %o5, %g0
    37b8:	02 80 00 42 	be  38c0 <_vfprintf_r+0x1550>
    37bc:	a6 10 00 08 	mov  %o0, %l3
    37c0:	d2 07 be 10 	ld  [ %fp + -496 ], %o1
    37c4:	80 a2 7f fc 	cmp  %o1, -4
    37c8:	04 80 00 06 	ble  37e0 <_vfprintf_r+0x1470>
    37cc:	80 a0 00 0b 	cmp  %g0, %o3
    37d0:	80 a2 40 16 	cmp  %o1, %l6
    37d4:	04 80 00 0b 	ble  3800 <_vfprintf_r+0x1490>
    37d8:	a8 10 20 67 	mov  0x67, %l4
    37dc:	80 a0 00 0b 	cmp  %g0, %o3
    37e0:	82 60 20 00 	subx  %g0, 0, %g1
    37e4:	82 08 7f e0 	and  %g1, -32, %g1
    37e8:	a8 00 60 65 	add  %g1, 0x65, %l4
    37ec:	80 a5 20 65 	cmp  %l4, 0x65
    37f0:	04 80 00 23 	ble  387c <_vfprintf_r+0x150c>
    37f4:	80 a5 20 66 	cmp  %l4, 0x66
    37f8:	02 80 00 16 	be  3850 <_vfprintf_r+0x14e0>
    37fc:	80 a2 60 00 	cmp  %o1, 0
    3800:	da 07 be 0c 	ld  [ %fp + -500 ], %o5
    3804:	80 a2 40 0d 	cmp  %o1, %o5
    3808:	06 80 00 0d 	bl  383c <_vfprintf_r+0x14cc>
    380c:	82 23 40 09 	sub  %o5, %o1, %g1
    3810:	80 8f 60 01 	btst  1, %i5
    3814:	02 80 00 03 	be  3820 <_vfprintf_r+0x14b0>
    3818:	aa 10 00 09 	mov  %o1, %l5
    381c:	aa 02 60 01 	add  %o1, 1, %l5
    3820:	c2 4f be 0b 	ldsb  [ %fp + -501 ], %g1
    3824:	80 a0 60 00 	cmp  %g1, 0
    3828:	02 bf fb 9b 	be  2694 <_vfprintf_r+0x324>
    382c:	80 a5 40 1c 	cmp  %l5, %i4
    3830:	9a 10 20 2d 	mov  0x2d, %o5
    3834:	10 bf fb 98 	b  2694 <_vfprintf_r+0x324>
    3838:	da 2f be 0a 	stb  %o5, [ %fp + -502 ]
    383c:	80 a2 60 00 	cmp  %o1, 0
    3840:	04 bf ff f8 	ble  3820 <_vfprintf_r+0x14b0>
    3844:	aa 00 60 02 	add  %g1, 2, %l5
    3848:	10 bf ff f6 	b  3820 <_vfprintf_r+0x14b0>
    384c:	aa 03 60 01 	add  %o5, 1, %l5
    3850:	04 bf ff f4 	ble  3820 <_vfprintf_r+0x14b0>
    3854:	aa 05 a0 02 	add  %l6, 2, %l5
    3858:	80 a5 a0 00 	cmp  %l6, 0
    385c:	12 80 00 05 	bne  3870 <_vfprintf_r+0x1500>
    3860:	aa 10 00 09 	mov  %o1, %l5
    3864:	80 8f 60 01 	btst  1, %i5
    3868:	02 bf ff ef 	be  3824 <_vfprintf_r+0x14b4>
    386c:	c2 4f be 0b 	ldsb  [ %fp + -501 ], %g1
    3870:	82 02 40 16 	add  %o1, %l6, %g1
    3874:	10 bf ff eb 	b  3820 <_vfprintf_r+0x14b0>
    3878:	aa 00 60 01 	add  %g1, 1, %l5
    387c:	92 02 7f ff 	add  %o1, -1, %o1
    3880:	90 07 bf f0 	add  %fp, -16, %o0
    3884:	d2 27 be 10 	st  %o1, [ %fp + -496 ]
    3888:	40 00 00 e6 	call  3c20 <exponent>
    388c:	94 10 00 14 	mov  %l4, %o2
    3890:	c2 07 be 0c 	ld  [ %fp + -500 ], %g1
    3894:	d0 27 bd ec 	st  %o0, [ %fp + -532 ]
    3898:	80 a0 60 01 	cmp  %g1, 1
    389c:	04 80 00 04 	ble  38ac <_vfprintf_r+0x153c>
    38a0:	aa 02 00 01 	add  %o0, %g1, %l5
    38a4:	10 bf ff df 	b  3820 <_vfprintf_r+0x14b0>
    38a8:	aa 05 60 01 	inc  %l5
    38ac:	80 8f 60 01 	btst  1, %i5
    38b0:	02 bf ff dd 	be  3824 <_vfprintf_r+0x14b4>
    38b4:	c2 4f be 0b 	ldsb  [ %fp + -501 ], %g1
    38b8:	10 bf ff db 	b  3824 <_vfprintf_r+0x14b4>
    38bc:	aa 05 60 01 	inc  %l5
    38c0:	10 bf ff cb 	b  37ec <_vfprintf_r+0x147c>
    38c4:	d2 07 be 10 	ld  [ %fp + -496 ], %o1
    38c8:	d8 06 c0 00 	ld  [ %i3 ], %o4
    38cc:	d8 3f be 18 	std  %o4, [ %fp + -488 ]
    38d0:	10 bf ff 8b 	b  36fc <_vfprintf_r+0x138c>
    38d4:	d8 1f be 18 	ldd  [ %fp + -488 ], %o4
    38d8:	10 bf ff 83 	b  36e4 <_vfprintf_r+0x1374>
    38dc:	ac 10 20 06 	mov  6, %l6
    38e0:	da 0e 80 00 	ldub  [ %i2 ], %o5
    38e4:	10 bf fa f3 	b  24b0 <_vfprintf_r+0x140>
    38e8:	ba 17 60 40 	or  %i5, 0x40, %i5
    38ec:	c2 4e 80 00 	ldsb  [ %i2 ], %g1
    38f0:	80 a0 60 6c 	cmp  %g1, 0x6c
    38f4:	02 80 00 04 	be  3904 <_vfprintf_r+0x1594>
    38f8:	da 0e 80 00 	ldub  [ %i2 ], %o5
    38fc:	10 bf fa ed 	b  24b0 <_vfprintf_r+0x140>
    3900:	ba 17 60 10 	or  %i5, 0x10, %i5
    3904:	b4 06 a0 01 	inc  %i2
    3908:	da 0e 80 00 	ldub  [ %i2 ], %o5
    390c:	10 bf fa e9 	b  24b0 <_vfprintf_r+0x140>
    3910:	ba 17 60 20 	or  %i5, 0x20, %i5
    3914:	80 8f 60 20 	btst  0x20, %i5
    3918:	02 80 00 07 	be  3934 <_vfprintf_r+0x15c4>
    391c:	80 8f 60 10 	btst  0x10, %i5
    3920:	da 06 c0 00 	ld  [ %i3 ], %o5
    3924:	c2 07 be 04 	ld  [ %fp + -508 ], %g1
    3928:	b6 06 e0 04 	add  %i3, 4, %i3
    392c:	10 bf fa b7 	b  2408 <_vfprintf_r+0x98>
    3930:	c2 23 40 00 	st  %g1, [ %o5 ]
    3934:	12 80 00 09 	bne  3958 <_vfprintf_r+0x15e8>
    3938:	da 06 c0 00 	ld  [ %i3 ], %o5
    393c:	80 8f 60 40 	btst  0x40, %i5
    3940:	02 80 00 06 	be  3958 <_vfprintf_r+0x15e8>
    3944:	01 00 00 00 	nop 
    3948:	c2 07 be 04 	ld  [ %fp + -508 ], %g1
    394c:	b6 06 e0 04 	add  %i3, 4, %i3
    3950:	10 bf fa ae 	b  2408 <_vfprintf_r+0x98>
    3954:	c2 33 40 00 	sth  %g1, [ %o5 ]
    3958:	d8 07 be 04 	ld  [ %fp + -508 ], %o4
    395c:	b6 06 e0 04 	add  %i3, 4, %i3
    3960:	10 bf fa aa 	b  2408 <_vfprintf_r+0x98>
    3964:	d8 23 40 00 	st  %o4, [ %o5 ]
    3968:	da 06 c0 00 	ld  [ %i3 ], %o5
    396c:	03 00 00 26 	sethi  %hi(0x9800), %g1
    3970:	a0 10 20 00 	clr  %l0
    3974:	82 10 62 70 	or  %g1, 0x270, %g1
    3978:	a2 10 00 0d 	mov  %o5, %l1
    397c:	c2 27 bd e8 	st  %g1, [ %fp + -536 ]
    3980:	b6 06 e0 04 	add  %i3, 4, %i3
    3984:	98 10 20 02 	mov  2, %o4
    3988:	ba 17 60 02 	or  %i5, 2, %i5
    398c:	10 bf fe f4 	b  355c <_vfprintf_r+0x11ec>
    3990:	a8 10 20 78 	mov  0x78, %l4
    3994:	e6 06 c0 00 	ld  [ %i3 ], %l3
    3998:	80 a4 e0 00 	cmp  %l3, 0
    399c:	02 80 00 16 	be  39f4 <_vfprintf_r+0x1684>
    39a0:	b6 06 e0 04 	add  %i3, 4, %i3
    39a4:	80 a5 a0 00 	cmp  %l6, 0
    39a8:	06 80 00 0f 	bl  39e4 <_vfprintf_r+0x1674>
    39ac:	90 10 00 13 	mov  %l3, %o0
    39b0:	92 10 20 00 	clr  %o1
    39b4:	94 10 00 16 	mov  %l6, %o2
    39b8:	40 00 09 b0 	call  6078 <memchr>
    39bc:	aa 10 00 16 	mov  %l6, %l5
    39c0:	80 a2 20 00 	cmp  %o0, 0
    39c4:	22 bf fb 33 	be,a   2690 <_vfprintf_r+0x320>
    39c8:	c0 2f be 0a 	clrb  [ %fp + -502 ]
    39cc:	aa 22 00 13 	sub  %o0, %l3, %l5
    39d0:	80 a5 40 16 	cmp  %l5, %l6
    39d4:	34 80 00 02 	bg,a   39dc <_vfprintf_r+0x166c>
    39d8:	aa 10 00 16 	mov  %l6, %l5
    39dc:	10 bf fb 2d 	b  2690 <_vfprintf_r+0x320>
    39e0:	c0 2f be 0a 	clrb  [ %fp + -502 ]
    39e4:	40 00 0e a6 	call  747c <strlen>
    39e8:	90 10 00 13 	mov  %l3, %o0
    39ec:	10 bf ff fc 	b  39dc <_vfprintf_r+0x166c>
    39f0:	aa 10 00 08 	mov  %o0, %l5
    39f4:	03 00 00 26 	sethi  %hi(0x9800), %g1
    39f8:	10 bf ff eb 	b  39a4 <_vfprintf_r+0x1634>
    39fc:	a6 10 62 88 	or  %g1, 0x288, %l3	! 9a88 <zeroes.1+0x80>
    3a00:	80 a5 20 00 	cmp  %l4, 0
    3a04:	02 80 00 05 	be  3a18 <_vfprintf_r+0x16a8>
    3a08:	a6 07 be 40 	add  %fp, -448, %l3
    3a0c:	e8 2f be 40 	stb  %l4, [ %fp + -448 ]
    3a10:	10 bf ff 25 	b  36a4 <_vfprintf_r+0x1334>
    3a14:	c0 2f be 0a 	clrb  [ %fp + -502 ]
    3a18:	c2 07 bf e8 	ld  [ %fp + -24 ], %g1
    3a1c:	80 a0 60 00 	cmp  %g1, 0
    3a20:	12 80 00 04 	bne  3a30 <_vfprintf_r+0x16c0>
    3a24:	92 07 bf e0 	add  %fp, -32, %o1
    3a28:	10 bf fb cb 	b  2954 <_vfprintf_r+0x5e4>
    3a2c:	c0 27 bf e4 	clr  [ %fp + -28 ]
    3a30:	7f ff fa 01 	call  2234 <__sprint>
    3a34:	90 10 00 19 	mov  %i1, %o0
    3a38:	80 a2 20 00 	cmp  %o0, 0
    3a3c:	22 bf fb c6 	be,a   2954 <_vfprintf_r+0x5e4>
    3a40:	c0 27 bf e4 	clr  [ %fp + -28 ]
    3a44:	10 bf fb c5 	b  2958 <_vfprintf_r+0x5e8>
    3a48:	c2 16 60 0c 	lduh  [ %i1 + 0xc ], %g1
    3a4c:	03 00 00 26 	sethi  %hi(0x9800), %g1
    3a50:	10 bf fe ee 	b  3608 <_vfprintf_r+0x1298>
    3a54:	82 10 62 70 	or  %g1, 0x270, %g1	! 9a70 <zeroes.1+0x68>
    3a58:	92 07 bf e0 	add  %fp, -32, %o1
    3a5c:	7f ff f9 f6 	call  2234 <__sprint>
    3a60:	90 10 00 19 	mov  %i1, %o0
    3a64:	80 a2 20 00 	cmp  %o0, 0
    3a68:	12 bf fb bb 	bne  2954 <_vfprintf_r+0x5e4>
    3a6c:	a4 10 00 18 	mov  %i0, %l2
    3a70:	10 bf fa 85 	b  2484 <_vfprintf_r+0x114>
    3a74:	da 07 be 04 	ld  [ %fp + -508 ], %o5
    3a78:	80 a0 60 00 	cmp  %g1, 0
    3a7c:	06 bf fa 5d 	bl  23f0 <_vfprintf_r+0x80>
    3a80:	90 10 00 19 	mov  %i1, %o0
    3a84:	92 10 00 1a 	mov  %i2, %o1
    3a88:	7f ff f9 f9 	call  226c <__sbprintf>
    3a8c:	94 10 00 1b 	mov  %i3, %o2
    3a90:	81 c7 e0 08 	ret 
    3a94:	91 e8 00 08 	restore  %g0, %o0, %o0

00003a98 <cvt>:
    3a98:	9d e3 bf 88 	save  %sp, -120, %sp
    3a9c:	e4 07 a0 60 	ld  [ %fp + 0x60 ], %l2
    3aa0:	a0 10 00 19 	mov  %i1, %l0
    3aa4:	a2 10 00 1a 	mov  %i2, %l1
    3aa8:	80 a4 a0 66 	cmp  %l2, 0x66
    3aac:	f2 07 a0 5c 	ld  [ %fp + 0x5c ], %i1
    3ab0:	02 80 00 0b 	be  3adc <cvt+0x44>
    3ab4:	b4 10 20 03 	mov  3, %i2
    3ab8:	82 1c a0 65 	xor  %l2, 0x65, %g1
    3abc:	80 a0 00 01 	cmp  %g0, %g1
    3ac0:	b4 10 20 02 	mov  2, %i2
    3ac4:	98 60 3f ff 	subx  %g0, -1, %o4
    3ac8:	82 1c a0 45 	xor  %l2, 0x45, %g1
    3acc:	80 a0 00 01 	cmp  %g0, %g1
    3ad0:	9a 60 3f ff 	subx  %g0, -1, %o5
    3ad4:	98 13 00 0d 	or  %o4, %o5, %o4
    3ad8:	b6 06 c0 0c 	add  %i3, %o4, %i3
    3adc:	80 a4 20 00 	cmp  %l0, 0
    3ae0:	06 80 00 44 	bl  3bf0 <cvt+0x158>
    3ae4:	90 10 00 10 	mov  %l0, %o0
    3ae8:	c0 2f 40 00 	clrb  [ %i5 ]
    3aec:	82 07 bf f4 	add  %fp, -12, %g1
    3af0:	9a 07 bf f0 	add  %fp, -16, %o5
    3af4:	90 10 00 18 	mov  %i0, %o0
    3af8:	c2 23 a0 5c 	st  %g1, [ %sp + 0x5c ]
    3afc:	da 23 a0 60 	st  %o5, [ %sp + 0x60 ]
    3b00:	98 10 00 1b 	mov  %i3, %o4
    3b04:	9a 10 00 19 	mov  %i1, %o5
    3b08:	96 10 00 1a 	mov  %i2, %o3
    3b0c:	92 10 00 10 	mov  %l0, %o1
    3b10:	40 00 01 4d 	call  4044 <_dtoa_r>
    3b14:	94 10 00 11 	mov  %l1, %o2
    3b18:	82 1c a0 67 	xor  %l2, 0x67, %g1
    3b1c:	80 a0 00 01 	cmp  %g0, %g1
    3b20:	82 1c a0 47 	xor  %l2, 0x47, %g1
    3b24:	98 40 20 00 	addx  %g0, 0, %o4
    3b28:	80 a0 00 01 	cmp  %g0, %g1
    3b2c:	9a 40 20 00 	addx  %g0, 0, %o5
    3b30:	80 8b 00 0d 	btst  %o4, %o5
    3b34:	12 80 00 05 	bne  3b48 <cvt+0xb0>
    3b38:	b0 10 00 08 	mov  %o0, %i0
    3b3c:	80 8f 20 01 	btst  1, %i4
    3b40:	02 80 00 33 	be  3c0c <cvt+0x174>
    3b44:	da 07 bf f0 	ld  [ %fp + -16 ], %o5
    3b48:	80 a4 a0 66 	cmp  %l2, 0x66
    3b4c:	02 80 00 17 	be  3ba8 <cvt+0x110>
    3b50:	ba 06 00 1b 	add  %i0, %i3, %i5
    3b54:	03 00 00 26 	sethi  %hi(0x9800), %g1
    3b58:	d4 18 62 90 	ldd  [ %g1 + 0x290 ], %o2	! 9a90 <zeroes.1+0x88>
    3b5c:	90 10 00 10 	mov  %l0, %o0
    3b60:	40 00 14 51 	call  8ca4 <__eqdf2>
    3b64:	92 10 00 11 	mov  %l1, %o1
    3b68:	80 a2 20 00 	cmp  %o0, 0
    3b6c:	22 80 00 02 	be,a   3b74 <cvt+0xdc>
    3b70:	fa 27 bf f0 	st  %i5, [ %fp + -16 ]
    3b74:	da 07 bf f0 	ld  [ %fp + -16 ], %o5
    3b78:	80 a3 40 1d 	cmp  %o5, %i5
    3b7c:	1a 80 00 24 	bcc  3c0c <cvt+0x174>
    3b80:	82 10 00 0d 	mov  %o5, %g1
    3b84:	98 10 20 30 	mov  0x30, %o4
    3b88:	d8 28 40 00 	stb  %o4, [ %g1 ]
    3b8c:	9a 00 60 01 	add  %g1, 1, %o5
    3b90:	da 27 bf f0 	st  %o5, [ %fp + -16 ]
    3b94:	80 a3 40 1d 	cmp  %o5, %i5
    3b98:	0a bf ff fc 	bcs  3b88 <cvt+0xf0>
    3b9c:	82 10 00 0d 	mov  %o5, %g1
    3ba0:	10 80 00 1c 	b  3c10 <cvt+0x178>
    3ba4:	c2 07 a0 64 	ld  [ %fp + 0x64 ], %g1
    3ba8:	c2 4e 00 00 	ldsb  [ %i0 ], %g1
    3bac:	80 a0 60 30 	cmp  %g1, 0x30
    3bb0:	02 80 00 05 	be  3bc4 <cvt+0x12c>
    3bb4:	03 00 00 26 	sethi  %hi(0x9800), %g1
    3bb8:	c2 06 40 00 	ld  [ %i1 ], %g1
    3bbc:	10 bf ff e6 	b  3b54 <cvt+0xbc>
    3bc0:	ba 07 40 01 	add  %i5, %g1, %i5
    3bc4:	d4 18 62 90 	ldd  [ %g1 + 0x290 ], %o2
    3bc8:	90 10 00 10 	mov  %l0, %o0
    3bcc:	40 00 14 4f 	call  8d08 <__nedf2>
    3bd0:	92 10 00 11 	mov  %l1, %o1
    3bd4:	80 a2 20 00 	cmp  %o0, 0
    3bd8:	22 bf ff f9 	be,a   3bbc <cvt+0x124>
    3bdc:	c2 06 40 00 	ld  [ %i1 ], %g1
    3be0:	82 10 20 01 	mov  1, %g1
    3be4:	82 20 40 1b 	sub  %g1, %i3, %g1
    3be8:	10 bf ff f4 	b  3bb8 <cvt+0x120>
    3bec:	c2 26 40 00 	st  %g1, [ %i1 ]
    3bf0:	40 00 15 0a 	call  9018 <__negdf2>
    3bf4:	92 10 00 11 	mov  %l1, %o1
    3bf8:	82 10 20 2d 	mov  0x2d, %g1
    3bfc:	a0 10 00 08 	mov  %o0, %l0
    3c00:	a2 10 00 09 	mov  %o1, %l1
    3c04:	10 bf ff ba 	b  3aec <cvt+0x54>
    3c08:	c2 2f 40 00 	stb  %g1, [ %i5 ]
    3c0c:	c2 07 a0 64 	ld  [ %fp + 0x64 ], %g1
    3c10:	9a 23 40 18 	sub  %o5, %i0, %o5
    3c14:	da 20 40 00 	st  %o5, [ %g1 ]
    3c18:	81 c7 e0 08 	ret 
    3c1c:	81 e8 00 00 	restore 

00003c20 <exponent>:
    3c20:	9d e3 bf 70 	save  %sp, -144, %sp
    3c24:	a0 10 00 18 	mov  %i0, %l0
    3c28:	80 a6 60 00 	cmp  %i1, 0
    3c2c:	06 80 00 2a 	bl  3cd4 <exponent+0xb4>
    3c30:	f4 2e 00 00 	stb  %i2, [ %i0 ]
    3c34:	82 10 20 2b 	mov  0x2b, %g1
    3c38:	c2 2e 20 01 	stb  %g1, [ %i0 + 1 ]
    3c3c:	b4 07 bf f8 	add  %fp, -8, %i2
    3c40:	b0 04 20 02 	add  %l0, 2, %i0
    3c44:	80 a6 60 09 	cmp  %i1, 9
    3c48:	04 80 00 1c 	ble  3cb8 <exponent+0x98>
    3c4c:	a2 10 00 1a 	mov  %i2, %l1
    3c50:	90 10 00 19 	mov  %i1, %o0
    3c54:	40 00 0f 79 	call  7a38 <.rem>
    3c58:	92 10 20 0a 	mov  0xa, %o1
    3c5c:	82 10 00 08 	mov  %o0, %g1
    3c60:	82 00 60 30 	add  %g1, 0x30, %g1
    3c64:	90 10 00 19 	mov  %i1, %o0
    3c68:	b4 06 bf ff 	add  %i2, -1, %i2
    3c6c:	92 10 20 0a 	mov  0xa, %o1
    3c70:	40 00 0e c6 	call  7788 <.div>
    3c74:	c2 2e 80 00 	stb  %g1, [ %i2 ]
    3c78:	80 a2 20 09 	cmp  %o0, 9
    3c7c:	14 bf ff f5 	bg  3c50 <exponent+0x30>
    3c80:	b2 10 00 08 	mov  %o0, %i1
    3c84:	b4 06 bf ff 	add  %i2, -1, %i2
    3c88:	82 02 20 30 	add  %o0, 0x30, %g1
    3c8c:	80 a6 80 11 	cmp  %i2, %l1
    3c90:	1a 80 00 14 	bcc  3ce0 <exponent+0xc0>
    3c94:	c2 2e 80 00 	stb  %g1, [ %i2 ]
    3c98:	c2 0e 80 00 	ldub  [ %i2 ], %g1
    3c9c:	b4 06 a0 01 	inc  %i2
    3ca0:	c2 2e 00 00 	stb  %g1, [ %i0 ]
    3ca4:	80 a6 80 11 	cmp  %i2, %l1
    3ca8:	0a bf ff fc 	bcs  3c98 <exponent+0x78>
    3cac:	b0 06 20 01 	inc  %i0
    3cb0:	10 80 00 0d 	b  3ce4 <exponent+0xc4>
    3cb4:	b0 26 00 10 	sub  %i0, %l0, %i0
    3cb8:	82 10 20 30 	mov  0x30, %g1
    3cbc:	c2 2e 00 00 	stb  %g1, [ %i0 ]
    3cc0:	9a 06 60 30 	add  %i1, 0x30, %o5
    3cc4:	b0 06 20 01 	inc  %i0
    3cc8:	da 2e 00 00 	stb  %o5, [ %i0 ]
    3ccc:	10 80 00 05 	b  3ce0 <exponent+0xc0>
    3cd0:	b0 06 20 01 	inc  %i0
    3cd4:	82 10 20 2d 	mov  0x2d, %g1
    3cd8:	10 bf ff d8 	b  3c38 <exponent+0x18>
    3cdc:	b2 20 00 19 	neg  %i1
    3ce0:	b0 26 00 10 	sub  %i0, %l0, %i0
    3ce4:	81 c7 e0 08 	ret 
    3ce8:	81 e8 00 00 	restore 

00003cec <__swsetup>:
    3cec:	9d e3 bf 98 	save  %sp, -104, %sp
    3cf0:	d0 06 20 54 	ld  [ %i0 + 0x54 ], %o0
    3cf4:	80 a2 20 00 	cmp  %o0, 0
    3cf8:	32 80 00 07 	bne,a   3d14 <__swsetup+0x28>
    3cfc:	c2 02 20 38 	ld  [ %o0 + 0x38 ], %g1
    3d00:	03 00 00 28 	sethi  %hi(0xa000), %g1
    3d04:	da 00 61 20 	ld  [ %g1 + 0x120 ], %o5	! a120 <_impure_ptr>
    3d08:	da 26 20 54 	st  %o5, [ %i0 + 0x54 ]
    3d0c:	90 10 00 0d 	mov  %o5, %o0
    3d10:	c2 02 20 38 	ld  [ %o0 + 0x38 ], %g1
    3d14:	80 a0 60 00 	cmp  %g1, 0
    3d18:	02 80 00 38 	be  3df8 <__swsetup+0x10c>
    3d1c:	01 00 00 00 	nop 
    3d20:	c2 16 20 0c 	lduh  [ %i0 + 0xc ], %g1
    3d24:	80 88 60 08 	btst  8, %g1
    3d28:	12 80 00 32 	bne  3df0 <__swsetup+0x104>
    3d2c:	d8 16 20 0c 	lduh  [ %i0 + 0xc ], %o4
    3d30:	80 88 60 10 	btst  0x10, %g1
    3d34:	02 80 00 35 	be  3e08 <__swsetup+0x11c>
    3d38:	9a 10 3f ff 	mov  -1, %o5
    3d3c:	80 88 60 04 	btst  4, %g1
    3d40:	22 80 00 14 	be,a   3d90 <__swsetup+0xa4>
    3d44:	da 06 20 10 	ld  [ %i0 + 0x10 ], %o5
    3d48:	d2 06 20 30 	ld  [ %i0 + 0x30 ], %o1
    3d4c:	80 a2 60 00 	cmp  %o1, 0
    3d50:	22 80 00 0b 	be,a   3d7c <__swsetup+0x90>
    3d54:	da 06 20 10 	ld  [ %i0 + 0x10 ], %o5
    3d58:	82 06 20 40 	add  %i0, 0x40, %g1
    3d5c:	80 a2 40 01 	cmp  %o1, %g1
    3d60:	22 80 00 06 	be,a   3d78 <__swsetup+0x8c>
    3d64:	c0 26 20 30 	clr  [ %i0 + 0x30 ]
    3d68:	40 00 06 2b 	call  5614 <_free_r>
    3d6c:	d0 06 20 54 	ld  [ %i0 + 0x54 ], %o0
    3d70:	d8 16 20 0c 	lduh  [ %i0 + 0xc ], %o4
    3d74:	c0 26 20 30 	clr  [ %i0 + 0x30 ]
    3d78:	da 06 20 10 	ld  [ %i0 + 0x10 ], %o5
    3d7c:	82 0b 3f db 	and  %o4, -37, %g1
    3d80:	c0 26 20 04 	clr  [ %i0 + 4 ]
    3d84:	c2 36 20 0c 	sth  %g1, [ %i0 + 0xc ]
    3d88:	da 26 00 00 	st  %o5, [ %i0 ]
    3d8c:	98 10 00 01 	mov  %g1, %o4
    3d90:	82 13 20 08 	or  %o4, 8, %g1
    3d94:	c2 36 20 0c 	sth  %g1, [ %i0 + 0xc ]
    3d98:	80 a3 60 00 	cmp  %o5, 0
    3d9c:	02 80 00 11 	be  3de0 <__swsetup+0xf4>
    3da0:	01 00 00 00 	nop 
    3da4:	c2 16 20 0c 	lduh  [ %i0 + 0xc ], %g1
    3da8:	80 88 60 01 	btst  1, %g1
    3dac:	02 80 00 08 	be  3dcc <__swsetup+0xe0>
    3db0:	80 88 60 02 	btst  2, %g1
    3db4:	c2 06 20 14 	ld  [ %i0 + 0x14 ], %g1
    3db8:	c0 26 20 08 	clr  [ %i0 + 8 ]
    3dbc:	82 20 00 01 	neg  %g1
    3dc0:	c2 26 20 18 	st  %g1, [ %i0 + 0x18 ]
    3dc4:	10 80 00 11 	b  3e08 <__swsetup+0x11c>
    3dc8:	9a 10 20 00 	clr  %o5
    3dcc:	12 80 00 03 	bne  3dd8 <__swsetup+0xec>
    3dd0:	82 10 20 00 	clr  %g1
    3dd4:	c2 06 20 14 	ld  [ %i0 + 0x14 ], %g1
    3dd8:	10 bf ff fb 	b  3dc4 <__swsetup+0xd8>
    3ddc:	c2 26 20 08 	st  %g1, [ %i0 + 8 ]
    3de0:	40 00 08 3e 	call  5ed8 <__smakebuf>
    3de4:	90 10 00 18 	mov  %i0, %o0
    3de8:	10 bf ff f0 	b  3da8 <__swsetup+0xbc>
    3dec:	c2 16 20 0c 	lduh  [ %i0 + 0xc ], %g1
    3df0:	10 bf ff ea 	b  3d98 <__swsetup+0xac>
    3df4:	da 06 20 10 	ld  [ %i0 + 0x10 ], %o5
    3df8:	40 00 05 ec 	call  55a8 <__sinit>
    3dfc:	01 00 00 00 	nop 
    3e00:	10 bf ff c9 	b  3d24 <__swsetup+0x38>
    3e04:	c2 16 20 0c 	lduh  [ %i0 + 0xc ], %g1
    3e08:	81 c7 e0 08 	ret 
    3e0c:	91 e8 00 0d 	restore  %g0, %o5, %o0
    3e10:	00 00 42 7c 	unimp  0x427c
    3e14:	00 00 42 7c 	unimp  0x427c
    3e18:	00 00 51 38 	unimp  0x5138
    3e1c:	00 00 51 64 	unimp  0x5164
    3e20:	00 00 51 3c 	unimp  0x513c
    3e24:	00 00 51 68 	unimp  0x5168

00003e28 <quorem>:
    3e28:	9d e3 bf 98 	save  %sp, -104, %sp
    3e2c:	c2 06 20 10 	ld  [ %i0 + 0x10 ], %g1
    3e30:	ee 06 60 10 	ld  [ %i1 + 0x10 ], %l7
    3e34:	b6 10 00 18 	mov  %i0, %i3
    3e38:	80 a0 40 17 	cmp  %g1, %l7
    3e3c:	06 80 00 80 	bl  403c <quorem+0x214>
    3e40:	90 10 20 00 	clr  %o0
    3e44:	ba 06 20 14 	add  %i0, 0x14, %i5
    3e48:	a6 06 60 14 	add  %i1, 0x14, %l3
    3e4c:	ae 05 ff ff 	add  %l7, -1, %l7
    3e50:	83 2d e0 02 	sll  %l7, 2, %g1
    3e54:	d2 04 c0 01 	ld  [ %l3 + %g1 ], %o1
    3e58:	d0 07 40 01 	ld  [ %i5 + %g1 ], %o0
    3e5c:	92 02 60 01 	inc  %o1
    3e60:	b8 04 c0 01 	add  %l3, %g1, %i4
    3e64:	aa 07 40 01 	add  %i5, %g1, %l5
    3e68:	40 00 0e 46 	call  7780 <.udiv>
    3e6c:	b4 10 00 13 	mov  %l3, %i2
    3e70:	b0 92 20 00 	orcc  %o0, 0, %i0
    3e74:	02 80 00 37 	be  3f50 <quorem+0x128>
    3e78:	a2 10 00 1d 	mov  %i5, %l1
    3e7c:	03 00 00 3f 	sethi  %hi(0xfc00), %g1
    3e80:	a8 10 20 00 	clr  %l4
    3e84:	ac 10 63 ff 	or  %g1, 0x3ff, %l6
    3e88:	a4 10 20 00 	clr  %l2
    3e8c:	e0 04 c0 00 	ld  [ %l3 ], %l0
    3e90:	92 10 00 18 	mov  %i0, %o1
    3e94:	40 00 0e 01 	call  7698 <.umul>
    3e98:	90 0c 00 16 	and  %l0, %l6, %o0
    3e9c:	92 10 00 18 	mov  %i0, %o1
    3ea0:	a4 02 00 12 	add  %o0, %l2, %l2
    3ea4:	40 00 0d fd 	call  7698 <.umul>
    3ea8:	91 34 20 10 	srl  %l0, 0x10, %o0
    3eac:	d8 04 40 00 	ld  [ %l1 ], %o4
    3eb0:	9a 0c 80 16 	and  %l2, %l6, %o5
    3eb4:	82 0b 00 16 	and  %o4, %l6, %g1
    3eb8:	82 20 40 0d 	sub  %g1, %o5, %g1
    3ebc:	82 00 40 14 	add  %g1, %l4, %g1
    3ec0:	a9 38 60 10 	sra  %g1, 0x10, %l4
    3ec4:	c2 34 60 02 	sth  %g1, [ %l1 + 2 ]
    3ec8:	99 33 20 10 	srl  %o4, 0x10, %o4
    3ecc:	83 34 a0 10 	srl  %l2, 0x10, %g1
    3ed0:	a6 04 e0 04 	add  %l3, 4, %l3
    3ed4:	82 02 00 01 	add  %o0, %g1, %g1
    3ed8:	80 a4 c0 1c 	cmp  %l3, %i4
    3edc:	9a 08 40 16 	and  %g1, %l6, %o5
    3ee0:	a5 30 60 10 	srl  %g1, 0x10, %l2
    3ee4:	98 23 00 0d 	sub  %o4, %o5, %o4
    3ee8:	98 03 00 14 	add  %o4, %l4, %o4
    3eec:	d8 34 40 00 	sth  %o4, [ %l1 ]
    3ef0:	a9 3b 20 10 	sra  %o4, 0x10, %l4
    3ef4:	08 bf ff e6 	bleu  3e8c <quorem+0x64>
    3ef8:	a2 04 60 04 	add  %l1, 4, %l1
    3efc:	c2 05 40 00 	ld  [ %l5 ], %g1
    3f00:	80 a0 60 00 	cmp  %g1, 0
    3f04:	12 80 00 14 	bne  3f54 <quorem+0x12c>
    3f08:	92 10 00 19 	mov  %i1, %o1
    3f0c:	aa 05 7f fc 	add  %l5, -4, %l5
    3f10:	80 a5 40 1d 	cmp  %l5, %i5
    3f14:	28 80 00 10 	bleu,a   3f54 <quorem+0x12c>
    3f18:	ee 26 e0 10 	st  %l7, [ %i3 + 0x10 ]
    3f1c:	c2 05 40 00 	ld  [ %l5 ], %g1
    3f20:	80 a0 60 00 	cmp  %g1, 0
    3f24:	32 80 00 0c 	bne,a   3f54 <quorem+0x12c>
    3f28:	ee 26 e0 10 	st  %l7, [ %i3 + 0x10 ]
    3f2c:	aa 05 7f fc 	add  %l5, -4, %l5
    3f30:	80 a5 40 1d 	cmp  %l5, %i5
    3f34:	08 80 00 06 	bleu  3f4c <quorem+0x124>
    3f38:	ae 05 ff ff 	add  %l7, -1, %l7
    3f3c:	c2 05 40 00 	ld  [ %l5 ], %g1
    3f40:	80 a0 60 00 	cmp  %g1, 0
    3f44:	22 bf ff fb 	be,a   3f30 <quorem+0x108>
    3f48:	aa 05 7f fc 	add  %l5, -4, %l5
    3f4c:	ee 26 e0 10 	st  %l7, [ %i3 + 0x10 ]
    3f50:	92 10 00 19 	mov  %i1, %o1
    3f54:	40 00 0a fe 	call  6b4c <__mcmp>
    3f58:	90 10 00 1b 	mov  %i3, %o0
    3f5c:	80 a2 20 00 	cmp  %o0, 0
    3f60:	06 80 00 36 	bl  4038 <quorem+0x210>
    3f64:	03 00 00 3f 	sethi  %hi(0xfc00), %g1
    3f68:	a6 10 00 1a 	mov  %i2, %l3
    3f6c:	94 10 63 ff 	or  %g1, 0x3ff, %o2
    3f70:	b0 06 20 01 	inc  %i0
    3f74:	a8 10 20 00 	clr  %l4
    3f78:	a4 10 20 00 	clr  %l2
    3f7c:	a2 10 00 1d 	mov  %i5, %l1
    3f80:	e0 04 c0 00 	ld  [ %l3 ], %l0
    3f84:	d8 04 40 00 	ld  [ %l1 ], %o4
    3f88:	82 0c 00 0a 	and  %l0, %o2, %g1
    3f8c:	a4 00 40 12 	add  %g1, %l2, %l2
    3f90:	82 0b 00 0a 	and  %o4, %o2, %g1
    3f94:	9a 0c 80 0a 	and  %l2, %o2, %o5
    3f98:	82 20 40 0d 	sub  %g1, %o5, %g1
    3f9c:	82 00 40 14 	add  %g1, %l4, %g1
    3fa0:	a9 38 60 10 	sra  %g1, 0x10, %l4
    3fa4:	c2 34 60 02 	sth  %g1, [ %l1 + 2 ]
    3fa8:	97 34 20 10 	srl  %l0, 0x10, %o3
    3fac:	83 34 a0 10 	srl  %l2, 0x10, %g1
    3fb0:	99 33 20 10 	srl  %o4, 0x10, %o4
    3fb4:	82 02 c0 01 	add  %o3, %g1, %g1
    3fb8:	a6 04 e0 04 	add  %l3, 4, %l3
    3fbc:	9a 08 40 0a 	and  %g1, %o2, %o5
    3fc0:	80 a4 c0 1c 	cmp  %l3, %i4
    3fc4:	98 23 00 0d 	sub  %o4, %o5, %o4
    3fc8:	a5 30 60 10 	srl  %g1, 0x10, %l2
    3fcc:	98 03 00 14 	add  %o4, %l4, %o4
    3fd0:	d8 34 40 00 	sth  %o4, [ %l1 ]
    3fd4:	a9 3b 20 10 	sra  %o4, 0x10, %l4
    3fd8:	08 bf ff ea 	bleu  3f80 <quorem+0x158>
    3fdc:	a2 04 60 04 	add  %l1, 4, %l1
    3fe0:	83 2d e0 02 	sll  %l7, 2, %g1
    3fe4:	da 07 40 01 	ld  [ %i5 + %g1 ], %o5
    3fe8:	80 a3 60 00 	cmp  %o5, 0
    3fec:	12 80 00 13 	bne  4038 <quorem+0x210>
    3ff0:	aa 07 40 01 	add  %i5, %g1, %l5
    3ff4:	aa 05 7f fc 	add  %l5, -4, %l5
    3ff8:	80 a5 40 1d 	cmp  %l5, %i5
    3ffc:	28 80 00 0f 	bleu,a   4038 <quorem+0x210>
    4000:	ee 26 e0 10 	st  %l7, [ %i3 + 0x10 ]
    4004:	c2 05 40 00 	ld  [ %l5 ], %g1
    4008:	80 a0 60 00 	cmp  %g1, 0
    400c:	32 80 00 0b 	bne,a   4038 <quorem+0x210>
    4010:	ee 26 e0 10 	st  %l7, [ %i3 + 0x10 ]
    4014:	aa 05 7f fc 	add  %l5, -4, %l5
    4018:	80 a5 40 1d 	cmp  %l5, %i5
    401c:	08 80 00 06 	bleu  4034 <quorem+0x20c>
    4020:	ae 05 ff ff 	add  %l7, -1, %l7
    4024:	c2 05 40 00 	ld  [ %l5 ], %g1
    4028:	80 a0 60 00 	cmp  %g1, 0
    402c:	22 bf ff fb 	be,a   4018 <quorem+0x1f0>
    4030:	aa 05 7f fc 	add  %l5, -4, %l5
    4034:	ee 26 e0 10 	st  %l7, [ %i3 + 0x10 ]
    4038:	90 10 00 18 	mov  %i0, %o0
    403c:	81 c7 e0 08 	ret 
    4040:	91 e8 00 08 	restore  %g0, %o0, %o0

00004044 <_dtoa_r>:
    4044:	9d e3 bf 58 	save  %sp, -168, %sp
    4048:	d6 06 20 40 	ld  [ %i0 + 0x40 ], %o3
    404c:	f0 27 a0 44 	st  %i0, [ %fp + 0x44 ]
    4050:	f8 27 a0 54 	st  %i4, [ %fp + 0x54 ]
    4054:	fa 27 a0 58 	st  %i5, [ %fp + 0x58 ]
    4058:	a8 10 00 19 	mov  %i1, %l4
    405c:	aa 10 00 1a 	mov  %i2, %l5
    4060:	80 a2 e0 00 	cmp  %o3, 0
    4064:	e0 07 a0 5c 	ld  [ %fp + 0x5c ], %l0
    4068:	12 80 04 95 	bne  52bc <_dtoa_r+0x1278>
    406c:	c0 27 bf c0 	clr  [ %fp + -64 ]
    4070:	80 a5 20 00 	cmp  %l4, 0
    4074:	06 80 04 8e 	bl  52ac <_dtoa_r+0x1268>
    4078:	82 10 20 01 	mov  1, %g1
    407c:	c0 24 00 00 	clr  [ %l0 ]
    4080:	1b 1f fc 00 	sethi  %hi(0x7ff00000), %o5
    4084:	82 0d 00 0d 	and  %l4, %o5, %g1
    4088:	80 a0 40 0d 	cmp  %g1, %o5
    408c:	02 80 04 6f 	be  5248 <_dtoa_r+0x1204>
    4090:	19 00 00 26 	sethi  %hi(0x9800), %o4
    4094:	d4 1b 22 90 	ldd  [ %o4 + 0x290 ], %o2	! 9a90 <zeroes.1+0x88>
    4098:	90 10 00 14 	mov  %l4, %o0
    409c:	40 00 13 02 	call  8ca4 <__eqdf2>
    40a0:	92 10 00 15 	mov  %l5, %o1
    40a4:	80 a2 20 00 	cmp  %o0, 0
    40a8:	12 80 00 0e 	bne  40e0 <_dtoa_r+0x9c>
    40ac:	da 07 a0 60 	ld  [ %fp + 0x60 ], %o5
    40b0:	d6 07 a0 58 	ld  [ %fp + 0x58 ], %o3
    40b4:	80 a3 60 00 	cmp  %o5, 0
    40b8:	82 10 20 01 	mov  1, %g1
    40bc:	1b 00 00 26 	sethi  %hi(0x9800), %o5
    40c0:	c2 22 c0 00 	st  %g1, [ %o3 ]
    40c4:	02 80 00 05 	be  40d8 <_dtoa_r+0x94>
    40c8:	b0 13 62 38 	or  %o5, 0x238, %i0
    40cc:	d8 07 a0 60 	ld  [ %fp + 0x60 ], %o4
    40d0:	82 06 20 01 	add  %i0, 1, %g1
    40d4:	c2 23 00 00 	st  %g1, [ %o4 ]
    40d8:	10 80 04 85 	b  52ec <_dtoa_r+0x12a8>
    40dc:	82 10 00 18 	mov  %i0, %g1
    40e0:	d0 07 a0 44 	ld  [ %fp + 0x44 ], %o0
    40e4:	92 10 00 14 	mov  %l4, %o1
    40e8:	94 10 00 15 	mov  %l5, %o2
    40ec:	96 07 bf f4 	add  %fp, -12, %o3
    40f0:	40 00 0b 5f 	call  6e6c <_d2b>
    40f4:	98 07 bf f0 	add  %fp, -16, %o4
    40f8:	83 35 20 14 	srl  %l4, 0x14, %g1
    40fc:	b2 88 67 ff 	andcc  %g1, 0x7ff, %i1
    4100:	02 80 04 36 	be  51d8 <_dtoa_r+0x1194>
    4104:	d0 27 bf c4 	st  %o0, [ %fp + -60 ]
    4108:	f4 07 bf f0 	ld  [ %fp + -16 ], %i2
    410c:	03 3f fc 00 	sethi  %hi(0xfff00000), %g1
    4110:	1b 0f fc 00 	sethi  %hi(0x3ff00000), %o5
    4114:	ac 2d 00 01 	andn  %l4, %g1, %l6
    4118:	ae 10 00 15 	mov  %l5, %l7
    411c:	ac 13 40 16 	or  %o5, %l6, %l6
    4120:	b2 06 7c 01 	add  %i1, -1023, %i1
    4124:	c0 27 bf c8 	clr  [ %fp + -56 ]
    4128:	19 00 00 26 	sethi  %hi(0x9800), %o4
    412c:	d4 1b 22 b0 	ldd  [ %o4 + 0x2b0 ], %o2	! 9ab0 <zeroes.1+0xa8>
    4130:	90 10 00 16 	mov  %l6, %o0
    4134:	40 00 11 6b 	call  86e0 <__subdf3>
    4138:	92 10 00 17 	mov  %l7, %o1
    413c:	1b 00 00 26 	sethi  %hi(0x9800), %o5
    4140:	40 00 11 7f 	call  873c <__muldf3>
    4144:	d4 1b 62 b8 	ldd  [ %o5 + 0x2b8 ], %o2	! 9ab8 <zeroes.1+0xb0>
    4148:	03 00 00 26 	sethi  %hi(0x9800), %g1
    414c:	40 00 11 51 	call  8690 <__adddf3>
    4150:	d4 18 62 c0 	ldd  [ %g1 + 0x2c0 ], %o2	! 9ac0 <zeroes.1+0xb8>
    4154:	a0 10 00 08 	mov  %o0, %l0
    4158:	a2 10 00 09 	mov  %o1, %l1
    415c:	40 00 13 4f 	call  8e98 <__floatsidf>
    4160:	90 10 00 19 	mov  %i1, %o0
    4164:	19 00 00 26 	sethi  %hi(0x9800), %o4
    4168:	40 00 11 75 	call  873c <__muldf3>
    416c:	d4 1b 22 c8 	ldd  [ %o4 + 0x2c8 ], %o2	! 9ac8 <zeroes.1+0xc0>
    4170:	94 10 00 08 	mov  %o0, %o2
    4174:	96 10 00 09 	mov  %o1, %o3
    4178:	90 10 00 10 	mov  %l0, %o0
    417c:	40 00 11 45 	call  8690 <__adddf3>
    4180:	92 10 00 11 	mov  %l1, %o1
    4184:	a4 10 00 08 	mov  %o0, %l2
    4188:	40 00 13 79 	call  8f6c <__fixdfsi>
    418c:	a6 10 00 09 	mov  %o1, %l3
    4190:	1b 00 00 26 	sethi  %hi(0x9800), %o5
    4194:	d4 1b 62 90 	ldd  [ %o5 + 0x290 ], %o2	! 9a90 <zeroes.1+0x88>
    4198:	ba 10 00 08 	mov  %o0, %i5
    419c:	92 10 00 13 	mov  %l3, %o1
    41a0:	40 00 13 25 	call  8e34 <__ltdf2>
    41a4:	90 10 00 12 	mov  %l2, %o0
    41a8:	80 a2 20 00 	cmp  %o0, 0
    41ac:	06 80 04 01 	bl  51b0 <_dtoa_r+0x116c>
    41b0:	01 00 00 00 	nop 
    41b4:	82 10 20 01 	mov  1, %g1	! 1 <__DYNAMIC+0x1>
    41b8:	80 a7 60 16 	cmp  %i5, 0x16
    41bc:	18 80 00 0f 	bgu  41f8 <_dtoa_r+0x1b4>
    41c0:	c2 27 bf d4 	st  %g1, [ %fp + -44 ]
    41c4:	9b 2f 60 03 	sll  %i5, 3, %o5
    41c8:	03 00 00 26 	sethi  %hi(0x9800), %g1
    41cc:	82 10 63 50 	or  %g1, 0x350, %g1	! 9b50 <__mprec_tens>
    41d0:	96 00 40 0d 	add  %g1, %o5, %o3
    41d4:	d0 1a c0 00 	ldd  [ %o3 ], %o0
    41d8:	94 10 00 14 	mov  %l4, %o2
    41dc:	40 00 12 e4 	call  8d6c <__gtdf2>
    41e0:	96 10 00 15 	mov  %l5, %o3
    41e4:	c0 27 bf d4 	clr  [ %fp + -44 ]
    41e8:	83 3a 20 1f 	sra  %o0, 0x1f, %g1
    41ec:	82 20 40 08 	sub  %g1, %o0, %g1
    41f0:	83 30 60 1f 	srl  %g1, 0x1f, %g1
    41f4:	ba 27 40 01 	sub  %i5, %g1, %i5
    41f8:	82 26 80 19 	sub  %i2, %i1, %g1
    41fc:	a0 80 7f ff 	addcc  %g1, -1, %l0
    4200:	2c 80 03 e9 	bneg,a   51a4 <_dtoa_r+0x1160>
    4204:	a0 20 00 10 	neg  %l0
    4208:	b8 10 00 10 	mov  %l0, %i4
    420c:	c0 27 bf ec 	clr  [ %fp + -20 ]
    4210:	80 a7 60 00 	cmp  %i5, 0
    4214:	06 80 03 de 	bl  518c <_dtoa_r+0x1148>
    4218:	d8 07 bf ec 	ld  [ %fp + -20 ], %o4
    421c:	c0 27 bf e8 	clr  [ %fp + -24 ]
    4220:	fa 27 bf cc 	st  %i5, [ %fp + -52 ]
    4224:	b8 07 00 1d 	add  %i4, %i5, %i4
    4228:	80 a6 e0 0a 	cmp  %i3, 0xa
    422c:	82 60 20 00 	subx  %g0, 0, %g1
    4230:	b6 0e c0 01 	and  %i3, %g1, %i3
    4234:	80 a6 e0 05 	cmp  %i3, 5
    4238:	04 80 00 04 	ble  4248 <_dtoa_r+0x204>
    423c:	a2 10 20 01 	mov  1, %l1
    4240:	b6 06 ff fc 	add  %i3, -4, %i3
    4244:	a2 10 20 00 	clr  %l1
    4248:	96 10 3f ff 	mov  -1, %o3
    424c:	82 10 20 01 	mov  1, %g1
    4250:	80 a6 e0 05 	cmp  %i3, 5
    4254:	c2 27 bf d0 	st  %g1, [ %fp + -48 ]
    4258:	d6 27 bf dc 	st  %o3, [ %fp + -36 ]
    425c:	18 80 00 0a 	bgu  4284 <_dtoa_r+0x240>
    4260:	d6 27 bf e4 	st  %o3, [ %fp + -28 ]
    4264:	83 2e e0 02 	sll  %i3, 2, %g1
    4268:	1b 00 00 0f 	sethi  %hi(0x3c00), %o5
    426c:	9a 13 62 10 	or  %o5, 0x210, %o5	! 3e10 <__swsetup+0x124>
    4270:	d8 03 40 01 	ld  [ %o5 + %g1 ], %o4
    4274:	81 c3 00 00 	jmp  %o4
    4278:	01 00 00 00 	nop 
    427c:	b2 10 20 12 	mov  0x12, %i1	! 12 <__DYNAMIC+0x12>
    4280:	c0 27 a0 54 	clr  [ %fp + 0x54 ]
    4284:	d8 07 a0 44 	ld  [ %fp + 0x44 ], %o4
    4288:	80 a6 60 17 	cmp  %i1, 0x17
    428c:	c0 23 20 44 	clr  [ %o4 + 0x44 ]
    4290:	08 80 00 0a 	bleu  42b8 <_dtoa_r+0x274>
    4294:	a0 10 20 04 	mov  4, %l0
    4298:	9a 10 20 00 	clr  %o5
    429c:	a0 04 00 10 	add  %l0, %l0, %l0
    42a0:	82 04 20 14 	add  %l0, 0x14, %g1
    42a4:	80 a0 40 19 	cmp  %g1, %i1
    42a8:	08 bf ff fd 	bleu  429c <_dtoa_r+0x258>
    42ac:	9a 03 60 01 	inc  %o5
    42b0:	c2 07 a0 44 	ld  [ %fp + 0x44 ], %g1
    42b4:	da 20 60 44 	st  %o5, [ %g1 + 0x44 ]
    42b8:	d6 07 a0 44 	ld  [ %fp + 0x44 ], %o3
    42bc:	d2 02 e0 44 	ld  [ %o3 + 0x44 ], %o1
    42c0:	40 00 08 22 	call  6348 <_Balloc>
    42c4:	90 10 00 0b 	mov  %o3, %o0
    42c8:	d8 07 bf e4 	ld  [ %fp + -28 ], %o4
    42cc:	da 07 a0 44 	ld  [ %fp + 0x44 ], %o5
    42d0:	80 a3 20 0f 	cmp  %o4, 0xf
    42d4:	d0 27 bf b8 	st  %o0, [ %fp + -72 ]
    42d8:	82 40 20 00 	addx  %g0, 0, %g1
    42dc:	d0 23 60 40 	st  %o0, [ %o5 + 0x40 ]
    42e0:	80 88 40 11 	btst  %g1, %l1
    42e4:	02 80 00 ae 	be  459c <_dtoa_r+0x558>
    42e8:	b0 10 00 08 	mov  %o0, %i0
    42ec:	80 a7 60 00 	cmp  %i5, 0
    42f0:	b2 10 20 00 	clr  %i1
    42f4:	ac 10 00 14 	mov  %l4, %l6
    42f8:	ae 10 00 15 	mov  %l5, %l7
    42fc:	fa 27 bf d8 	st  %i5, [ %fp + -40 ]
    4300:	d8 27 bf e0 	st  %o4, [ %fp + -32 ]
    4304:	04 80 03 68 	ble  50a4 <_dtoa_r+0x1060>
    4308:	a2 10 20 02 	mov  2, %l1
    430c:	9a 0f 60 0f 	and  %i5, 0xf, %o5
    4310:	03 00 00 26 	sethi  %hi(0x9800), %g1
    4314:	9b 2b 60 03 	sll  %o5, 3, %o5
    4318:	82 10 63 50 	or  %g1, 0x350, %g1
    431c:	a1 3f 60 04 	sra  %i5, 4, %l0
    4320:	96 00 40 0d 	add  %g1, %o5, %o3
    4324:	80 8c 20 10 	btst  0x10, %l0
    4328:	02 80 00 0b 	be  4354 <_dtoa_r+0x310>
    432c:	e4 1a c0 00 	ldd  [ %o3 ], %l2
    4330:	03 00 00 27 	sethi  %hi(0x9c00), %g1
    4334:	d4 18 60 38 	ldd  [ %g1 + 0x38 ], %o2	! 9c38 <__mprec_bigtens+0x20>
    4338:	90 10 00 14 	mov  %l4, %o0
    433c:	92 10 00 15 	mov  %l5, %o1
    4340:	40 00 11 dd 	call  8ab4 <__divdf3>
    4344:	a0 0c 20 0f 	and  %l0, 0xf, %l0
    4348:	a2 10 20 03 	mov  3, %l1
    434c:	a8 10 00 08 	mov  %o0, %l4
    4350:	aa 10 00 09 	mov  %o1, %l5
    4354:	80 a4 20 00 	cmp  %l0, 0
    4358:	02 80 00 13 	be  43a4 <_dtoa_r+0x360>
    435c:	03 00 00 27 	sethi  %hi(0x9c00), %g1
    4360:	b4 10 60 18 	or  %g1, 0x18, %i2	! 9c18 <__mprec_bigtens>
    4364:	80 8c 20 01 	btst  1, %l0
    4368:	22 80 00 0c 	be,a   4398 <_dtoa_r+0x354>
    436c:	a1 3c 20 01 	sra  %l0, 1, %l0
    4370:	83 2e 60 03 	sll  %i1, 3, %g1
    4374:	98 06 80 01 	add  %i2, %g1, %o4
    4378:	d4 1b 00 00 	ldd  [ %o4 ], %o2
    437c:	90 10 00 12 	mov  %l2, %o0
    4380:	92 10 00 13 	mov  %l3, %o1
    4384:	40 00 10 ee 	call  873c <__muldf3>
    4388:	a2 04 60 01 	inc  %l1
    438c:	a4 10 00 08 	mov  %o0, %l2
    4390:	a6 10 00 09 	mov  %o1, %l3
    4394:	a1 3c 20 01 	sra  %l0, 1, %l0
    4398:	80 a4 20 00 	cmp  %l0, 0
    439c:	12 bf ff f2 	bne  4364 <_dtoa_r+0x320>
    43a0:	b2 06 60 01 	inc  %i1
    43a4:	90 10 00 14 	mov  %l4, %o0
    43a8:	92 10 00 15 	mov  %l5, %o1
    43ac:	94 10 00 12 	mov  %l2, %o2
    43b0:	40 00 11 c1 	call  8ab4 <__divdf3>
    43b4:	96 10 00 13 	mov  %l3, %o3
    43b8:	a8 10 00 08 	mov  %o0, %l4
    43bc:	aa 10 00 09 	mov  %o1, %l5
    43c0:	c2 07 bf d4 	ld  [ %fp + -44 ], %g1
    43c4:	80 a0 60 00 	cmp  %g1, 0
    43c8:	02 80 00 1d 	be  443c <_dtoa_r+0x3f8>
    43cc:	19 00 00 26 	sethi  %hi(0x9800), %o4
    43d0:	d4 1b 22 d0 	ldd  [ %o4 + 0x2d0 ], %o2	! 9ad0 <zeroes.1+0xc8>
    43d4:	90 10 00 14 	mov  %l4, %o0
    43d8:	40 00 12 97 	call  8e34 <__ltdf2>
    43dc:	92 10 00 15 	mov  %l5, %o1
    43e0:	80 a2 20 00 	cmp  %o0, 0
    43e4:	06 80 03 2e 	bl  509c <_dtoa_r+0x1058>
    43e8:	9a 10 20 00 	clr  %o5
    43ec:	d6 07 bf e4 	ld  [ %fp + -28 ], %o3
    43f0:	83 3a e0 1f 	sra  %o3, 0x1f, %g1
    43f4:	82 20 40 0b 	sub  %g1, %o3, %g1
    43f8:	83 30 60 1f 	srl  %g1, 0x1f, %g1
    43fc:	80 8b 40 01 	btst  %o5, %g1
    4400:	02 80 00 0f 	be  443c <_dtoa_r+0x3f8>
    4404:	d8 07 bf dc 	ld  [ %fp + -36 ], %o4
    4408:	80 a3 20 00 	cmp  %o4, 0
    440c:	04 80 00 5e 	ble  4584 <_dtoa_r+0x540>
    4410:	1b 00 00 26 	sethi  %hi(0x9800), %o5
    4414:	d0 1b 62 d8 	ldd  [ %o5 + 0x2d8 ], %o0	! 9ad8 <zeroes.1+0xd0>
    4418:	94 10 00 14 	mov  %l4, %o2
    441c:	40 00 10 c8 	call  873c <__muldf3>
    4420:	96 10 00 15 	mov  %l5, %o3
    4424:	c2 07 bf dc 	ld  [ %fp + -36 ], %g1
    4428:	a8 10 00 08 	mov  %o0, %l4
    442c:	aa 10 00 09 	mov  %o1, %l5
    4430:	c2 27 bf e4 	st  %g1, [ %fp + -28 ]
    4434:	ba 07 7f ff 	add  %i5, -1, %i5
    4438:	a2 04 60 01 	inc  %l1
    443c:	40 00 12 97 	call  8e98 <__floatsidf>
    4440:	90 10 00 11 	mov  %l1, %o0
    4444:	94 10 00 14 	mov  %l4, %o2
    4448:	40 00 10 bd 	call  873c <__muldf3>
    444c:	96 10 00 15 	mov  %l5, %o3
    4450:	19 00 00 26 	sethi  %hi(0x9800), %o4
    4454:	40 00 10 8f 	call  8690 <__adddf3>
    4458:	d4 1b 22 e0 	ldd  [ %o4 + 0x2e0 ], %o2	! 9ae0 <zeroes.1+0xd8>
    445c:	da 07 bf e4 	ld  [ %fp + -28 ], %o5
    4460:	a4 10 00 08 	mov  %o0, %l2
    4464:	03 3f 30 00 	sethi  %hi(0xfcc00000), %g1
    4468:	80 a3 60 00 	cmp  %o5, 0
    446c:	a6 10 00 09 	mov  %o1, %l3
    4470:	12 80 02 85 	bne  4e84 <_dtoa_r+0xe40>
    4474:	a4 00 40 12 	add  %g1, %l2, %l2
    4478:	03 00 00 26 	sethi  %hi(0x9800), %g1
    447c:	d4 18 62 e8 	ldd  [ %g1 + 0x2e8 ], %o2	! 9ae8 <zeroes.1+0xe0>
    4480:	90 10 00 14 	mov  %l4, %o0
    4484:	40 00 10 97 	call  86e0 <__subdf3>
    4488:	92 10 00 15 	mov  %l5, %o1
    448c:	b4 10 20 00 	clr  %i2
    4490:	a0 10 00 08 	mov  %o0, %l0
    4494:	a2 10 00 09 	mov  %o1, %l1
    4498:	94 10 00 12 	mov  %l2, %o2
    449c:	40 00 12 34 	call  8d6c <__gtdf2>
    44a0:	96 10 00 13 	mov  %l3, %o3
    44a4:	80 a2 20 00 	cmp  %o0, 0
    44a8:	04 80 00 2b 	ble  4554 <_dtoa_r+0x510>
    44ac:	c0 27 bf bc 	clr  [ %fp + -68 ]
    44b0:	d6 07 bf b8 	ld  [ %fp + -72 ], %o3
    44b4:	82 10 20 31 	mov  0x31, %g1
    44b8:	b0 02 e0 01 	add  %o3, 1, %i0
    44bc:	c2 2a c0 00 	stb  %g1, [ %o3 ]
    44c0:	ba 07 60 01 	inc  %i5
    44c4:	d0 07 a0 44 	ld  [ %fp + 0x44 ], %o0
    44c8:	40 00 07 c8 	call  63e8 <_Bfree>
    44cc:	92 10 00 1a 	mov  %i2, %o1
    44d0:	da 07 bf bc 	ld  [ %fp + -68 ], %o5
    44d4:	80 a3 60 00 	cmp  %o5, 0
    44d8:	02 80 00 0e 	be  4510 <_dtoa_r+0x4cc>
    44dc:	c2 07 bf c0 	ld  [ %fp + -64 ], %g1
    44e0:	d6 07 bf c0 	ld  [ %fp + -64 ], %o3
    44e4:	80 a0 00 01 	cmp  %g0, %g1
    44e8:	9a 1a c0 0d 	xor  %o3, %o5, %o5
    44ec:	82 40 20 00 	addx  %g0, 0, %g1
    44f0:	80 a0 00 0d 	cmp  %g0, %o5
    44f4:	98 40 20 00 	addx  %g0, 0, %o4
    44f8:	80 88 40 0c 	btst  %g1, %o4
    44fc:	12 80 00 12 	bne  4544 <_dtoa_r+0x500>
    4500:	d0 07 a0 44 	ld  [ %fp + 0x44 ], %o0
    4504:	d2 07 bf bc 	ld  [ %fp + -68 ], %o1
    4508:	40 00 07 b8 	call  63e8 <_Bfree>
    450c:	d0 07 a0 44 	ld  [ %fp + 0x44 ], %o0
    4510:	d0 07 a0 44 	ld  [ %fp + 0x44 ], %o0
    4514:	40 00 07 b5 	call  63e8 <_Bfree>
    4518:	d2 07 bf c4 	ld  [ %fp + -60 ], %o1
    451c:	c0 2e 00 00 	clrb  [ %i0 ]
    4520:	d8 07 a0 58 	ld  [ %fp + 0x58 ], %o4
    4524:	da 07 a0 60 	ld  [ %fp + 0x60 ], %o5
    4528:	82 07 60 01 	add  %i5, 1, %g1
    452c:	80 a3 60 00 	cmp  %o5, 0
    4530:	02 80 00 03 	be  453c <_dtoa_r+0x4f8>
    4534:	c2 23 00 00 	st  %g1, [ %o4 ]
    4538:	f0 23 40 00 	st  %i0, [ %o5 ]
    453c:	10 80 03 6c 	b  52ec <_dtoa_r+0x12a8>
    4540:	c2 07 bf b8 	ld  [ %fp + -72 ], %g1
    4544:	40 00 07 a9 	call  63e8 <_Bfree>
    4548:	92 10 00 0b 	mov  %o3, %o1
    454c:	10 bf ff ef 	b  4508 <_dtoa_r+0x4c4>
    4550:	d2 07 bf bc 	ld  [ %fp + -68 ], %o1
    4554:	90 10 00 12 	mov  %l2, %o0
    4558:	40 00 12 b0 	call  9018 <__negdf2>
    455c:	92 10 00 13 	mov  %l3, %o1
    4560:	94 10 00 10 	mov  %l0, %o2
    4564:	40 00 12 02 	call  8d6c <__gtdf2>
    4568:	96 10 00 11 	mov  %l1, %o3
    456c:	80 a2 20 00 	cmp  %o0, 0
    4570:	04 80 00 06 	ble  4588 <_dtoa_r+0x544>
    4574:	d6 07 bf e0 	ld  [ %fp + -32 ], %o3
    4578:	da 07 a0 54 	ld  [ %fp + 0x54 ], %o5
    457c:	10 bf ff d2 	b  44c4 <_dtoa_r+0x480>
    4580:	ba 38 00 0d 	xnor  %g0, %o5, %i5
    4584:	d6 07 bf e0 	ld  [ %fp + -32 ], %o3
    4588:	fa 07 bf d8 	ld  [ %fp + -40 ], %i5
    458c:	f0 07 bf b8 	ld  [ %fp + -72 ], %i0
    4590:	a8 10 00 16 	mov  %l6, %l4
    4594:	aa 10 00 17 	mov  %l7, %l5
    4598:	d6 27 bf e4 	st  %o3, [ %fp + -28 ]
    459c:	d0 07 bf f4 	ld  [ %fp + -12 ], %o0
    45a0:	80 a7 60 0e 	cmp  %i5, 0xe
    45a4:	82 38 00 08 	xnor  %g0, %o0, %g1
    45a8:	98 10 20 01 	mov  1, %o4
    45ac:	04 80 00 03 	ble  45b8 <_dtoa_r+0x574>
    45b0:	83 30 60 1f 	srl  %g1, 0x1f, %g1
    45b4:	98 10 20 00 	clr  %o4
    45b8:	80 88 40 0c 	btst  %g1, %o4
    45bc:	02 80 00 77 	be  4798 <_dtoa_r+0x754>
    45c0:	c2 07 bf d0 	ld  [ %fp + -48 ], %g1
    45c4:	83 2f 60 03 	sll  %i5, 3, %g1
    45c8:	1b 00 00 26 	sethi  %hi(0x9800), %o5
    45cc:	9a 13 63 50 	or  %o5, 0x350, %o5	! 9b50 <__mprec_tens>
    45d0:	98 03 40 01 	add  %o5, %g1, %o4
    45d4:	da 07 bf e4 	ld  [ %fp + -28 ], %o5
    45d8:	c2 07 a0 54 	ld  [ %fp + 0x54 ], %g1
    45dc:	e4 1b 00 00 	ldd  [ %o4 ], %l2
    45e0:	98 03 7f ff 	add  %o5, -1, %o4
    45e4:	98 13 40 0c 	or  %o5, %o4, %o4
    45e8:	80 8b 00 01 	btst  %o4, %g1
    45ec:	16 80 00 13 	bge  4638 <_dtoa_r+0x5f4>
    45f0:	b2 10 20 01 	mov  1, %i1
    45f4:	80 a3 60 00 	cmp  %o5, 0
    45f8:	c0 27 bf bc 	clr  [ %fp + -68 ]
    45fc:	06 bf ff df 	bl  4578 <_dtoa_r+0x534>
    4600:	b4 10 20 00 	clr  %i2
    4604:	19 00 00 26 	sethi  %hi(0x9800), %o4
    4608:	d4 1b 22 e8 	ldd  [ %o4 + 0x2e8 ], %o2	! 9ae8 <zeroes.1+0xe0>
    460c:	90 10 00 12 	mov  %l2, %o0
    4610:	40 00 10 4b 	call  873c <__muldf3>
    4614:	92 10 00 13 	mov  %l3, %o1
    4618:	94 10 00 14 	mov  %l4, %o2
    461c:	40 00 11 ed 	call  8dd0 <__gedf2>
    4620:	96 10 00 15 	mov  %l5, %o3
    4624:	80 a2 20 00 	cmp  %o0, 0
    4628:	16 bf ff d5 	bge  457c <_dtoa_r+0x538>
    462c:	da 07 a0 54 	ld  [ %fp + 0x54 ], %o5
    4630:	10 bf ff a1 	b  44b4 <_dtoa_r+0x470>
    4634:	d6 07 bf b8 	ld  [ %fp + -72 ], %o3
    4638:	94 10 00 12 	mov  %l2, %o2
    463c:	96 10 00 13 	mov  %l3, %o3
    4640:	90 10 00 14 	mov  %l4, %o0
    4644:	40 00 11 1c 	call  8ab4 <__divdf3>
    4648:	92 10 00 15 	mov  %l5, %o1
    464c:	40 00 12 48 	call  8f6c <__fixdfsi>
    4650:	01 00 00 00 	nop 
    4654:	40 00 12 11 	call  8e98 <__floatsidf>
    4658:	b4 10 00 08 	mov  %o0, %i2
    465c:	94 10 00 12 	mov  %l2, %o2
    4660:	40 00 10 37 	call  873c <__muldf3>
    4664:	96 10 00 13 	mov  %l3, %o3
    4668:	94 10 00 08 	mov  %o0, %o2
    466c:	96 10 00 09 	mov  %o1, %o3
    4670:	90 10 00 14 	mov  %l4, %o0
    4674:	40 00 10 1b 	call  86e0 <__subdf3>
    4678:	92 10 00 15 	mov  %l5, %o1
    467c:	da 07 bf e4 	ld  [ %fp + -28 ], %o5
    4680:	82 06 a0 30 	add  %i2, 0x30, %g1
    4684:	80 a6 40 0d 	cmp  %i1, %o5
    4688:	c2 2e 00 00 	stb  %g1, [ %i0 ]
    468c:	02 80 00 13 	be  46d8 <_dtoa_r+0x694>
    4690:	b0 06 20 01 	inc  %i0
    4694:	94 10 00 08 	mov  %o0, %o2
    4698:	96 10 00 09 	mov  %o1, %o3
    469c:	19 00 00 26 	sethi  %hi(0x9800), %o4
    46a0:	d0 1b 22 d8 	ldd  [ %o4 + 0x2d8 ], %o0	! 9ad8 <zeroes.1+0xd0>
    46a4:	40 00 10 26 	call  873c <__muldf3>
    46a8:	b2 06 60 01 	inc  %i1
    46ac:	1b 00 00 26 	sethi  %hi(0x9800), %o5
    46b0:	d4 1b 62 90 	ldd  [ %o5 + 0x290 ], %o2	! 9a90 <zeroes.1+0x88>
    46b4:	98 10 00 08 	mov  %o0, %o4
    46b8:	aa 10 00 09 	mov  %o1, %l5
    46bc:	40 00 11 7a 	call  8ca4 <__eqdf2>
    46c0:	a8 10 00 0c 	mov  %o4, %l4
    46c4:	80 a2 20 00 	cmp  %o0, 0
    46c8:	12 bf ff dd 	bne  463c <_dtoa_r+0x5f8>
    46cc:	94 10 00 12 	mov  %l2, %o2
    46d0:	10 bf ff 91 	b  4514 <_dtoa_r+0x4d0>
    46d4:	d0 07 a0 44 	ld  [ %fp + 0x44 ], %o0
    46d8:	94 10 00 08 	mov  %o0, %o2
    46dc:	40 00 0f ed 	call  8690 <__adddf3>
    46e0:	96 10 00 09 	mov  %o1, %o3
    46e4:	a0 10 00 08 	mov  %o0, %l0
    46e8:	a2 10 00 09 	mov  %o1, %l1
    46ec:	90 10 00 12 	mov  %l2, %o0
    46f0:	92 10 00 13 	mov  %l3, %o1
    46f4:	94 10 00 10 	mov  %l0, %o2
    46f8:	40 00 11 cf 	call  8e34 <__ltdf2>
    46fc:	96 10 00 11 	mov  %l1, %o3
    4700:	80 a2 20 00 	cmp  %o0, 0
    4704:	06 80 00 0c 	bl  4734 <_dtoa_r+0x6f0>
    4708:	90 10 00 12 	mov  %l2, %o0
    470c:	92 10 00 13 	mov  %l3, %o1
    4710:	94 10 00 10 	mov  %l0, %o2
    4714:	40 00 11 64 	call  8ca4 <__eqdf2>
    4718:	96 10 00 11 	mov  %l1, %o3
    471c:	80 a2 20 00 	cmp  %o0, 0
    4720:	12 bf ff 7d 	bne  4514 <_dtoa_r+0x4d0>
    4724:	d0 07 a0 44 	ld  [ %fp + 0x44 ], %o0
    4728:	80 8e a0 01 	btst  1, %i2
    472c:	02 bf ff 7a 	be  4514 <_dtoa_r+0x4d0>
    4730:	01 00 00 00 	nop 
    4734:	b0 06 3f ff 	add  %i0, -1, %i0
    4738:	c2 4e 00 00 	ldsb  [ %i0 ], %g1
    473c:	80 a0 60 39 	cmp  %g1, 0x39
    4740:	02 80 00 06 	be  4758 <_dtoa_r+0x714>
    4744:	da 0e 00 00 	ldub  [ %i0 ], %o5
    4748:	82 03 60 01 	add  %o5, 1, %g1
    474c:	c2 2e 00 00 	stb  %g1, [ %i0 ]
    4750:	10 bf ff 70 	b  4510 <_dtoa_r+0x4cc>
    4754:	b0 06 20 01 	inc  %i0
    4758:	c2 07 bf b8 	ld  [ %fp + -72 ], %g1
    475c:	80 a6 00 01 	cmp  %i0, %g1
    4760:	02 80 00 09 	be  4784 <_dtoa_r+0x740>
    4764:	d6 07 bf b8 	ld  [ %fp + -72 ], %o3
    4768:	b0 06 3f ff 	add  %i0, -1, %i0
    476c:	c2 4e 00 00 	ldsb  [ %i0 ], %g1
    4770:	80 a0 60 39 	cmp  %g1, 0x39
    4774:	02 bf ff f9 	be  4758 <_dtoa_r+0x714>
    4778:	da 0e 00 00 	ldub  [ %i0 ], %o5
    477c:	10 bf ff f4 	b  474c <_dtoa_r+0x708>
    4780:	82 03 60 01 	add  %o5, 1, %g1
    4784:	82 10 20 30 	mov  0x30, %g1
    4788:	ba 07 60 01 	inc  %i5
    478c:	c2 2a c0 00 	stb  %g1, [ %o3 ]
    4790:	10 bf ff ee 	b  4748 <_dtoa_r+0x704>
    4794:	9a 10 20 30 	mov  0x30, %o5
    4798:	e2 07 bf ec 	ld  [ %fp + -20 ], %l1
    479c:	80 a0 60 00 	cmp  %g1, 0
    47a0:	e4 07 bf e8 	ld  [ %fp + -24 ], %l2
    47a4:	c0 27 bf c0 	clr  [ %fp + -64 ]
    47a8:	02 80 00 1d 	be  481c <_dtoa_r+0x7d8>
    47ac:	c0 27 bf bc 	clr  [ %fp + -68 ]
    47b0:	80 a6 e0 01 	cmp  %i3, 1
    47b4:	04 80 01 ac 	ble  4e64 <_dtoa_r+0xe20>
    47b8:	da 07 bf e8 	ld  [ %fp + -24 ], %o5
    47bc:	d8 07 bf e4 	ld  [ %fp + -28 ], %o4
    47c0:	a0 03 3f ff 	add  %o4, -1, %l0
    47c4:	80 a3 40 10 	cmp  %o5, %l0
    47c8:	16 80 00 09 	bge  47ec <_dtoa_r+0x7a8>
    47cc:	a4 23 40 10 	sub  %o5, %l0, %l2
    47d0:	c2 07 bf cc 	ld  [ %fp + -52 ], %g1
    47d4:	a0 24 00 0d 	sub  %l0, %o5, %l0
    47d8:	a4 10 20 00 	clr  %l2
    47dc:	9a 03 40 10 	add  %o5, %l0, %o5
    47e0:	82 00 40 10 	add  %g1, %l0, %g1
    47e4:	da 27 bf e8 	st  %o5, [ %fp + -24 ]
    47e8:	c2 27 bf cc 	st  %g1, [ %fp + -52 ]
    47ec:	f2 07 bf e4 	ld  [ %fp + -28 ], %i1
    47f0:	80 a6 60 00 	cmp  %i1, 0
    47f4:	06 80 01 99 	bl  4e58 <_dtoa_r+0xe14>
    47f8:	d6 07 bf ec 	ld  [ %fp + -20 ], %o3
    47fc:	d0 07 a0 44 	ld  [ %fp + 0x44 ], %o0
    4800:	40 00 07 c1 	call  6704 <_i2b>
    4804:	92 10 20 01 	mov  1, %o1
    4808:	d8 07 bf ec 	ld  [ %fp + -20 ], %o4
    480c:	b8 07 00 19 	add  %i4, %i1, %i4
    4810:	98 03 00 19 	add  %o4, %i1, %o4
    4814:	d0 27 bf bc 	st  %o0, [ %fp + -68 ]
    4818:	d8 27 bf ec 	st  %o4, [ %fp + -20 ]
    481c:	9b 3c 60 1f 	sra  %l1, 0x1f, %o5
    4820:	83 3f 20 1f 	sra  %i4, 0x1f, %g1
    4824:	9a 23 40 11 	sub  %o5, %l1, %o5
    4828:	82 20 40 1c 	sub  %g1, %i4, %g1
    482c:	80 88 40 0d 	btst  %g1, %o5
    4830:	16 80 00 0c 	bge  4860 <_dtoa_r+0x81c>
    4834:	c2 07 bf e8 	ld  [ %fp + -24 ], %g1
    4838:	80 a7 00 11 	cmp  %i4, %l1
    483c:	04 80 00 03 	ble  4848 <_dtoa_r+0x804>
    4840:	b2 10 00 1c 	mov  %i4, %i1
    4844:	b2 10 00 11 	mov  %l1, %i1
    4848:	da 07 bf ec 	ld  [ %fp + -20 ], %o5
    484c:	b8 27 00 19 	sub  %i4, %i1, %i4
    4850:	9a 23 40 19 	sub  %o5, %i1, %o5
    4854:	a2 24 40 19 	sub  %l1, %i1, %l1
    4858:	da 27 bf ec 	st  %o5, [ %fp + -20 ]
    485c:	c2 07 bf e8 	ld  [ %fp + -24 ], %g1
    4860:	80 a0 60 00 	cmp  %g1, 0
    4864:	04 80 00 18 	ble  48c4 <_dtoa_r+0x880>
    4868:	d6 07 bf d0 	ld  [ %fp + -48 ], %o3
    486c:	80 a2 e0 00 	cmp  %o3, 0
    4870:	02 80 01 77 	be  4e4c <_dtoa_r+0xe08>
    4874:	80 a4 a0 00 	cmp  %l2, 0
    4878:	04 80 00 0f 	ble  48b4 <_dtoa_r+0x870>
    487c:	d2 07 bf bc 	ld  [ %fp + -68 ], %o1
    4880:	d0 07 a0 44 	ld  [ %fp + 0x44 ], %o0
    4884:	40 00 08 35 	call  6958 <_pow5mult>
    4888:	94 10 00 12 	mov  %l2, %o2
    488c:	d4 07 bf c4 	ld  [ %fp + -60 ], %o2
    4890:	d0 27 bf bc 	st  %o0, [ %fp + -68 ]
    4894:	d0 07 a0 44 	ld  [ %fp + 0x44 ], %o0
    4898:	40 00 07 a4 	call  6728 <_multiply>
    489c:	d2 07 bf bc 	ld  [ %fp + -68 ], %o1
    48a0:	d2 07 bf c4 	ld  [ %fp + -60 ], %o1
    48a4:	a0 10 00 08 	mov  %o0, %l0
    48a8:	40 00 06 d0 	call  63e8 <_Bfree>
    48ac:	d0 07 a0 44 	ld  [ %fp + 0x44 ], %o0
    48b0:	e0 27 bf c4 	st  %l0, [ %fp + -60 ]
    48b4:	d8 07 bf e8 	ld  [ %fp + -24 ], %o4
    48b8:	a0 a3 00 12 	subcc  %o4, %l2, %l0
    48bc:	12 80 01 5f 	bne  4e38 <_dtoa_r+0xdf4>
    48c0:	d2 07 bf c4 	ld  [ %fp + -60 ], %o1
    48c4:	d0 07 a0 44 	ld  [ %fp + 0x44 ], %o0
    48c8:	40 00 07 8f 	call  6704 <_i2b>
    48cc:	92 10 20 01 	mov  1, %o1
    48d0:	da 07 bf cc 	ld  [ %fp + -52 ], %o5
    48d4:	80 a3 60 00 	cmp  %o5, 0
    48d8:	04 80 00 07 	ble  48f4 <_dtoa_r+0x8b0>
    48dc:	b4 10 00 08 	mov  %o0, %i2
    48e0:	92 10 00 08 	mov  %o0, %o1
    48e4:	d0 07 a0 44 	ld  [ %fp + 0x44 ], %o0
    48e8:	40 00 08 1c 	call  6958 <_pow5mult>
    48ec:	94 10 00 0d 	mov  %o5, %o2
    48f0:	b4 10 00 08 	mov  %o0, %i2
    48f4:	80 a6 e0 01 	cmp  %i3, 1
    48f8:	04 80 01 3f 	ble  4df4 <_dtoa_r+0xdb0>
    48fc:	a0 10 20 00 	clr  %l0
    4900:	d6 07 bf cc 	ld  [ %fp + -52 ], %o3
    4904:	82 07 20 01 	add  %i4, 1, %g1
    4908:	80 a2 e0 00 	cmp  %o3, 0
    490c:	12 80 01 32 	bne  4dd4 <_dtoa_r+0xd90>
    4910:	b2 08 60 1f 	and  %g1, 0x1f, %i1
    4914:	80 a6 60 00 	cmp  %i1, 0
    4918:	02 80 00 05 	be  492c <_dtoa_r+0x8e8>
    491c:	80 a6 60 04 	cmp  %i1, 4
    4920:	82 10 20 20 	mov  0x20, %g1
    4924:	b2 20 40 19 	sub  %g1, %i1, %i1
    4928:	80 a6 60 04 	cmp  %i1, 4
    492c:	04 80 01 22 	ble  4db4 <_dtoa_r+0xd70>
    4930:	80 a6 60 03 	cmp  %i1, 3
    4934:	d8 07 bf ec 	ld  [ %fp + -20 ], %o4
    4938:	b2 06 7f fc 	add  %i1, -4, %i1
    493c:	98 03 00 19 	add  %o4, %i1, %o4
    4940:	b8 07 00 19 	add  %i4, %i1, %i4
    4944:	d8 27 bf ec 	st  %o4, [ %fp + -20 ]
    4948:	a2 04 40 19 	add  %l1, %i1, %l1
    494c:	c2 07 bf ec 	ld  [ %fp + -20 ], %g1
    4950:	80 a0 60 00 	cmp  %g1, 0
    4954:	04 80 00 06 	ble  496c <_dtoa_r+0x928>
    4958:	d2 07 bf c4 	ld  [ %fp + -60 ], %o1
    495c:	d0 07 a0 44 	ld  [ %fp + 0x44 ], %o0
    4960:	40 00 08 3d 	call  6a54 <_lshift>
    4964:	94 10 00 01 	mov  %g1, %o2
    4968:	d0 27 bf c4 	st  %o0, [ %fp + -60 ]
    496c:	80 a7 20 00 	cmp  %i4, 0
    4970:	04 80 00 06 	ble  4988 <_dtoa_r+0x944>
    4974:	d0 07 a0 44 	ld  [ %fp + 0x44 ], %o0
    4978:	92 10 00 1a 	mov  %i2, %o1
    497c:	40 00 08 36 	call  6a54 <_lshift>
    4980:	94 10 00 1c 	mov  %i4, %o2
    4984:	b4 10 00 08 	mov  %o0, %i2
    4988:	d6 07 bf d4 	ld  [ %fp + -44 ], %o3
    498c:	80 a2 e0 00 	cmp  %o3, 0
    4990:	12 80 00 f0 	bne  4d50 <_dtoa_r+0xd0c>
    4994:	d0 07 bf c4 	ld  [ %fp + -60 ], %o0
    4998:	d6 07 bf e4 	ld  [ %fp + -28 ], %o3
    499c:	80 a6 e0 02 	cmp  %i3, 2
    49a0:	82 02 ff ff 	add  %o3, -1, %g1
    49a4:	9a 10 20 01 	mov  1, %o5
    49a8:	82 12 c0 01 	or  %o3, %g1, %g1
    49ac:	14 80 00 03 	bg  49b8 <_dtoa_r+0x974>
    49b0:	83 30 60 1f 	srl  %g1, 0x1f, %g1
    49b4:	9a 10 20 00 	clr  %o5
    49b8:	80 88 40 0d 	btst  %g1, %o5
    49bc:	02 80 00 13 	be  4a08 <_dtoa_r+0x9c4>
    49c0:	d8 07 bf d0 	ld  [ %fp + -48 ], %o4
    49c4:	d8 07 bf e4 	ld  [ %fp + -28 ], %o4
    49c8:	80 a3 20 00 	cmp  %o4, 0
    49cc:	06 bf fe eb 	bl  4578 <_dtoa_r+0x534>
    49d0:	d0 07 a0 44 	ld  [ %fp + 0x44 ], %o0
    49d4:	92 10 00 1a 	mov  %i2, %o1
    49d8:	94 10 20 05 	mov  5, %o2
    49dc:	40 00 06 8e 	call  6414 <_multadd>
    49e0:	96 10 20 00 	clr  %o3
    49e4:	b4 10 00 08 	mov  %o0, %i2
    49e8:	d0 07 bf c4 	ld  [ %fp + -60 ], %o0
    49ec:	40 00 08 58 	call  6b4c <__mcmp>
    49f0:	92 10 00 1a 	mov  %i2, %o1
    49f4:	80 a2 20 00 	cmp  %o0, 0
    49f8:	14 bf fe af 	bg  44b4 <_dtoa_r+0x470>
    49fc:	d6 07 bf b8 	ld  [ %fp + -72 ], %o3
    4a00:	10 bf fe df 	b  457c <_dtoa_r+0x538>
    4a04:	da 07 a0 54 	ld  [ %fp + 0x54 ], %o5
    4a08:	80 a3 20 00 	cmp  %o4, 0
    4a0c:	02 80 00 c0 	be  4d0c <_dtoa_r+0xcc8>
    4a10:	b2 10 20 01 	mov  1, %i1
    4a14:	80 a4 60 00 	cmp  %l1, 0
    4a18:	04 80 00 06 	ble  4a30 <_dtoa_r+0x9ec>
    4a1c:	d2 07 bf bc 	ld  [ %fp + -68 ], %o1
    4a20:	d0 07 a0 44 	ld  [ %fp + 0x44 ], %o0
    4a24:	40 00 08 0c 	call  6a54 <_lshift>
    4a28:	94 10 00 11 	mov  %l1, %o2
    4a2c:	d0 27 bf bc 	st  %o0, [ %fp + -68 ]
    4a30:	da 07 bf bc 	ld  [ %fp + -68 ], %o5
    4a34:	80 a4 20 00 	cmp  %l0, 0
    4a38:	12 80 00 a4 	bne  4cc8 <_dtoa_r+0xc84>
    4a3c:	da 27 bf c0 	st  %o5, [ %fp + -64 ]
    4a40:	b2 10 20 01 	mov  1, %i1
    4a44:	d0 07 bf c4 	ld  [ %fp + -60 ], %o0
    4a48:	7f ff fc f8 	call  3e28 <quorem>
    4a4c:	92 10 00 1a 	mov  %i2, %o1
    4a50:	d2 07 bf c0 	ld  [ %fp + -64 ], %o1
    4a54:	a6 02 20 30 	add  %o0, 0x30, %l3
    4a58:	d0 07 bf c4 	ld  [ %fp + -60 ], %o0
    4a5c:	40 00 08 3c 	call  6b4c <__mcmp>
    4a60:	a4 10 20 01 	mov  1, %l2
    4a64:	d4 07 bf bc 	ld  [ %fp + -68 ], %o2
    4a68:	a0 10 00 08 	mov  %o0, %l0
    4a6c:	d0 07 a0 44 	ld  [ %fp + 0x44 ], %o0
    4a70:	40 00 08 51 	call  6bb4 <__mdiff>
    4a74:	92 10 00 1a 	mov  %i2, %o1
    4a78:	c2 02 20 0c 	ld  [ %o0 + 0xc ], %g1
    4a7c:	80 a0 60 00 	cmp  %g1, 0
    4a80:	02 80 00 8d 	be  4cb4 <_dtoa_r+0xc70>
    4a84:	a2 10 00 08 	mov  %o0, %l1
    4a88:	d0 07 a0 44 	ld  [ %fp + 0x44 ], %o0
    4a8c:	40 00 06 57 	call  63e8 <_Bfree>
    4a90:	92 10 00 11 	mov  %l1, %o1
    4a94:	80 94 80 1b 	orcc  %l2, %i3, %g0
    4a98:	12 80 00 05 	bne  4aac <_dtoa_r+0xa68>
    4a9c:	80 a4 20 00 	cmp  %l0, 0
    4aa0:	80 8d 60 01 	btst  1, %l5
    4aa4:	02 80 00 7d 	be  4c98 <_dtoa_r+0xc54>
    4aa8:	80 a4 20 00 	cmp  %l0, 0
    4aac:	06 80 00 62 	bl  4c34 <_dtoa_r+0xbf0>
    4ab0:	80 94 00 1b 	orcc  %l0, %i3, %g0
    4ab4:	12 80 00 05 	bne  4ac8 <_dtoa_r+0xa84>
    4ab8:	80 a4 a0 00 	cmp  %l2, 0
    4abc:	80 8d 60 01 	btst  1, %l5
    4ac0:	02 80 00 5d 	be  4c34 <_dtoa_r+0xbf0>
    4ac4:	80 a4 a0 00 	cmp  %l2, 0
    4ac8:	14 80 00 55 	bg  4c1c <_dtoa_r+0xbd8>
    4acc:	80 a4 e0 39 	cmp  %l3, 0x39
    4ad0:	e6 2e 00 00 	stb  %l3, [ %i0 ]
    4ad4:	d6 07 bf e4 	ld  [ %fp + -28 ], %o3
    4ad8:	80 a6 40 0b 	cmp  %i1, %o3
    4adc:	02 80 00 22 	be  4b64 <_dtoa_r+0xb20>
    4ae0:	b0 06 20 01 	inc  %i0
    4ae4:	d2 07 bf c4 	ld  [ %fp + -60 ], %o1
    4ae8:	d0 07 a0 44 	ld  [ %fp + 0x44 ], %o0
    4aec:	94 10 20 0a 	mov  0xa, %o2
    4af0:	40 00 06 49 	call  6414 <_multadd>
    4af4:	96 10 20 00 	clr  %o3
    4af8:	d8 07 bf c0 	ld  [ %fp + -64 ], %o4
    4afc:	da 07 bf bc 	ld  [ %fp + -68 ], %o5
    4b00:	80 a3 00 0d 	cmp  %o4, %o5
    4b04:	02 80 00 10 	be  4b44 <_dtoa_r+0xb00>
    4b08:	d0 27 bf c4 	st  %o0, [ %fp + -60 ]
    4b0c:	d2 07 bf c0 	ld  [ %fp + -64 ], %o1
    4b10:	d0 07 a0 44 	ld  [ %fp + 0x44 ], %o0
    4b14:	94 10 20 0a 	mov  0xa, %o2
    4b18:	40 00 06 3f 	call  6414 <_multadd>
    4b1c:	96 10 20 00 	clr  %o3
    4b20:	d2 07 bf bc 	ld  [ %fp + -68 ], %o1
    4b24:	d0 27 bf c0 	st  %o0, [ %fp + -64 ]
    4b28:	d0 07 a0 44 	ld  [ %fp + 0x44 ], %o0
    4b2c:	94 10 20 0a 	mov  0xa, %o2
    4b30:	40 00 06 39 	call  6414 <_multadd>
    4b34:	96 10 20 00 	clr  %o3
    4b38:	d0 27 bf bc 	st  %o0, [ %fp + -68 ]
    4b3c:	10 bf ff c2 	b  4a44 <_dtoa_r+0xa00>
    4b40:	b2 06 60 01 	inc  %i1
    4b44:	d0 07 a0 44 	ld  [ %fp + 0x44 ], %o0
    4b48:	92 10 00 0d 	mov  %o5, %o1
    4b4c:	94 10 20 0a 	mov  0xa, %o2
    4b50:	40 00 06 31 	call  6414 <_multadd>
    4b54:	96 10 20 00 	clr  %o3
    4b58:	d0 27 bf bc 	st  %o0, [ %fp + -68 ]
    4b5c:	10 bf ff f8 	b  4b3c <_dtoa_r+0xaf8>
    4b60:	d0 27 bf c0 	st  %o0, [ %fp + -64 ]
    4b64:	d2 07 bf c4 	ld  [ %fp + -60 ], %o1
    4b68:	d0 07 a0 44 	ld  [ %fp + 0x44 ], %o0
    4b6c:	40 00 07 ba 	call  6a54 <_lshift>
    4b70:	94 10 20 01 	mov  1, %o2
    4b74:	92 10 00 1a 	mov  %i2, %o1
    4b78:	40 00 07 f5 	call  6b4c <__mcmp>
    4b7c:	d0 27 bf c4 	st  %o0, [ %fp + -60 ]
    4b80:	a0 92 20 00 	orcc  %o0, 0, %l0
    4b84:	04 80 00 1b 	ble  4bf0 <_dtoa_r+0xbac>
    4b88:	80 a4 20 00 	cmp  %l0, 0
    4b8c:	b0 06 3f ff 	add  %i0, -1, %i0
    4b90:	c2 4e 00 00 	ldsb  [ %i0 ], %g1
    4b94:	80 a0 60 39 	cmp  %g1, 0x39
    4b98:	02 80 00 06 	be  4bb0 <_dtoa_r+0xb6c>
    4b9c:	da 0e 00 00 	ldub  [ %i0 ], %o5
    4ba0:	82 03 60 01 	add  %o5, 1, %g1
    4ba4:	c2 2e 00 00 	stb  %g1, [ %i0 ]
    4ba8:	10 bf fe 47 	b  44c4 <_dtoa_r+0x480>
    4bac:	b0 06 20 01 	inc  %i0
    4bb0:	d6 07 bf b8 	ld  [ %fp + -72 ], %o3
    4bb4:	80 a6 00 0b 	cmp  %i0, %o3
    4bb8:	02 80 00 09 	be  4bdc <_dtoa_r+0xb98>
    4bbc:	d8 07 bf b8 	ld  [ %fp + -72 ], %o4
    4bc0:	b0 06 3f ff 	add  %i0, -1, %i0
    4bc4:	c2 4e 00 00 	ldsb  [ %i0 ], %g1
    4bc8:	80 a0 60 39 	cmp  %g1, 0x39
    4bcc:	02 bf ff fa 	be  4bb4 <_dtoa_r+0xb70>
    4bd0:	da 0e 00 00 	ldub  [ %i0 ], %o5
    4bd4:	10 bf ff f4 	b  4ba4 <_dtoa_r+0xb60>
    4bd8:	82 03 60 01 	add  %o5, 1, %g1
    4bdc:	82 10 20 31 	mov  0x31, %g1
    4be0:	ba 07 60 01 	inc  %i5
    4be4:	c2 2b 00 00 	stb  %g1, [ %o4 ]
    4be8:	10 bf fe 37 	b  44c4 <_dtoa_r+0x480>
    4bec:	b0 03 20 01 	add  %o4, 1, %i0
    4bf0:	12 80 00 05 	bne  4c04 <_dtoa_r+0xbc0>
    4bf4:	b0 06 3f ff 	add  %i0, -1, %i0
    4bf8:	80 8c e0 01 	btst  1, %l3
    4bfc:	12 bf ff e5 	bne  4b90 <_dtoa_r+0xb4c>
    4c00:	01 00 00 00 	nop 
    4c04:	c2 4e 00 00 	ldsb  [ %i0 ], %g1
    4c08:	80 a0 60 30 	cmp  %g1, 0x30
    4c0c:	22 bf ff fe 	be,a   4c04 <_dtoa_r+0xbc0>
    4c10:	b0 06 3f ff 	add  %i0, -1, %i0
    4c14:	10 bf fe 2c 	b  44c4 <_dtoa_r+0x480>
    4c18:	b0 06 20 01 	inc  %i0
    4c1c:	12 bf ff e2 	bne  4ba4 <_dtoa_r+0xb60>
    4c20:	82 04 e0 01 	add  %l3, 1, %g1
    4c24:	82 10 20 39 	mov  0x39, %g1
    4c28:	c2 2e 00 00 	stb  %g1, [ %i0 ]
    4c2c:	10 bf ff d8 	b  4b8c <_dtoa_r+0xb48>
    4c30:	b0 06 20 01 	inc  %i0
    4c34:	80 a4 a0 00 	cmp  %l2, 0
    4c38:	04 80 00 0f 	ble  4c74 <_dtoa_r+0xc30>
    4c3c:	d2 07 bf c4 	ld  [ %fp + -60 ], %o1
    4c40:	d0 07 a0 44 	ld  [ %fp + 0x44 ], %o0
    4c44:	40 00 07 84 	call  6a54 <_lshift>
    4c48:	94 10 20 01 	mov  1, %o2
    4c4c:	92 10 00 1a 	mov  %i2, %o1
    4c50:	40 00 07 bf 	call  6b4c <__mcmp>
    4c54:	d0 27 bf c4 	st  %o0, [ %fp + -60 ]
    4c58:	a4 92 20 00 	orcc  %o0, 0, %l2
    4c5c:	04 80 00 08 	ble  4c7c <_dtoa_r+0xc38>
    4c60:	80 a4 a0 00 	cmp  %l2, 0
    4c64:	a6 04 e0 01 	inc  %l3
    4c68:	80 a4 e0 3a 	cmp  %l3, 0x3a
    4c6c:	02 bf ff ef 	be  4c28 <_dtoa_r+0xbe4>
    4c70:	82 10 20 39 	mov  0x39, %g1
    4c74:	10 bf ff cd 	b  4ba8 <_dtoa_r+0xb64>
    4c78:	e6 2e 00 00 	stb  %l3, [ %i0 ]
    4c7c:	32 bf ff cb 	bne,a   4ba8 <_dtoa_r+0xb64>
    4c80:	e6 2e 00 00 	stb  %l3, [ %i0 ]
    4c84:	80 8c e0 01 	btst  1, %l3
    4c88:	22 bf ff c8 	be,a   4ba8 <_dtoa_r+0xb64>
    4c8c:	e6 2e 00 00 	stb  %l3, [ %i0 ]
    4c90:	10 bf ff f6 	b  4c68 <_dtoa_r+0xc24>
    4c94:	a6 04 e0 01 	inc  %l3
    4c98:	80 a4 e0 39 	cmp  %l3, 0x39
    4c9c:	02 bf ff e2 	be  4c24 <_dtoa_r+0xbe0>
    4ca0:	83 3c 20 1f 	sra  %l0, 0x1f, %g1
    4ca4:	82 20 40 10 	sub  %g1, %l0, %g1
    4ca8:	83 30 60 1f 	srl  %g1, 0x1f, %g1
    4cac:	10 bf ff f2 	b  4c74 <_dtoa_r+0xc30>
    4cb0:	a6 04 c0 01 	add  %l3, %g1, %l3
    4cb4:	d0 07 bf c4 	ld  [ %fp + -60 ], %o0
    4cb8:	40 00 07 a5 	call  6b4c <__mcmp>
    4cbc:	92 10 00 11 	mov  %l1, %o1
    4cc0:	10 bf ff 72 	b  4a88 <_dtoa_r+0xa44>
    4cc4:	a4 10 00 08 	mov  %o0, %l2
    4cc8:	d2 03 60 04 	ld  [ %o5 + 4 ], %o1
    4ccc:	40 00 05 9f 	call  6348 <_Balloc>
    4cd0:	d0 07 a0 44 	ld  [ %fp + 0x44 ], %o0
    4cd4:	c2 07 bf c0 	ld  [ %fp + -64 ], %g1
    4cd8:	d0 27 bf bc 	st  %o0, [ %fp + -68 ]
    4cdc:	d4 00 60 10 	ld  [ %g1 + 0x10 ], %o2
    4ce0:	92 00 60 0c 	add  %g1, 0xc, %o1
    4ce4:	90 02 20 0c 	add  %o0, 0xc, %o0
    4ce8:	95 2a a0 02 	sll  %o2, 2, %o2
    4cec:	40 00 05 1d 	call  6160 <memcpy>
    4cf0:	94 02 a0 08 	add  %o2, 8, %o2
    4cf4:	d0 07 a0 44 	ld  [ %fp + 0x44 ], %o0
    4cf8:	d2 07 bf bc 	ld  [ %fp + -68 ], %o1
    4cfc:	40 00 07 56 	call  6a54 <_lshift>
    4d00:	94 10 20 01 	mov  1, %o2
    4d04:	10 bf ff 4f 	b  4a40 <_dtoa_r+0x9fc>
    4d08:	d0 27 bf bc 	st  %o0, [ %fp + -68 ]
    4d0c:	d0 07 bf c4 	ld  [ %fp + -60 ], %o0
    4d10:	7f ff fc 46 	call  3e28 <quorem>
    4d14:	92 10 00 1a 	mov  %i2, %o1
    4d18:	c2 07 bf e4 	ld  [ %fp + -28 ], %g1
    4d1c:	a6 02 20 30 	add  %o0, 0x30, %l3
    4d20:	80 a6 40 01 	cmp  %i1, %g1
    4d24:	e6 2e 00 00 	stb  %l3, [ %i0 ]
    4d28:	16 bf ff 8f 	bge  4b64 <_dtoa_r+0xb20>
    4d2c:	b0 06 20 01 	inc  %i0
    4d30:	d2 07 bf c4 	ld  [ %fp + -60 ], %o1
    4d34:	d0 07 a0 44 	ld  [ %fp + 0x44 ], %o0
    4d38:	94 10 20 0a 	mov  0xa, %o2
    4d3c:	96 10 20 00 	clr  %o3
    4d40:	40 00 05 b5 	call  6414 <_multadd>
    4d44:	b2 06 60 01 	inc  %i1
    4d48:	10 bf ff f1 	b  4d0c <_dtoa_r+0xcc8>
    4d4c:	d0 27 bf c4 	st  %o0, [ %fp + -60 ]
    4d50:	40 00 07 7f 	call  6b4c <__mcmp>
    4d54:	92 10 00 1a 	mov  %i2, %o1
    4d58:	80 a2 20 00 	cmp  %o0, 0
    4d5c:	16 bf ff 10 	bge  499c <_dtoa_r+0x958>
    4d60:	d6 07 bf e4 	ld  [ %fp + -28 ], %o3
    4d64:	d2 07 bf c4 	ld  [ %fp + -60 ], %o1
    4d68:	d0 07 a0 44 	ld  [ %fp + 0x44 ], %o0
    4d6c:	94 10 20 0a 	mov  0xa, %o2
    4d70:	40 00 05 a9 	call  6414 <_multadd>
    4d74:	96 10 20 00 	clr  %o3
    4d78:	d8 07 bf d0 	ld  [ %fp + -48 ], %o4
    4d7c:	d0 27 bf c4 	st  %o0, [ %fp + -60 ]
    4d80:	80 a3 20 00 	cmp  %o4, 0
    4d84:	12 80 00 05 	bne  4d98 <_dtoa_r+0xd54>
    4d88:	ba 07 7f ff 	add  %i5, -1, %i5
    4d8c:	da 07 bf dc 	ld  [ %fp + -36 ], %o5
    4d90:	10 bf ff 02 	b  4998 <_dtoa_r+0x954>
    4d94:	da 27 bf e4 	st  %o5, [ %fp + -28 ]
    4d98:	d2 07 bf bc 	ld  [ %fp + -68 ], %o1
    4d9c:	d0 07 a0 44 	ld  [ %fp + 0x44 ], %o0
    4da0:	94 10 20 0a 	mov  0xa, %o2
    4da4:	40 00 05 9c 	call  6414 <_multadd>
    4da8:	96 10 20 00 	clr  %o3
    4dac:	10 bf ff f8 	b  4d8c <_dtoa_r+0xd48>
    4db0:	d0 27 bf bc 	st  %o0, [ %fp + -68 ]
    4db4:	14 bf fe e7 	bg  4950 <_dtoa_r+0x90c>
    4db8:	c2 07 bf ec 	ld  [ %fp + -20 ], %g1
    4dbc:	da 07 bf ec 	ld  [ %fp + -20 ], %o5
    4dc0:	b2 06 60 1c 	add  %i1, 0x1c, %i1
    4dc4:	9a 03 40 19 	add  %o5, %i1, %o5
    4dc8:	b8 07 00 19 	add  %i4, %i1, %i4
    4dcc:	10 bf fe df 	b  4948 <_dtoa_r+0x904>
    4dd0:	da 27 bf ec 	st  %o5, [ %fp + -20 ]
    4dd4:	c2 06 a0 10 	ld  [ %i2 + 0x10 ], %g1
    4dd8:	83 28 60 02 	sll  %g1, 2, %g1
    4ddc:	82 00 40 1a 	add  %g1, %i2, %g1
    4de0:	40 00 05 f7 	call  65bc <_hi0bits>
    4de4:	d0 00 60 10 	ld  [ %g1 + 0x10 ], %o0
    4de8:	90 27 00 08 	sub  %i4, %o0, %o0
    4dec:	10 bf fe ca 	b  4914 <_dtoa_r+0x8d0>
    4df0:	b2 0a 20 1f 	and  %o0, 0x1f, %i1
    4df4:	80 a5 60 00 	cmp  %l5, 0
    4df8:	12 bf fe c3 	bne  4904 <_dtoa_r+0x8c0>
    4dfc:	d6 07 bf cc 	ld  [ %fp + -52 ], %o3
    4e00:	03 3f fc 00 	sethi  %hi(0xfff00000), %g1
    4e04:	80 ad 00 01 	andncc  %l4, %g1, %g0
    4e08:	12 bf fe c0 	bne  4908 <_dtoa_r+0x8c4>
    4e0c:	82 07 20 01 	add  %i4, 1, %g1
    4e10:	03 1f fc 00 	sethi  %hi(0x7ff00000), %g1
    4e14:	80 88 40 14 	btst  %g1, %l4
    4e18:	02 bf fe bc 	be  4908 <_dtoa_r+0x8c4>
    4e1c:	82 07 20 01 	add  %i4, 1, %g1
    4e20:	c2 07 bf ec 	ld  [ %fp + -20 ], %g1
    4e24:	b8 07 20 01 	inc  %i4
    4e28:	82 00 60 01 	inc  %g1
    4e2c:	a0 10 20 01 	mov  1, %l0
    4e30:	10 bf fe b4 	b  4900 <_dtoa_r+0x8bc>
    4e34:	c2 27 bf ec 	st  %g1, [ %fp + -20 ]
    4e38:	94 10 00 10 	mov  %l0, %o2
    4e3c:	40 00 06 c7 	call  6958 <_pow5mult>
    4e40:	d0 07 a0 44 	ld  [ %fp + 0x44 ], %o0
    4e44:	10 bf fe a0 	b  48c4 <_dtoa_r+0x880>
    4e48:	d0 27 bf c4 	st  %o0, [ %fp + -60 ]
    4e4c:	d2 07 bf c4 	ld  [ %fp + -60 ], %o1
    4e50:	10 bf ff fb 	b  4e3c <_dtoa_r+0xdf8>
    4e54:	d4 07 bf e8 	ld  [ %fp + -24 ], %o2
    4e58:	a2 22 c0 19 	sub  %o3, %i1, %l1
    4e5c:	10 bf fe 68 	b  47fc <_dtoa_r+0x7b8>
    4e60:	b2 10 20 00 	clr  %i1
    4e64:	d6 07 bf c8 	ld  [ %fp + -56 ], %o3
    4e68:	80 a2 e0 00 	cmp  %o3, 0
    4e6c:	12 bf fe 64 	bne  47fc <_dtoa_r+0x7b8>
    4e70:	b2 02 24 33 	add  %o0, 0x433, %i1
    4e74:	c2 07 bf f0 	ld  [ %fp + -16 ], %g1
    4e78:	9a 10 20 36 	mov  0x36, %o5
    4e7c:	10 bf fe 60 	b  47fc <_dtoa_r+0x7b8>
    4e80:	b2 23 40 01 	sub  %o5, %g1, %i1
    4e84:	d6 07 bf d0 	ld  [ %fp + -48 ], %o3
    4e88:	80 a2 e0 00 	cmp  %o3, 0
    4e8c:	02 80 00 42 	be  4f94 <_dtoa_r+0xf50>
    4e90:	c2 07 bf e4 	ld  [ %fp + -28 ], %g1
    4e94:	d8 07 bf e4 	ld  [ %fp + -28 ], %o4
    4e98:	03 00 00 26 	sethi  %hi(0x9800), %g1
    4e9c:	9b 2b 20 03 	sll  %o4, 3, %o5
    4ea0:	82 10 63 50 	or  %g1, 0x350, %g1
    4ea4:	9a 03 40 01 	add  %o5, %g1, %o5
    4ea8:	d4 1b 7f f8 	ldd  [ %o5 + -8 ], %o2
    4eac:	1b 00 00 26 	sethi  %hi(0x9800), %o5
    4eb0:	d0 1b 62 f0 	ldd  [ %o5 + 0x2f0 ], %o0	! 9af0 <zeroes.1+0xe8>
    4eb4:	40 00 0f 00 	call  8ab4 <__divdf3>
    4eb8:	b2 10 20 00 	clr  %i1
    4ebc:	94 10 00 12 	mov  %l2, %o2
    4ec0:	40 00 0e 08 	call  86e0 <__subdf3>
    4ec4:	96 10 00 13 	mov  %l3, %o3
    4ec8:	a4 10 00 08 	mov  %o0, %l2
    4ecc:	a6 10 00 09 	mov  %o1, %l3
    4ed0:	92 10 00 15 	mov  %l5, %o1
    4ed4:	40 00 10 26 	call  8f6c <__fixdfsi>
    4ed8:	90 10 00 14 	mov  %l4, %o0
    4edc:	40 00 0f ef 	call  8e98 <__floatsidf>
    4ee0:	b4 10 00 08 	mov  %o0, %i2
    4ee4:	94 10 00 08 	mov  %o0, %o2
    4ee8:	96 10 00 09 	mov  %o1, %o3
    4eec:	90 10 00 14 	mov  %l4, %o0
    4ef0:	40 00 0d fc 	call  86e0 <__subdf3>
    4ef4:	92 10 00 15 	mov  %l5, %o1
    4ef8:	82 06 a0 30 	add  %i2, 0x30, %g1
    4efc:	a0 10 00 08 	mov  %o0, %l0
    4f00:	c2 2e 00 00 	stb  %g1, [ %i0 ]
    4f04:	a2 10 00 09 	mov  %o1, %l1
    4f08:	94 10 00 12 	mov  %l2, %o2
    4f0c:	96 10 00 13 	mov  %l3, %o3
    4f10:	40 00 0f c9 	call  8e34 <__ltdf2>
    4f14:	b0 06 20 01 	inc  %i0
    4f18:	80 a2 20 00 	cmp  %o0, 0
    4f1c:	06 bf fd 7d 	bl  4510 <_dtoa_r+0x4cc>
    4f20:	03 00 00 26 	sethi  %hi(0x9800), %g1
    4f24:	d0 18 62 d0 	ldd  [ %g1 + 0x2d0 ], %o0	! 9ad0 <zeroes.1+0xc8>
    4f28:	94 10 00 10 	mov  %l0, %o2
    4f2c:	40 00 0d ed 	call  86e0 <__subdf3>
    4f30:	96 10 00 11 	mov  %l1, %o3
    4f34:	94 10 00 12 	mov  %l2, %o2
    4f38:	40 00 0f bf 	call  8e34 <__ltdf2>
    4f3c:	96 10 00 13 	mov  %l3, %o3
    4f40:	80 a2 20 00 	cmp  %o0, 0
    4f44:	06 bf fd fc 	bl  4734 <_dtoa_r+0x6f0>
    4f48:	b2 06 60 01 	inc  %i1
    4f4c:	d6 07 bf e4 	ld  [ %fp + -28 ], %o3
    4f50:	80 a6 40 0b 	cmp  %i1, %o3
    4f54:	16 bf fd 8c 	bge  4584 <_dtoa_r+0x540>
    4f58:	19 00 00 26 	sethi  %hi(0x9800), %o4
    4f5c:	d0 1b 22 d8 	ldd  [ %o4 + 0x2d8 ], %o0	! 9ad8 <zeroes.1+0xd0>
    4f60:	94 10 00 12 	mov  %l2, %o2
    4f64:	40 00 0d f6 	call  873c <__muldf3>
    4f68:	96 10 00 13 	mov  %l3, %o3
    4f6c:	1b 00 00 26 	sethi  %hi(0x9800), %o5
    4f70:	a4 10 00 08 	mov  %o0, %l2
    4f74:	a6 10 00 09 	mov  %o1, %l3
    4f78:	d0 1b 62 d8 	ldd  [ %o5 + 0x2d8 ], %o0
    4f7c:	94 10 00 10 	mov  %l0, %o2
    4f80:	40 00 0d ef 	call  873c <__muldf3>
    4f84:	96 10 00 11 	mov  %l1, %o3
    4f88:	a8 10 00 08 	mov  %o0, %l4
    4f8c:	10 bf ff d1 	b  4ed0 <_dtoa_r+0xe8c>
    4f90:	aa 10 00 09 	mov  %o1, %l5
    4f94:	96 10 00 09 	mov  %o1, %o3
    4f98:	9b 28 60 03 	sll  %g1, 3, %o5
    4f9c:	03 00 00 26 	sethi  %hi(0x9800), %g1
    4fa0:	82 10 63 50 	or  %g1, 0x350, %g1	! 9b50 <__mprec_tens>
    4fa4:	9a 03 40 01 	add  %o5, %g1, %o5
    4fa8:	d0 1b 7f f8 	ldd  [ %o5 + -8 ], %o0
    4fac:	94 10 00 12 	mov  %l2, %o2
    4fb0:	40 00 0d e3 	call  873c <__muldf3>
    4fb4:	b2 10 20 01 	mov  1, %i1
    4fb8:	a4 10 00 08 	mov  %o0, %l2
    4fbc:	a6 10 00 09 	mov  %o1, %l3
    4fc0:	92 10 00 15 	mov  %l5, %o1
    4fc4:	40 00 0f ea 	call  8f6c <__fixdfsi>
    4fc8:	90 10 00 14 	mov  %l4, %o0
    4fcc:	40 00 0f b3 	call  8e98 <__floatsidf>
    4fd0:	b4 10 00 08 	mov  %o0, %i2
    4fd4:	96 10 00 09 	mov  %o1, %o3
    4fd8:	94 10 00 08 	mov  %o0, %o2
    4fdc:	92 10 00 15 	mov  %l5, %o1
    4fe0:	40 00 0d c0 	call  86e0 <__subdf3>
    4fe4:	90 10 00 14 	mov  %l4, %o0
    4fe8:	d6 07 bf e4 	ld  [ %fp + -28 ], %o3
    4fec:	82 06 a0 30 	add  %i2, 0x30, %g1
    4ff0:	a0 10 00 08 	mov  %o0, %l0
    4ff4:	c2 2e 00 00 	stb  %g1, [ %i0 ]
    4ff8:	a2 10 00 09 	mov  %o1, %l1
    4ffc:	80 a6 40 0b 	cmp  %i1, %o3
    5000:	02 80 00 0b 	be  502c <_dtoa_r+0xfe8>
    5004:	b0 06 20 01 	inc  %i0
    5008:	96 10 00 09 	mov  %o1, %o3
    500c:	03 00 00 26 	sethi  %hi(0x9800), %g1
    5010:	d0 18 62 d8 	ldd  [ %g1 + 0x2d8 ], %o0	! 9ad8 <zeroes.1+0xd0>
    5014:	94 10 00 10 	mov  %l0, %o2
    5018:	40 00 0d c9 	call  873c <__muldf3>
    501c:	b2 06 60 01 	inc  %i1
    5020:	a8 10 00 08 	mov  %o0, %l4
    5024:	10 bf ff e7 	b  4fc0 <_dtoa_r+0xf7c>
    5028:	aa 10 00 09 	mov  %o1, %l5
    502c:	19 00 00 26 	sethi  %hi(0x9800), %o4
    5030:	d0 1b 22 f0 	ldd  [ %o4 + 0x2f0 ], %o0	! 9af0 <zeroes.1+0xe8>
    5034:	94 10 00 12 	mov  %l2, %o2
    5038:	40 00 0d 96 	call  8690 <__adddf3>
    503c:	96 10 00 13 	mov  %l3, %o3
    5040:	94 10 00 10 	mov  %l0, %o2
    5044:	40 00 0f 7c 	call  8e34 <__ltdf2>
    5048:	96 10 00 11 	mov  %l1, %o3
    504c:	80 a2 20 00 	cmp  %o0, 0
    5050:	06 bf fd b9 	bl  4734 <_dtoa_r+0x6f0>
    5054:	1b 00 00 26 	sethi  %hi(0x9800), %o5
    5058:	d0 1b 62 f0 	ldd  [ %o5 + 0x2f0 ], %o0	! 9af0 <zeroes.1+0xe8>
    505c:	94 10 00 12 	mov  %l2, %o2
    5060:	40 00 0d a0 	call  86e0 <__subdf3>
    5064:	96 10 00 13 	mov  %l3, %o3
    5068:	94 10 00 10 	mov  %l0, %o2
    506c:	40 00 0f 40 	call  8d6c <__gtdf2>
    5070:	96 10 00 11 	mov  %l1, %o3
    5074:	80 a2 20 00 	cmp  %o0, 0
    5078:	24 bf fd 44 	ble,a   4588 <_dtoa_r+0x544>
    507c:	d6 07 bf e0 	ld  [ %fp + -32 ], %o3
    5080:	b0 06 3f ff 	add  %i0, -1, %i0
    5084:	c2 4e 00 00 	ldsb  [ %i0 ], %g1
    5088:	80 a0 60 30 	cmp  %g1, 0x30
    508c:	22 bf ff fe 	be,a   5084 <_dtoa_r+0x1040>
    5090:	b0 06 3f ff 	add  %i0, -1, %i0
    5094:	10 bf fd 1f 	b  4510 <_dtoa_r+0x4cc>
    5098:	b0 06 20 01 	inc  %i0
    509c:	10 bf fc d4 	b  43ec <_dtoa_r+0x3a8>
    50a0:	9a 10 20 01 	mov  1, %o5
    50a4:	a4 a0 00 1d 	subcc  %g0, %i5, %l2
    50a8:	02 bf fc c7 	be  43c4 <_dtoa_r+0x380>
    50ac:	c2 07 bf d4 	ld  [ %fp + -44 ], %g1
    50b0:	9a 0c a0 0f 	and  %l2, 0xf, %o5
    50b4:	03 00 00 26 	sethi  %hi(0x9800), %g1
    50b8:	9b 2b 60 03 	sll  %o5, 3, %o5
    50bc:	82 10 63 50 	or  %g1, 0x350, %g1
    50c0:	98 00 40 0d 	add  %g1, %o5, %o4
    50c4:	d0 1b 00 00 	ldd  [ %o4 ], %o0
    50c8:	94 10 00 14 	mov  %l4, %o2
    50cc:	40 00 0d 9c 	call  873c <__muldf3>
    50d0:	96 10 00 15 	mov  %l5, %o3
    50d4:	a1 3c a0 04 	sra  %l2, 4, %l0
    50d8:	a8 10 00 08 	mov  %o0, %l4
    50dc:	80 a4 20 00 	cmp  %l0, 0
    50e0:	02 bf fc b8 	be  43c0 <_dtoa_r+0x37c>
    50e4:	aa 10 00 09 	mov  %o1, %l5
    50e8:	03 00 00 27 	sethi  %hi(0x9c00), %g1
    50ec:	a4 10 60 18 	or  %g1, 0x18, %l2	! 9c18 <__mprec_bigtens>
    50f0:	80 8c 20 01 	btst  1, %l0
    50f4:	22 80 00 0c 	be,a   5124 <_dtoa_r+0x10e0>
    50f8:	a1 3c 20 01 	sra  %l0, 1, %l0
    50fc:	83 2e 60 03 	sll  %i1, 3, %g1
    5100:	9a 04 80 01 	add  %l2, %g1, %o5
    5104:	d0 1b 40 00 	ldd  [ %o5 ], %o0
    5108:	94 10 00 14 	mov  %l4, %o2
    510c:	96 10 00 15 	mov  %l5, %o3
    5110:	40 00 0d 8b 	call  873c <__muldf3>
    5114:	a2 04 60 01 	inc  %l1
    5118:	a8 10 00 08 	mov  %o0, %l4
    511c:	aa 10 00 09 	mov  %o1, %l5
    5120:	a1 3c 20 01 	sra  %l0, 1, %l0
    5124:	80 a4 20 00 	cmp  %l0, 0
    5128:	12 bf ff f2 	bne  50f0 <_dtoa_r+0x10ac>
    512c:	b2 06 60 01 	inc  %i1
    5130:	10 bf fc a5 	b  43c4 <_dtoa_r+0x380>
    5134:	c2 07 bf d4 	ld  [ %fp + -44 ], %g1
    5138:	c0 27 bf d0 	clr  [ %fp + -48 ]
    513c:	d8 07 a0 54 	ld  [ %fp + 0x54 ], %o4
    5140:	80 a3 20 00 	cmp  %o4, 0
    5144:	04 80 00 06 	ble  515c <_dtoa_r+0x1118>
    5148:	9a 10 20 01 	mov  1, %o5
    514c:	f2 07 a0 54 	ld  [ %fp + 0x54 ], %i1
    5150:	f2 27 bf dc 	st  %i1, [ %fp + -36 ]
    5154:	10 bf fc 4c 	b  4284 <_dtoa_r+0x240>
    5158:	f2 27 bf e4 	st  %i1, [ %fp + -28 ]
    515c:	10 bf ff fc 	b  514c <_dtoa_r+0x1108>
    5160:	da 27 a0 54 	st  %o5, [ %fp + 0x54 ]
    5164:	c0 27 bf d0 	clr  [ %fp + -48 ]
    5168:	d6 07 a0 54 	ld  [ %fp + 0x54 ], %o3
    516c:	82 02 c0 1d 	add  %o3, %i5, %g1
    5170:	b2 00 60 01 	add  %g1, 1, %i1
    5174:	c2 27 bf dc 	st  %g1, [ %fp + -36 ]
    5178:	80 a6 60 00 	cmp  %i1, 0
    517c:	14 bf fc 42 	bg  4284 <_dtoa_r+0x240>
    5180:	f2 27 bf e4 	st  %i1, [ %fp + -28 ]
    5184:	10 bf fc 40 	b  4284 <_dtoa_r+0x240>
    5188:	b2 10 20 01 	mov  1, %i1
    518c:	9a 20 00 1d 	neg  %i5, %o5
    5190:	98 23 00 1d 	sub  %o4, %i5, %o4
    5194:	da 27 bf e8 	st  %o5, [ %fp + -24 ]
    5198:	d8 27 bf ec 	st  %o4, [ %fp + -20 ]
    519c:	10 bf fc 23 	b  4228 <_dtoa_r+0x1e4>
    51a0:	c0 27 bf cc 	clr  [ %fp + -52 ]
    51a4:	b8 10 20 00 	clr  %i4
    51a8:	10 bf fc 1a 	b  4210 <_dtoa_r+0x1cc>
    51ac:	e0 27 bf ec 	st  %l0, [ %fp + -20 ]
    51b0:	40 00 0f 3a 	call  8e98 <__floatsidf>
    51b4:	90 10 00 1d 	mov  %i5, %o0
    51b8:	94 10 00 08 	mov  %o0, %o2
    51bc:	96 10 00 09 	mov  %o1, %o3
    51c0:	90 10 00 12 	mov  %l2, %o0
    51c4:	40 00 0e d1 	call  8d08 <__nedf2>
    51c8:	92 10 00 13 	mov  %l3, %o1
    51cc:	80 a0 00 08 	cmp  %g0, %o0
    51d0:	10 bf fb f9 	b  41b4 <_dtoa_r+0x170>
    51d4:	ba 67 60 00 	subx  %i5, 0, %i5
    51d8:	c2 07 bf f4 	ld  [ %fp + -12 ], %g1
    51dc:	f4 07 bf f0 	ld  [ %fp + -16 ], %i2
    51e0:	9a 06 80 01 	add  %i2, %g1, %o5
    51e4:	b2 03 64 32 	add  %o5, 0x432, %i1
    51e8:	82 20 00 19 	neg  %i1, %g1
    51ec:	80 a6 60 20 	cmp  %i1, 0x20
    51f0:	04 80 00 06 	ble  5208 <_dtoa_r+0x11c4>
    51f4:	a1 2d 40 01 	sll  %l5, %g1, %l0
    51f8:	9a 03 64 12 	add  %o5, 0x412, %o5
    51fc:	83 2d 00 01 	sll  %l4, %g1, %g1
    5200:	9b 35 40 0d 	srl  %l5, %o5, %o5
    5204:	a0 10 40 0d 	or  %g1, %o5, %l0
    5208:	40 00 0f 24 	call  8e98 <__floatsidf>
    520c:	90 10 00 10 	mov  %l0, %o0
    5210:	80 a4 20 00 	cmp  %l0, 0
    5214:	06 80 00 09 	bl  5238 <_dtoa_r+0x11f4>
    5218:	1b 00 00 26 	sethi  %hi(0x9800), %o5
    521c:	03 3f 84 00 	sethi  %hi(0xfe100000), %g1
    5220:	ae 10 00 09 	mov  %o1, %l7
    5224:	ac 00 40 08 	add  %g1, %o0, %l6
    5228:	b2 06 7b cd 	add  %i1, -1075, %i1
    522c:	82 10 20 01 	mov  1, %g1
    5230:	10 bf fb be 	b  4128 <_dtoa_r+0xe4>
    5234:	c2 27 bf c8 	st  %g1, [ %fp + -56 ]
    5238:	40 00 0d 16 	call  8690 <__adddf3>
    523c:	d4 1b 62 a8 	ldd  [ %o5 + 0x2a8 ], %o2
    5240:	10 bf ff f8 	b  5220 <_dtoa_r+0x11dc>
    5244:	03 3f 84 00 	sethi  %hi(0xfe100000), %g1
    5248:	d8 07 a0 58 	ld  [ %fp + 0x58 ], %o4
    524c:	03 00 00 09 	sethi  %hi(0x2400), %g1
    5250:	80 a5 60 00 	cmp  %l5, 0
    5254:	82 10 63 0f 	or  %g1, 0x30f, %g1
    5258:	12 80 00 07 	bne  5274 <_dtoa_r+0x1230>
    525c:	c2 23 00 00 	st  %g1, [ %o4 ]
    5260:	03 3f fc 00 	sethi  %hi(0xfff00000), %g1
    5264:	1b 00 00 26 	sethi  %hi(0x9800), %o5
    5268:	80 ad 00 01 	andncc  %l4, %g1, %g0
    526c:	02 80 00 04 	be  527c <_dtoa_r+0x1238>
    5270:	b0 13 62 98 	or  %o5, 0x298, %i0
    5274:	03 00 00 26 	sethi  %hi(0x9800), %g1
    5278:	b0 10 62 68 	or  %g1, 0x268, %i0	! 9a68 <zeroes.1+0x60>
    527c:	da 07 a0 60 	ld  [ %fp + 0x60 ], %o5
    5280:	80 a3 60 00 	cmp  %o5, 0
    5284:	02 80 00 1a 	be  52ec <_dtoa_r+0x12a8>
    5288:	82 10 00 18 	mov  %i0, %g1
    528c:	c2 4e 20 03 	ldsb  [ %i0 + 3 ], %g1
    5290:	80 a0 60 00 	cmp  %g1, 0
    5294:	12 80 00 03 	bne  52a0 <_dtoa_r+0x125c>
    5298:	9a 06 20 08 	add  %i0, 8, %o5
    529c:	9a 06 20 03 	add  %i0, 3, %o5
    52a0:	c2 07 a0 60 	ld  [ %fp + 0x60 ], %g1
    52a4:	10 bf fb 8d 	b  40d8 <_dtoa_r+0x94>
    52a8:	da 20 40 00 	st  %o5, [ %g1 ]
    52ac:	1b 20 00 00 	sethi  %hi(0x80000000), %o5
    52b0:	c2 24 00 00 	st  %g1, [ %l0 ]
    52b4:	10 bf fb 73 	b  4080 <_dtoa_r+0x3c>
    52b8:	a8 2d 00 0d 	andn  %l4, %o5, %l4
    52bc:	c2 06 20 44 	ld  [ %i0 + 0x44 ], %g1
    52c0:	92 10 00 0b 	mov  %o3, %o1
    52c4:	c2 22 e0 04 	st  %g1, [ %o3 + 4 ]
    52c8:	da 06 20 44 	ld  [ %i0 + 0x44 ], %o5
    52cc:	82 10 20 01 	mov  1, %g1
    52d0:	90 10 00 18 	mov  %i0, %o0
    52d4:	83 28 40 0d 	sll  %g1, %o5, %g1
    52d8:	40 00 04 44 	call  63e8 <_Bfree>
    52dc:	c2 22 e0 08 	st  %g1, [ %o3 + 8 ]
    52e0:	d6 07 a0 44 	ld  [ %fp + 0x44 ], %o3
    52e4:	10 bf fb 63 	b  4070 <_dtoa_r+0x2c>
    52e8:	c0 22 e0 40 	clr  [ %o3 + 0x40 ]
    52ec:	81 c7 e0 08 	ret 
    52f0:	91 e8 00 01 	restore  %g0, %g1, %o0

000052f4 <fflush>:
    52f4:	9d e3 bf 98 	save  %sp, -104, %sp
    52f8:	80 a6 20 00 	cmp  %i0, 0
    52fc:	02 80 00 35 	be  53d0 <fflush+0xdc>
    5300:	03 00 00 28 	sethi  %hi(0xa000), %g1
    5304:	d0 06 20 54 	ld  [ %i0 + 0x54 ], %o0
    5308:	80 a2 20 00 	cmp  %o0, 0
    530c:	32 80 00 07 	bne,a   5328 <fflush+0x34>
    5310:	c2 02 20 38 	ld  [ %o0 + 0x38 ], %g1
    5314:	03 00 00 28 	sethi  %hi(0xa000), %g1
    5318:	da 00 61 20 	ld  [ %g1 + 0x120 ], %o5	! a120 <_impure_ptr>
    531c:	da 26 20 54 	st  %o5, [ %i0 + 0x54 ]
    5320:	90 10 00 0d 	mov  %o5, %o0
    5324:	c2 02 20 38 	ld  [ %o0 + 0x38 ], %g1
    5328:	80 a0 60 00 	cmp  %g1, 0
    532c:	02 80 00 25 	be  53c0 <fflush+0xcc>
    5330:	01 00 00 00 	nop 
    5334:	d0 56 20 0c 	ldsh  [ %i0 + 0xc ], %o0
    5338:	80 8a 20 08 	btst  8, %o0
    533c:	02 80 00 29 	be  53e0 <fflush+0xec>
    5340:	9a 10 20 00 	clr  %o5
    5344:	e0 06 20 10 	ld  [ %i0 + 0x10 ], %l0
    5348:	80 a4 20 00 	cmp  %l0, 0
    534c:	02 80 00 25 	be  53e0 <fflush+0xec>
    5350:	80 8a 20 03 	btst  3, %o0
    5354:	c2 06 00 00 	ld  [ %i0 ], %g1
    5358:	b2 20 40 10 	sub  %g1, %l0, %i1
    535c:	e0 26 00 00 	st  %l0, [ %i0 ]
    5360:	12 80 00 03 	bne  536c <fflush+0x78>
    5364:	82 10 20 00 	clr  %g1
    5368:	c2 06 20 14 	ld  [ %i0 + 0x14 ], %g1
    536c:	80 a6 60 00 	cmp  %i1, 0
    5370:	04 80 00 0d 	ble  53a4 <fflush+0xb0>
    5374:	c2 26 20 08 	st  %g1, [ %i0 + 8 ]
    5378:	d0 06 20 1c 	ld  [ %i0 + 0x1c ], %o0
    537c:	c2 06 20 24 	ld  [ %i0 + 0x24 ], %g1
    5380:	92 10 00 10 	mov  %l0, %o1
    5384:	9f c0 40 00 	call  %g1
    5388:	94 10 00 19 	mov  %i1, %o2
    538c:	80 a2 20 00 	cmp  %o0, 0
    5390:	04 80 00 07 	ble  53ac <fflush+0xb8>
    5394:	b2 26 40 08 	sub  %i1, %o0, %i1
    5398:	80 a6 60 00 	cmp  %i1, 0
    539c:	14 bf ff f7 	bg  5378 <fflush+0x84>
    53a0:	a0 04 00 08 	add  %l0, %o0, %l0
    53a4:	10 80 00 0f 	b  53e0 <fflush+0xec>
    53a8:	9a 10 20 00 	clr  %o5
    53ac:	c2 16 20 0c 	lduh  [ %i0 + 0xc ], %g1
    53b0:	9a 10 3f ff 	mov  -1, %o5
    53b4:	82 10 60 40 	or  %g1, 0x40, %g1
    53b8:	10 80 00 0a 	b  53e0 <fflush+0xec>
    53bc:	c2 36 20 0c 	sth  %g1, [ %i0 + 0xc ]
    53c0:	40 00 00 7a 	call  55a8 <__sinit>
    53c4:	01 00 00 00 	nop 
    53c8:	10 bf ff dc 	b  5338 <fflush+0x44>
    53cc:	d0 56 20 0c 	ldsh  [ %i0 + 0xc ], %o0
    53d0:	f0 00 61 20 	ld  [ %g1 + 0x120 ], %i0
    53d4:	33 00 00 14 	sethi  %hi(0x5000), %i1
    53d8:	40 00 02 74 	call  5da8 <_fwalk>
    53dc:	93 ee 62 f4 	restore  %i1, 0x2f4, %o1
    53e0:	81 c7 e0 08 	ret 
    53e4:	91 e8 00 0d 	restore  %g0, %o5, %o0

000053e8 <std>:
    53e8:	03 00 00 1c 	sethi  %hi(0x7000), %g1
    53ec:	1b 00 00 1c 	sethi  %hi(0x7000), %o5
    53f0:	82 10 62 a0 	or  %g1, 0x2a0, %g1
    53f4:	9a 13 62 e8 	or  %o5, 0x2e8, %o5
    53f8:	c2 22 20 20 	st  %g1, [ %o0 + 0x20 ]
    53fc:	da 22 20 24 	st  %o5, [ %o0 + 0x24 ]
    5400:	03 00 00 1c 	sethi  %hi(0x7000), %g1
    5404:	1b 00 00 1c 	sethi  %hi(0x7000), %o5
    5408:	82 10 63 40 	or  %g1, 0x340, %g1
    540c:	9a 13 63 8c 	or  %o5, 0x38c, %o5
    5410:	d2 32 20 0c 	sth  %o1, [ %o0 + 0xc ]
    5414:	d4 32 20 0e 	sth  %o2, [ %o0 + 0xe ]
    5418:	d6 22 20 54 	st  %o3, [ %o0 + 0x54 ]
    541c:	c0 22 00 00 	clr  [ %o0 ]
    5420:	c0 22 20 04 	clr  [ %o0 + 4 ]
    5424:	c0 22 20 08 	clr  [ %o0 + 8 ]
    5428:	c0 22 20 10 	clr  [ %o0 + 0x10 ]
    542c:	c0 22 20 14 	clr  [ %o0 + 0x14 ]
    5430:	c0 22 20 18 	clr  [ %o0 + 0x18 ]
    5434:	d0 22 20 1c 	st  %o0, [ %o0 + 0x1c ]
    5438:	c2 22 20 28 	st  %g1, [ %o0 + 0x28 ]
    543c:	81 c3 e0 08 	retl 
    5440:	da 22 20 2c 	st  %o5, [ %o0 + 0x2c ]

00005444 <__sfmoreglue>:
    5444:	9d e3 bf 98 	save  %sp, -104, %sp
    5448:	90 10 00 18 	mov  %i0, %o0
    544c:	a0 06 40 19 	add  %i1, %i1, %l0
    5450:	a0 04 00 19 	add  %l0, %i1, %l0
    5454:	a1 2c 20 03 	sll  %l0, 3, %l0
    5458:	a0 24 00 19 	sub  %l0, %i1, %l0
    545c:	a1 2c 20 02 	sll  %l0, 2, %l0
    5460:	7f ff f0 2b 	call  150c <_malloc_r>
    5464:	92 04 20 0c 	add  %l0, 0xc, %o1
    5468:	94 10 00 10 	mov  %l0, %o2
    546c:	a2 92 20 00 	orcc  %o0, 0, %l1
    5470:	02 80 00 0a 	be  5498 <__sfmoreglue+0x54>
    5474:	b0 10 20 00 	clr  %i0
    5478:	82 04 60 0c 	add  %l1, 0xc, %g1
    547c:	f2 24 60 04 	st  %i1, [ %l1 + 4 ]
    5480:	c0 24 40 00 	clr  [ %l1 ]
    5484:	92 10 20 00 	clr  %o1
    5488:	90 10 00 01 	mov  %g1, %o0
    548c:	c2 24 60 08 	st  %g1, [ %l1 + 8 ]
    5490:	7f ff f1 72 	call  1a58 <memset>
    5494:	b0 10 00 11 	mov  %l1, %i0
    5498:	81 c7 e0 08 	ret 
    549c:	81 e8 00 00 	restore 

000054a0 <__sfp>:
    54a0:	9d e3 bf 98 	save  %sp, -104, %sp
    54a4:	c2 06 20 38 	ld  [ %i0 + 0x38 ], %g1
    54a8:	80 a0 60 00 	cmp  %g1, 0
    54ac:	02 80 00 2d 	be  5560 <__sfp+0xc0>
    54b0:	01 00 00 00 	nop 
    54b4:	a0 06 22 5c 	add  %i0, 0x25c, %l0
    54b8:	da 04 20 04 	ld  [ %l0 + 4 ], %o5
    54bc:	9a 83 7f ff 	addcc  %o5, -1, %o5
    54c0:	0c 80 00 08 	bneg  54e0 <__sfp+0x40>
    54c4:	d8 04 20 08 	ld  [ %l0 + 8 ], %o4
    54c8:	c2 53 20 0c 	ldsh  [ %o4 + 0xc ], %g1
    54cc:	80 a0 60 00 	cmp  %g1, 0
    54d0:	02 80 00 13 	be  551c <__sfp+0x7c>
    54d4:	9a 83 7f ff 	addcc  %o5, -1, %o5
    54d8:	1c bf ff fc 	bpos  54c8 <__sfp+0x28>
    54dc:	98 03 20 5c 	add  %o4, 0x5c, %o4
    54e0:	d0 04 00 00 	ld  [ %l0 ], %o0
    54e4:	80 a2 20 00 	cmp  %o0, 0
    54e8:	22 80 00 04 	be,a   54f8 <__sfp+0x58>
    54ec:	90 10 00 18 	mov  %i0, %o0
    54f0:	10 bf ff f2 	b  54b8 <__sfp+0x18>
    54f4:	a0 10 00 08 	mov  %o0, %l0
    54f8:	7f ff ff d3 	call  5444 <__sfmoreglue>
    54fc:	92 10 20 04 	mov  4, %o1
    5500:	80 a2 20 00 	cmp  %o0, 0
    5504:	12 bf ff fb 	bne  54f0 <__sfp+0x50>
    5508:	d0 24 00 00 	st  %o0, [ %l0 ]
    550c:	82 10 20 0c 	mov  0xc, %g1
    5510:	c2 26 00 00 	st  %g1, [ %i0 ]
    5514:	10 80 00 17 	b  5570 <__sfp+0xd0>
    5518:	b0 10 20 00 	clr  %i0
    551c:	f0 23 20 54 	st  %i0, [ %o4 + 0x54 ]
    5520:	82 10 20 01 	mov  1, %g1
    5524:	9a 10 3f ff 	mov  -1, %o5
    5528:	c0 23 00 00 	clr  [ %o4 ]
    552c:	c0 23 20 08 	clr  [ %o4 + 8 ]
    5530:	c0 23 20 04 	clr  [ %o4 + 4 ]
    5534:	c0 23 20 10 	clr  [ %o4 + 0x10 ]
    5538:	c0 23 20 14 	clr  [ %o4 + 0x14 ]
    553c:	c0 23 20 18 	clr  [ %o4 + 0x18 ]
    5540:	c0 23 20 30 	clr  [ %o4 + 0x30 ]
    5544:	c0 23 20 34 	clr  [ %o4 + 0x34 ]
    5548:	c0 23 20 44 	clr  [ %o4 + 0x44 ]
    554c:	c0 23 20 48 	clr  [ %o4 + 0x48 ]
    5550:	b0 10 00 0c 	mov  %o4, %i0
    5554:	c2 33 20 0c 	sth  %g1, [ %o4 + 0xc ]
    5558:	10 80 00 06 	b  5570 <__sfp+0xd0>
    555c:	da 33 20 0e 	sth  %o5, [ %o4 + 0xe ]
    5560:	40 00 00 12 	call  55a8 <__sinit>
    5564:	90 10 00 18 	mov  %i0, %o0
    5568:	10 bf ff d4 	b  54b8 <__sfp+0x18>
    556c:	a0 06 22 5c 	add  %i0, 0x25c, %l0
    5570:	81 c7 e0 08 	ret 
    5574:	81 e8 00 00 	restore 

00005578 <_cleanup_r>:
    5578:	13 00 00 14 	sethi  %hi(0x5000), %o1
    557c:	92 12 62 f4 	or  %o1, 0x2f4, %o1	! 52f4 <fflush>
    5580:	82 13 c0 00 	mov  %o7, %g1
    5584:	40 00 02 09 	call  5da8 <_fwalk>
    5588:	9e 10 40 00 	mov  %g1, %o7
    558c:	01 00 00 00 	nop 

00005590 <_cleanup>:
    5590:	03 00 00 28 	sethi  %hi(0xa000), %g1
    5594:	d0 00 61 20 	ld  [ %g1 + 0x120 ], %o0	! a120 <_impure_ptr>
    5598:	82 13 c0 00 	mov  %o7, %g1
    559c:	7f ff ff f7 	call  5578 <_cleanup_r>
    55a0:	9e 10 40 00 	mov  %g1, %o7
    55a4:	01 00 00 00 	nop 

000055a8 <__sinit>:
    55a8:	9d e3 bf 98 	save  %sp, -104, %sp
    55ac:	d0 06 20 04 	ld  [ %i0 + 4 ], %o0
    55b0:	9a 10 20 01 	mov  1, %o5
    55b4:	03 00 00 15 	sethi  %hi(0x5400), %g1
    55b8:	82 10 61 78 	or  %g1, 0x178, %g1	! 5578 <_cleanup_r>
    55bc:	da 26 20 38 	st  %o5, [ %i0 + 0x38 ]
    55c0:	c2 26 20 3c 	st  %g1, [ %i0 + 0x3c ]
    55c4:	9a 06 22 68 	add  %i0, 0x268, %o5
    55c8:	82 10 20 03 	mov  3, %g1
    55cc:	96 10 00 18 	mov  %i0, %o3
    55d0:	c2 26 22 60 	st  %g1, [ %i0 + 0x260 ]
    55d4:	da 26 22 64 	st  %o5, [ %i0 + 0x264 ]
    55d8:	c0 26 22 5c 	clr  [ %i0 + 0x25c ]
    55dc:	92 10 20 04 	mov  4, %o1
    55e0:	7f ff ff 82 	call  53e8 <std>
    55e4:	94 10 20 00 	clr  %o2
    55e8:	d0 06 20 08 	ld  [ %i0 + 8 ], %o0
    55ec:	96 10 00 18 	mov  %i0, %o3
    55f0:	b6 10 00 18 	mov  %i0, %i3
    55f4:	92 10 20 09 	mov  9, %o1
    55f8:	7f ff ff 7c 	call  53e8 <std>
    55fc:	94 10 20 01 	mov  1, %o2
    5600:	f0 06 20 0c 	ld  [ %i0 + 0xc ], %i0
    5604:	b2 10 20 0a 	mov  0xa, %i1
    5608:	7f ff ff 78 	call  53e8 <std>
    560c:	95 e8 20 02 	restore  %g0, 2, %o2
    5610:	01 00 00 00 	nop 

00005614 <_free_r>:
    5614:	9d e3 bf 98 	save  %sp, -104, %sp
    5618:	80 a6 60 00 	cmp  %i1, 0
    561c:	02 80 00 a0 	be  589c <_free_r+0x288>
    5620:	a4 10 00 18 	mov  %i0, %l2
    5624:	a0 06 7f f8 	add  %i1, -8, %l0
    5628:	7f ff f1 39 	call  1b0c <__malloc_lock>
    562c:	90 10 00 18 	mov  %i0, %o0
    5630:	d8 04 20 04 	ld  [ %l0 + 4 ], %o4
    5634:	27 00 00 28 	sethi  %hi(0xa000), %l3
    5638:	9e 0b 3f fe 	and  %o4, -2, %o7
    563c:	a2 14 e1 28 	or  %l3, 0x128, %l1
    5640:	92 04 00 0f 	add  %l0, %o7, %o1
    5644:	c2 04 60 08 	ld  [ %l1 + 8 ], %g1
    5648:	da 02 60 04 	ld  [ %o1 + 4 ], %o5
    564c:	80 a2 40 01 	cmp  %o1, %g1
    5650:	02 80 00 7d 	be  5844 <_free_r+0x230>
    5654:	96 0b 7f fc 	and  %o5, -4, %o3
    5658:	80 8b 20 01 	btst  1, %o4
    565c:	d6 22 60 04 	st  %o3, [ %o1 + 4 ]
    5660:	12 80 00 0c 	bne  5690 <_free_r+0x7c>
    5664:	98 10 20 00 	clr  %o4
    5668:	f2 06 7f f8 	ld  [ %i1 + -8 ], %i1
    566c:	82 04 60 08 	add  %l1, 8, %g1
    5670:	a0 24 00 19 	sub  %l0, %i1, %l0
    5674:	da 04 20 08 	ld  [ %l0 + 8 ], %o5
    5678:	80 a3 40 01 	cmp  %o5, %g1
    567c:	02 80 00 70 	be  583c <_free_r+0x228>
    5680:	9e 03 c0 19 	add  %o7, %i1, %o7
    5684:	d0 04 20 0c 	ld  [ %l0 + 0xc ], %o0
    5688:	da 22 20 08 	st  %o5, [ %o0 + 8 ]
    568c:	d0 23 60 0c 	st  %o0, [ %o5 + 0xc ]
    5690:	82 02 40 0b 	add  %o1, %o3, %g1
    5694:	da 00 60 04 	ld  [ %g1 + 4 ], %o5
    5698:	80 8b 60 01 	btst  1, %o5
    569c:	12 80 00 0f 	bne  56d8 <_free_r+0xc4>
    56a0:	82 13 e0 01 	or  %o7, 1, %g1
    56a4:	80 a3 20 00 	cmp  %o4, 0
    56a8:	12 80 00 63 	bne  5834 <_free_r+0x220>
    56ac:	9e 03 c0 0b 	add  %o7, %o3, %o7
    56b0:	da 02 60 08 	ld  [ %o1 + 8 ], %o5
    56b4:	03 00 00 28 	sethi  %hi(0xa000), %g1
    56b8:	82 10 61 30 	or  %g1, 0x130, %g1	! a130 <__malloc_av_+0x8>
    56bc:	80 a3 40 01 	cmp  %o5, %g1
    56c0:	22 80 00 58 	be,a   5820 <_free_r+0x20c>
    56c4:	e0 23 60 0c 	st  %l0, [ %o5 + 0xc ]
    56c8:	d0 02 60 0c 	ld  [ %o1 + 0xc ], %o0
    56cc:	da 22 20 08 	st  %o5, [ %o0 + 8 ]
    56d0:	d0 23 60 0c 	st  %o0, [ %o5 + 0xc ]
    56d4:	82 13 e0 01 	or  %o7, 1, %g1
    56d8:	80 a3 20 00 	cmp  %o4, 0
    56dc:	de 24 00 0f 	st  %o7, [ %l0 + %o7 ]
    56e0:	02 80 00 05 	be  56f4 <_free_r+0xe0>
    56e4:	c2 24 20 04 	st  %g1, [ %l0 + 4 ]
    56e8:	b0 10 00 12 	mov  %l2, %i0
    56ec:	7f ff f1 0a 	call  1b14 <__malloc_unlock>
    56f0:	81 e8 00 00 	restore 
    56f4:	80 a3 e1 ff 	cmp  %o7, 0x1ff
    56f8:	18 80 00 12 	bgu  5740 <_free_r+0x12c>
    56fc:	95 33 e0 09 	srl  %o7, 9, %o2
    5700:	96 14 e1 28 	or  %l3, 0x128, %o3
    5704:	9b 33 e0 03 	srl  %o7, 3, %o5
    5708:	83 2b 60 03 	sll  %o5, 3, %g1
    570c:	90 00 40 0b 	add  %g1, %o3, %o0
    5710:	d4 02 20 08 	ld  [ %o0 + 8 ], %o2
    5714:	d8 02 e0 04 	ld  [ %o3 + 4 ], %o4
    5718:	d0 24 20 0c 	st  %o0, [ %l0 + 0xc ]
    571c:	d4 24 20 08 	st  %o2, [ %l0 + 8 ]
    5720:	9b 33 60 02 	srl  %o5, 2, %o5
    5724:	82 10 20 01 	mov  1, %g1
    5728:	e0 22 a0 0c 	st  %l0, [ %o2 + 0xc ]
    572c:	83 28 40 0d 	sll  %g1, %o5, %g1
    5730:	e0 22 20 08 	st  %l0, [ %o0 + 8 ]
    5734:	98 13 00 01 	or  %o4, %g1, %o4
    5738:	10 bf ff ec 	b  56e8 <_free_r+0xd4>
    573c:	d8 22 e0 04 	st  %o4, [ %o3 + 4 ]
    5740:	80 a2 a0 00 	cmp  %o2, 0
    5744:	02 80 00 16 	be  579c <_free_r+0x188>
    5748:	9b 33 e0 03 	srl  %o7, 3, %o5
    574c:	83 33 e0 06 	srl  %o7, 6, %g1
    5750:	80 a2 a0 04 	cmp  %o2, 4
    5754:	08 80 00 12 	bleu  579c <_free_r+0x188>
    5758:	9a 00 60 38 	add  %g1, 0x38, %o5
    575c:	80 a2 a0 14 	cmp  %o2, 0x14
    5760:	08 80 00 0f 	bleu  579c <_free_r+0x188>
    5764:	9a 02 a0 5b 	add  %o2, 0x5b, %o5
    5768:	83 33 e0 0c 	srl  %o7, 0xc, %g1
    576c:	80 a2 a0 54 	cmp  %o2, 0x54
    5770:	08 80 00 0b 	bleu  579c <_free_r+0x188>
    5774:	9a 00 60 6e 	add  %g1, 0x6e, %o5
    5778:	83 33 e0 0f 	srl  %o7, 0xf, %g1
    577c:	80 a2 a1 54 	cmp  %o2, 0x154
    5780:	08 80 00 07 	bleu  579c <_free_r+0x188>
    5784:	9a 00 60 77 	add  %g1, 0x77, %o5
    5788:	83 33 e0 12 	srl  %o7, 0x12, %g1
    578c:	80 a2 a5 54 	cmp  %o2, 0x554
    5790:	08 80 00 03 	bleu  579c <_free_r+0x188>
    5794:	9a 00 60 7c 	add  %g1, 0x7c, %o5
    5798:	9a 10 20 7e 	mov  0x7e, %o5
    579c:	96 14 e1 28 	or  %l3, 0x128, %o3
    57a0:	83 2b 60 03 	sll  %o5, 3, %g1
    57a4:	90 00 40 0b 	add  %g1, %o3, %o0
    57a8:	d4 02 20 08 	ld  [ %o0 + 8 ], %o2
    57ac:	80 a2 80 08 	cmp  %o2, %o0
    57b0:	22 80 00 16 	be,a   5808 <_free_r+0x1f4>
    57b4:	c2 02 e0 04 	ld  [ %o3 + 4 ], %g1
    57b8:	c2 02 a0 04 	ld  [ %o2 + 4 ], %g1
    57bc:	82 08 7f fc 	and  %g1, -4, %g1
    57c0:	80 a3 c0 01 	cmp  %o7, %g1
    57c4:	3a 80 00 0c 	bcc,a   57f4 <_free_r+0x1e0>
    57c8:	d0 02 a0 0c 	ld  [ %o2 + 0xc ], %o0
    57cc:	d4 02 a0 08 	ld  [ %o2 + 8 ], %o2
    57d0:	80 a2 80 08 	cmp  %o2, %o0
    57d4:	22 80 00 08 	be,a   57f4 <_free_r+0x1e0>
    57d8:	d0 02 a0 0c 	ld  [ %o2 + 0xc ], %o0
    57dc:	c2 02 a0 04 	ld  [ %o2 + 4 ], %g1
    57e0:	82 08 7f fc 	and  %g1, -4, %g1
    57e4:	80 a3 c0 01 	cmp  %o7, %g1
    57e8:	2a bf ff fa 	bcs,a   57d0 <_free_r+0x1bc>
    57ec:	d4 02 a0 08 	ld  [ %o2 + 8 ], %o2
    57f0:	d0 02 a0 0c 	ld  [ %o2 + 0xc ], %o0
    57f4:	d0 24 20 0c 	st  %o0, [ %l0 + 0xc ]
    57f8:	d4 24 20 08 	st  %o2, [ %l0 + 8 ]
    57fc:	e0 22 a0 0c 	st  %l0, [ %o2 + 0xc ]
    5800:	10 bf ff ba 	b  56e8 <_free_r+0xd4>
    5804:	e0 22 20 08 	st  %l0, [ %o0 + 8 ]
    5808:	99 33 60 02 	srl  %o5, 2, %o4
    580c:	9a 10 20 01 	mov  1, %o5
    5810:	9b 2b 40 0c 	sll  %o5, %o4, %o5
    5814:	82 10 40 0d 	or  %g1, %o5, %g1
    5818:	10 bf ff f7 	b  57f4 <_free_r+0x1e0>
    581c:	c2 22 e0 04 	st  %g1, [ %o3 + 4 ]
    5820:	e0 23 60 08 	st  %l0, [ %o5 + 8 ]
    5824:	da 24 20 08 	st  %o5, [ %l0 + 8 ]
    5828:	da 24 20 0c 	st  %o5, [ %l0 + 0xc ]
    582c:	10 bf ff aa 	b  56d4 <_free_r+0xc0>
    5830:	98 10 20 01 	mov  1, %o4
    5834:	10 bf ff a5 	b  56c8 <_free_r+0xb4>
    5838:	da 02 60 08 	ld  [ %o1 + 8 ], %o5
    583c:	10 bf ff 95 	b  5690 <_free_r+0x7c>
    5840:	98 10 20 01 	mov  1, %o4
    5844:	80 8b 20 01 	btst  1, %o4
    5848:	12 80 00 09 	bne  586c <_free_r+0x258>
    584c:	9e 03 c0 0b 	add  %o7, %o3, %o7
    5850:	f2 06 7f f8 	ld  [ %i1 + -8 ], %i1
    5854:	a0 24 00 19 	sub  %l0, %i1, %l0
    5858:	d0 04 20 0c 	ld  [ %l0 + 0xc ], %o0
    585c:	d4 04 20 08 	ld  [ %l0 + 8 ], %o2
    5860:	9e 03 c0 19 	add  %o7, %i1, %o7
    5864:	d4 22 20 08 	st  %o2, [ %o0 + 8 ]
    5868:	d0 22 a0 0c 	st  %o0, [ %o2 + 0xc ]
    586c:	03 00 00 29 	sethi  %hi(0xa400), %g1
    5870:	da 00 61 30 	ld  [ %g1 + 0x130 ], %o5	! a530 <__malloc_trim_threshold>
    5874:	e0 24 60 08 	st  %l0, [ %l1 + 8 ]
    5878:	82 13 e0 01 	or  %o7, 1, %g1
    587c:	80 a3 c0 0d 	cmp  %o7, %o5
    5880:	0a bf ff 9b 	bcs  56ec <_free_r+0xd8>
    5884:	c2 24 20 04 	st  %g1, [ %l0 + 4 ]
    5888:	03 00 00 29 	sethi  %hi(0xa400), %g1
    588c:	d2 00 61 68 	ld  [ %g1 + 0x168 ], %o1	! a568 <__malloc_top_pad>
    5890:	40 00 00 05 	call  58a4 <_malloc_trim_r>
    5894:	90 10 00 12 	mov  %l2, %o0
    5898:	30 bf ff 95 	b,a   56ec <_free_r+0xd8>
    589c:	81 c7 e0 08 	ret 
    58a0:	81 e8 00 00 	restore 

000058a4 <_malloc_trim_r>:
    58a4:	9d e3 bf 98 	save  %sp, -104, %sp
    58a8:	7f ff f0 99 	call  1b0c <__malloc_lock>
    58ac:	90 10 00 18 	mov  %i0, %o0
    58b0:	03 00 00 28 	sethi  %hi(0xa000), %g1
    58b4:	a2 10 61 28 	or  %g1, 0x128, %l1	! a128 <__malloc_av_>
    58b8:	da 04 60 08 	ld  [ %l1 + 8 ], %o5
    58bc:	92 10 20 00 	clr  %o1
    58c0:	c2 03 60 04 	ld  [ %o5 + 4 ], %g1
    58c4:	a0 08 7f fc 	and  %g1, -4, %l0
    58c8:	b2 24 00 19 	sub  %l0, %i1, %i1
    58cc:	b2 06 6f ef 	add  %i1, 0xfef, %i1
    58d0:	b2 0e 70 00 	and  %i1, -4096, %i1
    58d4:	b2 06 70 00 	add  %i1, -4096, %i1
    58d8:	80 a6 6f ff 	cmp  %i1, 0xfff
    58dc:	04 80 00 0b 	ble  5908 <_malloc_trim_r+0x64>
    58e0:	90 10 00 18 	mov  %i0, %o0
    58e4:	7f ff f1 ed 	call  2098 <_sbrk_r>
    58e8:	01 00 00 00 	nop 
    58ec:	c2 04 60 08 	ld  [ %l1 + 8 ], %g1
    58f0:	98 10 00 08 	mov  %o0, %o4
    58f4:	82 00 40 10 	add  %g1, %l0, %g1
    58f8:	90 10 00 18 	mov  %i0, %o0
    58fc:	80 a3 00 01 	cmp  %o4, %g1
    5900:	02 80 00 05 	be  5914 <_malloc_trim_r+0x70>
    5904:	92 20 00 19 	neg  %i1, %o1
    5908:	7f ff f0 83 	call  1b14 <__malloc_unlock>
    590c:	b0 10 20 00 	clr  %i0
    5910:	30 80 00 24 	b,a   59a0 <_malloc_trim_r+0xfc>
    5914:	7f ff f1 e1 	call  2098 <_sbrk_r>
    5918:	90 10 00 18 	mov  %i0, %o0
    591c:	82 24 00 19 	sub  %l0, %i1, %g1
    5920:	9a 10 00 08 	mov  %o0, %o5
    5924:	82 10 60 01 	or  %g1, 1, %g1
    5928:	92 10 20 00 	clr  %o1
    592c:	90 10 00 18 	mov  %i0, %o0
    5930:	80 a3 7f ff 	cmp  %o5, -1
    5934:	02 80 00 0b 	be  5960 <_malloc_trim_r+0xbc>
    5938:	19 00 00 29 	sethi  %hi(0xa400), %o4
    593c:	da 04 60 08 	ld  [ %l1 + 8 ], %o5
    5940:	90 10 00 18 	mov  %i0, %o0
    5944:	c2 23 60 04 	st  %g1, [ %o5 + 4 ]
    5948:	c2 03 21 74 	ld  [ %o4 + 0x174 ], %g1
    594c:	b0 10 20 01 	mov  1, %i0
    5950:	82 20 40 19 	sub  %g1, %i1, %g1
    5954:	7f ff f0 70 	call  1b14 <__malloc_unlock>
    5958:	c2 23 21 74 	st  %g1, [ %o4 + 0x174 ]
    595c:	30 80 00 11 	b,a   59a0 <_malloc_trim_r+0xfc>
    5960:	7f ff f1 ce 	call  2098 <_sbrk_r>
    5964:	01 00 00 00 	nop 
    5968:	d6 04 60 08 	ld  [ %l1 + 8 ], %o3
    596c:	98 10 00 08 	mov  %o0, %o4
    5970:	90 10 00 18 	mov  %i0, %o0
    5974:	a0 23 00 0b 	sub  %o4, %o3, %l0
    5978:	80 a4 20 0f 	cmp  %l0, 0xf
    597c:	04 bf ff e3 	ble  5908 <_malloc_trim_r+0x64>
    5980:	94 14 20 01 	or  %l0, 1, %o2
    5984:	03 00 00 29 	sethi  %hi(0xa400), %g1
    5988:	da 00 61 34 	ld  [ %g1 + 0x134 ], %o5	! a534 <__malloc_sbrk_base>
    598c:	03 00 00 29 	sethi  %hi(0xa400), %g1
    5990:	9a 23 00 0d 	sub  %o4, %o5, %o5
    5994:	da 20 61 74 	st  %o5, [ %g1 + 0x174 ]
    5998:	10 bf ff dc 	b  5908 <_malloc_trim_r+0x64>
    599c:	d4 22 e0 04 	st  %o2, [ %o3 + 4 ]
    59a0:	81 c7 e0 08 	ret 
    59a4:	81 e8 00 00 	restore 

000059a8 <__sfvwrite>:
    59a8:	9d e3 bf 98 	save  %sp, -104, %sp
    59ac:	e2 06 60 08 	ld  [ %i1 + 8 ], %l1
    59b0:	80 a4 60 00 	cmp  %l1, 0
    59b4:	02 80 00 fb 	be  5da0 <__sfvwrite+0x3f8>
    59b8:	9a 10 20 00 	clr  %o5
    59bc:	c2 16 20 0c 	lduh  [ %i0 + 0xc ], %g1
    59c0:	80 88 60 08 	btst  8, %g1
    59c4:	02 80 00 06 	be  59dc <__sfvwrite+0x34>
    59c8:	da 16 20 0c 	lduh  [ %i0 + 0xc ], %o5
    59cc:	c2 06 20 10 	ld  [ %i0 + 0x10 ], %g1
    59d0:	80 a0 60 00 	cmp  %g1, 0
    59d4:	12 80 00 09 	bne  59f8 <__sfvwrite+0x50>
    59d8:	83 2b 60 10 	sll  %o5, 0x10, %g1
    59dc:	7f ff f8 c4 	call  3cec <__swsetup>
    59e0:	90 10 00 18 	mov  %i0, %o0
    59e4:	80 a2 20 00 	cmp  %o0, 0
    59e8:	12 80 00 ee 	bne  5da0 <__sfvwrite+0x3f8>
    59ec:	9a 10 3f ff 	mov  -1, %o5
    59f0:	da 16 20 0c 	lduh  [ %i0 + 0xc ], %o5
    59f4:	83 2b 60 10 	sll  %o5, 0x10, %g1
    59f8:	e4 06 40 00 	ld  [ %i1 ], %l2
    59fc:	83 30 60 10 	srl  %g1, 0x10, %g1
    5a00:	80 88 60 02 	btst  2, %g1
    5a04:	02 80 00 22 	be  5a8c <__sfvwrite+0xe4>
    5a08:	a2 10 20 00 	clr  %l1
    5a0c:	80 a4 60 00 	cmp  %l1, 0
    5a10:	12 80 00 08 	bne  5a30 <__sfvwrite+0x88>
    5a14:	80 a4 64 00 	cmp  %l1, 0x400
    5a18:	e2 04 a0 04 	ld  [ %l2 + 4 ], %l1
    5a1c:	e6 04 80 00 	ld  [ %l2 ], %l3
    5a20:	80 a4 60 00 	cmp  %l1, 0
    5a24:	02 bf ff fd 	be  5a18 <__sfvwrite+0x70>
    5a28:	a4 04 a0 08 	add  %l2, 8, %l2
    5a2c:	80 a4 64 00 	cmp  %l1, 0x400
    5a30:	d0 06 20 1c 	ld  [ %i0 + 0x1c ], %o0
    5a34:	08 80 00 03 	bleu  5a40 <__sfvwrite+0x98>
    5a38:	94 10 00 11 	mov  %l1, %o2
    5a3c:	94 10 24 00 	mov  0x400, %o2
    5a40:	c2 06 20 24 	ld  [ %i0 + 0x24 ], %g1
    5a44:	9f c0 40 00 	call  %g1
    5a48:	92 10 00 13 	mov  %l3, %o1
    5a4c:	a0 92 20 00 	orcc  %o0, 0, %l0
    5a50:	04 80 00 0a 	ble  5a78 <__sfvwrite+0xd0>
    5a54:	a6 04 c0 10 	add  %l3, %l0, %l3
    5a58:	c2 06 60 08 	ld  [ %i1 + 8 ], %g1
    5a5c:	82 20 40 10 	sub  %g1, %l0, %g1
    5a60:	a2 24 40 10 	sub  %l1, %l0, %l1
    5a64:	80 a0 60 00 	cmp  %g1, 0
    5a68:	12 bf ff e9 	bne  5a0c <__sfvwrite+0x64>
    5a6c:	c2 26 60 08 	st  %g1, [ %i1 + 8 ]
    5a70:	10 80 00 cc 	b  5da0 <__sfvwrite+0x3f8>
    5a74:	9a 10 20 00 	clr  %o5
    5a78:	c2 16 20 0c 	lduh  [ %i0 + 0xc ], %g1
    5a7c:	9a 10 3f ff 	mov  -1, %o5
    5a80:	82 10 60 40 	or  %g1, 0x40, %g1
    5a84:	10 80 00 c7 	b  5da0 <__sfvwrite+0x3f8>
    5a88:	c2 36 20 0c 	sth  %g1, [ %i0 + 0xc ]
    5a8c:	80 88 60 01 	btst  1, %g1
    5a90:	12 80 00 67 	bne  5c2c <__sfvwrite+0x284>
    5a94:	aa 10 20 00 	clr  %l5
    5a98:	e2 04 a0 04 	ld  [ %l2 + 4 ], %l1
    5a9c:	e6 04 80 00 	ld  [ %l2 ], %l3
    5aa0:	80 a4 60 00 	cmp  %l1, 0
    5aa4:	02 bf ff fd 	be  5a98 <__sfvwrite+0xf0>
    5aa8:	a4 04 a0 08 	add  %l2, 8, %l2
    5aac:	83 2b 60 10 	sll  %o5, 0x10, %g1
    5ab0:	83 30 60 10 	srl  %g1, 0x10, %g1
    5ab4:	80 88 62 00 	btst  0x200, %g1
    5ab8:	02 80 00 31 	be  5b7c <__sfvwrite+0x1d4>
    5abc:	e0 06 20 08 	ld  [ %i0 + 8 ], %l0
    5ac0:	80 a4 40 10 	cmp  %l1, %l0
    5ac4:	08 80 00 06 	bleu  5adc <__sfvwrite+0x134>
    5ac8:	01 00 00 00 	nop 
    5acc:	80 88 60 80 	btst  0x80, %g1
    5ad0:	32 80 00 1c 	bne,a   5b40 <__sfvwrite+0x198>
    5ad4:	d2 06 20 10 	ld  [ %i0 + 0x10 ], %o1
    5ad8:	80 a4 40 10 	cmp  %l1, %l0
    5adc:	2a 80 00 02 	bcs,a   5ae4 <__sfvwrite+0x13c>
    5ae0:	a0 10 00 11 	mov  %l1, %l0
    5ae4:	d0 06 00 00 	ld  [ %i0 ], %o0
    5ae8:	94 10 00 10 	mov  %l0, %o2
    5aec:	40 00 01 ce 	call  6224 <memmove>
    5af0:	92 10 00 13 	mov  %l3, %o1
    5af4:	c2 06 20 08 	ld  [ %i0 + 8 ], %g1
    5af8:	da 06 00 00 	ld  [ %i0 ], %o5
    5afc:	82 20 40 10 	sub  %g1, %l0, %g1
    5b00:	9a 03 40 10 	add  %o5, %l0, %o5
    5b04:	c2 26 20 08 	st  %g1, [ %i0 + 8 ]
    5b08:	da 26 00 00 	st  %o5, [ %i0 ]
    5b0c:	a0 10 00 11 	mov  %l1, %l0
    5b10:	c2 06 60 08 	ld  [ %i1 + 8 ], %g1
    5b14:	a6 04 c0 10 	add  %l3, %l0, %l3
    5b18:	82 20 40 10 	sub  %g1, %l0, %g1
    5b1c:	a2 24 40 10 	sub  %l1, %l0, %l1
    5b20:	80 a0 60 00 	cmp  %g1, 0
    5b24:	02 bf ff d3 	be  5a70 <__sfvwrite+0xc8>
    5b28:	c2 26 60 08 	st  %g1, [ %i1 + 8 ]
    5b2c:	80 a4 60 00 	cmp  %l1, 0
