
dijkstra.sparc.x: formato do arquivo elf32-sparc

Disassembly of section .text:

00000000 <_start>:
       0:	40 00 00 40 	call  100 <main>
       4:	01 00 00 00 	nop 
       8:	40 00 31 c8 	call  c728 <_exit>
       c:	01 00 00 00 	nop 
	...

00000100 <main>:
     100:	9d e3 bf 98 	save  %sp, -104, %sp
     104:	f0 27 a0 44 	st  %i0, [ %fp + 0x44 ]
     108:	f2 27 a0 48 	st  %i1, [ %fp + 0x48 ]
     10c:	03 00 00 3b 	sethi  %hi(0xec00), %g1
     110:	82 10 61 10 	or  %g1, 0x110, %g1	! ed10 <_data_start>
     114:	c2 00 40 00 	ld  [ %g1 ], %g1
     118:	c2 00 40 00 	ld  [ %g1 ], %g1
     11c:	80 a0 60 00 	cmp  %g1, 0
     120:	12 bf ff fb 	bne  10c <main+0xc>
     124:	01 00 00 00 	nop 
     128:	03 00 00 4a 	sethi  %hi(0x12800), %g1
     12c:	98 10 62 2c 	or  %g1, 0x22c, %o4	! 12a2c <procCounter>
     130:	c2 03 00 00 	ld  [ %o4 ], %g1
     134:	9a 10 00 01 	mov  %g1, %o5
     138:	82 00 60 01 	inc  %g1
     13c:	c2 23 00 00 	st  %g1, [ %o4 ]
     140:	03 00 00 3b 	sethi  %hi(0xec00), %g1
     144:	82 10 61 10 	or  %g1, 0x110, %g1	! ed10 <_data_start>
     148:	c2 00 40 00 	ld  [ %g1 ], %g1
     14c:	c0 20 40 00 	clr  [ %g1 ]
     150:	80 a3 60 00 	cmp  %o5, 0
     154:	12 80 00 8d 	bne  388 <main+0x288>
     158:	01 00 00 00 	nop 
     15c:	03 00 00 4e 	sethi  %hi(0x13800), %g1
     160:	9a 10 61 50 	or  %g1, 0x150, %o5	! 13950 <pthread_n_workers>
     164:	82 10 20 01 	mov  1, %g1
     168:	c2 23 40 00 	st  %g1, [ %o5 ]
     16c:	03 00 00 4e 	sethi  %hi(0x13800), %g1
     170:	9a 10 61 50 	or  %g1, 0x150, %o5	! 13950 <pthread_n_workers>
     174:	03 00 00 38 	sethi  %hi(0xe000), %g1
     178:	90 10 63 30 	or  %g1, 0x330, %o0	! e330 <__CTOR_END__>
     17c:	d2 03 40 00 	ld  [ %o5 ], %o1
     180:	40 00 10 6a 	call  4328 <printf>
     184:	01 00 00 00 	nop 
     188:	03 00 00 4c 	sethi  %hi(0x13000), %g1
     18c:	9a 10 63 08 	or  %g1, 0x308, %o5	! 13308 <PROCESSORS>
     190:	03 00 00 4e 	sethi  %hi(0x13800), %g1
     194:	82 10 61 50 	or  %g1, 0x150, %g1	! 13950 <pthread_n_workers>
     198:	c2 00 40 00 	ld  [ %g1 ], %g1
     19c:	c2 23 40 00 	st  %g1, [ %o5 ]
     1a0:	03 00 00 4c 	sethi  %hi(0x13000), %g1
     1a4:	9a 10 63 18 	or  %g1, 0x318, %o5	! 13318 <m_argc>
     1a8:	82 10 20 02 	mov  2, %g1
     1ac:	c2 23 40 00 	st  %g1, [ %o5 ]
     1b0:	03 00 00 4c 	sethi  %hi(0x13000), %g1
     1b4:	9a 10 63 0c 	or  %g1, 0x30c, %o5	! 1330c <m_argv>
     1b8:	03 00 00 38 	sethi  %hi(0xe000), %g1
     1bc:	82 10 63 48 	or  %g1, 0x348, %g1	! e348 <__CTOR_END__+0x18>
     1c0:	c2 23 60 04 	st  %g1, [ %o5 + 4 ]
     1c4:	03 00 00 38 	sethi  %hi(0xe000), %g1
     1c8:	90 10 63 70 	or  %g1, 0x370, %o0	! e370 <__CTOR_END__+0x40>
     1cc:	03 00 00 38 	sethi  %hi(0xe000), %g1
     1d0:	92 10 63 78 	or  %g1, 0x378, %o1	! e378 <__CTOR_END__+0x48>
     1d4:	40 00 0b 7d 	call  2fc8 <fopen>
     1d8:	01 00 00 00 	nop 
     1dc:	9a 10 00 08 	mov  %o0, %o5
     1e0:	03 00 00 4b 	sethi  %hi(0x12c00), %g1
     1e4:	82 10 62 3c 	or  %g1, 0x23c, %g1	! 12e3c <fileout>
     1e8:	da 20 40 00 	st  %o5, [ %g1 ]
     1ec:	03 00 00 4b 	sethi  %hi(0x12c00), %g1
     1f0:	82 10 62 3c 	or  %g1, 0x23c, %g1	! 12e3c <fileout>
     1f4:	c2 00 40 00 	ld  [ %g1 ], %g1
     1f8:	80 a0 60 00 	cmp  %g1, 0
     1fc:	12 80 00 09 	bne  220 <main+0x120>
     200:	01 00 00 00 	nop 
     204:	03 00 00 38 	sethi  %hi(0xe000), %g1
     208:	90 10 63 80 	or  %g1, 0x380, %o0	! e380 <__CTOR_END__+0x50>
     20c:	40 00 10 47 	call  4328 <printf>
     210:	01 00 00 00 	nop 
     214:	90 10 20 01 	mov  1, %o0	! 1 <__DYNAMIC+0x1>
     218:	40 00 09 f8 	call  29f8 <exit>
     21c:	01 00 00 00 	nop 
     220:	40 00 06 51 	call  1b64 <pthread_init>
     224:	01 00 00 00 	nop 
     228:	03 00 00 4d 	sethi  %hi(0x13400), %g1
     22c:	90 10 62 40 	or  %g1, 0x240, %o0	! 13640 <mutex_print>
     230:	92 10 20 00 	clr  %o1
     234:	40 00 05 e1 	call  19b8 <pthread_mutex_init>
     238:	01 00 00 00 	nop 
     23c:	03 00 00 4d 	sethi  %hi(0x13400), %g1
     240:	90 10 62 40 	or  %g1, 0x240, %o0	! 13640 <mutex_print>
     244:	40 00 05 ef 	call  1a00 <pthread_mutex_lock>
     248:	01 00 00 00 	nop 
     24c:	03 00 00 38 	sethi  %hi(0xe000), %g1
     250:	90 10 63 90 	or  %g1, 0x390, %o0	! e390 <__CTOR_END__+0x60>
     254:	40 00 10 35 	call  4328 <printf>
     258:	01 00 00 00 	nop 
     25c:	03 00 00 38 	sethi  %hi(0xe000), %g1
     260:	90 10 63 90 	or  %g1, 0x390, %o0	! e390 <__CTOR_END__+0x60>
     264:	40 00 10 31 	call  4328 <printf>
     268:	01 00 00 00 	nop 
     26c:	03 00 00 38 	sethi  %hi(0xe000), %g1
     270:	90 10 63 98 	or  %g1, 0x398, %o0	! e398 <__CTOR_END__+0x68>
     274:	40 00 10 2d 	call  4328 <printf>
     278:	01 00 00 00 	nop 
     27c:	03 00 00 38 	sethi  %hi(0xe000), %g1
     280:	90 10 63 e0 	or  %g1, 0x3e0, %o0	! e3e0 <__CTOR_END__+0xb0>
     284:	40 00 10 29 	call  4328 <printf>
     288:	01 00 00 00 	nop 
     28c:	03 00 00 39 	sethi  %hi(0xe400), %g1
     290:	90 10 60 28 	or  %g1, 0x28, %o0	! e428 <__CTOR_END__+0xf8>
     294:	40 00 10 25 	call  4328 <printf>
     298:	01 00 00 00 	nop 
     29c:	03 00 00 39 	sethi  %hi(0xe400), %g1
     2a0:	90 10 60 70 	or  %g1, 0x70, %o0	! e470 <__CTOR_END__+0x140>
     2a4:	40 00 10 21 	call  4328 <printf>
     2a8:	01 00 00 00 	nop 
     2ac:	03 00 00 39 	sethi  %hi(0xe400), %g1
     2b0:	90 10 60 b8 	or  %g1, 0xb8, %o0	! e4b8 <__CTOR_END__+0x188>
     2b4:	40 00 10 1d 	call  4328 <printf>
     2b8:	01 00 00 00 	nop 
     2bc:	03 00 00 38 	sethi  %hi(0xe000), %g1
     2c0:	90 10 63 98 	or  %g1, 0x398, %o0	! e398 <__CTOR_END__+0x68>
     2c4:	40 00 10 19 	call  4328 <printf>
     2c8:	01 00 00 00 	nop 
     2cc:	03 00 00 38 	sethi  %hi(0xe000), %g1
     2d0:	90 10 63 90 	or  %g1, 0x390, %o0	! e390 <__CTOR_END__+0x60>
     2d4:	40 00 10 15 	call  4328 <printf>
     2d8:	01 00 00 00 	nop 
     2dc:	03 00 00 4d 	sethi  %hi(0x13400), %g1
     2e0:	90 10 62 40 	or  %g1, 0x240, %o0	! 13640 <mutex_print>
     2e4:	40 00 05 f4 	call  1ab4 <pthread_mutex_unlock>
     2e8:	01 00 00 00 	nop 
     2ec:	03 00 00 39 	sethi  %hi(0xe400), %g1
     2f0:	90 10 61 00 	or  %g1, 0x100, %o0	! e500 <__CTOR_END__+0x1d0>
     2f4:	40 00 10 0d 	call  4328 <printf>
     2f8:	01 00 00 00 	nop 
     2fc:	03 00 00 3b 	sethi  %hi(0xec00), %g1
     300:	82 10 61 10 	or  %g1, 0x110, %g1	! ed10 <_data_start>
     304:	c2 00 40 00 	ld  [ %g1 ], %g1
     308:	c2 00 40 00 	ld  [ %g1 ], %g1
     30c:	80 a0 60 00 	cmp  %g1, 0
     310:	12 bf ff fb 	bne  2fc <main+0x1fc>
     314:	01 00 00 00 	nop 
     318:	03 00 00 39 	sethi  %hi(0xe400), %g1
     31c:	90 10 61 18 	or  %g1, 0x118, %o0	! e518 <__CTOR_END__+0x1e8>
     320:	40 00 10 02 	call  4328 <printf>
     324:	01 00 00 00 	nop 
     328:	03 00 00 3d 	sethi  %hi(0xf400), %g1
     32c:	9a 10 60 d0 	or  %g1, 0xd0, %o5	! f4d0 <_edata>
     330:	82 10 20 01 	mov  1, %g1
     334:	c2 23 40 00 	st  %g1, [ %o5 ]
     338:	03 00 00 3b 	sethi  %hi(0xec00), %g1
     33c:	82 10 61 10 	or  %g1, 0x110, %g1	! ed10 <_data_start>
     340:	c2 00 40 00 	ld  [ %g1 ], %g1
     344:	c0 20 40 00 	clr  [ %g1 ]
     348:	03 00 00 4c 	sethi  %hi(0x13000), %g1
     34c:	82 10 63 18 	or  %g1, 0x318, %g1	! 13318 <m_argc>
     350:	d0 00 40 00 	ld  [ %g1 ], %o0
     354:	03 00 00 4c 	sethi  %hi(0x13000), %g1
     358:	92 10 63 0c 	or  %g1, 0x30c, %o1	! 1330c <m_argv>
     35c:	40 00 03 aa 	call  1204 <main0>
     360:	01 00 00 00 	nop 
     364:	40 00 05 19 	call  17c8 <pthread_my_exit>
     368:	01 00 00 00 	nop 
     36c:	03 00 00 4b 	sethi  %hi(0x12c00), %g1
     370:	82 10 62 3c 	or  %g1, 0x23c, %g1	! 12e3c <fileout>
     374:	d0 00 40 00 	ld  [ %g1 ], %o0
     378:	40 00 09 cf 	call  2ab4 <fclose>
     37c:	01 00 00 00 	nop 
     380:	10 80 00 1b 	b  3ec <main+0x2ec>
     384:	01 00 00 00 	nop 
     388:	03 00 00 3d 	sethi  %hi(0xf400), %g1
     38c:	82 10 60 d0 	or  %g1, 0xd0, %g1	! f4d0 <_edata>
     390:	c2 00 40 00 	ld  [ %g1 ], %g1
     394:	80 a0 60 00 	cmp  %g1, 0
     398:	02 bf ff fc 	be  388 <main+0x288>
     39c:	01 00 00 00 	nop 
     3a0:	01 00 00 00 	nop 
     3a4:	03 00 00 3d 	sethi  %hi(0xf400), %g1
     3a8:	82 10 60 e0 	or  %g1, 0xe0, %g1	! f4e0 <pthread_finished>
     3ac:	c2 00 40 00 	ld  [ %g1 ], %g1
     3b0:	80 a0 60 00 	cmp  %g1, 0
     3b4:	02 80 00 04 	be  3c4 <main+0x2c4>
     3b8:	01 00 00 00 	nop 
     3bc:	10 80 00 0c 	b  3ec <main+0x2ec>
     3c0:	01 00 00 00 	nop 
     3c4:	03 00 00 3d 	sethi  %hi(0xf400), %g1
     3c8:	82 10 60 d8 	or  %g1, 0xd8, %g1	! f4d8 <pthread_created>
     3cc:	c2 00 40 00 	ld  [ %g1 ], %g1
     3d0:	80 a0 60 01 	cmp  %g1, 1
     3d4:	12 bf ff f4 	bne  3a4 <main+0x2a4>
     3d8:	01 00 00 00 	nop 
     3dc:	40 00 06 02 	call  1be4 <pthread_executeThread>
     3e0:	01 00 00 00 	nop 
     3e4:	10 bf ff f0 	b  3a4 <main+0x2a4>
     3e8:	01 00 00 00 	nop 
     3ec:	90 10 20 00 	clr  %o0	! 0 <__DYNAMIC>
     3f0:	40 00 30 ce 	call  c728 <_exit>
     3f4:	01 00 00 00 	nop 
     3f8:	01 00 00 00 	nop 

000003fc <print_path>:
     3fc:	9d e3 bf 98 	save  %sp, -104, %sp
     400:	f0 27 a0 44 	st  %i0, [ %fp + 0x44 ]
     404:	f2 27 a0 48 	st  %i1, [ %fp + 0x48 ]
     408:	da 07 a0 48 	ld  [ %fp + 0x48 ], %o5
     40c:	82 10 00 0d 	mov  %o5, %g1
     410:	82 00 40 01 	add  %g1, %g1, %g1
     414:	82 00 40 0d 	add  %g1, %o5, %g1
     418:	9b 28 60 02 	sll  %g1, 2, %o5
     41c:	c2 07 a0 44 	ld  [ %fp + 0x44 ], %g1
     420:	82 03 40 01 	add  %o5, %g1, %g1
     424:	da 00 60 04 	ld  [ %g1 + 4 ], %o5
     428:	03 00 00 09 	sethi  %hi(0x2400), %g1
     42c:	82 10 63 0f 	or  %g1, 0x30f, %g1	! 270f <not_too_big+0x7>
     430:	80 a3 40 01 	cmp  %o5, %g1
     434:	02 80 00 0d 	be  468 <print_path+0x6c>
     438:	01 00 00 00 	nop 
     43c:	da 07 a0 48 	ld  [ %fp + 0x48 ], %o5
     440:	82 10 00 0d 	mov  %o5, %g1
     444:	82 00 40 01 	add  %g1, %g1, %g1
     448:	82 00 40 0d 	add  %g1, %o5, %g1
     44c:	9b 28 60 02 	sll  %g1, 2, %o5
     450:	c2 07 a0 44 	ld  [ %fp + 0x44 ], %g1
     454:	82 03 40 01 	add  %o5, %g1, %g1
     458:	d0 07 a0 44 	ld  [ %fp + 0x44 ], %o0
     45c:	d2 00 60 04 	ld  [ %g1 + 4 ], %o1
     460:	7f ff ff e7 	call  3fc <print_path>
     464:	01 00 00 00 	nop 
     468:	03 00 00 4b 	sethi  %hi(0x12c00), %g1
     46c:	9a 10 62 3c 	or  %g1, 0x23c, %o5	! 12e3c <fileout>
     470:	c2 07 a0 48 	ld  [ %fp + 0x48 ], %g1
     474:	98 00 60 01 	add  %g1, 1, %o4
     478:	d0 03 40 00 	ld  [ %o5 ], %o0
     47c:	03 00 00 39 	sethi  %hi(0xe400), %g1
     480:	92 10 61 30 	or  %g1, 0x130, %o1	! e530 <__CTOR_END__+0x200>
     484:	94 10 00 0c 	mov  %o4, %o2
     488:	40 00 0a da 	call  2ff0 <fprintf>
     48c:	01 00 00 00 	nop 
     490:	01 00 00 00 	nop 
     494:	81 c7 e0 08 	ret 
     498:	81 e8 00 00 	restore 

0000049c <printResult>:
     49c:	9d e3 bf 98 	save  %sp, -104, %sp
     4a0:	f0 27 a0 44 	st  %i0, [ %fp + 0x44 ]
     4a4:	f2 27 a0 48 	st  %i1, [ %fp + 0x48 ]
     4a8:	f4 27 a0 4c 	st  %i2, [ %fp + 0x4c ]
     4ac:	03 00 00 4d 	sethi  %hi(0x13400), %g1
     4b0:	90 10 62 40 	or  %g1, 0x240, %o0	! 13640 <mutex_print>
     4b4:	40 00 05 53 	call  1a00 <pthread_mutex_lock>
     4b8:	01 00 00 00 	nop 
     4bc:	03 00 00 4b 	sethi  %hi(0x12c00), %g1
     4c0:	96 10 62 3c 	or  %g1, 0x23c, %o3	! 12e3c <fileout>
     4c4:	c2 07 a0 48 	ld  [ %fp + 0x48 ], %g1
     4c8:	94 00 60 01 	add  %g1, 1, %o2
     4cc:	c2 07 a0 4c 	ld  [ %fp + 0x4c ], %g1
     4d0:	9e 00 60 01 	add  %g1, 1, %o7
     4d4:	03 00 00 3e 	sethi  %hi(0xf800), %g1
     4d8:	a0 10 61 2c 	or  %g1, 0x12c, %l0	! f92c <rgnNodes>
     4dc:	d8 07 a0 4c 	ld  [ %fp + 0x4c ], %o4
     4e0:	da 07 a0 44 	ld  [ %fp + 0x44 ], %o5
     4e4:	82 10 00 0d 	mov  %o5, %g1
     4e8:	82 00 40 01 	add  %g1, %g1, %g1
     4ec:	82 00 40 0d 	add  %g1, %o5, %g1
     4f0:	9b 28 60 06 	sll  %g1, 6, %o5
     4f4:	82 10 00 0c 	mov  %o4, %g1
     4f8:	82 00 40 01 	add  %g1, %g1, %g1
     4fc:	82 00 40 0c 	add  %g1, %o4, %g1
     500:	83 28 60 02 	sll  %g1, 2, %g1
     504:	9a 03 40 01 	add  %o5, %g1, %o5
     508:	d0 02 c0 00 	ld  [ %o3 ], %o0
     50c:	03 00 00 39 	sethi  %hi(0xe400), %g1
     510:	92 10 61 38 	or  %g1, 0x138, %o1	! e538 <__CTOR_END__+0x208>
     514:	96 10 00 0f 	mov  %o7, %o3
     518:	d8 03 40 10 	ld  [ %o5 + %l0 ], %o4
     51c:	40 00 0a b5 	call  2ff0 <fprintf>
     520:	01 00 00 00 	nop 
     524:	03 00 00 4b 	sethi  %hi(0x12c00), %g1
     528:	9a 10 62 3c 	or  %g1, 0x23c, %o5	! 12e3c <fileout>
     52c:	c2 07 a0 48 	ld  [ %fp + 0x48 ], %g1
     530:	98 00 60 01 	add  %g1, 1, %o4
     534:	d0 03 40 00 	ld  [ %o5 ], %o0
     538:	03 00 00 39 	sethi  %hi(0xe400), %g1
     53c:	92 10 61 68 	or  %g1, 0x168, %o1	! e568 <__CTOR_END__+0x238>
     540:	94 10 00 0c 	mov  %o4, %o2
     544:	40 00 0a ab 	call  2ff0 <fprintf>
     548:	01 00 00 00 	nop 
     54c:	da 07 a0 44 	ld  [ %fp + 0x44 ], %o5
     550:	82 10 00 0d 	mov  %o5, %g1
     554:	82 00 40 01 	add  %g1, %g1, %g1
     558:	82 00 40 0d 	add  %g1, %o5, %g1
     55c:	9b 28 60 06 	sll  %g1, 6, %o5
     560:	03 00 00 3e 	sethi  %hi(0xf800), %g1
     564:	82 10 61 2c 	or  %g1, 0x12c, %g1	! f92c <rgnNodes>
     568:	82 03 40 01 	add  %o5, %g1, %g1
     56c:	90 10 00 01 	mov  %g1, %o0
     570:	d2 07 a0 4c 	ld  [ %fp + 0x4c ], %o1
     574:	7f ff ff a2 	call  3fc <print_path>
     578:	01 00 00 00 	nop 
     57c:	03 00 00 4b 	sethi  %hi(0x12c00), %g1
     580:	82 10 62 3c 	or  %g1, 0x23c, %g1	! 12e3c <fileout>
     584:	d0 00 40 00 	ld  [ %g1 ], %o0
     588:	03 00 00 38 	sethi  %hi(0xe000), %g1
     58c:	92 10 63 90 	or  %g1, 0x390, %o1	! e390 <__CTOR_END__+0x60>
     590:	40 00 0a 98 	call  2ff0 <fprintf>
     594:	01 00 00 00 	nop 
     598:	03 00 00 4d 	sethi  %hi(0x13400), %g1
     59c:	90 10 62 40 	or  %g1, 0x240, %o0	! 13640 <mutex_print>
     5a0:	40 00 05 45 	call  1ab4 <pthread_mutex_unlock>
     5a4:	01 00 00 00 	nop 
     5a8:	01 00 00 00 	nop 
     5ac:	81 c7 e0 08 	ret 
     5b0:	81 e8 00 00 	restore 

000005b4 <d_enqueue>:
     5b4:	9d e3 bf 90 	save  %sp, -112, %sp
     5b8:	f0 27 a0 44 	st  %i0, [ %fp + 0x44 ]
     5bc:	f2 27 a0 48 	st  %i1, [ %fp + 0x48 ]
     5c0:	f4 27 a0 4c 	st  %i2, [ %fp + 0x4c ]
     5c4:	90 10 20 10 	mov  0x10, %o0
     5c8:	40 00 06 f8 	call  21a8 <acPthread_malloc>
     5cc:	01 00 00 00 	nop 
     5d0:	d0 27 bf f4 	st  %o0, [ %fp + -12 ]
     5d4:	03 00 00 3d 	sethi  %hi(0xf400), %g1
     5d8:	82 10 60 d4 	or  %g1, 0xd4, %g1	! f4d4 <qHead>
     5dc:	c2 00 40 00 	ld  [ %g1 ], %g1
     5e0:	c2 27 bf f0 	st  %g1, [ %fp + -16 ]
     5e4:	c2 07 bf f4 	ld  [ %fp + -12 ], %g1
     5e8:	80 a0 60 00 	cmp  %g1, 0
     5ec:	12 80 00 0d 	bne  620 <d_enqueue+0x6c>
     5f0:	01 00 00 00 	nop 
     5f4:	03 00 00 3c 	sethi  %hi(0xf000), %g1
     5f8:	82 10 60 98 	or  %g1, 0x98, %g1	! f098 <_impure_ptr>
     5fc:	c2 00 40 00 	ld  [ %g1 ], %g1
     600:	d0 00 60 0c 	ld  [ %g1 + 0xc ], %o0
     604:	03 00 00 39 	sethi  %hi(0xe400), %g1
     608:	92 10 61 78 	or  %g1, 0x178, %o1	! e578 <__CTOR_END__+0x248>
     60c:	40 00 0a 79 	call  2ff0 <fprintf>
     610:	01 00 00 00 	nop 
     614:	90 10 20 01 	mov  1, %o0	! 1 <__DYNAMIC+0x1>
     618:	40 00 08 f8 	call  29f8 <exit>
     61c:	01 00 00 00 	nop 
     620:	da 07 bf f4 	ld  [ %fp + -12 ], %o5
     624:	c2 07 a0 44 	ld  [ %fp + 0x44 ], %g1
     628:	c2 23 40 00 	st  %g1, [ %o5 ]
     62c:	da 07 bf f4 	ld  [ %fp + -12 ], %o5
     630:	c2 07 a0 48 	ld  [ %fp + 0x48 ], %g1
     634:	c2 23 60 04 	st  %g1, [ %o5 + 4 ]
     638:	da 07 bf f4 	ld  [ %fp + -12 ], %o5
     63c:	c2 07 a0 4c 	ld  [ %fp + 0x4c ], %g1
     640:	c2 23 60 08 	st  %g1, [ %o5 + 8 ]
     644:	c2 07 bf f4 	ld  [ %fp + -12 ], %g1
     648:	c0 20 60 0c 	clr  [ %g1 + 0xc ]
     64c:	c2 07 bf f0 	ld  [ %fp + -16 ], %g1
     650:	80 a0 60 00 	cmp  %g1, 0
     654:	12 80 00 08 	bne  674 <d_enqueue+0xc0>
     658:	01 00 00 00 	nop 
     65c:	03 00 00 3d 	sethi  %hi(0xf400), %g1
     660:	9a 10 60 d4 	or  %g1, 0xd4, %o5	! f4d4 <qHead>
     664:	c2 07 bf f4 	ld  [ %fp + -12 ], %g1
     668:	c2 23 40 00 	st  %g1, [ %o5 ]
     66c:	10 80 00 11 	b  6b0 <d_enqueue+0xfc>
     670:	01 00 00 00 	nop 
     674:	c2 07 bf f0 	ld  [ %fp + -16 ], %g1
     678:	c2 00 60 0c 	ld  [ %g1 + 0xc ], %g1
     67c:	80 a0 60 00 	cmp  %g1, 0
     680:	12 80 00 04 	bne  690 <d_enqueue+0xdc>
     684:	01 00 00 00 	nop 
     688:	10 80 00 07 	b  6a4 <d_enqueue+0xf0>
     68c:	01 00 00 00 	nop 
     690:	c2 07 bf f0 	ld  [ %fp + -16 ], %g1
     694:	c2 00 60 0c 	ld  [ %g1 + 0xc ], %g1
     698:	c2 27 bf f0 	st  %g1, [ %fp + -16 ]
     69c:	10 bf ff f6 	b  674 <d_enqueue+0xc0>
     6a0:	01 00 00 00 	nop 
     6a4:	da 07 bf f0 	ld  [ %fp + -16 ], %o5
     6a8:	c2 07 bf f4 	ld  [ %fp + -12 ], %g1
     6ac:	c2 23 60 0c 	st  %g1, [ %o5 + 0xc ]
     6b0:	81 c7 e0 08 	ret 
     6b4:	81 e8 00 00 	restore 

000006b8 <d_dequeue>:
     6b8:	9d e3 bf 90 	save  %sp, -112, %sp
     6bc:	f0 27 a0 44 	st  %i0, [ %fp + 0x44 ]
     6c0:	f2 27 a0 48 	st  %i1, [ %fp + 0x48 ]
     6c4:	f4 27 a0 4c 	st  %i2, [ %fp + 0x4c ]
     6c8:	03 00 00 3d 	sethi  %hi(0xf400), %g1
     6cc:	82 10 60 d4 	or  %g1, 0xd4, %g1	! f4d4 <qHead>
     6d0:	c2 00 40 00 	ld  [ %g1 ], %g1
     6d4:	c2 27 bf f4 	st  %g1, [ %fp + -12 ]
     6d8:	03 00 00 3d 	sethi  %hi(0xf400), %g1
     6dc:	82 10 60 d4 	or  %g1, 0xd4, %g1	! f4d4 <qHead>
     6e0:	c2 00 40 00 	ld  [ %g1 ], %g1
     6e4:	80 a0 60 00 	cmp  %g1, 0
     6e8:	02 80 00 1e 	be  760 <d_dequeue+0xa8>
     6ec:	01 00 00 00 	nop 
     6f0:	da 07 a0 44 	ld  [ %fp + 0x44 ], %o5
     6f4:	03 00 00 3d 	sethi  %hi(0xf400), %g1
     6f8:	82 10 60 d4 	or  %g1, 0xd4, %g1	! f4d4 <qHead>
     6fc:	c2 00 40 00 	ld  [ %g1 ], %g1
     700:	c2 00 40 00 	ld  [ %g1 ], %g1
     704:	c2 23 40 00 	st  %g1, [ %o5 ]
     708:	da 07 a0 48 	ld  [ %fp + 0x48 ], %o5
     70c:	03 00 00 3d 	sethi  %hi(0xf400), %g1
     710:	82 10 60 d4 	or  %g1, 0xd4, %g1	! f4d4 <qHead>
     714:	c2 00 40 00 	ld  [ %g1 ], %g1
     718:	c2 00 60 04 	ld  [ %g1 + 4 ], %g1
     71c:	c2 23 40 00 	st  %g1, [ %o5 ]
     720:	da 07 a0 4c 	ld  [ %fp + 0x4c ], %o5
     724:	03 00 00 3d 	sethi  %hi(0xf400), %g1
     728:	82 10 60 d4 	or  %g1, 0xd4, %g1	! f4d4 <qHead>
     72c:	c2 00 40 00 	ld  [ %g1 ], %g1
     730:	c2 00 60 08 	ld  [ %g1 + 8 ], %g1
     734:	c2 23 40 00 	st  %g1, [ %o5 ]
     738:	03 00 00 3d 	sethi  %hi(0xf400), %g1
     73c:	9a 10 60 d4 	or  %g1, 0xd4, %o5	! f4d4 <qHead>
     740:	03 00 00 3d 	sethi  %hi(0xf400), %g1
     744:	82 10 60 d4 	or  %g1, 0xd4, %g1	! f4d4 <qHead>
     748:	c2 00 40 00 	ld  [ %g1 ], %g1
     74c:	c2 00 60 0c 	ld  [ %g1 + 0xc ], %g1
     750:	c2 23 40 00 	st  %g1, [ %o5 ]
     754:	d0 07 bf f4 	ld  [ %fp + -12 ], %o0
     758:	40 00 06 d0 	call  2298 <acPthread_free>
     75c:	01 00 00 00 	nop 
     760:	01 00 00 00 	nop 
     764:	81 c7 e0 08 	ret 
     768:	81 e8 00 00 	restore 

0000076c <qcount>:
     76c:	9d e3 bf 98 	save  %sp, -104, %sp
     770:	f0 27 a0 44 	st  %i0, [ %fp + 0x44 ]
     774:	03 00 00 4c 	sethi  %hi(0x13000), %g1
     778:	ba 10 62 04 	or  %g1, 0x204, %i5	! 13204 <g_qCount>
     77c:	c2 07 a0 44 	ld  [ %fp + 0x44 ], %g1
     780:	83 28 60 02 	sll  %g1, 2, %g1
     784:	c2 07 40 01 	ld  [ %i5 + %g1 ], %g1
     788:	b0 10 00 01 	mov  %g1, %i0
     78c:	81 c7 e0 08 	ret 
     790:	81 e8 00 00 	restore 

00000794 <startThreads>:
     794:	9d e3 bf 78 	save  %sp, -136, %sp
     798:	c0 27 bf f4 	clr  [ %fp + -12 ]
     79c:	03 00 00 4c 	sethi  %hi(0x13000), %g1
     7a0:	82 10 63 08 	or  %g1, 0x308, %g1	! 13308 <PROCESSORS>
     7a4:	da 07 bf f4 	ld  [ %fp + -12 ], %o5
     7a8:	c2 00 40 00 	ld  [ %g1 ], %g1
     7ac:	80 a3 40 01 	cmp  %o5, %g1
     7b0:	06 80 00 04 	bl  7c0 <startThreads+0x2c>
     7b4:	01 00 00 00 	nop 
     7b8:	10 80 00 29 	b  85c <startThreads+0xc8>
     7bc:	01 00 00 00 	nop 
     7c0:	90 10 20 04 	mov  4, %o0	! 4 <__DYNAMIC+0x4>
     7c4:	40 00 06 79 	call  21a8 <acPthread_malloc>
     7c8:	01 00 00 00 	nop 
     7cc:	d0 27 bf e4 	st  %o0, [ %fp + -28 ]
     7d0:	da 07 bf e4 	ld  [ %fp + -28 ], %o5
     7d4:	c2 07 bf f4 	ld  [ %fp + -12 ], %g1
     7d8:	c2 23 40 00 	st  %g1, [ %o5 ]
     7dc:	82 07 bf e8 	add  %fp, -24, %g1
     7e0:	90 10 00 01 	mov  %g1, %o0
     7e4:	92 10 20 00 	clr  %o1
     7e8:	03 00 00 02 	sethi  %hi(0x800), %g1
     7ec:	94 10 60 b4 	or  %g1, 0xb4, %o2	! 8b4 <startWorking>
     7f0:	d6 07 bf e4 	ld  [ %fp + -28 ], %o3
     7f4:	40 00 05 b5 	call  1ec8 <pthread_create>
     7f8:	01 00 00 00 	nop 
     7fc:	82 10 00 08 	mov  %o0, %g1
     800:	c2 27 bf f0 	st  %g1, [ %fp + -16 ]
     804:	c2 07 bf f0 	ld  [ %fp + -16 ], %g1
     808:	80 a0 60 00 	cmp  %g1, 0
     80c:	02 80 00 09 	be  830 <startThreads+0x9c>
     810:	01 00 00 00 	nop 
     814:	03 00 00 39 	sethi  %hi(0xe400), %g1
     818:	90 10 61 88 	or  %g1, 0x188, %o0	! e588 <__CTOR_END__+0x258>
     81c:	40 00 0e c3 	call  4328 <printf>
     820:	01 00 00 00 	nop 
     824:	90 10 20 00 	clr  %o0	! 0 <__DYNAMIC>
     828:	40 00 08 74 	call  29f8 <exit>
     82c:	01 00 00 00 	nop 
     830:	03 00 00 3d 	sethi  %hi(0xf400), %g1
     834:	98 10 62 2c 	or  %g1, 0x22c, %o4	! f62c <threadPool>
     838:	c2 07 bf f4 	ld  [ %fp + -12 ], %g1
     83c:	9b 28 60 02 	sll  %g1, 2, %o5
     840:	c2 07 bf f4 	ld  [ %fp + -12 ], %g1
     844:	c2 23 00 0d 	st  %g1, [ %o4 + %o5 ]
     848:	c2 07 bf f4 	ld  [ %fp + -12 ], %g1
     84c:	82 00 60 01 	inc  %g1
     850:	c2 27 bf f4 	st  %g1, [ %fp + -12 ]
     854:	10 bf ff d2 	b  79c <startThreads+0x8>
     858:	01 00 00 00 	nop 
     85c:	c0 27 bf f4 	clr  [ %fp + -12 ]
     860:	03 00 00 4c 	sethi  %hi(0x13000), %g1
     864:	82 10 63 08 	or  %g1, 0x308, %g1	! 13308 <PROCESSORS>
     868:	da 07 bf f4 	ld  [ %fp + -12 ], %o5
     86c:	c2 00 40 00 	ld  [ %g1 ], %g1
     870:	80 a3 40 01 	cmp  %o5, %g1
     874:	06 80 00 04 	bl  884 <startThreads+0xf0>
     878:	01 00 00 00 	nop 
     87c:	10 80 00 0c 	b  8ac <startThreads+0x118>
     880:	01 00 00 00 	nop 
     884:	82 07 bf d8 	add  %fp, -40, %g1
     888:	90 10 00 01 	mov  %g1, %o0
     88c:	92 10 20 00 	clr  %o1
     890:	40 00 04 46 	call  19a8 <pthread_join>
     894:	01 00 00 00 	nop 
     898:	c2 07 bf f4 	ld  [ %fp + -12 ], %g1
     89c:	82 00 60 01 	inc  %g1
     8a0:	c2 27 bf f4 	st  %g1, [ %fp + -12 ]
     8a4:	10 bf ff ef 	b  860 <startThreads+0xcc>
     8a8:	01 00 00 00 	nop 
     8ac:	81 c7 e0 08 	ret 
     8b0:	81 e8 00 00 	restore 

000008b4 <startWorking>:
     8b4:	9d e3 bf 88 	save  %sp, -120, %sp
     8b8:	f0 27 a0 44 	st  %i0, [ %fp + 0x44 ]
     8bc:	c2 07 a0 44 	ld  [ %fp + 0x44 ], %g1
     8c0:	c2 27 bf ec 	st  %g1, [ %fp + -20 ]
     8c4:	c2 07 bf ec 	ld  [ %fp + -20 ], %g1
     8c8:	c2 00 40 00 	ld  [ %g1 ], %g1
     8cc:	c2 27 bf e8 	st  %g1, [ %fp + -24 ]
     8d0:	d0 07 bf e8 	ld  [ %fp + -24 ], %o0
     8d4:	40 00 00 06 	call  8ec <dijkstra>
     8d8:	01 00 00 00 	nop 
     8dc:	82 10 20 00 	clr  %g1	! 0 <__DYNAMIC>
     8e0:	b0 10 00 01 	mov  %g1, %i0
     8e4:	81 c7 e0 08 	ret 
     8e8:	81 e8 00 00 	restore 

000008ec <dijkstra>:
     8ec:	9d e3 bf 78 	save  %sp, -136, %sp
     8f0:	f0 27 a0 44 	st  %i0, [ %fp + 0x44 ]
     8f4:	82 10 3f ff 	mov  -1, %g1
     8f8:	c2 27 bf dc 	st  %g1, [ %fp + -36 ]
     8fc:	03 00 00 3d 	sethi  %hi(0xf400), %g1
     900:	9a 10 63 2c 	or  %g1, 0x32c, %o5	! f72c <tasks>
     904:	c2 07 a0 44 	ld  [ %fp + 0x44 ], %g1
     908:	83 28 60 03 	sll  %g1, 3, %g1
     90c:	c2 03 40 01 	ld  [ %o5 + %g1 ], %g1
     910:	c2 27 bf f4 	st  %g1, [ %fp + -12 ]
     914:	03 00 00 3d 	sethi  %hi(0xf400), %g1
     918:	9a 10 63 2c 	or  %g1, 0x32c, %o5	! f72c <tasks>
     91c:	c2 07 a0 44 	ld  [ %fp + 0x44 ], %g1
     920:	83 28 60 03 	sll  %g1, 3, %g1
     924:	82 00 40 0d 	add  %g1, %o5, %g1
     928:	da 07 bf f4 	ld  [ %fp + -12 ], %o5
     92c:	c2 00 60 04 	ld  [ %g1 + 4 ], %g1
     930:	80 a3 40 01 	cmp  %o5, %g1
     934:	06 80 00 04 	bl  944 <dijkstra+0x58>
     938:	01 00 00 00 	nop 
     93c:	10 80 01 d1 	b  1080 <dijkstra+0x794>
     940:	01 00 00 00 	nop 
     944:	03 00 00 4b 	sethi  %hi(0x12c00), %g1
     948:	9a 10 62 40 	or  %g1, 0x240, %o5	! 12e40 <nodes_tasks>
     94c:	c2 07 bf f4 	ld  [ %fp + -12 ], %g1
     950:	83 28 60 03 	sll  %g1, 3, %g1
     954:	c2 03 40 01 	ld  [ %o5 + %g1 ], %g1
     958:	c2 27 bf e4 	st  %g1, [ %fp + -28 ]
     95c:	03 00 00 4b 	sethi  %hi(0x12c00), %g1
     960:	9a 10 62 40 	or  %g1, 0x240, %o5	! 12e40 <nodes_tasks>
     964:	c2 07 bf f4 	ld  [ %fp + -12 ], %g1
     968:	83 28 60 03 	sll  %g1, 3, %g1
     96c:	82 00 40 0d 	add  %g1, %o5, %g1
     970:	c2 00 60 04 	ld  [ %g1 + 4 ], %g1
     974:	c2 27 bf e0 	st  %g1, [ %fp + -32 ]
     978:	82 10 3f ff 	mov  -1, %g1
     97c:	c2 27 bf dc 	st  %g1, [ %fp + -36 ]
     980:	03 00 00 4c 	sethi  %hi(0x13000), %g1
     984:	98 10 63 20 	or  %g1, 0x320, %o4	! 13320 <uVertex>
     988:	da 07 a0 44 	ld  [ %fp + 0x44 ], %o5
     98c:	82 10 00 0d 	mov  %o5, %g1
     990:	82 00 40 01 	add  %g1, %g1, %g1
     994:	82 00 40 0d 	add  %g1, %o5, %g1
     998:	83 28 60 02 	sll  %g1, 2, %g1
     99c:	9a 00 40 0c 	add  %g1, %o4, %o5
     9a0:	03 00 00 09 	sethi  %hi(0x2400), %g1
     9a4:	82 10 63 0f 	or  %g1, 0x30f, %g1	! 270f <not_too_big+0x7>
     9a8:	c2 23 60 08 	st  %g1, [ %o5 + 8 ]
     9ac:	03 00 00 4c 	sethi  %hi(0x13000), %g1
     9b0:	98 10 63 20 	or  %g1, 0x320, %o4	! 13320 <uVertex>
     9b4:	da 07 a0 44 	ld  [ %fp + 0x44 ], %o5
     9b8:	82 10 00 0d 	mov  %o5, %g1
     9bc:	82 00 40 01 	add  %g1, %g1, %g1
     9c0:	82 00 40 0d 	add  %g1, %o5, %g1
     9c4:	9b 28 60 02 	sll  %g1, 2, %o5
     9c8:	c2 07 a0 44 	ld  [ %fp + 0x44 ], %g1
     9cc:	c2 23 00 0d 	st  %g1, [ %o4 + %o5 ]
     9d0:	03 00 00 4c 	sethi  %hi(0x13000), %g1
     9d4:	98 10 63 20 	or  %g1, 0x320, %o4	! 13320 <uVertex>
     9d8:	da 07 a0 44 	ld  [ %fp + 0x44 ], %o5
     9dc:	82 10 00 0d 	mov  %o5, %g1
     9e0:	82 00 40 01 	add  %g1, %g1, %g1
     9e4:	82 00 40 0d 	add  %g1, %o5, %g1
     9e8:	83 28 60 02 	sll  %g1, 2, %g1
     9ec:	9a 00 40 0c 	add  %g1, %o4, %o5
     9f0:	03 00 00 09 	sethi  %hi(0x2400), %g1
     9f4:	82 10 63 0f 	or  %g1, 0x30f, %g1	! 270f <not_too_big+0x7>
     9f8:	c2 23 60 04 	st  %g1, [ %o5 + 4 ]
     9fc:	03 00 00 4c 	sethi  %hi(0x13000), %g1
     a00:	9a 10 62 04 	or  %g1, 0x204, %o5	! 13204 <g_qCount>
     a04:	c2 07 a0 44 	ld  [ %fp + 0x44 ], %g1
     a08:	83 28 60 02 	sll  %g1, 2, %g1
     a0c:	c0 23 40 01 	clr  [ %o5 + %g1 ]
     a10:	82 10 3f ff 	mov  -1, %g1
     a14:	c2 27 bf dc 	st  %g1, [ %fp + -36 ]
     a18:	c0 27 bf ec 	clr  [ %fp + -20 ]
     a1c:	c2 07 bf ec 	ld  [ %fp + -20 ], %g1
     a20:	80 a0 60 0f 	cmp  %g1, 0xf
     a24:	04 80 00 04 	ble  a34 <dijkstra+0x148>
     a28:	01 00 00 00 	nop 
     a2c:	10 80 00 3d 	b  b20 <dijkstra+0x234>
     a30:	01 00 00 00 	nop 
     a34:	03 00 00 3e 	sethi  %hi(0xf800), %g1
     a38:	94 10 61 2c 	or  %g1, 0x12c, %o2	! f92c <rgnNodes>
     a3c:	d8 07 bf ec 	ld  [ %fp + -20 ], %o4
     a40:	da 07 a0 44 	ld  [ %fp + 0x44 ], %o5
     a44:	82 10 00 0d 	mov  %o5, %g1
     a48:	82 00 40 01 	add  %g1, %g1, %g1
     a4c:	82 00 40 0d 	add  %g1, %o5, %g1
     a50:	9b 28 60 06 	sll  %g1, 6, %o5
     a54:	82 10 00 0c 	mov  %o4, %g1
     a58:	82 00 40 01 	add  %g1, %g1, %g1
     a5c:	82 00 40 0c 	add  %g1, %o4, %g1
     a60:	83 28 60 02 	sll  %g1, 2, %g1
     a64:	96 03 40 01 	add  %o5, %g1, %o3
     a68:	03 00 00 4a 	sethi  %hi(0x12800), %g1
     a6c:	98 10 62 30 	or  %g1, 0x230, %o4	! 12a30 <AdjMatrix>
     a70:	c2 07 bf e4 	ld  [ %fp + -28 ], %g1
     a74:	9b 28 60 04 	sll  %g1, 4, %o5
     a78:	c2 07 bf ec 	ld  [ %fp + -20 ], %g1
     a7c:	82 03 40 01 	add  %o5, %g1, %g1
     a80:	83 28 60 02 	sll  %g1, 2, %g1
     a84:	c2 03 00 01 	ld  [ %o4 + %g1 ], %g1
     a88:	c2 22 c0 0a 	st  %g1, [ %o3 + %o2 ]
     a8c:	03 00 00 3e 	sethi  %hi(0xf800), %g1
     a90:	96 10 61 2c 	or  %g1, 0x12c, %o3	! f92c <rgnNodes>
     a94:	d8 07 bf ec 	ld  [ %fp + -20 ], %o4
     a98:	da 07 a0 44 	ld  [ %fp + 0x44 ], %o5
     a9c:	82 10 00 0d 	mov  %o5, %g1
     aa0:	82 00 40 01 	add  %g1, %g1, %g1
     aa4:	82 00 40 0d 	add  %g1, %o5, %g1
     aa8:	9b 28 60 06 	sll  %g1, 6, %o5
     aac:	82 10 00 0c 	mov  %o4, %g1
     ab0:	82 00 40 01 	add  %g1, %g1, %g1
     ab4:	82 00 40 0c 	add  %g1, %o4, %g1
     ab8:	83 28 60 02 	sll  %g1, 2, %g1
     abc:	82 03 40 01 	add  %o5, %g1, %g1
     ac0:	9a 00 40 0b 	add  %g1, %o3, %o5
     ac4:	03 00 00 09 	sethi  %hi(0x2400), %g1
     ac8:	82 10 63 0f 	or  %g1, 0x30f, %g1	! 270f <not_too_big+0x7>
     acc:	c2 23 60 04 	st  %g1, [ %o5 + 4 ]
     ad0:	03 00 00 3e 	sethi  %hi(0xf800), %g1
     ad4:	96 10 61 2c 	or  %g1, 0x12c, %o3	! f92c <rgnNodes>
     ad8:	d8 07 bf ec 	ld  [ %fp + -20 ], %o4
     adc:	da 07 a0 44 	ld  [ %fp + 0x44 ], %o5
     ae0:	82 10 00 0d 	mov  %o5, %g1
     ae4:	82 00 40 01 	add  %g1, %g1, %g1
     ae8:	82 00 40 0d 	add  %g1, %o5, %g1
     aec:	9b 28 60 06 	sll  %g1, 6, %o5
     af0:	82 10 00 0c 	mov  %o4, %g1
     af4:	82 00 40 01 	add  %g1, %g1, %g1
     af8:	82 00 40 0c 	add  %g1, %o4, %g1
     afc:	83 28 60 02 	sll  %g1, 2, %g1
     b00:	82 03 40 01 	add  %o5, %g1, %g1
     b04:	82 00 40 0b 	add  %g1, %o3, %g1
     b08:	c0 20 60 08 	clr  [ %g1 + 8 ]
     b0c:	c2 07 bf ec 	ld  [ %fp + -20 ], %g1
     b10:	82 00 60 01 	inc  %g1
     b14:	c2 27 bf ec 	st  %g1, [ %fp + -20 ]
     b18:	10 bf ff c1 	b  a1c <dijkstra+0x130>
     b1c:	01 00 00 00 	nop 
     b20:	01 00 00 00 	nop 
     b24:	d0 07 a0 44 	ld  [ %fp + 0x44 ], %o0
     b28:	7f ff ff 11 	call  76c <qcount>
     b2c:	01 00 00 00 	nop 
     b30:	82 10 00 08 	mov  %o0, %g1
     b34:	80 a0 60 0e 	cmp  %g1, 0xe
     b38:	04 80 00 04 	ble  b48 <dijkstra+0x25c>
     b3c:	01 00 00 00 	nop 
     b40:	10 80 01 46 	b  1058 <dijkstra+0x76c>
     b44:	01 00 00 00 	nop 
     b48:	c0 27 bf f0 	clr  [ %fp + -16 ]
     b4c:	c2 07 bf f0 	ld  [ %fp + -16 ], %g1
     b50:	80 a0 60 0f 	cmp  %g1, 0xf
     b54:	04 80 00 04 	ble  b64 <dijkstra+0x278>
     b58:	01 00 00 00 	nop 
     b5c:	10 80 00 65 	b  cf0 <dijkstra+0x404>
     b60:	01 00 00 00 	nop 
     b64:	03 00 00 3e 	sethi  %hi(0xf800), %g1
     b68:	96 10 61 2c 	or  %g1, 0x12c, %o3	! f92c <rgnNodes>
     b6c:	d8 07 bf f0 	ld  [ %fp + -16 ], %o4
     b70:	da 07 a0 44 	ld  [ %fp + 0x44 ], %o5
     b74:	82 10 00 0d 	mov  %o5, %g1
     b78:	82 00 40 01 	add  %g1, %g1, %g1
     b7c:	82 00 40 0d 	add  %g1, %o5, %g1
     b80:	9b 28 60 06 	sll  %g1, 6, %o5
     b84:	82 10 00 0c 	mov  %o4, %g1
     b88:	82 00 40 01 	add  %g1, %g1, %g1
     b8c:	82 00 40 0c 	add  %g1, %o4, %g1
     b90:	83 28 60 02 	sll  %g1, 2, %g1
     b94:	82 03 40 01 	add  %o5, %g1, %g1
     b98:	82 00 40 0b 	add  %g1, %o3, %g1
     b9c:	c2 00 60 08 	ld  [ %g1 + 8 ], %g1
     ba0:	80 a0 60 00 	cmp  %g1, 0
     ba4:	12 80 00 4e 	bne  cdc <dijkstra+0x3f0>
     ba8:	01 00 00 00 	nop 
     bac:	03 00 00 3e 	sethi  %hi(0xf800), %g1
     bb0:	94 10 61 2c 	or  %g1, 0x12c, %o2	! f92c <rgnNodes>
     bb4:	d8 07 bf f0 	ld  [ %fp + -16 ], %o4
     bb8:	da 07 a0 44 	ld  [ %fp + 0x44 ], %o5
     bbc:	82 10 00 0d 	mov  %o5, %g1
     bc0:	82 00 40 01 	add  %g1, %g1, %g1
     bc4:	82 00 40 0d 	add  %g1, %o5, %g1
     bc8:	9b 28 60 06 	sll  %g1, 6, %o5
     bcc:	82 10 00 0c 	mov  %o4, %g1
     bd0:	82 00 40 01 	add  %g1, %g1, %g1
     bd4:	82 00 40 0c 	add  %g1, %o4, %g1
     bd8:	83 28 60 02 	sll  %g1, 2, %g1
     bdc:	96 03 40 01 	add  %o5, %g1, %o3
     be0:	03 00 00 4c 	sethi  %hi(0x13000), %g1
     be4:	98 10 63 20 	or  %g1, 0x320, %o4	! 13320 <uVertex>
     be8:	da 07 a0 44 	ld  [ %fp + 0x44 ], %o5
     bec:	82 10 00 0d 	mov  %o5, %g1
     bf0:	82 00 40 01 	add  %g1, %g1, %g1
     bf4:	82 00 40 0d 	add  %g1, %o5, %g1
     bf8:	83 28 60 02 	sll  %g1, 2, %g1
     bfc:	82 00 40 0c 	add  %g1, %o4, %g1
     c00:	da 02 c0 0a 	ld  [ %o3 + %o2 ], %o5
     c04:	c2 00 60 08 	ld  [ %g1 + 8 ], %g1
     c08:	80 a3 40 01 	cmp  %o5, %g1
     c0c:	16 80 00 34 	bge  cdc <dijkstra+0x3f0>
     c10:	01 00 00 00 	nop 
     c14:	03 00 00 3e 	sethi  %hi(0xf800), %g1
     c18:	96 10 61 2c 	or  %g1, 0x12c, %o3	! f92c <rgnNodes>
     c1c:	d8 07 bf f0 	ld  [ %fp + -16 ], %o4
     c20:	da 07 a0 44 	ld  [ %fp + 0x44 ], %o5
     c24:	82 10 00 0d 	mov  %o5, %g1
     c28:	82 00 40 01 	add  %g1, %g1, %g1
     c2c:	82 00 40 0d 	add  %g1, %o5, %g1
     c30:	9b 28 60 06 	sll  %g1, 6, %o5
     c34:	82 10 00 0c 	mov  %o4, %g1
     c38:	82 00 40 01 	add  %g1, %g1, %g1
     c3c:	82 00 40 0c 	add  %g1, %o4, %g1
     c40:	83 28 60 02 	sll  %g1, 2, %g1
     c44:	82 03 40 01 	add  %o5, %g1, %g1
     c48:	c2 00 40 0b 	ld  [ %g1 + %o3 ], %g1
     c4c:	80 a0 60 00 	cmp  %g1, 0
     c50:	02 80 00 23 	be  cdc <dijkstra+0x3f0>
     c54:	01 00 00 00 	nop 
     c58:	03 00 00 4c 	sethi  %hi(0x13000), %g1
     c5c:	98 10 63 20 	or  %g1, 0x320, %o4	! 13320 <uVertex>
     c60:	da 07 a0 44 	ld  [ %fp + 0x44 ], %o5
     c64:	82 10 00 0d 	mov  %o5, %g1
     c68:	82 00 40 01 	add  %g1, %g1, %g1
     c6c:	82 00 40 0d 	add  %g1, %o5, %g1
     c70:	83 28 60 02 	sll  %g1, 2, %g1
     c74:	96 00 40 0c 	add  %g1, %o4, %o3
     c78:	03 00 00 3e 	sethi  %hi(0xf800), %g1
     c7c:	94 10 61 2c 	or  %g1, 0x12c, %o2	! f92c <rgnNodes>
     c80:	d8 07 bf f0 	ld  [ %fp + -16 ], %o4
     c84:	da 07 a0 44 	ld  [ %fp + 0x44 ], %o5
     c88:	82 10 00 0d 	mov  %o5, %g1
     c8c:	82 00 40 01 	add  %g1, %g1, %g1
     c90:	82 00 40 0d 	add  %g1, %o5, %g1
     c94:	9b 28 60 06 	sll  %g1, 6, %o5
     c98:	82 10 00 0c 	mov  %o4, %g1
     c9c:	82 00 40 01 	add  %g1, %g1, %g1
     ca0:	82 00 40 0c 	add  %g1, %o4, %g1
     ca4:	83 28 60 02 	sll  %g1, 2, %g1
     ca8:	82 03 40 01 	add  %o5, %g1, %g1
     cac:	c2 00 40 0a 	ld  [ %g1 + %o2 ], %g1
     cb0:	c2 22 e0 08 	st  %g1, [ %o3 + 8 ]
     cb4:	03 00 00 4c 	sethi  %hi(0x13000), %g1
     cb8:	98 10 63 20 	or  %g1, 0x320, %o4	! 13320 <uVertex>
     cbc:	da 07 a0 44 	ld  [ %fp + 0x44 ], %o5
     cc0:	82 10 00 0d 	mov  %o5, %g1
     cc4:	82 00 40 01 	add  %g1, %g1, %g1
     cc8:	82 00 40 0d 	add  %g1, %o5, %g1
     ccc:	83 28 60 02 	sll  %g1, 2, %g1
     cd0:	9a 00 40 0c 	add  %g1, %o4, %o5
     cd4:	c2 07 bf f0 	ld  [ %fp + -16 ], %g1
     cd8:	c2 23 60 04 	st  %g1, [ %o5 + 4 ]
     cdc:	c2 07 bf f0 	ld  [ %fp + -16 ], %g1
     ce0:	82 00 60 01 	inc  %g1
     ce4:	c2 27 bf f0 	st  %g1, [ %fp + -16 ]
     ce8:	10 bf ff 99 	b  b4c <dijkstra+0x260>
     cec:	01 00 00 00 	nop 
     cf0:	03 00 00 4a 	sethi  %hi(0x12800), %g1
     cf4:	98 10 61 2c 	or  %g1, 0x12c, %o4	! 1292c <globalMiniCost>
     cf8:	c2 07 a0 44 	ld  [ %fp + 0x44 ], %g1
     cfc:	9b 28 60 02 	sll  %g1, 2, %o5
     d00:	03 00 00 09 	sethi  %hi(0x2400), %g1
     d04:	82 10 63 0f 	or  %g1, 0x30f, %g1	! 270f <not_too_big+0x7>
     d08:	c2 23 00 0d 	st  %g1, [ %o4 + %o5 ]
     d0c:	03 00 00 4a 	sethi  %hi(0x12800), %g1
     d10:	94 10 61 2c 	or  %g1, 0x12c, %o2	! 1292c <globalMiniCost>
     d14:	c2 07 a0 44 	ld  [ %fp + 0x44 ], %g1
     d18:	97 28 60 02 	sll  %g1, 2, %o3
     d1c:	03 00 00 4c 	sethi  %hi(0x13000), %g1
     d20:	98 10 63 20 	or  %g1, 0x320, %o4	! 13320 <uVertex>
     d24:	da 07 a0 44 	ld  [ %fp + 0x44 ], %o5
     d28:	82 10 00 0d 	mov  %o5, %g1
     d2c:	82 00 40 01 	add  %g1, %g1, %g1
     d30:	82 00 40 0d 	add  %g1, %o5, %g1
     d34:	83 28 60 02 	sll  %g1, 2, %g1
     d38:	82 00 40 0c 	add  %g1, %o4, %g1
     d3c:	da 02 80 0b 	ld  [ %o2 + %o3 ], %o5
     d40:	c2 00 60 08 	ld  [ %g1 + 8 ], %g1
     d44:	80 a3 40 01 	cmp  %o5, %g1
     d48:	04 80 00 25 	ble  ddc <dijkstra+0x4f0>
     d4c:	01 00 00 00 	nop 
     d50:	03 00 00 4a 	sethi  %hi(0x12800), %g1
     d54:	94 10 61 2c 	or  %g1, 0x12c, %o2	! 1292c <globalMiniCost>
     d58:	c2 07 a0 44 	ld  [ %fp + 0x44 ], %g1
     d5c:	97 28 60 02 	sll  %g1, 2, %o3
     d60:	03 00 00 4c 	sethi  %hi(0x13000), %g1
     d64:	98 10 63 20 	or  %g1, 0x320, %o4	! 13320 <uVertex>
     d68:	da 07 a0 44 	ld  [ %fp + 0x44 ], %o5
     d6c:	82 10 00 0d 	mov  %o5, %g1
     d70:	82 00 40 01 	add  %g1, %g1, %g1
     d74:	82 00 40 0d 	add  %g1, %o5, %g1
     d78:	83 28 60 02 	sll  %g1, 2, %g1
     d7c:	82 00 40 0c 	add  %g1, %o4, %g1
     d80:	c2 00 60 08 	ld  [ %g1 + 8 ], %g1
     d84:	c2 22 80 0b 	st  %g1, [ %o2 + %o3 ]
     d88:	03 00 00 4c 	sethi  %hi(0x13000), %g1
     d8c:	98 10 63 20 	or  %g1, 0x320, %o4	! 13320 <uVertex>
     d90:	da 07 a0 44 	ld  [ %fp + 0x44 ], %o5
     d94:	82 10 00 0d 	mov  %o5, %g1
     d98:	82 00 40 01 	add  %g1, %g1, %g1
     d9c:	82 00 40 0d 	add  %g1, %o5, %g1
     da0:	83 28 60 02 	sll  %g1, 2, %g1
     da4:	82 00 40 0c 	add  %g1, %o4, %g1
     da8:	c2 00 60 04 	ld  [ %g1 + 4 ], %g1
     dac:	c2 27 bf dc 	st  %g1, [ %fp + -36 ]
     db0:	03 00 00 4c 	sethi  %hi(0x13000), %g1
     db4:	96 10 62 04 	or  %g1, 0x204, %o3	! 13204 <g_qCount>
     db8:	c2 07 a0 44 	ld  [ %fp + 0x44 ], %g1
     dbc:	99 28 60 02 	sll  %g1, 2, %o4
     dc0:	03 00 00 4c 	sethi  %hi(0x13000), %g1
     dc4:	9a 10 62 04 	or  %g1, 0x204, %o5	! 13204 <g_qCount>
     dc8:	c2 07 a0 44 	ld  [ %fp + 0x44 ], %g1
     dcc:	83 28 60 02 	sll  %g1, 2, %g1
     dd0:	c2 03 40 01 	ld  [ %o5 + %g1 ], %g1
     dd4:	82 00 60 01 	inc  %g1
     dd8:	c2 22 c0 0c 	st  %g1, [ %o3 + %o4 ]
     ddc:	c0 27 bf ec 	clr  [ %fp + -20 ]
     de0:	c2 07 bf ec 	ld  [ %fp + -20 ], %g1
     de4:	80 a0 60 0f 	cmp  %g1, 0xf
     de8:	04 80 00 04 	ble  df8 <dijkstra+0x50c>
     dec:	01 00 00 00 	nop 
     df0:	10 80 00 8d 	b  1024 <dijkstra+0x738>
     df4:	01 00 00 00 	nop 
     df8:	da 07 bf ec 	ld  [ %fp + -20 ], %o5
     dfc:	c2 07 bf dc 	ld  [ %fp + -36 ], %g1
     e00:	80 a3 40 01 	cmp  %o5, %g1
     e04:	12 80 00 14 	bne  e54 <dijkstra+0x568>
     e08:	01 00 00 00 	nop 
     e0c:	03 00 00 3e 	sethi  %hi(0xf800), %g1
     e10:	96 10 61 2c 	or  %g1, 0x12c, %o3	! f92c <rgnNodes>
     e14:	d8 07 bf ec 	ld  [ %fp + -20 ], %o4
     e18:	da 07 a0 44 	ld  [ %fp + 0x44 ], %o5
     e1c:	82 10 00 0d 	mov  %o5, %g1
     e20:	82 00 40 01 	add  %g1, %g1, %g1
     e24:	82 00 40 0d 	add  %g1, %o5, %g1
     e28:	9b 28 60 06 	sll  %g1, 6, %o5
     e2c:	82 10 00 0c 	mov  %o4, %g1
     e30:	82 00 40 01 	add  %g1, %g1, %g1
     e34:	82 00 40 0c 	add  %g1, %o4, %g1
     e38:	83 28 60 02 	sll  %g1, 2, %g1
     e3c:	82 03 40 01 	add  %o5, %g1, %g1
     e40:	9a 00 40 0b 	add  %g1, %o3, %o5
     e44:	82 10 20 01 	mov  1, %g1
     e48:	c2 23 60 08 	st  %g1, [ %o5 + 8 ]
     e4c:	10 80 00 71 	b  1010 <dijkstra+0x724>
     e50:	01 00 00 00 	nop 
     e54:	03 00 00 3e 	sethi  %hi(0xf800), %g1
     e58:	96 10 61 2c 	or  %g1, 0x12c, %o3	! f92c <rgnNodes>
     e5c:	d8 07 bf ec 	ld  [ %fp + -20 ], %o4
     e60:	da 07 a0 44 	ld  [ %fp + 0x44 ], %o5
     e64:	82 10 00 0d 	mov  %o5, %g1
     e68:	82 00 40 01 	add  %g1, %g1, %g1
     e6c:	82 00 40 0d 	add  %g1, %o5, %g1
     e70:	9b 28 60 06 	sll  %g1, 6, %o5
     e74:	82 10 00 0c 	mov  %o4, %g1
     e78:	82 00 40 01 	add  %g1, %g1, %g1
     e7c:	82 00 40 0c 	add  %g1, %o4, %g1
     e80:	83 28 60 02 	sll  %g1, 2, %g1
     e84:	82 03 40 01 	add  %o5, %g1, %g1
     e88:	82 00 40 0b 	add  %g1, %o3, %g1
     e8c:	c2 00 60 08 	ld  [ %g1 + 8 ], %g1
     e90:	80 a0 60 00 	cmp  %g1, 0
     e94:	12 80 00 5f 	bne  1010 <dijkstra+0x724>
     e98:	01 00 00 00 	nop 
     e9c:	03 00 00 3e 	sethi  %hi(0xf800), %g1
     ea0:	94 10 61 2c 	or  %g1, 0x12c, %o2	! f92c <rgnNodes>
     ea4:	d8 07 bf ec 	ld  [ %fp + -20 ], %o4
     ea8:	da 07 a0 44 	ld  [ %fp + 0x44 ], %o5
     eac:	82 10 00 0d 	mov  %o5, %g1
     eb0:	82 00 40 01 	add  %g1, %g1, %g1
     eb4:	82 00 40 0d 	add  %g1, %o5, %g1
     eb8:	9b 28 60 06 	sll  %g1, 6, %o5
     ebc:	82 10 00 0c 	mov  %o4, %g1
     ec0:	82 00 40 01 	add  %g1, %g1, %g1
     ec4:	82 00 40 0c 	add  %g1, %o4, %g1
     ec8:	83 28 60 02 	sll  %g1, 2, %g1
     ecc:	92 03 40 01 	add  %o5, %g1, %o1
     ed0:	03 00 00 3e 	sethi  %hi(0xf800), %g1
     ed4:	90 10 61 2c 	or  %g1, 0x12c, %o0	! f92c <rgnNodes>
     ed8:	d8 07 bf dc 	ld  [ %fp + -36 ], %o4
     edc:	da 07 a0 44 	ld  [ %fp + 0x44 ], %o5
     ee0:	82 10 00 0d 	mov  %o5, %g1
     ee4:	82 00 40 01 	add  %g1, %g1, %g1
     ee8:	82 00 40 0d 	add  %g1, %o5, %g1
     eec:	9b 28 60 06 	sll  %g1, 6, %o5
     ef0:	82 10 00 0c 	mov  %o4, %g1
     ef4:	82 00 40 01 	add  %g1, %g1, %g1
     ef8:	82 00 40 0c 	add  %g1, %o4, %g1
     efc:	83 28 60 02 	sll  %g1, 2, %g1
     f00:	98 03 40 01 	add  %o5, %g1, %o4
     f04:	03 00 00 4a 	sethi  %hi(0x12800), %g1
     f08:	96 10 62 30 	or  %g1, 0x230, %o3	! 12a30 <AdjMatrix>
     f0c:	c2 07 bf dc 	ld  [ %fp + -36 ], %g1
     f10:	9b 28 60 04 	sll  %g1, 4, %o5
     f14:	c2 07 bf ec 	ld  [ %fp + -20 ], %g1
     f18:	82 03 40 01 	add  %o5, %g1, %g1
     f1c:	83 28 60 02 	sll  %g1, 2, %g1
     f20:	da 03 00 08 	ld  [ %o4 + %o0 ], %o5
     f24:	c2 02 c0 01 	ld  [ %o3 + %g1 ], %g1
     f28:	9a 03 40 01 	add  %o5, %g1, %o5
     f2c:	c2 02 40 0a 	ld  [ %o1 + %o2 ], %g1
     f30:	80 a0 40 0d 	cmp  %g1, %o5
     f34:	04 80 00 37 	ble  1010 <dijkstra+0x724>
     f38:	01 00 00 00 	nop 
     f3c:	03 00 00 3e 	sethi  %hi(0xf800), %g1
     f40:	94 10 61 2c 	or  %g1, 0x12c, %o2	! f92c <rgnNodes>
     f44:	d8 07 bf ec 	ld  [ %fp + -20 ], %o4
     f48:	da 07 a0 44 	ld  [ %fp + 0x44 ], %o5
     f4c:	82 10 00 0d 	mov  %o5, %g1
     f50:	82 00 40 01 	add  %g1, %g1, %g1
     f54:	82 00 40 0d 	add  %g1, %o5, %g1
     f58:	9b 28 60 06 	sll  %g1, 6, %o5
     f5c:	82 10 00 0c 	mov  %o4, %g1
     f60:	82 00 40 01 	add  %g1, %g1, %g1
     f64:	82 00 40 0c 	add  %g1, %o4, %g1
     f68:	83 28 60 02 	sll  %g1, 2, %g1
     f6c:	92 03 40 01 	add  %o5, %g1, %o1
     f70:	03 00 00 3e 	sethi  %hi(0xf800), %g1
     f74:	90 10 61 2c 	or  %g1, 0x12c, %o0	! f92c <rgnNodes>
     f78:	d8 07 bf dc 	ld  [ %fp + -36 ], %o4
     f7c:	da 07 a0 44 	ld  [ %fp + 0x44 ], %o5
     f80:	82 10 00 0d 	mov  %o5, %g1
     f84:	82 00 40 01 	add  %g1, %g1, %g1
     f88:	82 00 40 0d 	add  %g1, %o5, %g1
     f8c:	9b 28 60 06 	sll  %g1, 6, %o5
     f90:	82 10 00 0c 	mov  %o4, %g1
     f94:	82 00 40 01 	add  %g1, %g1, %g1
     f98:	82 00 40 0c 	add  %g1, %o4, %g1
     f9c:	83 28 60 02 	sll  %g1, 2, %g1
     fa0:	98 03 40 01 	add  %o5, %g1, %o4
     fa4:	03 00 00 4a 	sethi  %hi(0x12800), %g1
     fa8:	96 10 62 30 	or  %g1, 0x230, %o3	! 12a30 <AdjMatrix>
     fac:	c2 07 bf dc 	ld  [ %fp + -36 ], %g1
     fb0:	9b 28 60 04 	sll  %g1, 4, %o5
     fb4:	c2 07 bf ec 	ld  [ %fp + -20 ], %g1
     fb8:	82 03 40 01 	add  %o5, %g1, %g1
     fbc:	83 28 60 02 	sll  %g1, 2, %g1
     fc0:	da 03 00 08 	ld  [ %o4 + %o0 ], %o5
     fc4:	c2 02 c0 01 	ld  [ %o3 + %g1 ], %g1
     fc8:	82 03 40 01 	add  %o5, %g1, %g1
     fcc:	c2 22 40 0a 	st  %g1, [ %o1 + %o2 ]
     fd0:	03 00 00 3e 	sethi  %hi(0xf800), %g1
     fd4:	96 10 61 2c 	or  %g1, 0x12c, %o3	! f92c <rgnNodes>
     fd8:	d8 07 bf ec 	ld  [ %fp + -20 ], %o4
     fdc:	da 07 a0 44 	ld  [ %fp + 0x44 ], %o5
     fe0:	82 10 00 0d 	mov  %o5, %g1
     fe4:	82 00 40 01 	add  %g1, %g1, %g1
     fe8:	82 00 40 0d 	add  %g1, %o5, %g1
     fec:	9b 28 60 06 	sll  %g1, 6, %o5
     ff0:	82 10 00 0c 	mov  %o4, %g1
     ff4:	82 00 40 01 	add  %g1, %g1, %g1
     ff8:	82 00 40 0c 	add  %g1, %o4, %g1
     ffc:	83 28 60 02 	sll  %g1, 2, %g1
    1000:	82 03 40 01 	add  %o5, %g1, %g1
    1004:	9a 00 40 0b 	add  %g1, %o3, %o5
    1008:	c2 07 bf dc 	ld  [ %fp + -36 ], %g1
    100c:	c2 23 60 04 	st  %g1, [ %o5 + 4 ]
    1010:	c2 07 bf ec 	ld  [ %fp + -20 ], %g1
    1014:	82 00 60 01 	inc  %g1
    1018:	c2 27 bf ec 	st  %g1, [ %fp + -20 ]
    101c:	10 bf ff 71 	b  de0 <dijkstra+0x4f4>
    1020:	01 00 00 00 	nop 
    1024:	03 00 00 4c 	sethi  %hi(0x13000), %g1
    1028:	98 10 63 20 	or  %g1, 0x320, %o4	! 13320 <uVertex>
    102c:	da 07 a0 44 	ld  [ %fp + 0x44 ], %o5
    1030:	82 10 00 0d 	mov  %o5, %g1
    1034:	82 00 40 01 	add  %g1, %g1, %g1
    1038:	82 00 40 0d 	add  %g1, %o5, %g1
    103c:	83 28 60 02 	sll  %g1, 2, %g1
    1040:	9a 00 40 0c 	add  %g1, %o4, %o5
    1044:	03 00 00 09 	sethi  %hi(0x2400), %g1
    1048:	82 10 63 0f 	or  %g1, 0x30f, %g1	! 270f <not_too_big+0x7>
    104c:	c2 23 60 08 	st  %g1, [ %o5 + 8 ]
    1050:	10 bf fe b5 	b  b24 <dijkstra+0x238>
    1054:	01 00 00 00 	nop 
    1058:	d0 07 a0 44 	ld  [ %fp + 0x44 ], %o0
    105c:	d2 07 bf e4 	ld  [ %fp + -28 ], %o1
    1060:	d4 07 bf e0 	ld  [ %fp + -32 ], %o2
    1064:	7f ff fd 0e 	call  49c <printResult>
    1068:	01 00 00 00 	nop 
    106c:	c2 07 bf f4 	ld  [ %fp + -12 ], %g1
    1070:	82 00 60 01 	inc  %g1
    1074:	c2 27 bf f4 	st  %g1, [ %fp + -12 ]
    1078:	10 bf fe 27 	b  914 <dijkstra+0x28>
    107c:	01 00 00 00 	nop 
    1080:	b0 10 00 01 	mov  %g1, %i0
    1084:	81 c7 e0 08 	ret 
    1088:	81 e8 00 00 	restore 

0000108c <divide_task_group>:
    108c:	9d e3 bf 88 	save  %sp, -120, %sp
    1090:	f0 27 a0 44 	st  %i0, [ %fp + 0x44 ]
    1094:	c0 27 bf f4 	clr  [ %fp + -12 ]
    1098:	03 00 00 4c 	sethi  %hi(0x13000), %g1
    109c:	82 10 63 08 	or  %g1, 0x308, %g1	! 13308 <PROCESSORS>
    10a0:	da 07 bf f4 	ld  [ %fp + -12 ], %o5
    10a4:	c2 00 40 00 	ld  [ %g1 ], %g1
    10a8:	80 a3 40 01 	cmp  %o5, %g1
    10ac:	06 80 00 04 	bl  10bc <divide_task_group+0x30>
    10b0:	01 00 00 00 	nop 
    10b4:	10 80 00 52 	b  11fc <divide_task_group+0x170>
    10b8:	01 00 00 00 	nop 
    10bc:	03 00 00 3d 	sethi  %hi(0xf400), %g1
    10c0:	a0 10 63 2c 	or  %g1, 0x32c, %l0	! f72c <tasks>
    10c4:	c2 07 bf f4 	ld  [ %fp + -12 ], %g1
    10c8:	a3 28 60 03 	sll  %g1, 3, %l1
    10cc:	03 00 00 4c 	sethi  %hi(0x13000), %g1
    10d0:	82 10 63 08 	or  %g1, 0x308, %g1	! 13308 <PROCESSORS>
    10d4:	d0 07 a0 44 	ld  [ %fp + 0x44 ], %o0
    10d8:	d2 00 40 00 	ld  [ %g1 ], %o1
    10dc:	40 00 04 bb 	call  23c8 <.div>
    10e0:	01 00 00 00 	nop 
    10e4:	82 10 00 08 	mov  %o0, %g1
    10e8:	90 10 00 01 	mov  %g1, %o0
    10ec:	d2 07 bf f4 	ld  [ %fp + -12 ], %o1
    10f0:	40 00 04 7a 	call  22d8 <.umul>
    10f4:	01 00 00 00 	nop 
    10f8:	82 10 00 08 	mov  %o0, %g1
    10fc:	c2 24 00 11 	st  %g1, [ %l0 + %l1 ]
    1100:	03 00 00 3d 	sethi  %hi(0xf400), %g1
    1104:	9a 10 63 2c 	or  %g1, 0x32c, %o5	! f72c <tasks>
    1108:	c2 07 bf f4 	ld  [ %fp + -12 ], %g1
    110c:	83 28 60 03 	sll  %g1, 3, %g1
    1110:	82 00 40 0d 	add  %g1, %o5, %g1
    1114:	c2 27 bf f0 	st  %g1, [ %fp + -16 ]
    1118:	03 00 00 4c 	sethi  %hi(0x13000), %g1
    111c:	82 10 63 08 	or  %g1, 0x308, %g1	! 13308 <PROCESSORS>
    1120:	d0 07 a0 44 	ld  [ %fp + 0x44 ], %o0
    1124:	d2 00 40 00 	ld  [ %g1 ], %o1
    1128:	40 00 04 a8 	call  23c8 <.div>
    112c:	01 00 00 00 	nop 
    1130:	9a 10 00 08 	mov  %o0, %o5
    1134:	c2 07 bf f4 	ld  [ %fp + -12 ], %g1
    1138:	82 00 60 01 	inc  %g1
    113c:	90 10 00 0d 	mov  %o5, %o0
    1140:	92 10 00 01 	mov  %g1, %o1
    1144:	40 00 04 65 	call  22d8 <.umul>
    1148:	01 00 00 00 	nop 
    114c:	82 10 00 08 	mov  %o0, %g1
    1150:	c2 27 bf ec 	st  %g1, [ %fp + -20 ]
    1154:	c2 07 bf f4 	ld  [ %fp + -12 ], %g1
    1158:	9a 00 60 01 	add  %g1, 1, %o5
    115c:	03 00 00 4c 	sethi  %hi(0x13000), %g1
    1160:	82 10 63 08 	or  %g1, 0x308, %g1	! 13308 <PROCESSORS>
    1164:	c2 00 40 00 	ld  [ %g1 ], %g1
    1168:	82 1b 40 01 	xor  %o5, %g1, %g1
    116c:	80 a0 00 01 	cmp  %g0, %g1
    1170:	a0 60 3f ff 	subx  %g0, -1, %l0
    1174:	03 00 00 4c 	sethi  %hi(0x13000), %g1
    1178:	9a 10 63 08 	or  %g1, 0x308, %o5	! 13308 <PROCESSORS>
    117c:	c2 07 a0 44 	ld  [ %fp + 0x44 ], %g1
    1180:	90 10 00 01 	mov  %g1, %o0
    1184:	d2 03 40 00 	ld  [ %o5 ], %o1
    1188:	40 00 05 3c 	call  2678 <.rem>
    118c:	01 00 00 00 	nop 
    1190:	82 10 00 08 	mov  %o0, %g1
    1194:	82 18 60 00 	xor  %g1, 0, %g1
    1198:	80 a0 00 01 	cmp  %g0, %g1
    119c:	82 40 20 00 	addx  %g0, 0, %g1
    11a0:	82 0c 00 01 	and  %l0, %g1, %g1
    11a4:	80 a0 60 00 	cmp  %g1, 0
    11a8:	02 80 00 0d 	be  11dc <divide_task_group+0x150>
    11ac:	01 00 00 00 	nop 
    11b0:	03 00 00 4c 	sethi  %hi(0x13000), %g1
    11b4:	9a 10 63 08 	or  %g1, 0x308, %o5	! 13308 <PROCESSORS>
    11b8:	c2 07 a0 44 	ld  [ %fp + 0x44 ], %g1
    11bc:	90 10 00 01 	mov  %g1, %o0
    11c0:	d2 03 40 00 	ld  [ %o5 ], %o1
    11c4:	40 00 05 2d 	call  2678 <.rem>
    11c8:	01 00 00 00 	nop 
    11cc:	82 10 00 08 	mov  %o0, %g1
    11d0:	da 07 bf ec 	ld  [ %fp + -20 ], %o5
    11d4:	9a 03 40 01 	add  %o5, %g1, %o5
    11d8:	da 27 bf ec 	st  %o5, [ %fp + -20 ]
    11dc:	da 07 bf ec 	ld  [ %fp + -20 ], %o5
    11e0:	c2 07 bf f0 	ld  [ %fp + -16 ], %g1
    11e4:	da 20 60 04 	st  %o5, [ %g1 + 4 ]
    11e8:	c2 07 bf f4 	ld  [ %fp + -12 ], %g1
    11ec:	82 00 60 01 	inc  %g1
    11f0:	c2 27 bf f4 	st  %g1, [ %fp + -12 ]
    11f4:	10 bf ff a9 	b  1098 <divide_task_group+0xc>
    11f8:	01 00 00 00 	nop 
    11fc:	81 c7 e0 08 	ret 
    1200:	81 e8 00 00 	restore 

00001204 <main0>:
    1204:	9d e3 bf 80 	save  %sp, -128, %sp
    1208:	f0 27 a0 44 	st  %i0, [ %fp + 0x44 ]
    120c:	f2 27 a0 48 	st  %i1, [ %fp + 0x48 ]
    1210:	c2 07 a0 44 	ld  [ %fp + 0x44 ], %g1
    1214:	80 a0 60 01 	cmp  %g1, 1
    1218:	14 80 00 12 	bg  1260 <main0+0x5c>
    121c:	01 00 00 00 	nop 
    1220:	03 00 00 3c 	sethi  %hi(0xf000), %g1
    1224:	82 10 60 98 	or  %g1, 0x98, %g1	! f098 <_impure_ptr>
    1228:	c2 00 40 00 	ld  [ %g1 ], %g1
    122c:	d0 00 60 0c 	ld  [ %g1 + 0xc ], %o0
    1230:	03 00 00 39 	sethi  %hi(0xe400), %g1
    1234:	92 10 61 a0 	or  %g1, 0x1a0, %o1	! e5a0 <__CTOR_END__+0x270>
    1238:	40 00 07 6e 	call  2ff0 <fprintf>
    123c:	01 00 00 00 	nop 
    1240:	03 00 00 3c 	sethi  %hi(0xf000), %g1
    1244:	82 10 60 98 	or  %g1, 0x98, %g1	! f098 <_impure_ptr>
    1248:	c2 00 40 00 	ld  [ %g1 ], %g1
    124c:	d0 00 60 0c 	ld  [ %g1 + 0xc ], %o0
    1250:	03 00 00 39 	sethi  %hi(0xe400), %g1
    1254:	92 10 61 c0 	or  %g1, 0x1c0, %o1	! e5c0 <__CTOR_END__+0x290>
    1258:	40 00 07 66 	call  2ff0 <fprintf>
    125c:	01 00 00 00 	nop 
    1260:	9a 10 20 04 	mov  4, %o5	! 4 <__DYNAMIC+0x4>
    1264:	c2 07 a0 48 	ld  [ %fp + 0x48 ], %g1
    1268:	82 03 40 01 	add  %o5, %g1, %g1
    126c:	d0 00 40 00 	ld  [ %g1 ], %o0
    1270:	03 00 00 39 	sethi  %hi(0xe400), %g1
    1274:	92 10 61 f0 	or  %g1, 0x1f0, %o1	! e5f0 <__CTOR_END__+0x2c0>
    1278:	40 00 07 54 	call  2fc8 <fopen>
    127c:	01 00 00 00 	nop 
    1280:	82 10 00 08 	mov  %o0, %g1
    1284:	c2 27 bf e8 	st  %g1, [ %fp + -24 ]
    1288:	c0 27 bf f4 	clr  [ %fp + -12 ]
    128c:	c2 07 bf f4 	ld  [ %fp + -12 ], %g1
    1290:	80 a0 60 0f 	cmp  %g1, 0xf
    1294:	04 80 00 04 	ble  12a4 <main0+0xa0>
    1298:	01 00 00 00 	nop 
    129c:	10 80 00 23 	b  1328 <main0+0x124>
    12a0:	01 00 00 00 	nop 
    12a4:	c0 27 bf f0 	clr  [ %fp + -16 ]
    12a8:	c2 07 bf f0 	ld  [ %fp + -16 ], %g1
    12ac:	80 a0 60 0f 	cmp  %g1, 0xf
    12b0:	04 80 00 04 	ble  12c0 <main0+0xbc>
    12b4:	01 00 00 00 	nop 
    12b8:	10 80 00 17 	b  1314 <main0+0x110>
    12bc:	01 00 00 00 	nop 
    12c0:	9a 07 bf ec 	add  %fp, -20, %o5
    12c4:	d0 07 bf e8 	ld  [ %fp + -24 ], %o0
    12c8:	03 00 00 39 	sethi  %hi(0xe400), %g1
    12cc:	92 10 61 f8 	or  %g1, 0x1f8, %o1	! e5f8 <__CTOR_END__+0x2c8>
    12d0:	94 10 00 0d 	mov  %o5, %o2
    12d4:	40 00 08 37 	call  33b0 <fscanf>
    12d8:	01 00 00 00 	nop 
    12dc:	03 00 00 4a 	sethi  %hi(0x12800), %g1
    12e0:	98 10 62 30 	or  %g1, 0x230, %o4	! 12a30 <AdjMatrix>
    12e4:	c2 07 bf f4 	ld  [ %fp + -12 ], %g1
    12e8:	9b 28 60 04 	sll  %g1, 4, %o5
    12ec:	c2 07 bf f0 	ld  [ %fp + -16 ], %g1
    12f0:	82 03 40 01 	add  %o5, %g1, %g1
    12f4:	9b 28 60 02 	sll  %g1, 2, %o5
    12f8:	c2 07 bf ec 	ld  [ %fp + -20 ], %g1
    12fc:	c2 23 00 0d 	st  %g1, [ %o4 + %o5 ]
    1300:	c2 07 bf f0 	ld  [ %fp + -16 ], %g1
    1304:	82 00 60 01 	inc  %g1
    1308:	c2 27 bf f0 	st  %g1, [ %fp + -16 ]
    130c:	10 bf ff e7 	b  12a8 <main0+0xa4>
    1310:	01 00 00 00 	nop 
    1314:	c2 07 bf f4 	ld  [ %fp + -12 ], %g1
    1318:	82 00 60 01 	inc  %g1
    131c:	c2 27 bf f4 	st  %g1, [ %fp + -12 ]
    1320:	10 bf ff db 	b  128c <main0+0x88>
    1324:	01 00 00 00 	nop 
    1328:	d0 07 bf e8 	ld  [ %fp + -24 ], %o0
    132c:	40 00 05 e2 	call  2ab4 <fclose>
    1330:	01 00 00 00 	nop 
    1334:	82 10 20 78 	mov  0x78, %g1	! 78 <__DYNAMIC+0x78>
    1338:	c2 27 bf e4 	st  %g1, [ %fp + -28 ]
    133c:	c0 27 bf e0 	clr  [ %fp + -32 ]
    1340:	c0 27 bf f4 	clr  [ %fp + -12 ]
    1344:	c2 07 bf f4 	ld  [ %fp + -12 ], %g1
    1348:	80 a0 60 0e 	cmp  %g1, 0xe
    134c:	04 80 00 04 	ble  135c <main0+0x158>
    1350:	01 00 00 00 	nop 
    1354:	10 80 00 25 	b  13e8 <main0+0x1e4>
    1358:	01 00 00 00 	nop 
    135c:	c2 07 bf f4 	ld  [ %fp + -12 ], %g1
    1360:	82 00 60 01 	inc  %g1
    1364:	c2 27 bf f0 	st  %g1, [ %fp + -16 ]
    1368:	c2 07 bf f0 	ld  [ %fp + -16 ], %g1
    136c:	80 a0 60 0f 	cmp  %g1, 0xf
    1370:	04 80 00 04 	ble  1380 <main0+0x17c>
    1374:	01 00 00 00 	nop 
    1378:	10 80 00 17 	b  13d4 <main0+0x1d0>
    137c:	01 00 00 00 	nop 
    1380:	03 00 00 4b 	sethi  %hi(0x12c00), %g1
    1384:	98 10 62 40 	or  %g1, 0x240, %o4	! 12e40 <nodes_tasks>
    1388:	c2 07 bf e0 	ld  [ %fp + -32 ], %g1
    138c:	9b 28 60 03 	sll  %g1, 3, %o5
    1390:	c2 07 bf f4 	ld  [ %fp + -12 ], %g1
    1394:	c2 23 00 0d 	st  %g1, [ %o4 + %o5 ]
    1398:	03 00 00 4b 	sethi  %hi(0x12c00), %g1
    139c:	9a 10 62 40 	or  %g1, 0x240, %o5	! 12e40 <nodes_tasks>
    13a0:	c2 07 bf e0 	ld  [ %fp + -32 ], %g1
    13a4:	83 28 60 03 	sll  %g1, 3, %g1
    13a8:	9a 00 40 0d 	add  %g1, %o5, %o5
    13ac:	c2 07 bf f0 	ld  [ %fp + -16 ], %g1
    13b0:	c2 23 60 04 	st  %g1, [ %o5 + 4 ]
    13b4:	c2 07 bf e0 	ld  [ %fp + -32 ], %g1
    13b8:	82 00 60 01 	inc  %g1
    13bc:	c2 27 bf e0 	st  %g1, [ %fp + -32 ]
    13c0:	c2 07 bf f0 	ld  [ %fp + -16 ], %g1
    13c4:	82 00 60 01 	inc  %g1
    13c8:	c2 27 bf f0 	st  %g1, [ %fp + -16 ]
    13cc:	10 bf ff e7 	b  1368 <main0+0x164>
    13d0:	01 00 00 00 	nop 
    13d4:	c2 07 bf f4 	ld  [ %fp + -12 ], %g1
    13d8:	82 00 60 01 	inc  %g1
    13dc:	c2 27 bf f4 	st  %g1, [ %fp + -12 ]
    13e0:	10 bf ff d9 	b  1344 <main0+0x140>
    13e4:	01 00 00 00 	nop 
    13e8:	d0 07 bf e4 	ld  [ %fp + -28 ], %o0
    13ec:	7f ff ff 28 	call  108c <divide_task_group>
    13f0:	01 00 00 00 	nop 
    13f4:	7f ff fc e8 	call  794 <startThreads>
    13f8:	01 00 00 00 	nop 
    13fc:	82 10 20 00 	clr  %g1	! 0 <__DYNAMIC>
    1400:	b0 10 00 01 	mov  %g1, %i0
    1404:	81 c7 e0 08 	ret 
    1408:	81 e8 00 00 	restore 

0000140c <initNode>:
    140c:	9d e3 bf 98 	save  %sp, -104, %sp
    1410:	f0 27 a0 44 	st  %i0, [ %fp + 0x44 ]
    1414:	f2 27 a0 48 	st  %i1, [ %fp + 0x48 ]
    1418:	f4 27 a0 4c 	st  %i2, [ %fp + 0x4c ]
    141c:	fa 07 a0 44 	ld  [ %fp + 0x44 ], %i5
    1420:	c2 07 a0 4c 	ld  [ %fp + 0x4c ], %g1
    1424:	c2 27 60 04 	st  %g1, [ %i5 + 4 ]
    1428:	fa 07 a0 44 	ld  [ %fp + 0x44 ], %i5
    142c:	c2 07 a0 48 	ld  [ %fp + 0x48 ], %g1
    1430:	c2 27 40 00 	st  %g1, [ %i5 ]
    1434:	81 c7 e0 08 	ret 
    1438:	81 e8 00 00 	restore 

0000143c <initQueue>:
    143c:	9d e3 bf 98 	save  %sp, -104, %sp
    1440:	f0 27 a0 44 	st  %i0, [ %fp + 0x44 ]
    1444:	03 00 00 3b 	sethi  %hi(0xec00), %g1
    1448:	82 10 61 10 	or  %g1, 0x110, %g1	! ed10 <_data_start>
    144c:	c2 00 40 00 	ld  [ %g1 ], %g1
    1450:	c2 00 40 00 	ld  [ %g1 ], %g1
    1454:	80 a0 60 00 	cmp  %g1, 0
    1458:	12 bf ff fb 	bne  1444 <initQueue+0x8>
    145c:	01 00 00 00 	nop 
    1460:	fa 07 a0 44 	ld  [ %fp + 0x44 ], %i5
    1464:	82 10 3f ff 	mov  -1, %g1
    1468:	c2 27 40 00 	st  %g1, [ %i5 ]
    146c:	fa 07 a0 44 	ld  [ %fp + 0x44 ], %i5
    1470:	82 10 3f ff 	mov  -1, %g1
    1474:	c2 27 60 04 	st  %g1, [ %i5 + 4 ]
    1478:	c2 07 a0 44 	ld  [ %fp + 0x44 ], %g1
    147c:	c0 20 63 08 	clr  [ %g1 + 0x308 ]
    1480:	03 00 00 3b 	sethi  %hi(0xec00), %g1
    1484:	82 10 61 10 	or  %g1, 0x110, %g1	! ed10 <_data_start>
    1488:	c2 00 40 00 	ld  [ %g1 ], %g1
    148c:	c0 20 40 00 	clr  [ %g1 ]
    1490:	81 c7 e0 08 	ret 
    1494:	81 e8 00 00 	restore 

00001498 <printQueue>:
    1498:	9d e3 bf 90 	save  %sp, -112, %sp
    149c:	f0 27 a0 44 	st  %i0, [ %fp + 0x44 ]
    14a0:	03 00 00 4d 	sethi  %hi(0x13400), %g1
    14a4:	90 10 62 40 	or  %g1, 0x240, %o0	! 13640 <mutex_print>
    14a8:	40 00 01 56 	call  1a00 <pthread_mutex_lock>
    14ac:	01 00 00 00 	nop 
    14b0:	03 00 00 39 	sethi  %hi(0xe400), %g1
    14b4:	90 10 62 00 	or  %g1, 0x200, %o0	! e600 <__CTOR_END__+0x2d0>
    14b8:	40 00 0b 9c 	call  4328 <printf>
    14bc:	01 00 00 00 	nop 
    14c0:	da 07 a0 44 	ld  [ %fp + 0x44 ], %o5
    14c4:	03 00 00 39 	sethi  %hi(0xe400), %g1
    14c8:	90 10 62 18 	or  %g1, 0x218, %o0	! e618 <__CTOR_END__+0x2e8>
    14cc:	d2 03 63 08 	ld  [ %o5 + 0x308 ], %o1
    14d0:	40 00 0b 96 	call  4328 <printf>
    14d4:	01 00 00 00 	nop 
    14d8:	da 07 a0 44 	ld  [ %fp + 0x44 ], %o5
    14dc:	03 00 00 39 	sethi  %hi(0xe400), %g1
    14e0:	90 10 62 30 	or  %g1, 0x230, %o0	! e630 <__CTOR_END__+0x300>
    14e4:	d2 03 40 00 	ld  [ %o5 ], %o1
    14e8:	40 00 0b 90 	call  4328 <printf>
    14ec:	01 00 00 00 	nop 
    14f0:	da 07 a0 44 	ld  [ %fp + 0x44 ], %o5
    14f4:	03 00 00 39 	sethi  %hi(0xe400), %g1
    14f8:	90 10 62 40 	or  %g1, 0x240, %o0	! e640 <__CTOR_END__+0x310>
    14fc:	d2 03 60 04 	ld  [ %o5 + 4 ], %o1
    1500:	40 00 0b 8a 	call  4328 <printf>
    1504:	01 00 00 00 	nop 
    1508:	03 00 00 4d 	sethi  %hi(0x13400), %g1
    150c:	90 10 62 40 	or  %g1, 0x240, %o0	! 13640 <mutex_print>
    1510:	40 00 01 69 	call  1ab4 <pthread_mutex_unlock>
    1514:	01 00 00 00 	nop 
    1518:	01 00 00 00 	nop 
    151c:	81 c7 e0 08 	ret 
    1520:	81 e8 00 00 	restore 

00001524 <isEmpty>:
    1524:	9d e3 bf 90 	save  %sp, -112, %sp
    1528:	f0 27 a0 44 	st  %i0, [ %fp + 0x44 ]
    152c:	c2 07 a0 44 	ld  [ %fp + 0x44 ], %g1
    1530:	c2 00 63 08 	ld  [ %g1 + 0x308 ], %g1
    1534:	80 a0 60 00 	cmp  %g1, 0
    1538:	12 80 00 06 	bne  1550 <isEmpty+0x2c>
    153c:	01 00 00 00 	nop 
    1540:	82 10 20 01 	mov  1, %g1	! 1 <__DYNAMIC+0x1>
    1544:	c2 27 bf f4 	st  %g1, [ %fp + -12 ]
    1548:	10 80 00 03 	b  1554 <isEmpty+0x30>
    154c:	01 00 00 00 	nop 
    1550:	c0 27 bf f4 	clr  [ %fp + -12 ]
    1554:	f0 07 bf f4 	ld  [ %fp + -12 ], %i0
    1558:	81 c7 e0 08 	ret 
    155c:	81 e8 00 00 	restore 

00001560 <enqueue>:
    1560:	9d e3 bf 98 	save  %sp, -104, %sp
    1564:	f0 27 a0 44 	st  %i0, [ %fp + 0x44 ]
    1568:	f2 27 a0 48 	st  %i1, [ %fp + 0x48 ]
    156c:	d0 07 a0 44 	ld  [ %fp + 0x44 ], %o0
    1570:	7f ff ff ed 	call  1524 <isEmpty>
    1574:	01 00 00 00 	nop 
    1578:	82 10 00 08 	mov  %o0, %g1
    157c:	80 a0 60 00 	cmp  %g1, 0
    1580:	02 80 00 1d 	be  15f4 <enqueue+0x94>
    1584:	01 00 00 00 	nop 
    1588:	da 07 a0 44 	ld  [ %fp + 0x44 ], %o5
    158c:	c2 07 a0 44 	ld  [ %fp + 0x44 ], %g1
    1590:	c2 00 40 00 	ld  [ %g1 ], %g1
    1594:	82 00 60 01 	inc  %g1
    1598:	c2 23 40 00 	st  %g1, [ %o5 ]
    159c:	da 07 a0 44 	ld  [ %fp + 0x44 ], %o5
    15a0:	c2 07 a0 44 	ld  [ %fp + 0x44 ], %g1
    15a4:	c2 00 60 04 	ld  [ %g1 + 4 ], %g1
    15a8:	82 00 60 01 	inc  %g1
    15ac:	c2 23 60 04 	st  %g1, [ %o5 + 4 ]
    15b0:	d8 07 a0 44 	ld  [ %fp + 0x44 ], %o4
    15b4:	c2 07 a0 44 	ld  [ %fp + 0x44 ], %g1
    15b8:	da 00 60 04 	ld  [ %g1 + 4 ], %o5
    15bc:	82 10 00 0d 	mov  %o5, %g1
    15c0:	82 00 40 01 	add  %g1, %g1, %g1
    15c4:	82 00 40 0d 	add  %g1, %o5, %g1
    15c8:	83 28 60 02 	sll  %g1, 2, %g1
    15cc:	98 00 40 0c 	add  %g1, %o4, %o4
    15d0:	da 07 a0 48 	ld  [ %fp + 0x48 ], %o5
    15d4:	c2 03 40 00 	ld  [ %o5 ], %g1
    15d8:	c2 23 20 08 	st  %g1, [ %o4 + 8 ]
    15dc:	c2 03 60 04 	ld  [ %o5 + 4 ], %g1
    15e0:	c2 23 20 0c 	st  %g1, [ %o4 + 0xc ]
    15e4:	c2 03 60 08 	ld  [ %o5 + 8 ], %g1
    15e8:	c2 23 20 10 	st  %g1, [ %o4 + 0x10 ]
    15ec:	10 80 00 16 	b  1644 <enqueue+0xe4>
    15f0:	01 00 00 00 	nop 
    15f4:	da 07 a0 44 	ld  [ %fp + 0x44 ], %o5
    15f8:	c2 07 a0 44 	ld  [ %fp + 0x44 ], %g1
    15fc:	c2 00 60 04 	ld  [ %g1 + 4 ], %g1
    1600:	82 00 60 01 	inc  %g1
    1604:	c2 23 60 04 	st  %g1, [ %o5 + 4 ]
    1608:	d8 07 a0 44 	ld  [ %fp + 0x44 ], %o4
    160c:	c2 07 a0 44 	ld  [ %fp + 0x44 ], %g1
    1610:	da 00 60 04 	ld  [ %g1 + 4 ], %o5
    1614:	82 10 00 0d 	mov  %o5, %g1
    1618:	82 00 40 01 	add  %g1, %g1, %g1
    161c:	82 00 40 0d 	add  %g1, %o5, %g1
    1620:	83 28 60 02 	sll  %g1, 2, %g1
    1624:	98 00 40 0c 	add  %g1, %o4, %o4
    1628:	da 07 a0 48 	ld  [ %fp + 0x48 ], %o5
    162c:	c2 03 40 00 	ld  [ %o5 ], %g1
    1630:	c2 23 20 08 	st  %g1, [ %o4 + 8 ]
    1634:	c2 03 60 04 	ld  [ %o5 + 4 ], %g1
    1638:	c2 23 20 0c 	st  %g1, [ %o4 + 0xc ]
    163c:	c2 03 60 08 	ld  [ %o5 + 8 ], %g1
    1640:	c2 23 20 10 	st  %g1, [ %o4 + 0x10 ]
    1644:	da 07 a0 44 	ld  [ %fp + 0x44 ], %o5
    1648:	c2 07 a0 44 	ld  [ %fp + 0x44 ], %g1
    164c:	c2 00 63 08 	ld  [ %g1 + 0x308 ], %g1
    1650:	82 00 60 01 	inc  %g1
    1654:	c2 23 63 08 	st  %g1, [ %o5 + 0x308 ]
    1658:	81 c7 e0 08 	ret 
    165c:	81 e8 00 00 	restore 

00001660 <dequeue>:
    1660:	9d e3 bf 90 	save  %sp, -112, %sp
    1664:	f0 27 a0 44 	st  %i0, [ %fp + 0x44 ]
    1668:	d0 07 a0 44 	ld  [ %fp + 0x44 ], %o0
    166c:	7f ff ff ae 	call  1524 <isEmpty>
    1670:	01 00 00 00 	nop 
    1674:	82 10 00 08 	mov  %o0, %g1
    1678:	80 a0 60 00 	cmp  %g1, 0
    167c:	12 80 00 29 	bne  1720 <dequeue+0xc0>
    1680:	01 00 00 00 	nop 
    1684:	c2 07 a0 44 	ld  [ %fp + 0x44 ], %g1
    1688:	c2 00 40 00 	ld  [ %g1 ], %g1
    168c:	c2 27 bf f4 	st  %g1, [ %fp + -12 ]
    1690:	c2 07 a0 44 	ld  [ %fp + 0x44 ], %g1
    1694:	da 07 a0 44 	ld  [ %fp + 0x44 ], %o5
    1698:	d8 00 40 00 	ld  [ %g1 ], %o4
    169c:	c2 03 60 04 	ld  [ %o5 + 4 ], %g1
    16a0:	80 a3 00 01 	cmp  %o4, %g1
    16a4:	12 80 00 0a 	bne  16cc <dequeue+0x6c>
    16a8:	01 00 00 00 	nop 
    16ac:	d8 07 a0 44 	ld  [ %fp + 0x44 ], %o4
    16b0:	da 07 a0 44 	ld  [ %fp + 0x44 ], %o5
    16b4:	82 10 3f ff 	mov  -1, %g1
    16b8:	c2 23 60 04 	st  %g1, [ %o5 + 4 ]
    16bc:	82 10 3f ff 	mov  -1, %g1
    16c0:	c2 23 00 00 	st  %g1, [ %o4 ]
    16c4:	10 80 00 07 	b  16e0 <dequeue+0x80>
    16c8:	01 00 00 00 	nop 
    16cc:	da 07 a0 44 	ld  [ %fp + 0x44 ], %o5
    16d0:	c2 07 a0 44 	ld  [ %fp + 0x44 ], %g1
    16d4:	c2 00 40 00 	ld  [ %g1 ], %g1
    16d8:	82 00 60 01 	inc  %g1
    16dc:	c2 23 40 00 	st  %g1, [ %o5 ]
    16e0:	da 07 a0 44 	ld  [ %fp + 0x44 ], %o5
    16e4:	c2 07 a0 44 	ld  [ %fp + 0x44 ], %g1
    16e8:	c2 00 63 08 	ld  [ %g1 + 0x308 ], %g1
    16ec:	82 00 7f ff 	add  %g1, -1, %g1
    16f0:	c2 23 63 08 	st  %g1, [ %o5 + 0x308 ]
    16f4:	da 07 bf f4 	ld  [ %fp + -12 ], %o5
    16f8:	82 10 00 0d 	mov  %o5, %g1
    16fc:	82 00 40 01 	add  %g1, %g1, %g1
    1700:	82 00 40 0d 	add  %g1, %o5, %g1
    1704:	9b 28 60 02 	sll  %g1, 2, %o5
    1708:	c2 07 a0 44 	ld  [ %fp + 0x44 ], %g1
    170c:	82 03 40 01 	add  %o5, %g1, %g1
    1710:	82 00 60 08 	add  %g1, 8, %g1
    1714:	c2 27 bf f0 	st  %g1, [ %fp + -16 ]
    1718:	10 80 00 07 	b  1734 <dequeue+0xd4>
    171c:	01 00 00 00 	nop 
    1720:	03 00 00 39 	sethi  %hi(0xe400), %g1
    1724:	90 10 62 50 	or  %g1, 0x250, %o0	! e650 <__CTOR_END__+0x320>
    1728:	40 00 0b 00 	call  4328 <printf>
    172c:	01 00 00 00 	nop 
    1730:	c0 27 bf f0 	clr  [ %fp + -16 ]
    1734:	f0 07 bf f0 	ld  [ %fp + -16 ], %i0
    1738:	81 c7 e0 08 	ret 
    173c:	81 e8 00 00 	restore 

00001740 <destroy>:
    1740:	9d e3 bf 98 	save  %sp, -104, %sp
    1744:	f0 27 a0 44 	st  %i0, [ %fp + 0x44 ]
    1748:	81 c7 e0 08 	ret 
    174c:	81 e8 00 00 	restore 

00001750 <size>:
    1750:	9d e3 bf 98 	save  %sp, -104, %sp
    1754:	f0 27 a0 44 	st  %i0, [ %fp + 0x44 ]
    1758:	c2 07 a0 44 	ld  [ %fp + 0x44 ], %g1
    175c:	c2 00 63 08 	ld  [ %g1 + 0x308 ], %g1
    1760:	b0 10 00 01 	mov  %g1, %i0
    1764:	81 c7 e0 08 	ret 
    1768:	81 e8 00 00 	restore 

0000176c <pthread_attr_setdetachstate>:
    176c:	9d e3 bf 98 	save  %sp, -104, %sp
    1770:	f0 27 a0 44 	st  %i0, [ %fp + 0x44 ]
    1774:	f2 27 a0 48 	st  %i1, [ %fp + 0x48 ]
    1778:	82 10 20 00 	clr  %g1
    177c:	b0 10 00 01 	mov  %g1, %i0
    1780:	81 c7 e0 08 	ret 
    1784:	81 e8 00 00 	restore 

00001788 <pthread_attr_getdetachstate>:
    1788:	9d e3 bf 98 	save  %sp, -104, %sp
    178c:	f0 27 a0 44 	st  %i0, [ %fp + 0x44 ]
    1790:	f2 27 a0 48 	st  %i1, [ %fp + 0x48 ]
    1794:	82 10 20 00 	clr  %g1
    1798:	b0 10 00 01 	mov  %g1, %i0
    179c:	81 c7 e0 08 	ret 
    17a0:	81 e8 00 00 	restore 

000017a4 <pthread_attr_init>:
    17a4:	9d e3 bf 98 	save  %sp, -104, %sp
    17a8:	f0 27 a0 44 	st  %i0, [ %fp + 0x44 ]
    17ac:	b0 10 00 01 	mov  %g1, %i0
    17b0:	81 c7 e0 08 	ret 
    17b4:	81 e8 00 00 	restore 

000017b8 <pthread_exit>:
    17b8:	9d e3 bf 98 	save  %sp, -104, %sp
    17bc:	f0 27 a0 44 	st  %i0, [ %fp + 0x44 ]
    17c0:	81 c7 e0 08 	ret 
    17c4:	81 e8 00 00 	restore 

000017c8 <pthread_my_exit>:
    17c8:	9d e3 bf 98 	save  %sp, -104, %sp
    17cc:	01 00 00 00 	nop 
    17d0:	03 00 00 3b 	sethi  %hi(0xec00), %g1
    17d4:	82 10 61 10 	or  %g1, 0x110, %g1	! ed10 <_data_start>
    17d8:	c2 00 40 00 	ld  [ %g1 ], %g1
    17dc:	c2 00 40 00 	ld  [ %g1 ], %g1
    17e0:	80 a0 60 00 	cmp  %g1, 0
    17e4:	12 bf ff fb 	bne  17d0 <pthread_my_exit+0x8>
    17e8:	01 00 00 00 	nop 
    17ec:	03 00 00 3d 	sethi  %hi(0xf400), %g1
    17f0:	9a 10 60 e0 	or  %g1, 0xe0, %o5	! f4e0 <pthread_finished>
    17f4:	82 10 20 01 	mov  1, %g1
    17f8:	c2 23 40 00 	st  %g1, [ %o5 ]
    17fc:	03 00 00 3b 	sethi  %hi(0xec00), %g1
    1800:	82 10 61 10 	or  %g1, 0x110, %g1	! ed10 <_data_start>
    1804:	c2 00 40 00 	ld  [ %g1 ], %g1
    1808:	c0 20 40 00 	clr  [ %g1 ]
    180c:	03 00 00 4d 	sethi  %hi(0x13400), %g1
    1810:	90 10 62 40 	or  %g1, 0x240, %o0	! 13640 <mutex_print>
    1814:	40 00 00 7b 	call  1a00 <pthread_mutex_lock>
    1818:	01 00 00 00 	nop 
    181c:	03 00 00 39 	sethi  %hi(0xe400), %g1
    1820:	90 10 62 60 	or  %g1, 0x260, %o0	! e660 <__CTOR_END__+0x330>
    1824:	40 00 0a c1 	call  4328 <printf>
    1828:	01 00 00 00 	nop 
    182c:	03 00 00 4d 	sethi  %hi(0x13400), %g1
    1830:	90 10 62 40 	or  %g1, 0x240, %o0	! 13640 <mutex_print>
    1834:	40 00 00 a0 	call  1ab4 <pthread_mutex_unlock>
    1838:	01 00 00 00 	nop 
    183c:	01 00 00 00 	nop 
    1840:	81 c7 e0 08 	ret 
    1844:	81 e8 00 00 	restore 

00001848 <pthread_join_init>:
    1848:	9d e3 bf 98 	save  %sp, -104, %sp
    184c:	f0 27 a0 44 	st  %i0, [ %fp + 0x44 ]
    1850:	03 00 00 3b 	sethi  %hi(0xec00), %g1
    1854:	82 10 61 10 	or  %g1, 0x110, %g1	! ed10 <_data_start>
    1858:	c2 00 40 00 	ld  [ %g1 ], %g1
    185c:	c2 00 40 00 	ld  [ %g1 ], %g1
    1860:	80 a0 60 00 	cmp  %g1, 0
    1864:	12 bf ff fb 	bne  1850 <pthread_join_init+0x8>
    1868:	01 00 00 00 	nop 
    186c:	fa 07 a0 44 	ld  [ %fp + 0x44 ], %i5
    1870:	03 00 00 4e 	sethi  %hi(0x13800), %g1
    1874:	82 10 61 50 	or  %g1, 0x150, %g1	! 13950 <pthread_n_workers>
    1878:	c2 00 40 00 	ld  [ %g1 ], %g1
    187c:	c2 27 40 00 	st  %g1, [ %i5 ]
    1880:	03 00 00 4d 	sethi  %hi(0x13400), %g1
    1884:	ba 10 62 3c 	or  %g1, 0x23c, %i5	! 1363c <pthread_ended>
    1888:	03 00 00 4e 	sethi  %hi(0x13800), %g1
    188c:	82 10 61 50 	or  %g1, 0x150, %g1	! 13950 <pthread_n_workers>
    1890:	c2 00 40 00 	ld  [ %g1 ], %g1
    1894:	c2 27 40 00 	st  %g1, [ %i5 ]
    1898:	03 00 00 3b 	sethi  %hi(0xec00), %g1
    189c:	82 10 61 10 	or  %g1, 0x110, %g1	! ed10 <_data_start>
    18a0:	c2 00 40 00 	ld  [ %g1 ], %g1
    18a4:	c0 20 40 00 	clr  [ %g1 ]
    18a8:	82 10 20 00 	clr  %g1
    18ac:	b0 10 00 01 	mov  %g1, %i0
    18b0:	81 c7 e0 08 	ret 
    18b4:	81 e8 00 00 	restore 

000018b8 <pthread_join_control>:
    18b8:	9d e3 bf 98 	save  %sp, -104, %sp
    18bc:	f0 27 a0 44 	st  %i0, [ %fp + 0x44 ]
    18c0:	03 00 00 3b 	sethi  %hi(0xec00), %g1
    18c4:	82 10 61 10 	or  %g1, 0x110, %g1	! ed10 <_data_start>
    18c8:	c2 00 40 00 	ld  [ %g1 ], %g1
    18cc:	c2 00 40 00 	ld  [ %g1 ], %g1
    18d0:	80 a0 60 00 	cmp  %g1, 0
    18d4:	12 bf ff fb 	bne  18c0 <pthread_join_control+0x8>
    18d8:	01 00 00 00 	nop 
    18dc:	da 07 a0 44 	ld  [ %fp + 0x44 ], %o5
    18e0:	c2 07 a0 44 	ld  [ %fp + 0x44 ], %g1
    18e4:	c2 00 40 00 	ld  [ %g1 ], %g1
    18e8:	82 00 7f ff 	add  %g1, -1, %g1
    18ec:	c2 23 40 00 	st  %g1, [ %o5 ]
    18f0:	d8 07 a0 44 	ld  [ %fp + 0x44 ], %o4
    18f4:	03 00 00 4e 	sethi  %hi(0x13800), %g1
    18f8:	9a 10 61 50 	or  %g1, 0x150, %o5	! 13950 <pthread_n_workers>
    18fc:	03 00 00 39 	sethi  %hi(0xe400), %g1
    1900:	90 10 62 88 	or  %g1, 0x288, %o0	! e688 <__CTOR_END__+0x358>
    1904:	d2 03 00 00 	ld  [ %o4 ], %o1
    1908:	d4 03 40 00 	ld  [ %o5 ], %o2
    190c:	40 00 0a 87 	call  4328 <printf>
    1910:	01 00 00 00 	nop 
    1914:	c2 07 a0 44 	ld  [ %fp + 0x44 ], %g1
    1918:	c2 00 40 00 	ld  [ %g1 ], %g1
    191c:	80 a0 60 00 	cmp  %g1, 0
    1920:	12 80 00 06 	bne  1938 <pthread_join_control+0x80>
    1924:	01 00 00 00 	nop 
    1928:	03 00 00 3d 	sethi  %hi(0xf400), %g1
    192c:	9a 10 60 e8 	or  %g1, 0xe8, %o5	! f4e8 <join_out>
    1930:	82 10 20 01 	mov  1, %g1
    1934:	c2 23 40 00 	st  %g1, [ %o5 ]
    1938:	03 00 00 3b 	sethi  %hi(0xec00), %g1
    193c:	82 10 61 10 	or  %g1, 0x110, %g1	! ed10 <_data_start>
    1940:	c2 00 40 00 	ld  [ %g1 ], %g1
    1944:	c0 20 40 00 	clr  [ %g1 ]
    1948:	03 00 00 3d 	sethi  %hi(0xf400), %g1
    194c:	82 10 60 e8 	or  %g1, 0xe8, %g1	! f4e8 <join_out>
    1950:	c2 00 40 00 	ld  [ %g1 ], %g1
    1954:	80 a0 60 00 	cmp  %g1, 0
    1958:	02 bf ff fc 	be  1948 <pthread_join_control+0x90>
    195c:	01 00 00 00 	nop 
    1960:	90 10 21 f4 	mov  0x1f4, %o0	! 1f4 <main+0xf4>
    1964:	40 00 00 6f 	call  1b20 <pthread_busywait>
    1968:	01 00 00 00 	nop 
    196c:	03 00 00 4d 	sethi  %hi(0x13400), %g1
    1970:	90 10 62 40 	or  %g1, 0x240, %o0	! 13640 <mutex_print>
    1974:	40 00 00 23 	call  1a00 <pthread_mutex_lock>
    1978:	01 00 00 00 	nop 
    197c:	03 00 00 39 	sethi  %hi(0xe400), %g1
    1980:	90 10 62 c0 	or  %g1, 0x2c0, %o0	! e6c0 <__CTOR_END__+0x390>
    1984:	40 00 0a 69 	call  4328 <printf>
    1988:	01 00 00 00 	nop 
    198c:	03 00 00 4d 	sethi  %hi(0x13400), %g1
    1990:	90 10 62 40 	or  %g1, 0x240, %o0	! 13640 <mutex_print>
    1994:	40 00 00 48 	call  1ab4 <pthread_mutex_unlock>
    1998:	01 00 00 00 	nop 
    199c:	01 00 00 00 	nop 
    19a0:	81 c7 e0 08 	ret 
    19a4:	81 e8 00 00 	restore 

000019a8 <pthread_join>:
    19a8:	9d e3 bf 98 	save  %sp, -104, %sp
    19ac:	f2 27 a0 48 	st  %i1, [ %fp + 0x48 ]
    19b0:	81 c7 e0 08 	ret 
    19b4:	81 e8 00 00 	restore 

000019b8 <pthread_mutex_init>:
    19b8:	9d e3 bf 98 	save  %sp, -104, %sp
    19bc:	f0 27 a0 44 	st  %i0, [ %fp + 0x44 ]
    19c0:	f2 27 a0 48 	st  %i1, [ %fp + 0x48 ]
    19c4:	03 00 00 3b 	sethi  %hi(0xec00), %g1
    19c8:	82 10 61 10 	or  %g1, 0x110, %g1	! ed10 <_data_start>
    19cc:	c2 00 40 00 	ld  [ %g1 ], %g1
    19d0:	c2 00 40 00 	ld  [ %g1 ], %g1
    19d4:	80 a0 60 00 	cmp  %g1, 0
    19d8:	12 bf ff fb 	bne  19c4 <pthread_mutex_init+0xc>
    19dc:	01 00 00 00 	nop 
    19e0:	c2 07 a0 44 	ld  [ %fp + 0x44 ], %g1
    19e4:	c0 20 40 00 	clr  [ %g1 ]
    19e8:	03 00 00 3b 	sethi  %hi(0xec00), %g1
    19ec:	82 10 61 10 	or  %g1, 0x110, %g1	! ed10 <_data_start>
    19f0:	c2 00 40 00 	ld  [ %g1 ], %g1
    19f4:	c0 20 40 00 	clr  [ %g1 ]
    19f8:	81 c7 e0 08 	ret 
    19fc:	81 e8 00 00 	restore 

00001a00 <pthread_mutex_lock>:
    1a00:	9d e3 bf 90 	save  %sp, -112, %sp
    1a04:	f0 27 a0 44 	st  %i0, [ %fp + 0x44 ]
    1a08:	03 00 00 3b 	sethi  %hi(0xec00), %g1
    1a0c:	82 10 61 10 	or  %g1, 0x110, %g1	! ed10 <_data_start>
    1a10:	c2 00 40 00 	ld  [ %g1 ], %g1
    1a14:	c2 00 40 00 	ld  [ %g1 ], %g1
    1a18:	80 a0 60 00 	cmp  %g1, 0
    1a1c:	12 bf ff fb 	bne  1a08 <pthread_mutex_lock+0x8>
    1a20:	01 00 00 00 	nop 
    1a24:	01 00 00 00 	nop 
    1a28:	c2 07 a0 44 	ld  [ %fp + 0x44 ], %g1
    1a2c:	c2 00 40 00 	ld  [ %g1 ], %g1
    1a30:	80 a0 60 01 	cmp  %g1, 1
    1a34:	02 80 00 04 	be  1a44 <pthread_mutex_lock+0x44>
    1a38:	01 00 00 00 	nop 
    1a3c:	10 80 00 12 	b  1a84 <pthread_mutex_lock+0x84>
    1a40:	01 00 00 00 	nop 
    1a44:	03 00 00 3b 	sethi  %hi(0xec00), %g1
    1a48:	82 10 61 10 	or  %g1, 0x110, %g1	! ed10 <_data_start>
    1a4c:	c2 00 40 00 	ld  [ %g1 ], %g1
    1a50:	c0 20 40 00 	clr  [ %g1 ]
    1a54:	90 10 21 f4 	mov  0x1f4, %o0
    1a58:	40 00 00 32 	call  1b20 <pthread_busywait>
    1a5c:	01 00 00 00 	nop 
    1a60:	03 00 00 3b 	sethi  %hi(0xec00), %g1
    1a64:	82 10 61 10 	or  %g1, 0x110, %g1	! ed10 <_data_start>
    1a68:	c2 00 40 00 	ld  [ %g1 ], %g1
    1a6c:	c2 00 40 00 	ld  [ %g1 ], %g1
    1a70:	80 a0 60 00 	cmp  %g1, 0
    1a74:	12 bf ff fb 	bne  1a60 <pthread_mutex_lock+0x60>
    1a78:	01 00 00 00 	nop 
    1a7c:	10 bf ff eb 	b  1a28 <pthread_mutex_lock+0x28>
    1a80:	01 00 00 00 	nop 
    1a84:	da 07 a0 44 	ld  [ %fp + 0x44 ], %o5
    1a88:	82 10 20 01 	mov  1, %g1
    1a8c:	c2 23 40 00 	st  %g1, [ %o5 ]
    1a90:	03 00 00 3b 	sethi  %hi(0xec00), %g1
    1a94:	82 10 61 10 	or  %g1, 0x110, %g1	! ed10 <_data_start>
    1a98:	c2 00 40 00 	ld  [ %g1 ], %g1
    1a9c:	c0 20 40 00 	clr  [ %g1 ]
    1aa0:	c0 27 bf f4 	clr  [ %fp + -12 ]
    1aa4:	c2 07 bf f4 	ld  [ %fp + -12 ], %g1
    1aa8:	b0 10 00 01 	mov  %g1, %i0
    1aac:	81 c7 e0 08 	ret 
    1ab0:	81 e8 00 00 	restore 

00001ab4 <pthread_mutex_unlock>:
    1ab4:	9d e3 bf 98 	save  %sp, -104, %sp
    1ab8:	f0 27 a0 44 	st  %i0, [ %fp + 0x44 ]
    1abc:	03 00 00 3b 	sethi  %hi(0xec00), %g1
    1ac0:	82 10 61 10 	or  %g1, 0x110, %g1	! ed10 <_data_start>
    1ac4:	c2 00 40 00 	ld  [ %g1 ], %g1
    1ac8:	c2 00 40 00 	ld  [ %g1 ], %g1
    1acc:	80 a0 60 00 	cmp  %g1, 0
    1ad0:	12 bf ff fb 	bne  1abc <pthread_mutex_unlock+0x8>
    1ad4:	01 00 00 00 	nop 
    1ad8:	c2 07 a0 44 	ld  [ %fp + 0x44 ], %g1
    1adc:	c0 20 40 00 	clr  [ %g1 ]
    1ae0:	03 00 00 3b 	sethi  %hi(0xec00), %g1
    1ae4:	82 10 61 10 	or  %g1, 0x110, %g1	! ed10 <_data_start>
    1ae8:	c2 00 40 00 	ld  [ %g1 ], %g1
    1aec:	c0 20 40 00 	clr  [ %g1 ]
    1af0:	82 10 20 00 	clr  %g1
    1af4:	b0 10 00 01 	mov  %g1, %i0
    1af8:	81 c7 e0 08 	ret 
    1afc:	81 e8 00 00 	restore 

00001b00 <pthread_mutex_destroy>:
    1b00:	9d e3 bf 98 	save  %sp, -104, %sp
    1b04:	f0 27 a0 44 	st  %i0, [ %fp + 0x44 ]
    1b08:	d0 07 a0 44 	ld  [ %fp + 0x44 ], %o0
    1b0c:	40 00 07 ea 	call  3ab4 <free>
    1b10:	01 00 00 00 	nop 
    1b14:	01 00 00 00 	nop 
    1b18:	81 c7 e0 08 	ret 
    1b1c:	81 e8 00 00 	restore 

00001b20 <pthread_busywait>:
    1b20:	9d e3 bf 90 	save  %sp, -112, %sp
    1b24:	f0 27 a0 44 	st  %i0, [ %fp + 0x44 ]
    1b28:	c0 27 bf f4 	clr  [ %fp + -12 ]
    1b2c:	fa 07 bf f4 	ld  [ %fp + -12 ], %i5
    1b30:	c2 07 a0 44 	ld  [ %fp + 0x44 ], %g1
    1b34:	80 a7 40 01 	cmp  %i5, %g1
    1b38:	06 80 00 04 	bl  1b48 <pthread_busywait+0x28>
    1b3c:	01 00 00 00 	nop 
    1b40:	10 80 00 07 	b  1b5c <pthread_busywait+0x3c>
    1b44:	01 00 00 00 	nop 
    1b48:	c2 07 bf f4 	ld  [ %fp + -12 ], %g1
    1b4c:	82 00 60 01 	inc  %g1
    1b50:	c2 27 bf f4 	st  %g1, [ %fp + -12 ]
    1b54:	10 bf ff f6 	b  1b2c <pthread_busywait+0xc>
    1b58:	01 00 00 00 	nop 
    1b5c:	81 c7 e0 08 	ret 
    1b60:	81 e8 00 00 	restore 

00001b64 <pthread_init>:
    1b64:	9d e3 bf 98 	save  %sp, -104, %sp
    1b68:	03 00 00 4d 	sethi  %hi(0x13400), %g1
    1b6c:	90 10 62 44 	or  %g1, 0x244, %o0	! 13644 <tQueue>
    1b70:	7f ff fe 33 	call  143c <initQueue>
    1b74:	01 00 00 00 	nop 
    1b78:	03 00 00 4d 	sethi  %hi(0x13400), %g1
    1b7c:	90 10 62 30 	or  %g1, 0x230, %o0	! 13630 <join>
    1b80:	7f ff ff 32 	call  1848 <pthread_join_init>
    1b84:	01 00 00 00 	nop 
    1b88:	03 00 00 3b 	sethi  %hi(0xec00), %g1
    1b8c:	82 10 61 10 	or  %g1, 0x110, %g1	! ed10 <_data_start>
    1b90:	c2 00 40 00 	ld  [ %g1 ], %g1
    1b94:	c2 00 40 00 	ld  [ %g1 ], %g1
    1b98:	80 a0 60 00 	cmp  %g1, 0
    1b9c:	12 bf ff fb 	bne  1b88 <pthread_init+0x24>
    1ba0:	01 00 00 00 	nop 
    1ba4:	03 00 00 3d 	sethi  %hi(0xf400), %g1
    1ba8:	82 10 60 dc 	or  %g1, 0xdc, %g1	! f4dc <pthread_numberOfActiveThreads>
    1bac:	c0 20 40 00 	clr  [ %g1 ]
    1bb0:	03 00 00 3d 	sethi  %hi(0xf400), %g1
    1bb4:	82 10 60 e4 	or  %g1, 0xe4, %g1	! f4e4 <pthread_free_for_start>
    1bb8:	c0 20 40 00 	clr  [ %g1 ]
    1bbc:	03 00 00 3d 	sethi  %hi(0xf400), %g1
    1bc0:	82 10 60 e0 	or  %g1, 0xe0, %g1	! f4e0 <pthread_finished>
    1bc4:	c0 20 40 00 	clr  [ %g1 ]
    1bc8:	03 00 00 3b 	sethi  %hi(0xec00), %g1
    1bcc:	82 10 61 10 	or  %g1, 0x110, %g1	! ed10 <_data_start>
    1bd0:	c2 00 40 00 	ld  [ %g1 ], %g1
    1bd4:	c0 20 40 00 	clr  [ %g1 ]
    1bd8:	b0 10 00 01 	mov  %g1, %i0
    1bdc:	81 c7 e0 08 	ret 
    1be0:	81 e8 00 00 	restore 

00001be4 <pthread_executeThread>:
    1be4:	9d e3 bf 88 	save  %sp, -120, %sp
    1be8:	01 00 00 00 	nop 
    1bec:	03 00 00 3b 	sethi  %hi(0xec00), %g1
    1bf0:	82 10 61 10 	or  %g1, 0x110, %g1	! ed10 <_data_start>
    1bf4:	c2 00 40 00 	ld  [ %g1 ], %g1
    1bf8:	c2 00 40 00 	ld  [ %g1 ], %g1
    1bfc:	80 a0 60 00 	cmp  %g1, 0
    1c00:	12 bf ff fb 	bne  1bec <pthread_executeThread+0x8>
    1c04:	01 00 00 00 	nop 
    1c08:	03 00 00 3d 	sethi  %hi(0xf400), %g1
    1c0c:	9a 10 60 dc 	or  %g1, 0xdc, %o5	! f4dc <pthread_numberOfActiveThreads>
    1c10:	03 00 00 3d 	sethi  %hi(0xf400), %g1
    1c14:	82 10 60 dc 	or  %g1, 0xdc, %g1	! f4dc <pthread_numberOfActiveThreads>
    1c18:	c2 00 40 00 	ld  [ %g1 ], %g1
    1c1c:	82 00 60 01 	inc  %g1
    1c20:	c2 23 40 00 	st  %g1, [ %o5 ]
    1c24:	03 00 00 3d 	sethi  %hi(0xf400), %g1
    1c28:	82 10 60 dc 	or  %g1, 0xdc, %g1	! f4dc <pthread_numberOfActiveThreads>
    1c2c:	c2 00 40 00 	ld  [ %g1 ], %g1
    1c30:	c2 27 bf f4 	st  %g1, [ %fp + -12 ]
    1c34:	03 00 00 3d 	sethi  %hi(0xf400), %g1
    1c38:	9a 10 60 dc 	or  %g1, 0xdc, %o5	! f4dc <pthread_numberOfActiveThreads>
    1c3c:	03 00 00 4e 	sethi  %hi(0x13800), %g1
    1c40:	82 10 61 50 	or  %g1, 0x150, %g1	! 13950 <pthread_n_workers>
    1c44:	da 03 40 00 	ld  [ %o5 ], %o5
    1c48:	c2 00 40 00 	ld  [ %g1 ], %g1
    1c4c:	80 a3 40 01 	cmp  %o5, %g1
    1c50:	12 80 00 13 	bne  1c9c <pthread_executeThread+0xb8>
    1c54:	01 00 00 00 	nop 
    1c58:	03 00 00 3d 	sethi  %hi(0xf400), %g1
    1c5c:	9a 10 60 dc 	or  %g1, 0xdc, %o5	! f4dc <pthread_numberOfActiveThreads>
    1c60:	03 00 00 39 	sethi  %hi(0xe400), %g1
    1c64:	90 10 62 e0 	or  %g1, 0x2e0, %o0	! e6e0 <__CTOR_END__+0x3b0>
    1c68:	d2 03 40 00 	ld  [ %o5 ], %o1
    1c6c:	40 00 09 af 	call  4328 <printf>
    1c70:	01 00 00 00 	nop 
    1c74:	03 00 00 3d 	sethi  %hi(0xf400), %g1
    1c78:	82 10 60 dc 	or  %g1, 0xdc, %g1	! f4dc <pthread_numberOfActiveThreads>
    1c7c:	c0 20 40 00 	clr  [ %g1 ]
    1c80:	03 00 00 3d 	sethi  %hi(0xf400), %g1
    1c84:	9a 10 60 e4 	or  %g1, 0xe4, %o5	! f4e4 <pthread_free_for_start>
    1c88:	82 10 20 01 	mov  1, %g1
    1c8c:	c2 23 40 00 	st  %g1, [ %o5 ]
    1c90:	03 00 00 3d 	sethi  %hi(0xf400), %g1
    1c94:	82 10 60 d8 	or  %g1, 0xd8, %g1	! f4d8 <pthread_created>
    1c98:	c0 20 40 00 	clr  [ %g1 ]
    1c9c:	03 00 00 3b 	sethi  %hi(0xec00), %g1
    1ca0:	82 10 61 10 	or  %g1, 0x110, %g1	! ed10 <_data_start>
    1ca4:	c2 00 40 00 	ld  [ %g1 ], %g1
    1ca8:	c0 20 40 00 	clr  [ %g1 ]
    1cac:	03 00 00 3d 	sethi  %hi(0xf400), %g1
    1cb0:	82 10 60 e4 	or  %g1, 0xe4, %g1	! f4e4 <pthread_free_for_start>
    1cb4:	c2 00 40 00 	ld  [ %g1 ], %g1
    1cb8:	80 a0 60 00 	cmp  %g1, 0
    1cbc:	02 bf ff fc 	be  1cac <pthread_executeThread+0xc8>
    1cc0:	01 00 00 00 	nop 
    1cc4:	01 00 00 00 	nop 
    1cc8:	03 00 00 3b 	sethi  %hi(0xec00), %g1
    1ccc:	82 10 61 10 	or  %g1, 0x110, %g1	! ed10 <_data_start>
    1cd0:	c2 00 40 00 	ld  [ %g1 ], %g1
    1cd4:	c2 00 40 00 	ld  [ %g1 ], %g1
    1cd8:	80 a0 60 00 	cmp  %g1, 0
    1cdc:	12 bf ff fb 	bne  1cc8 <pthread_executeThread+0xe4>
    1ce0:	01 00 00 00 	nop 
    1ce4:	03 00 00 4d 	sethi  %hi(0x13400), %g1
    1ce8:	90 10 62 44 	or  %g1, 0x244, %o0	! 13644 <tQueue>
    1cec:	7f ff fe 5d 	call  1660 <dequeue>
    1cf0:	01 00 00 00 	nop 
    1cf4:	82 10 00 08 	mov  %o0, %g1
    1cf8:	c2 27 bf f0 	st  %g1, [ %fp + -16 ]
    1cfc:	03 00 00 3b 	sethi  %hi(0xec00), %g1
    1d00:	82 10 61 10 	or  %g1, 0x110, %g1	! ed10 <_data_start>
    1d04:	c2 00 40 00 	ld  [ %g1 ], %g1
    1d08:	c0 20 40 00 	clr  [ %g1 ]
    1d0c:	03 00 00 4d 	sethi  %hi(0x13400), %g1
    1d10:	90 10 62 40 	or  %g1, 0x240, %o0	! 13640 <mutex_print>
    1d14:	7f ff ff 3b 	call  1a00 <pthread_mutex_lock>
    1d18:	01 00 00 00 	nop 
    1d1c:	da 07 bf f0 	ld  [ %fp + -16 ], %o5
    1d20:	03 00 00 39 	sethi  %hi(0xe400), %g1
    1d24:	90 10 63 00 	or  %g1, 0x300, %o0	! e700 <__CTOR_END__+0x3d0>
    1d28:	d2 03 40 00 	ld  [ %o5 ], %o1
    1d2c:	40 00 09 7f 	call  4328 <printf>
    1d30:	01 00 00 00 	nop 
    1d34:	da 07 bf f0 	ld  [ %fp + -16 ], %o5
    1d38:	03 00 00 39 	sethi  %hi(0xe400), %g1
    1d3c:	90 10 63 38 	or  %g1, 0x338, %o0	! e738 <__CTOR_END__+0x408>
    1d40:	d2 03 60 04 	ld  [ %o5 + 4 ], %o1
    1d44:	40 00 09 79 	call  4328 <printf>
    1d48:	01 00 00 00 	nop 
    1d4c:	03 00 00 4d 	sethi  %hi(0x13400), %g1
    1d50:	90 10 62 40 	or  %g1, 0x240, %o0	! 13640 <mutex_print>
    1d54:	7f ff ff 58 	call  1ab4 <pthread_mutex_unlock>
    1d58:	01 00 00 00 	nop 
    1d5c:	c2 07 bf f0 	ld  [ %fp + -16 ], %g1
    1d60:	c2 00 40 00 	ld  [ %g1 ], %g1
    1d64:	c2 27 bf ec 	st  %g1, [ %fp + -20 ]
    1d68:	c2 07 bf f0 	ld  [ %fp + -16 ], %g1
    1d6c:	c2 00 60 04 	ld  [ %g1 + 4 ], %g1
    1d70:	c2 27 bf e8 	st  %g1, [ %fp + -24 ]
    1d74:	c2 07 bf ec 	ld  [ %fp + -20 ], %g1
    1d78:	d0 07 bf e8 	ld  [ %fp + -24 ], %o0
    1d7c:	9f c0 40 00 	call  %g1
    1d80:	01 00 00 00 	nop 
    1d84:	03 00 00 4d 	sethi  %hi(0x13400), %g1
    1d88:	90 10 62 40 	or  %g1, 0x240, %o0	! 13640 <mutex_print>
    1d8c:	7f ff ff 1d 	call  1a00 <pthread_mutex_lock>
    1d90:	01 00 00 00 	nop 
    1d94:	da 07 bf f0 	ld  [ %fp + -16 ], %o5
    1d98:	03 00 00 39 	sethi  %hi(0xe400), %g1
    1d9c:	90 10 63 60 	or  %g1, 0x360, %o0	! e760 <__CTOR_END__+0x430>
    1da0:	d2 03 40 00 	ld  [ %o5 ], %o1
    1da4:	40 00 09 61 	call  4328 <printf>
    1da8:	01 00 00 00 	nop 
    1dac:	da 07 bf f0 	ld  [ %fp + -16 ], %o5
    1db0:	03 00 00 39 	sethi  %hi(0xe400), %g1
    1db4:	90 10 63 38 	or  %g1, 0x338, %o0	! e738 <__CTOR_END__+0x408>
    1db8:	d2 03 60 04 	ld  [ %o5 + 4 ], %o1
    1dbc:	40 00 09 5b 	call  4328 <printf>
    1dc0:	01 00 00 00 	nop 
    1dc4:	03 00 00 4d 	sethi  %hi(0x13400), %g1
    1dc8:	90 10 62 40 	or  %g1, 0x240, %o0	! 13640 <mutex_print>
    1dcc:	7f ff ff 3a 	call  1ab4 <pthread_mutex_unlock>
    1dd0:	01 00 00 00 	nop 
    1dd4:	03 00 00 4d 	sethi  %hi(0x13400), %g1
    1dd8:	90 10 62 30 	or  %g1, 0x230, %o0	! 13630 <join>
    1ddc:	7f ff fe b7 	call  18b8 <pthread_join_control>
    1de0:	01 00 00 00 	nop 
    1de4:	03 00 00 3b 	sethi  %hi(0xec00), %g1
    1de8:	82 10 61 10 	or  %g1, 0x110, %g1	! ed10 <_data_start>
    1dec:	c2 00 40 00 	ld  [ %g1 ], %g1
    1df0:	c2 00 40 00 	ld  [ %g1 ], %g1
    1df4:	80 a0 60 00 	cmp  %g1, 0
    1df8:	12 bf ff fb 	bne  1de4 <pthread_executeThread+0x200>
    1dfc:	01 00 00 00 	nop 
    1e00:	03 00 00 4d 	sethi  %hi(0x13400), %g1
    1e04:	9a 10 62 3c 	or  %g1, 0x23c, %o5	! 1363c <pthread_ended>
    1e08:	03 00 00 4d 	sethi  %hi(0x13400), %g1
    1e0c:	82 10 62 3c 	or  %g1, 0x23c, %g1	! 1363c <pthread_ended>
    1e10:	c2 00 40 00 	ld  [ %g1 ], %g1
    1e14:	82 00 7f ff 	add  %g1, -1, %g1
    1e18:	c2 23 40 00 	st  %g1, [ %o5 ]
    1e1c:	03 00 00 4d 	sethi  %hi(0x13400), %g1
    1e20:	82 10 62 3c 	or  %g1, 0x23c, %g1	! 1363c <pthread_ended>
    1e24:	c2 00 40 00 	ld  [ %g1 ], %g1
    1e28:	c2 27 bf f4 	st  %g1, [ %fp + -12 ]
    1e2c:	03 00 00 3b 	sethi  %hi(0xec00), %g1
    1e30:	82 10 61 10 	or  %g1, 0x110, %g1	! ed10 <_data_start>
    1e34:	c2 00 40 00 	ld  [ %g1 ], %g1
    1e38:	c0 20 40 00 	clr  [ %g1 ]
    1e3c:	c2 07 bf f4 	ld  [ %fp + -12 ], %g1
    1e40:	80 a0 60 00 	cmp  %g1, 0
    1e44:	12 80 00 1f 	bne  1ec0 <pthread_executeThread+0x2dc>
    1e48:	01 00 00 00 	nop 
    1e4c:	03 00 00 3b 	sethi  %hi(0xec00), %g1
    1e50:	82 10 61 10 	or  %g1, 0x110, %g1	! ed10 <_data_start>
    1e54:	c2 00 40 00 	ld  [ %g1 ], %g1
    1e58:	c2 00 40 00 	ld  [ %g1 ], %g1
    1e5c:	80 a0 60 00 	cmp  %g1, 0
    1e60:	12 bf ff fb 	bne  1e4c <pthread_executeThread+0x268>
    1e64:	01 00 00 00 	nop 
    1e68:	03 00 00 4d 	sethi  %hi(0x13400), %g1
    1e6c:	9a 10 62 30 	or  %g1, 0x230, %o5	! 13630 <join>
    1e70:	03 00 00 4e 	sethi  %hi(0x13800), %g1
    1e74:	82 10 61 50 	or  %g1, 0x150, %g1	! 13950 <pthread_n_workers>
    1e78:	c2 00 40 00 	ld  [ %g1 ], %g1
    1e7c:	c2 23 40 00 	st  %g1, [ %o5 ]
    1e80:	03 00 00 3d 	sethi  %hi(0xf400), %g1
    1e84:	82 10 60 e4 	or  %g1, 0xe4, %g1	! f4e4 <pthread_free_for_start>
    1e88:	c0 20 40 00 	clr  [ %g1 ]
    1e8c:	03 00 00 3d 	sethi  %hi(0xf400), %g1
    1e90:	82 10 60 e8 	or  %g1, 0xe8, %g1	! f4e8 <join_out>
    1e94:	c0 20 40 00 	clr  [ %g1 ]
    1e98:	03 00 00 4d 	sethi  %hi(0x13400), %g1
    1e9c:	9a 10 62 3c 	or  %g1, 0x23c, %o5	! 1363c <pthread_ended>
    1ea0:	03 00 00 4e 	sethi  %hi(0x13800), %g1
    1ea4:	82 10 61 50 	or  %g1, 0x150, %g1	! 13950 <pthread_n_workers>
    1ea8:	c2 00 40 00 	ld  [ %g1 ], %g1
    1eac:	c2 23 40 00 	st  %g1, [ %o5 ]
    1eb0:	03 00 00 3b 	sethi  %hi(0xec00), %g1
    1eb4:	82 10 61 10 	or  %g1, 0x110, %g1	! ed10 <_data_start>
    1eb8:	c2 00 40 00 	ld  [ %g1 ], %g1
    1ebc:	c0 20 40 00 	clr  [ %g1 ]
    1ec0:	81 c7 e0 08 	ret 
    1ec4:	81 e8 00 00 	restore 

00001ec8 <pthread_create>:
    1ec8:	9d e3 bf 80 	save  %sp, -128, %sp
    1ecc:	f0 27 a0 44 	st  %i0, [ %fp + 0x44 ]
    1ed0:	f2 27 a0 48 	st  %i1, [ %fp + 0x48 ]
    1ed4:	f4 27 a0 4c 	st  %i2, [ %fp + 0x4c ]
    1ed8:	f6 27 a0 50 	st  %i3, [ %fp + 0x50 ]
    1edc:	82 07 bf e8 	add  %fp, -24, %g1
    1ee0:	90 10 00 01 	mov  %g1, %o0
    1ee4:	d2 07 a0 4c 	ld  [ %fp + 0x4c ], %o1
    1ee8:	d4 07 a0 50 	ld  [ %fp + 0x50 ], %o2
    1eec:	7f ff fd 48 	call  140c <initNode>
    1ef0:	01 00 00 00 	nop 
    1ef4:	03 00 00 3b 	sethi  %hi(0xec00), %g1
    1ef8:	82 10 61 10 	or  %g1, 0x110, %g1	! ed10 <_data_start>
    1efc:	c2 00 40 00 	ld  [ %g1 ], %g1
    1f00:	c2 00 40 00 	ld  [ %g1 ], %g1
    1f04:	80 a0 60 00 	cmp  %g1, 0
    1f08:	12 bf ff fb 	bne  1ef4 <pthread_create+0x2c>
    1f0c:	01 00 00 00 	nop 
    1f10:	9a 07 bf e8 	add  %fp, -24, %o5
    1f14:	03 00 00 4d 	sethi  %hi(0x13400), %g1
    1f18:	90 10 62 44 	or  %g1, 0x244, %o0	! 13644 <tQueue>
    1f1c:	92 10 00 0d 	mov  %o5, %o1
    1f20:	7f ff fd 90 	call  1560 <enqueue>
    1f24:	01 00 00 00 	nop 
    1f28:	03 00 00 3b 	sethi  %hi(0xec00), %g1
    1f2c:	82 10 61 10 	or  %g1, 0x110, %g1	! ed10 <_data_start>
    1f30:	c2 00 40 00 	ld  [ %g1 ], %g1
    1f34:	c0 20 40 00 	clr  [ %g1 ]
    1f38:	03 00 00 4d 	sethi  %hi(0x13400), %g1
    1f3c:	90 10 62 44 	or  %g1, 0x244, %o0	! 13644 <tQueue>
    1f40:	7f ff fe 04 	call  1750 <size>
    1f44:	01 00 00 00 	nop 
    1f48:	82 10 00 08 	mov  %o0, %g1
    1f4c:	c2 27 bf e4 	st  %g1, [ %fp + -28 ]
    1f50:	03 00 00 4e 	sethi  %hi(0x13800), %g1
    1f54:	82 10 61 50 	or  %g1, 0x150, %g1	! 13950 <pthread_n_workers>
    1f58:	da 07 bf e4 	ld  [ %fp + -28 ], %o5
    1f5c:	c2 00 40 00 	ld  [ %g1 ], %g1
    1f60:	80 a3 40 01 	cmp  %o5, %g1
    1f64:	12 80 00 13 	bne  1fb0 <pthread_create+0xe8>
    1f68:	01 00 00 00 	nop 
    1f6c:	03 00 00 3b 	sethi  %hi(0xec00), %g1
    1f70:	82 10 61 10 	or  %g1, 0x110, %g1	! ed10 <_data_start>
    1f74:	c2 00 40 00 	ld  [ %g1 ], %g1
    1f78:	c2 00 40 00 	ld  [ %g1 ], %g1
    1f7c:	80 a0 60 00 	cmp  %g1, 0
    1f80:	12 bf ff fb 	bne  1f6c <pthread_create+0xa4>
    1f84:	01 00 00 00 	nop 
    1f88:	03 00 00 3d 	sethi  %hi(0xf400), %g1
    1f8c:	9a 10 60 d8 	or  %g1, 0xd8, %o5	! f4d8 <pthread_created>
    1f90:	82 10 20 01 	mov  1, %g1
    1f94:	c2 23 40 00 	st  %g1, [ %o5 ]
    1f98:	03 00 00 3b 	sethi  %hi(0xec00), %g1
    1f9c:	82 10 61 10 	or  %g1, 0x110, %g1	! ed10 <_data_start>
    1fa0:	c2 00 40 00 	ld  [ %g1 ], %g1
    1fa4:	c0 20 40 00 	clr  [ %g1 ]
    1fa8:	7f ff ff 0f 	call  1be4 <pthread_executeThread>
    1fac:	01 00 00 00 	nop 
    1fb0:	82 10 20 00 	clr  %g1	! 0 <__DYNAMIC>
    1fb4:	b0 10 00 01 	mov  %g1, %i0
    1fb8:	81 c7 e0 08 	ret 
    1fbc:	81 e8 00 00 	restore 

00001fc0 <pthread_cond_init>:
    1fc0:	9d e3 bf 98 	save  %sp, -104, %sp
    1fc4:	f0 27 a0 44 	st  %i0, [ %fp + 0x44 ]
    1fc8:	f2 27 a0 48 	st  %i1, [ %fp + 0x48 ]
    1fcc:	c2 07 a0 44 	ld  [ %fp + 0x44 ], %g1
    1fd0:	c0 20 40 00 	clr  [ %g1 ]
    1fd4:	b0 10 00 01 	mov  %g1, %i0
    1fd8:	81 c7 e0 08 	ret 
    1fdc:	81 e8 00 00 	restore 

00001fe0 <pthread_cond_wait>:
    1fe0:	9d e3 bf 98 	save  %sp, -104, %sp
    1fe4:	f0 27 a0 44 	st  %i0, [ %fp + 0x44 ]
    1fe8:	f2 27 a0 48 	st  %i1, [ %fp + 0x48 ]
    1fec:	d0 07 a0 48 	ld  [ %fp + 0x48 ], %o0
    1ff0:	7f ff fe b1 	call  1ab4 <pthread_mutex_unlock>
    1ff4:	01 00 00 00 	nop 
    1ff8:	c2 07 a0 44 	ld  [ %fp + 0x44 ], %g1
    1ffc:	c2 00 40 00 	ld  [ %g1 ], %g1
    2000:	80 a0 60 00 	cmp  %g1, 0
    2004:	02 bf ff fd 	be  1ff8 <pthread_cond_wait+0x18>
    2008:	01 00 00 00 	nop 
    200c:	b0 10 00 01 	mov  %g1, %i0
    2010:	81 c7 e0 08 	ret 
    2014:	81 e8 00 00 	restore 

00002018 <pthread_cond_broadcast>:
    2018:	9d e3 bf 90 	save  %sp, -112, %sp
    201c:	f0 27 a0 44 	st  %i0, [ %fp + 0x44 ]
    2020:	fa 07 a0 44 	ld  [ %fp + 0x44 ], %i5
    2024:	82 10 20 01 	mov  1, %g1
    2028:	c2 27 40 00 	st  %g1, [ %i5 ]
    202c:	c0 27 bf f4 	clr  [ %fp + -12 ]
    2030:	c2 07 bf f4 	ld  [ %fp + -12 ], %g1
    2034:	80 a0 65 dc 	cmp  %g1, 0x5dc
    2038:	04 80 00 04 	ble  2048 <pthread_cond_broadcast+0x30>
    203c:	01 00 00 00 	nop 
    2040:	10 80 00 07 	b  205c <pthread_cond_broadcast+0x44>
    2044:	01 00 00 00 	nop 
    2048:	c2 07 bf f4 	ld  [ %fp + -12 ], %g1
    204c:	82 00 60 01 	inc  %g1
    2050:	c2 27 bf f4 	st  %g1, [ %fp + -12 ]
    2054:	10 bf ff f7 	b  2030 <pthread_cond_broadcast+0x18>
    2058:	01 00 00 00 	nop 
    205c:	c2 07 a0 44 	ld  [ %fp + 0x44 ], %g1
    2060:	c0 20 40 00 	clr  [ %g1 ]
    2064:	b0 10 00 01 	mov  %g1, %i0
    2068:	81 c7 e0 08 	ret 
    206c:	81 e8 00 00 	restore 

00002070 <pthread_barrier_init>:
    2070:	9d e3 bf 98 	save  %sp, -104, %sp
    2074:	f0 27 a0 44 	st  %i0, [ %fp + 0x44 ]
    2078:	f2 27 a0 48 	st  %i1, [ %fp + 0x48 ]
    207c:	03 00 00 3b 	sethi  %hi(0xec00), %g1
    2080:	82 10 61 10 	or  %g1, 0x110, %g1	! ed10 <_data_start>
    2084:	c2 00 40 00 	ld  [ %g1 ], %g1
    2088:	c2 00 40 00 	ld  [ %g1 ], %g1
    208c:	80 a0 60 00 	cmp  %g1, 0
    2090:	12 bf ff fb 	bne  207c <pthread_barrier_init+0xc>
    2094:	01 00 00 00 	nop 
    2098:	c2 07 a0 44 	ld  [ %fp + 0x44 ], %g1
    209c:	c0 20 60 0c 	clr  [ %g1 + 0xc ]
    20a0:	f8 07 a0 44 	ld  [ %fp + 0x44 ], %i4
    20a4:	fa 07 a0 44 	ld  [ %fp + 0x44 ], %i5
    20a8:	c2 07 a0 48 	ld  [ %fp + 0x48 ], %g1
    20ac:	c2 27 60 04 	st  %g1, [ %i5 + 4 ]
    20b0:	c2 27 20 08 	st  %g1, [ %i4 + 8 ]
    20b4:	03 00 00 3b 	sethi  %hi(0xec00), %g1
    20b8:	82 10 61 10 	or  %g1, 0x110, %g1	! ed10 <_data_start>
    20bc:	c2 00 40 00 	ld  [ %g1 ], %g1
    20c0:	c0 20 40 00 	clr  [ %g1 ]
    20c4:	81 c7 e0 08 	ret 
    20c8:	81 e8 00 00 	restore 

000020cc <pthread_barrier_wait>:
    20cc:	9d e3 bf 90 	save  %sp, -112, %sp
    20d0:	f0 27 a0 44 	st  %i0, [ %fp + 0x44 ]
    20d4:	03 00 00 3b 	sethi  %hi(0xec00), %g1
    20d8:	82 10 61 10 	or  %g1, 0x110, %g1	! ed10 <_data_start>
    20dc:	c2 00 40 00 	ld  [ %g1 ], %g1
    20e0:	c2 00 40 00 	ld  [ %g1 ], %g1
    20e4:	80 a0 60 00 	cmp  %g1, 0
    20e8:	12 bf ff fb 	bne  20d4 <pthread_barrier_wait+0x8>
    20ec:	01 00 00 00 	nop 
    20f0:	c2 07 a0 44 	ld  [ %fp + 0x44 ], %g1
    20f4:	c2 00 60 0c 	ld  [ %g1 + 0xc ], %g1
    20f8:	c2 27 bf f0 	st  %g1, [ %fp + -16 ]
    20fc:	fa 07 a0 44 	ld  [ %fp + 0x44 ], %i5
    2100:	c2 07 a0 44 	ld  [ %fp + 0x44 ], %g1
    2104:	c2 00 60 08 	ld  [ %g1 + 8 ], %g1
    2108:	82 00 7f ff 	add  %g1, -1, %g1
    210c:	c2 27 60 08 	st  %g1, [ %i5 + 8 ]
    2110:	80 a0 60 00 	cmp  %g1, 0
    2114:	12 80 00 15 	bne  2168 <pthread_barrier_wait+0x9c>
    2118:	01 00 00 00 	nop 
    211c:	fa 07 a0 44 	ld  [ %fp + 0x44 ], %i5
    2120:	c2 07 a0 44 	ld  [ %fp + 0x44 ], %g1
    2124:	c2 00 60 0c 	ld  [ %g1 + 0xc ], %g1
    2128:	82 18 60 00 	xor  %g1, 0, %g1
    212c:	80 a0 00 01 	cmp  %g0, %g1
    2130:	82 60 3f ff 	subx  %g0, -1, %g1
    2134:	c2 27 60 0c 	st  %g1, [ %i5 + 0xc ]
    2138:	fa 07 a0 44 	ld  [ %fp + 0x44 ], %i5
    213c:	c2 07 a0 44 	ld  [ %fp + 0x44 ], %g1
    2140:	c2 00 60 04 	ld  [ %g1 + 4 ], %g1
    2144:	c2 27 60 08 	st  %g1, [ %i5 + 8 ]
    2148:	03 00 00 3b 	sethi  %hi(0xec00), %g1
    214c:	82 10 61 10 	or  %g1, 0x110, %g1	! ed10 <_data_start>
    2150:	c2 00 40 00 	ld  [ %g1 ], %g1
    2154:	c0 20 40 00 	clr  [ %g1 ]
    2158:	82 10 20 01 	mov  1, %g1
    215c:	c2 27 bf f4 	st  %g1, [ %fp + -12 ]
    2160:	10 80 00 0e 	b  2198 <pthread_barrier_wait+0xcc>
    2164:	01 00 00 00 	nop 
    2168:	03 00 00 3b 	sethi  %hi(0xec00), %g1
    216c:	82 10 61 10 	or  %g1, 0x110, %g1	! ed10 <_data_start>
    2170:	c2 00 40 00 	ld  [ %g1 ], %g1
    2174:	c0 20 40 00 	clr  [ %g1 ]
    2178:	c2 07 a0 44 	ld  [ %fp + 0x44 ], %g1
    217c:	fa 07 bf f0 	ld  [ %fp + -16 ], %i5
    2180:	c2 00 60 0c 	ld  [ %g1 + 0xc ], %g1
    2184:	80 a7 40 01 	cmp  %i5, %g1
    2188:	02 bf ff fc 	be  2178 <pthread_barrier_wait+0xac>
    218c:	01 00 00 00 	nop 
    2190:	82 10 20 01 	mov  1, %g1	! 1 <__DYNAMIC+0x1>
    2194:	c2 27 bf f4 	st  %g1, [ %fp + -12 ]
    2198:	c2 07 bf f4 	ld  [ %fp + -12 ], %g1
    219c:	b0 10 00 01 	mov  %g1, %i0
    21a0:	81 c7 e0 08 	ret 
    21a4:	81 e8 00 00 	restore 

000021a8 <acPthread_malloc>:
    21a8:	9d e3 bf 90 	save  %sp, -112, %sp
    21ac:	f0 27 a0 44 	st  %i0, [ %fp + 0x44 ]
    21b0:	03 00 00 4d 	sethi  %hi(0x13400), %g1
    21b4:	90 10 62 38 	or  %g1, 0x238, %o0	! 13638 <mutex_malloc>
    21b8:	7f ff fe 12 	call  1a00 <pthread_mutex_lock>
    21bc:	01 00 00 00 	nop 
    21c0:	d0 07 a0 44 	ld  [ %fp + 0x44 ], %o0
    21c4:	40 00 06 34 	call  3a94 <malloc>
    21c8:	01 00 00 00 	nop 
    21cc:	82 10 00 08 	mov  %o0, %g1
    21d0:	c2 27 bf f4 	st  %g1, [ %fp + -12 ]
    21d4:	03 00 00 4d 	sethi  %hi(0x13400), %g1
    21d8:	90 10 62 38 	or  %g1, 0x238, %o0	! 13638 <mutex_malloc>
    21dc:	7f ff fe 36 	call  1ab4 <pthread_mutex_unlock>
    21e0:	01 00 00 00 	nop 
    21e4:	c2 07 bf f4 	ld  [ %fp + -12 ], %g1
    21e8:	b0 10 00 01 	mov  %g1, %i0
    21ec:	81 c7 e0 08 	ret 
    21f0:	81 e8 00 00 	restore 

000021f4 <acPthread_realloc>:
    21f4:	9d e3 bf 90 	save  %sp, -112, %sp
    21f8:	f0 27 a0 44 	st  %i0, [ %fp + 0x44 ]
    21fc:	f2 27 a0 48 	st  %i1, [ %fp + 0x48 ]
    2200:	03 00 00 4d 	sethi  %hi(0x13400), %g1
    2204:	90 10 62 38 	or  %g1, 0x238, %o0	! 13638 <mutex_malloc>
    2208:	7f ff fd fe 	call  1a00 <pthread_mutex_lock>
    220c:	01 00 00 00 	nop 
    2210:	d0 07 a0 44 	ld  [ %fp + 0x44 ], %o0
    2214:	d2 07 a0 48 	ld  [ %fp + 0x48 ], %o1
    2218:	40 00 08 53 	call  4364 <realloc>
    221c:	01 00 00 00 	nop 
    2220:	d0 27 bf f4 	st  %o0, [ %fp + -12 ]
    2224:	03 00 00 4d 	sethi  %hi(0x13400), %g1
    2228:	90 10 62 38 	or  %g1, 0x238, %o0	! 13638 <mutex_malloc>
    222c:	7f ff fe 22 	call  1ab4 <pthread_mutex_unlock>
    2230:	01 00 00 00 	nop 
    2234:	c2 07 bf f4 	ld  [ %fp + -12 ], %g1
    2238:	b0 10 00 01 	mov  %g1, %i0
    223c:	81 c7 e0 08 	ret 
    2240:	81 e8 00 00 	restore 

00002244 <acPthread_calloc>:
    2244:	9d e3 bf 90 	save  %sp, -112, %sp
    2248:	f0 27 a0 44 	st  %i0, [ %fp + 0x44 ]
    224c:	f2 27 a0 48 	st  %i1, [ %fp + 0x48 ]
    2250:	03 00 00 4d 	sethi  %hi(0x13400), %g1
    2254:	90 10 62 38 	or  %g1, 0x238, %o0	! 13638 <mutex_malloc>
    2258:	7f ff fd ea 	call  1a00 <pthread_mutex_lock>
    225c:	01 00 00 00 	nop 
    2260:	d0 07 a0 44 	ld  [ %fp + 0x44 ], %o0
    2264:	d2 07 a0 48 	ld  [ %fp + 0x48 ], %o1
    2268:	40 00 01 ae 	call  2920 <calloc>
    226c:	01 00 00 00 	nop 
    2270:	82 10 00 08 	mov  %o0, %g1
    2274:	c2 27 bf f4 	st  %g1, [ %fp + -12 ]
    2278:	03 00 00 4d 	sethi  %hi(0x13400), %g1
    227c:	90 10 62 38 	or  %g1, 0x238, %o0	! 13638 <mutex_malloc>
    2280:	7f ff fe 0d 	call  1ab4 <pthread_mutex_unlock>
    2284:	01 00 00 00 	nop 
    2288:	c2 07 bf f4 	ld  [ %fp + -12 ], %g1
    228c:	b0 10 00 01 	mov  %g1, %i0
    2290:	81 c7 e0 08 	ret 
    2294:	81 e8 00 00 	restore 

00002298 <acPthread_free>:
    2298:	9d e3 bf 98 	save  %sp, -104, %sp
    229c:	f0 27 a0 44 	st  %i0, [ %fp + 0x44 ]
    22a0:	03 00 00 4d 	sethi  %hi(0x13400), %g1
    22a4:	90 10 62 38 	or  %g1, 0x238, %o0	! 13638 <mutex_malloc>
    22a8:	7f ff fd d6 	call  1a00 <pthread_mutex_lock>
    22ac:	01 00 00 00 	nop 
    22b0:	d0 07 a0 44 	ld  [ %fp + 0x44 ], %o0
    22b4:	40 00 06 00 	call  3ab4 <free>
    22b8:	01 00 00 00 	nop 
    22bc:	03 00 00 4d 	sethi  %hi(0x13400), %g1
    22c0:	90 10 62 38 	or  %g1, 0x238, %o0	! 13638 <mutex_malloc>
    22c4:	7f ff fd fc 	call  1ab4 <pthread_mutex_unlock>
    22c8:	01 00 00 00 	nop 
    22cc:	01 00 00 00 	nop 
    22d0:	81 c7 e0 08 	ret 
    22d4:	81 e8 00 00 	restore 

000022d8 <.umul>:
    22d8:	98 12 00 09 	or  %o0, %o1, %o4
    22dc:	81 82 00 00 	mov  %o0, %y
    22e0:	9a ab 2f ff 	andncc  %o4, 0xfff, %o5
    22e4:	02 80 00 25 	be  2378 <mul_shortway>
    22e8:	98 88 00 00 	andcc  %g0, %g0, %o4
    22ec:	99 23 00 09 	mulscc  %o4, %o1, %o4
    22f0:	99 23 00 09 	mulscc  %o4, %o1, %o4
    22f4:	99 23 00 09 	mulscc  %o4, %o1, %o4
    22f8:	99 23 00 09 	mulscc  %o4, %o1, %o4
    22fc:	99 23 00 09 	mulscc  %o4, %o1, %o4
    2300:	99 23 00 09 	mulscc  %o4, %o1, %o4
    2304:	99 23 00 09 	mulscc  %o4, %o1, %o4
    2308:	99 23 00 09 	mulscc  %o4, %o1, %o4
    230c:	99 23 00 09 	mulscc  %o4, %o1, %o4
    2310:	99 23 00 09 	mulscc  %o4, %o1, %o4
    2314:	99 23 00 09 	mulscc  %o4, %o1, %o4
    2318:	99 23 00 09 	mulscc  %o4, %o1, %o4
    231c:	99 23 00 09 	mulscc  %o4, %o1, %o4
    2320:	99 23 00 09 	mulscc  %o4, %o1, %o4
    2324:	99 23 00 09 	mulscc  %o4, %o1, %o4
    2328:	99 23 00 09 	mulscc  %o4, %o1, %o4
    232c:	99 23 00 09 	mulscc  %o4, %o1, %o4
    2330:	99 23 00 09 	mulscc  %o4, %o1, %o4
    2334:	99 23 00 09 	mulscc  %o4, %o1, %o4
    2338:	99 23 00 09 	mulscc  %o4, %o1, %o4
    233c:	99 23 00 09 	mulscc  %o4, %o1, %o4
    2340:	99 23 00 09 	mulscc  %o4, %o1, %o4
    2344:	99 23 00 09 	mulscc  %o4, %o1, %o4
    2348:	99 23 00 09 	mulscc  %o4, %o1, %o4
    234c:	99 23 00 09 	mulscc  %o4, %o1, %o4
    2350:	99 23 00 09 	mulscc  %o4, %o1, %o4
    2354:	99 23 00 09 	mulscc  %o4, %o1, %o4
    2358:	99 23 00 09 	mulscc  %o4, %o1, %o4
    235c:	99 23 00 09 	mulscc  %o4, %o1, %o4
    2360:	99 23 00 09 	mulscc  %o4, %o1, %o4
    2364:	99 23 00 09 	mulscc  %o4, %o1, %o4
    2368:	99 23 00 09 	mulscc  %o4, %o1, %o4
    236c:	99 23 00 00 	mulscc  %o4, %g0, %o4
    2370:	81 c3 e0 08 	retl 
    2374:	91 40 00 00 	rd  %y, %o0

00002378 <mul_shortway>:
    2378:	99 23 00 09 	mulscc  %o4, %o1, %o4
    237c:	99 23 00 09 	mulscc  %o4, %o1, %o4
    2380:	99 23 00 09 	mulscc  %o4, %o1, %o4
    2384:	99 23 00 09 	mulscc  %o4, %o1, %o4
    2388:	99 23 00 09 	mulscc  %o4, %o1, %o4
    238c:	99 23 00 09 	mulscc  %o4, %o1, %o4
    2390:	99 23 00 09 	mulscc  %o4, %o1, %o4
    2394:	99 23 00 09 	mulscc  %o4, %o1, %o4
    2398:	99 23 00 09 	mulscc  %o4, %o1, %o4
    239c:	99 23 00 09 	mulscc  %o4, %o1, %o4
    23a0:	99 23 00 09 	mulscc  %o4, %o1, %o4
    23a4:	99 23 00 09 	mulscc  %o4, %o1, %o4
    23a8:	99 23 00 00 	mulscc  %o4, %g0, %o4
    23ac:	9b 40 00 00 	rd  %y, %o5
    23b0:	99 2b 20 0c 	sll  %o4, 0xc, %o4
    23b4:	9b 33 60 14 	srl  %o5, 0x14, %o5
    23b8:	81 c3 e0 08 	retl 
    23bc:	90 13 40 0c 	or  %o5, %o4, %o0

000023c0 <.udiv>:
    23c0:	10 80 00 0b 	b  23ec <ready_to_divide>
    23c4:	86 10 20 00 	clr  %g3

000023c8 <.div>:
    23c8:	80 92 40 08 	orcc  %o1, %o0, %g0
    23cc:	16 80 00 08 	bge  23ec <ready_to_divide>
    23d0:	86 1a 40 08 	xor  %o1, %o0, %g3
    23d4:	80 92 40 00 	tst  %o1
    23d8:	16 80 00 04 	bge  23e8 <.div+0x20>
    23dc:	80 92 00 00 	tst  %o0
    23e0:	16 80 00 03 	bge  23ec <ready_to_divide>
    23e4:	92 20 00 09 	neg  %o1
    23e8:	90 20 00 08 	neg  %o0

000023ec <ready_to_divide>:
    23ec:	9a 92 40 00 	orcc  %o1, %g0, %o5
    23f0:	12 80 00 05 	bne  2404 <ready_to_divide+0x18>
    23f4:	96 10 00 08 	mov  %o0, %o3
    23f8:	91 d0 20 02 	ta  2
    23fc:	81 c3 e0 08 	retl 
    2400:	90 10 00 00 	mov  %g0, %o0
    2404:	80 a2 c0 0d 	cmp  %o3, %o5
    2408:	0a 80 00 95 	bcs  265c <got_result>
    240c:	94 10 00 00 	mov  %g0, %o2
    2410:	03 02 00 00 	sethi  %hi(0x8000000), %g1
    2414:	80 a2 c0 01 	cmp  %o3, %g1
    2418:	0a 80 00 28 	bcs  24b8 <not_really_big>
    241c:	98 10 00 00 	mov  %g0, %o4
    2420:	80 a3 40 01 	cmp  %o5, %g1
    2424:	1a 80 00 0d 	bcc  2458 <not_too_big>
    2428:	84 10 20 01 	mov  1, %g2
    242c:	9b 2b 60 04 	sll  %o5, 4, %o5
    2430:	10 bf ff fc 	b  2420 <ready_to_divide+0x34>
    2434:	98 03 20 01 	inc  %o4
    2438:	9a 83 40 0d 	addcc  %o5, %o5, %o5
    243c:	1a 80 00 07 	bcc  2458 <not_too_big>
    2440:	84 00 a0 01 	inc  %g2
    2444:	83 28 60 04 	sll  %g1, 4, %g1
    2448:	9b 33 60 01 	srl  %o5, 1, %o5
    244c:	9a 03 40 01 	add  %o5, %g1, %o5
    2450:	10 80 00 07 	b  246c <do_single_div>
    2454:	84 20 a0 01 	dec  %g2

00002458 <not_too_big>:
    2458:	80 a3 40 0b 	cmp  %o5, %o3
    245c:	0a bf ff f7 	bcs  2438 <ready_to_divide+0x4c>
    2460:	01 00 00 00 	nop 
    2464:	02 80 00 02 	be  246c <do_single_div>
    2468:	01 00 00 00 	nop 

0000246c <do_single_div>:
    246c:	84 a0 a0 01 	deccc  %g2
    2470:	06 80 00 76 	bl  2648 <end_regular_divide>
    2474:	01 00 00 00 	nop 
    2478:	96 22 c0 0d 	sub  %o3, %o5, %o3
    247c:	94 10 20 01 	mov  1, %o2
    2480:	10 80 00 0a 	b  24a8 <end_single_divloop>
    2484:	01 00 00 00 	nop 

00002488 <single_divloop>:
    2488:	95 2a a0 01 	sll  %o2, 1, %o2
    248c:	06 80 00 05 	bl  24a0 <single_divloop+0x18>
    2490:	9b 33 60 01 	srl  %o5, 1, %o5
    2494:	96 22 c0 0d 	sub  %o3, %o5, %o3
    2498:	10 80 00 04 	b  24a8 <end_single_divloop>
    249c:	94 02 a0 01 	inc  %o2
    24a0:	96 02 c0 0d 	add  %o3, %o5, %o3
    24a4:	94 22 a0 01 	dec  %o2

000024a8 <end_single_divloop>:
    24a8:	84 a0 a0 01 	deccc  %g2
    24ac:	16 bf ff f7 	bge  2488 <single_divloop>
    24b0:	80 92 c0 00 	tst  %o3
    24b4:	30 80 00 65 	b,a   2648 <end_regular_divide>

000024b8 <not_really_big>:
    24b8:	9b 2b 60 04 	sll  %o5, 4, %o5
    24bc:	80 a3 40 0b 	cmp  %o5, %o3
    24c0:	08 bf ff fe 	bleu  24b8 <not_really_big>
    24c4:	98 83 20 01 	inccc  %o4
    24c8:	02 80 00 65 	be  265c <got_result>
    24cc:	98 23 20 01 	dec  %o4
    24d0:	80 92 c0 00 	tst  %o3

000024d4 <divloop>:
    24d4:	95 2a a0 04 	sll  %o2, 4, %o2
    24d8:	06 80 00 2f 	bl  2594 <L1.16>
    24dc:	9b 33 60 01 	srl  %o5, 1, %o5
    24e0:	96 a2 c0 0d 	subcc  %o3, %o5, %o3
    24e4:	06 80 00 17 	bl  2540 <L2.17>
    24e8:	9b 33 60 01 	srl  %o5, 1, %o5
    24ec:	96 a2 c0 0d 	subcc  %o3, %o5, %o3
    24f0:	06 80 00 0b 	bl  251c <L3.19>
    24f4:	9b 33 60 01 	srl  %o5, 1, %o5
    24f8:	96 a2 c0 0d 	subcc  %o3, %o5, %o3
    24fc:	06 80 00 05 	bl  2510 <L4.23>
    2500:	9b 33 60 01 	srl  %o5, 1, %o5
    2504:	96 a2 c0 0d 	subcc  %o3, %o5, %o3
    2508:	10 80 00 50 	b  2648 <end_regular_divide>
    250c:	94 02 a0 0f 	add  %o2, 0xf, %o2

00002510 <L4.23>:
    2510:	96 82 c0 0d 	addcc  %o3, %o5, %o3
    2514:	10 80 00 4d 	b  2648 <end_regular_divide>
    2518:	94 02 a0 0d 	add  %o2, 0xd, %o2

0000251c <L3.19>:
    251c:	96 82 c0 0d 	addcc  %o3, %o5, %o3
    2520:	06 80 00 05 	bl  2534 <L4.21>
    2524:	9b 33 60 01 	srl  %o5, 1, %o5
    2528:	96 a2 c0 0d 	subcc  %o3, %o5, %o3
    252c:	10 80 00 47 	b  2648 <end_regular_divide>
    2530:	94 02 a0 0b 	add  %o2, 0xb, %o2

00002534 <L4.21>:
    2534:	96 82 c0 0d 	addcc  %o3, %o5, %o3
    2538:	10 80 00 44 	b  2648 <end_regular_divide>
    253c:	94 02 a0 09 	add  %o2, 9, %o2

00002540 <L2.17>:
    2540:	96 82 c0 0d 	addcc  %o3, %o5, %o3
    2544:	06 80 00 0b 	bl  2570 <L3.17>
    2548:	9b 33 60 01 	srl  %o5, 1, %o5
    254c:	96 a2 c0 0d 	subcc  %o3, %o5, %o3
    2550:	06 80 00 05 	bl  2564 <L4.19>
    2554:	9b 33 60 01 	srl  %o5, 1, %o5
    2558:	96 a2 c0 0d 	subcc  %o3, %o5, %o3
    255c:	10 80 00 3b 	b  2648 <end_regular_divide>
    2560:	94 02 a0 07 	add  %o2, 7, %o2

00002564 <L4.19>:
    2564:	96 82 c0 0d 	addcc  %o3, %o5, %o3
    2568:	10 80 00 38 	b  2648 <end_regular_divide>
    256c:	94 02 a0 05 	add  %o2, 5, %o2

00002570 <L3.17>:
    2570:	96 82 c0 0d 	addcc  %o3, %o5, %o3
    2574:	06 80 00 05 	bl  2588 <L4.17>
    2578:	9b 33 60 01 	srl  %o5, 1, %o5
    257c:	96 a2 c0 0d 	subcc  %o3, %o5, %o3
    2580:	10 80 00 32 	b  2648 <end_regular_divide>
    2584:	94 02 a0 03 	add  %o2, 3, %o2

00002588 <L4.17>:
    2588:	96 82 c0 0d 	addcc  %o3, %o5, %o3
    258c:	10 80 00 2f 	b  2648 <end_regular_divide>
    2590:	94 02 a0 01 	inc  %o2

00002594 <L1.16>:
    2594:	96 82 c0 0d 	addcc  %o3, %o5, %o3
    2598:	06 80 00 17 	bl  25f4 <L2.15>
    259c:	9b 33 60 01 	srl  %o5, 1, %o5
    25a0:	96 a2 c0 0d 	subcc  %o3, %o5, %o3
    25a4:	06 80 00 0b 	bl  25d0 <L3.15>
    25a8:	9b 33 60 01 	srl  %o5, 1, %o5
    25ac:	96 a2 c0 0d 	subcc  %o3, %o5, %o3
    25b0:	06 80 00 05 	bl  25c4 <L4.15>
    25b4:	9b 33 60 01 	srl  %o5, 1, %o5
    25b8:	96 a2 c0 0d 	subcc  %o3, %o5, %o3
    25bc:	10 80 00 23 	b  2648 <end_regular_divide>
    25c0:	94 02 bf ff 	add  %o2, -1, %o2

000025c4 <L4.15>:
    25c4:	96 82 c0 0d 	addcc  %o3, %o5, %o3
    25c8:	10 80 00 20 	b  2648 <end_regular_divide>
    25cc:	94 02 bf fd 	add  %o2, -3, %o2

000025d0 <L3.15>:
    25d0:	96 82 c0 0d 	addcc  %o3, %o5, %o3
    25d4:	06 80 00 05 	bl  25e8 <L4.13>
    25d8:	9b 33 60 01 	srl  %o5, 1, %o5
    25dc:	96 a2 c0 0d 	subcc  %o3, %o5, %o3
    25e0:	10 80 00 1a 	b  2648 <end_regular_divide>
    25e4:	94 02 bf fb 	add  %o2, -5, %o2

000025e8 <L4.13>:
    25e8:	96 82 c0 0d 	addcc  %o3, %o5, %o3
    25ec:	10 80 00 17 	b  2648 <end_regular_divide>
    25f0:	94 02 bf f9 	add  %o2, -7, %o2

000025f4 <L2.15>:
    25f4:	96 82 c0 0d 	addcc  %o3, %o5, %o3
    25f8:	06 80 00 0b 	bl  2624 <L3.13>
    25fc:	9b 33 60 01 	srl  %o5, 1, %o5
    2600:	96 a2 c0 0d 	subcc  %o3, %o5, %o3
    2604:	06 80 00 05 	bl  2618 <L4.11>
    2608:	9b 33 60 01 	srl  %o5, 1, %o5
    260c:	96 a2 c0 0d 	subcc  %o3, %o5, %o3
    2610:	10 80 00 0e 	b  2648 <end_regular_divide>
    2614:	94 02 bf f7 	add  %o2, -9, %o2

00002618 <L4.11>:
    2618:	96 82 c0 0d 	addcc  %o3, %o5, %o3
    261c:	10 80 00 0b 	b  2648 <end_regular_divide>
    2620:	94 02 bf f5 	add  %o2, -11, %o2

00002624 <L3.13>:
    2624:	96 82 c0 0d 	addcc  %o3, %o5, %o3
    2628:	06 80 00 05 	bl  263c <L4.9>
    262c:	9b 33 60 01 	srl  %o5, 1, %o5
    2630:	96 a2 c0 0d 	subcc  %o3, %o5, %o3
    2634:	10 80 00 05 	b  2648 <end_regular_divide>
    2638:	94 02 bf f3 	add  %o2, -13, %o2

0000263c <L4.9>:
    263c:	96 82 c0 0d 	addcc  %o3, %o5, %o3
    2640:	10 80 00 02 	b  2648 <end_regular_divide>
    2644:	94 02 bf f1 	add  %o2, -15, %o2

00002648 <end_regular_divide>:
    2648:	98 a3 20 01 	deccc  %o4
    264c:	16 bf ff a2 	bge  24d4 <divloop>
    2650:	80 92 c0 00 	tst  %o3
    2654:	26 80 00 02 	bl,a   265c <got_result>
    2658:	94 22 a0 01 	dec  %o2

0000265c <got_result>:
    265c:	80 90 c0 00 	tst  %g3
    2660:	26 80 00 02 	bl,a   2668 <got_result+0xc>
    2664:	94 20 00 0a 	neg  %o2
    2668:	81 c3 e0 08 	retl 
    266c:	90 10 00 0a 	mov  %o2, %o0

00002670 <.urem>:
    2670:	10 80 00 0b 	b  269c <divide>
    2674:	86 10 20 00 	clr  %g3

00002678 <.rem>:
    2678:	80 92 40 08 	orcc  %o1, %o0, %g0
    267c:	16 80 00 08 	bge  269c <divide>
    2680:	86 10 00 08 	mov  %o0, %g3
    2684:	80 92 40 00 	tst  %o1
    2688:	16 80 00 04 	bge  2698 <.rem+0x20>
    268c:	80 92 00 00 	tst  %o0
    2690:	16 80 00 03 	bge  269c <divide>
    2694:	92 20 00 09 	neg  %o1
    2698:	90 20 00 08 	neg  %o0

0000269c <divide>:
    269c:	9a 92 40 00 	orcc  %o1, %g0, %o5
    26a0:	12 80 00 05 	bne  26b4 <divide+0x18>
    26a4:	96 10 00 08 	mov  %o0, %o3
    26a8:	91 d0 20 02 	ta  2
    26ac:	81 c3 e0 08 	retl 
    26b0:	90 10 00 00 	mov  %g0, %o0
    26b4:	80 a2 c0 0d 	cmp  %o3, %o5
    26b8:	0a 80 00 95 	bcs  290c <got_result>
    26bc:	94 10 00 00 	mov  %g0, %o2
    26c0:	03 02 00 00 	sethi  %hi(0x8000000), %g1
    26c4:	80 a2 c0 01 	cmp  %o3, %g1
    26c8:	0a 80 00 28 	bcs  2768 <not_really_big>
    26cc:	98 10 00 00 	mov  %g0, %o4
    26d0:	80 a3 40 01 	cmp  %o5, %g1
    26d4:	1a 80 00 0d 	bcc  2708 <not_too_big>
    26d8:	84 10 20 01 	mov  1, %g2
    26dc:	9b 2b 60 04 	sll  %o5, 4, %o5
    26e0:	10 bf ff fc 	b  26d0 <divide+0x34>
    26e4:	98 03 20 01 	inc  %o4
    26e8:	9a 83 40 0d 	addcc  %o5, %o5, %o5
    26ec:	1a 80 00 07 	bcc  2708 <not_too_big>
    26f0:	84 00 a0 01 	inc  %g2
    26f4:	83 28 60 04 	sll  %g1, 4, %g1
    26f8:	9b 33 60 01 	srl  %o5, 1, %o5
    26fc:	9a 03 40 01 	add  %o5, %g1, %o5
    2700:	10 80 00 07 	b  271c <do_single_div>
    2704:	84 20 a0 01 	dec  %g2

00002708 <not_too_big>:
    2708:	80 a3 40 0b 	cmp  %o5, %o3
    270c:	0a bf ff f7 	bcs  26e8 <divide+0x4c>
    2710:	01 00 00 00 	nop 
    2714:	02 80 00 02 	be  271c <do_single_div>
    2718:	01 00 00 00 	nop 

0000271c <do_single_div>:
    271c:	84 a0 a0 01 	deccc  %g2
    2720:	06 80 00 76 	bl  28f8 <end_regular_divide>
    2724:	01 00 00 00 	nop 
    2728:	96 22 c0 0d 	sub  %o3, %o5, %o3
    272c:	94 10 20 01 	mov  1, %o2
    2730:	10 80 00 0a 	b  2758 <end_single_divloop>
    2734:	01 00 00 00 	nop 

00002738 <single_divloop>:
    2738:	95 2a a0 01 	sll  %o2, 1, %o2
    273c:	06 80 00 05 	bl  2750 <single_divloop+0x18>
    2740:	9b 33 60 01 	srl  %o5, 1, %o5
    2744:	96 22 c0 0d 	sub  %o3, %o5, %o3
    2748:	10 80 00 04 	b  2758 <end_single_divloop>
    274c:	94 02 a0 01 	inc  %o2
    2750:	96 02 c0 0d 	add  %o3, %o5, %o3
    2754:	94 22 a0 01 	dec  %o2

00002758 <end_single_divloop>:
    2758:	84 a0 a0 01 	deccc  %g2
    275c:	16 bf ff f7 	bge  2738 <single_divloop>
    2760:	80 92 c0 00 	tst  %o3
    2764:	30 80 00 65 	b,a   28f8 <end_regular_divide>

00002768 <not_really_big>:
    2768:	9b 2b 60 04 	sll  %o5, 4, %o5
    276c:	80 a3 40 0b 	cmp  %o5, %o3
    2770:	08 bf ff fe 	bleu  2768 <not_really_big>
    2774:	98 83 20 01 	inccc  %o4
    2778:	02 80 00 65 	be  290c <got_result>
    277c:	98 23 20 01 	dec  %o4
    2780:	80 92 c0 00 	tst  %o3

00002784 <divloop>:
    2784:	95 2a a0 04 	sll  %o2, 4, %o2
    2788:	06 80 00 2f 	bl  2844 <L1.16>
    278c:	9b 33 60 01 	srl  %o5, 1, %o5
    2790:	96 a2 c0 0d 	subcc  %o3, %o5, %o3
    2794:	06 80 00 17 	bl  27f0 <L2.17>
    2798:	9b 33 60 01 	srl  %o5, 1, %o5
    279c:	96 a2 c0 0d 	subcc  %o3, %o5, %o3
    27a0:	06 80 00 0b 	bl  27cc <L3.19>
    27a4:	9b 33 60 01 	srl  %o5, 1, %o5
    27a8:	96 a2 c0 0d 	subcc  %o3, %o5, %o3
    27ac:	06 80 00 05 	bl  27c0 <L4.23>
    27b0:	9b 33 60 01 	srl  %o5, 1, %o5
    27b4:	96 a2 c0 0d 	subcc  %o3, %o5, %o3
    27b8:	10 80 00 50 	b  28f8 <end_regular_divide>
    27bc:	94 02 a0 0f 	add  %o2, 0xf, %o2

000027c0 <L4.23>:
    27c0:	96 82 c0 0d 	addcc  %o3, %o5, %o3
    27c4:	10 80 00 4d 	b  28f8 <end_regular_divide>
    27c8:	94 02 a0 0d 	add  %o2, 0xd, %o2

000027cc <L3.19>:
    27cc:	96 82 c0 0d 	addcc  %o3, %o5, %o3
    27d0:	06 80 00 05 	bl  27e4 <L4.21>
    27d4:	9b 33 60 01 	srl  %o5, 1, %o5
    27d8:	96 a2 c0 0d 	subcc  %o3, %o5, %o3
    27dc:	10 80 00 47 	b  28f8 <end_regular_divide>
    27e0:	94 02 a0 0b 	add  %o2, 0xb, %o2

000027e4 <L4.21>:
    27e4:	96 82 c0 0d 	addcc  %o3, %o5, %o3
    27e8:	10 80 00 44 	b  28f8 <end_regular_divide>
    27ec:	94 02 a0 09 	add  %o2, 9, %o2

000027f0 <L2.17>:
    27f0:	96 82 c0 0d 	addcc  %o3, %o5, %o3
    27f4:	06 80 00 0b 	bl  2820 <L3.17>
    27f8:	9b 33 60 01 	srl  %o5, 1, %o5
    27fc:	96 a2 c0 0d 	subcc  %o3, %o5, %o3
    2800:	06 80 00 05 	bl  2814 <L4.19>
    2804:	9b 33 60 01 	srl  %o5, 1, %o5
    2808:	96 a2 c0 0d 	subcc  %o3, %o5, %o3
    280c:	10 80 00 3b 	b  28f8 <end_regular_divide>
    2810:	94 02 a0 07 	add  %o2, 7, %o2

00002814 <L4.19>:
    2814:	96 82 c0 0d 	addcc  %o3, %o5, %o3
    2818:	10 80 00 38 	b  28f8 <end_regular_divide>
    281c:	94 02 a0 05 	add  %o2, 5, %o2

00002820 <L3.17>:
    2820:	96 82 c0 0d 	addcc  %o3, %o5, %o3
    2824:	06 80 00 05 	bl  2838 <L4.17>
    2828:	9b 33 60 01 	srl  %o5, 1, %o5
    282c:	96 a2 c0 0d 	subcc  %o3, %o5, %o3
    2830:	10 80 00 32 	b  28f8 <end_regular_divide>
    2834:	94 02 a0 03 	add  %o2, 3, %o2

00002838 <L4.17>:
    2838:	96 82 c0 0d 	addcc  %o3, %o5, %o3
    283c:	10 80 00 2f 	b  28f8 <end_regular_divide>
    2840:	94 02 a0 01 	inc  %o2

00002844 <L1.16>:
    2844:	96 82 c0 0d 	addcc  %o3, %o5, %o3
    2848:	06 80 00 17 	bl  28a4 <L2.15>
    284c:	9b 33 60 01 	srl  %o5, 1, %o5
    2850:	96 a2 c0 0d 	subcc  %o3, %o5, %o3
    2854:	06 80 00 0b 	bl  2880 <L3.15>
    2858:	9b 33 60 01 	srl  %o5, 1, %o5
    285c:	96 a2 c0 0d 	subcc  %o3, %o5, %o3
    2860:	06 80 00 05 	bl  2874 <L4.15>
    2864:	9b 33 60 01 	srl  %o5, 1, %o5
    2868:	96 a2 c0 0d 	subcc  %o3, %o5, %o3
    286c:	10 80 00 23 	b  28f8 <end_regular_divide>
    2870:	94 02 bf ff 	add  %o2, -1, %o2

00002874 <L4.15>:
    2874:	96 82 c0 0d 	addcc  %o3, %o5, %o3
    2878:	10 80 00 20 	b  28f8 <end_regular_divide>
    287c:	94 02 bf fd 	add  %o2, -3, %o2

00002880 <L3.15>:
    2880:	96 82 c0 0d 	addcc  %o3, %o5, %o3
    2884:	06 80 00 05 	bl  2898 <L4.13>
    2888:	9b 33 60 01 	srl  %o5, 1, %o5
    288c:	96 a2 c0 0d 	subcc  %o3, %o5, %o3
    2890:	10 80 00 1a 	b  28f8 <end_regular_divide>
    2894:	94 02 bf fb 	add  %o2, -5, %o2

00002898 <L4.13>:
    2898:	96 82 c0 0d 	addcc  %o3, %o5, %o3
    289c:	10 80 00 17 	b  28f8 <end_regular_divide>
    28a0:	94 02 bf f9 	add  %o2, -7, %o2

000028a4 <L2.15>:
    28a4:	96 82 c0 0d 	addcc  %o3, %o5, %o3
    28a8:	06 80 00 0b 	bl  28d4 <L3.13>
    28ac:	9b 33 60 01 	srl  %o5, 1, %o5
    28b0:	96 a2 c0 0d 	subcc  %o3, %o5, %o3
    28b4:	06 80 00 05 	bl  28c8 <L4.11>
    28b8:	9b 33 60 01 	srl  %o5, 1, %o5
    28bc:	96 a2 c0 0d 	subcc  %o3, %o5, %o3
    28c0:	10 80 00 0e 	b  28f8 <end_regular_divide>
    28c4:	94 02 bf f7 	add  %o2, -9, %o2

000028c8 <L4.11>:
    28c8:	96 82 c0 0d 	addcc  %o3, %o5, %o3
    28cc:	10 80 00 0b 	b  28f8 <end_regular_divide>
    28d0:	94 02 bf f5 	add  %o2, -11, %o2

000028d4 <L3.13>:
    28d4:	96 82 c0 0d 	addcc  %o3, %o5, %o3
    28d8:	06 80 00 05 	bl  28ec <L4.9>
    28dc:	9b 33 60 01 	srl  %o5, 1, %o5
    28e0:	96 a2 c0 0d 	subcc  %o3, %o5, %o3
    28e4:	10 80 00 05 	b  28f8 <end_regular_divide>
    28e8:	94 02 bf f3 	add  %o2, -13, %o2

000028ec <L4.9>:
    28ec:	96 82 c0 0d 	addcc  %o3, %o5, %o3
    28f0:	10 80 00 02 	b  28f8 <end_regular_divide>
    28f4:	94 02 bf f1 	add  %o2, -15, %o2

000028f8 <end_regular_divide>:
    28f8:	98 a3 20 01 	deccc  %o4
    28fc:	16 bf ff a2 	bge  2784 <divloop>
    2900:	80 92 c0 00 	tst  %o3
    2904:	26 80 00 02 	bl,a   290c <got_result>
    2908:	96 02 c0 09 	add  %o3, %o1, %o3

0000290c <got_result>:
    290c:	80 90 c0 00 	tst  %g3
    2910:	26 80 00 02 	bl,a   2918 <got_result+0xc>
    2914:	96 20 00 0b 	neg  %o3
    2918:	81 c3 e0 08 	retl 
    291c:	90 10 00 0b 	mov  %o3, %o0

00002920 <calloc>:
    2920:	03 00 00 3c 	sethi  %hi(0xf000), %g1
    2924:	da 00 60 98 	ld  [ %g1 + 0x98 ], %o5	! f098 <_impure_ptr>
    2928:	98 10 00 08 	mov  %o0, %o4
    292c:	94 10 00 09 	mov  %o1, %o2
    2930:	90 10 00 0d 	mov  %o5, %o0
    2934:	92 10 00 0c 	mov  %o4, %o1
    2938:	82 13 c0 00 	mov  %o7, %g1
    293c:	40 00 00 03 	call  2948 <_calloc_r>
    2940:	9e 10 40 00 	mov  %g1, %o7
    2944:	01 00 00 00 	nop 

00002948 <_calloc_r>:
    2948:	9d e3 bf 98 	save  %sp, -104, %sp
    294c:	92 10 00 1a 	mov  %i2, %o1
    2950:	7f ff fe 62 	call  22d8 <.umul>
    2954:	90 10 00 19 	mov  %i1, %o0
    2958:	92 10 00 08 	mov  %o0, %o1
    295c:	90 10 00 18 	mov  %i0, %o0
    2960:	40 00 04 d2 	call  3ca8 <_malloc_r>
    2964:	b0 10 20 00 	clr  %i0
    2968:	b4 92 20 00 	orcc  %o0, 0, %i2
    296c:	02 80 00 21 	be  29f0 <_calloc_r+0xa8>
    2970:	9a 10 00 1a 	mov  %i2, %o5
    2974:	c2 06 bf fc 	ld  [ %i2 + -4 ], %g1
    2978:	82 08 7f fc 	and  %g1, -4, %g1
    297c:	92 10 20 00 	clr  %o1
    2980:	82 00 7f fc 	add  %g1, -4, %g1
    2984:	80 a0 60 24 	cmp  %g1, 0x24
    2988:	18 80 00 18 	bgu  29e8 <_calloc_r+0xa0>
    298c:	94 10 00 01 	mov  %g1, %o2
    2990:	80 a0 60 13 	cmp  %g1, 0x13
    2994:	28 80 00 10 	bleu,a   29d4 <_calloc_r+0x8c>
    2998:	c0 23 40 00 	clr  [ %o5 ]
    299c:	c0 26 80 00 	clr  [ %i2 ]
    29a0:	c0 26 a0 04 	clr  [ %i2 + 4 ]
    29a4:	80 a0 60 1b 	cmp  %g1, 0x1b
    29a8:	08 80 00 0a 	bleu  29d0 <_calloc_r+0x88>
    29ac:	9a 06 a0 08 	add  %i2, 8, %o5
    29b0:	80 a0 60 23 	cmp  %g1, 0x23
    29b4:	c0 26 a0 08 	clr  [ %i2 + 8 ]
    29b8:	c0 26 a0 0c 	clr  [ %i2 + 0xc ]
    29bc:	08 80 00 05 	bleu  29d0 <_calloc_r+0x88>
    29c0:	9a 06 a0 10 	add  %i2, 0x10, %o5
    29c4:	c0 26 a0 10 	clr  [ %i2 + 0x10 ]
    29c8:	c0 26 a0 14 	clr  [ %i2 + 0x14 ]
    29cc:	9a 06 a0 18 	add  %i2, 0x18, %o5
    29d0:	c0 23 40 00 	clr  [ %o5 ]
    29d4:	9a 03 60 04 	add  %o5, 4, %o5
    29d8:	c0 23 60 04 	clr  [ %o5 + 4 ]
    29dc:	c0 23 40 00 	clr  [ %o5 ]
    29e0:	10 80 00 04 	b  29f0 <_calloc_r+0xa8>
    29e4:	b0 10 00 1a 	mov  %i2, %i0
    29e8:	40 00 06 03 	call  41f4 <memset>
    29ec:	b0 10 00 1a 	mov  %i2, %i0
    29f0:	81 c7 e0 08 	ret 
    29f4:	81 e8 00 00 	restore 

000029f8 <exit>:
    29f8:	9d e3 bf 98 	save  %sp, -104, %sp
    29fc:	29 00 00 3c 	sethi  %hi(0xf000), %l4
    2a00:	c2 05 20 98 	ld  [ %l4 + 0x98 ], %g1	! f098 <_impure_ptr>
    2a04:	e6 00 61 48 	ld  [ %g1 + 0x148 ], %l3
    2a08:	80 a4 e0 00 	cmp  %l3, 0
    2a0c:	02 80 00 1b 	be  2a78 <exit+0x80>
    2a10:	d0 05 20 98 	ld  [ %l4 + 0x98 ], %o0
    2a14:	c2 04 e0 04 	ld  [ %l3 + 4 ], %g1
    2a18:	a4 80 7f ff 	addcc  %g1, -1, %l2
    2a1c:	0c 80 00 24 	bneg  2aac <exit+0xb4>
    2a20:	82 10 20 01 	mov  1, %g1
    2a24:	a3 28 40 12 	sll  %g1, %l2, %l1
    2a28:	80 a4 a0 00 	cmp  %l2, 0
    2a2c:	06 80 00 0e 	bl  2a64 <exit+0x6c>
    2a30:	83 2c a0 02 	sll  %l2, 2, %g1
    2a34:	a0 00 40 13 	add  %g1, %l3, %l0
    2a38:	c2 04 e1 08 	ld  [ %l3 + 0x108 ], %g1
    2a3c:	80 88 40 11 	btst  %g1, %l1
    2a40:	02 80 00 16 	be  2a98 <exit+0xa0>
    2a44:	90 10 00 18 	mov  %i0, %o0
    2a48:	c2 04 20 08 	ld  [ %l0 + 8 ], %g1
    2a4c:	9f c0 40 00 	call  %g1
    2a50:	d2 04 20 88 	ld  [ %l0 + 0x88 ], %o1
    2a54:	a0 04 3f fc 	add  %l0, -4, %l0
    2a58:	a4 84 bf ff 	addcc  %l2, -1, %l2
    2a5c:	1c bf ff f7 	bpos  2a38 <exit+0x40>
    2a60:	a3 3c 60 01 	sra  %l1, 1, %l1
    2a64:	e6 04 c0 00 	ld  [ %l3 ], %l3
    2a68:	80 a4 e0 00 	cmp  %l3, 0
    2a6c:	32 bf ff eb 	bne,a   2a18 <exit+0x20>
    2a70:	c2 04 e0 04 	ld  [ %l3 + 4 ], %g1
    2a74:	d0 05 20 98 	ld  [ %l4 + 0x98 ], %o0
    2a78:	c2 02 20 3c 	ld  [ %o0 + 0x3c ], %g1
    2a7c:	80 a0 60 00 	cmp  %g1, 0
    2a80:	12 80 00 04 	bne  2a90 <exit+0x98>
    2a84:	01 00 00 00 	nop 
    2a88:	40 00 27 28 	call  c728 <_exit>
    2a8c:	90 10 00 18 	mov  %i0, %o0
    2a90:	9f c0 40 00 	call  %g1
    2a94:	9e 03 ff f0 	add  %o7, -16, %o7
    2a98:	c2 04 20 08 	ld  [ %l0 + 8 ], %g1
    2a9c:	9f c0 40 00 	call  %g1
    2aa0:	a0 04 3f fc 	add  %l0, -4, %l0
    2aa4:	10 bf ff ee 	b  2a5c <exit+0x64>
    2aa8:	a4 84 bf ff 	addcc  %l2, -1, %l2
    2aac:	10 bf ff df 	b  2a28 <exit+0x30>
    2ab0:	a2 10 20 00 	clr  %l1

00002ab4 <fclose>:
    2ab4:	9d e3 bf 98 	save  %sp, -104, %sp
    2ab8:	80 a6 20 00 	cmp  %i0, 0
    2abc:	02 80 00 48 	be  2bdc <fclose+0x128>
    2ac0:	90 10 20 00 	clr  %o0
    2ac4:	d0 06 20 54 	ld  [ %i0 + 0x54 ], %o0
    2ac8:	80 a2 20 00 	cmp  %o0, 0
    2acc:	32 80 00 07 	bne,a   2ae8 <fclose+0x34>
    2ad0:	c2 02 20 38 	ld  [ %o0 + 0x38 ], %g1
    2ad4:	03 00 00 3c 	sethi  %hi(0xf000), %g1
    2ad8:	da 00 60 98 	ld  [ %g1 + 0x98 ], %o5	! f098 <_impure_ptr>
    2adc:	da 26 20 54 	st  %o5, [ %i0 + 0x54 ]
    2ae0:	90 10 00 0d 	mov  %o5, %o0
    2ae4:	c2 02 20 38 	ld  [ %o0 + 0x38 ], %g1
    2ae8:	80 a0 60 00 	cmp  %g1, 0
    2aec:	02 80 00 38 	be  2bcc <fclose+0x118>
    2af0:	01 00 00 00 	nop 
    2af4:	c2 16 20 0c 	lduh  [ %i0 + 0xc ], %g1
    2af8:	83 28 60 10 	sll  %g1, 0x10, %g1
    2afc:	80 a0 60 00 	cmp  %g1, 0
    2b00:	02 80 00 37 	be  2bdc <fclose+0x128>
    2b04:	90 10 20 00 	clr  %o0
    2b08:	83 30 60 10 	srl  %g1, 0x10, %g1
    2b0c:	80 88 60 08 	btst  8, %g1
    2b10:	12 80 00 2b 	bne  2bbc <fclose+0x108>
    2b14:	a0 10 20 00 	clr  %l0
    2b18:	c2 06 20 2c 	ld  [ %i0 + 0x2c ], %g1
    2b1c:	80 a0 60 00 	cmp  %g1, 0
    2b20:	12 80 00 20 	bne  2ba0 <fclose+0xec>
    2b24:	01 00 00 00 	nop 
    2b28:	c2 16 20 0c 	lduh  [ %i0 + 0xc ], %g1
    2b2c:	80 88 60 80 	btst  0x80, %g1
    2b30:	32 80 00 18 	bne,a   2b90 <fclose+0xdc>
    2b34:	d0 06 20 54 	ld  [ %i0 + 0x54 ], %o0
    2b38:	d2 06 20 30 	ld  [ %i0 + 0x30 ], %o1
    2b3c:	80 a2 60 00 	cmp  %o1, 0
    2b40:	22 80 00 0a 	be,a   2b68 <fclose+0xb4>
    2b44:	d2 06 20 44 	ld  [ %i0 + 0x44 ], %o1
    2b48:	82 06 20 40 	add  %i0, 0x40, %g1
    2b4c:	80 a2 40 01 	cmp  %o1, %g1
    2b50:	22 80 00 05 	be,a   2b64 <fclose+0xb0>
    2b54:	c0 26 20 30 	clr  [ %i0 + 0x30 ]
    2b58:	40 00 01 31 	call  301c <_free_r>
    2b5c:	d0 06 20 54 	ld  [ %i0 + 0x54 ], %o0
    2b60:	c0 26 20 30 	clr  [ %i0 + 0x30 ]
    2b64:	d2 06 20 44 	ld  [ %i0 + 0x44 ], %o1
    2b68:	80 a2 60 00 	cmp  %o1, 0
    2b6c:	12 80 00 05 	bne  2b80 <fclose+0xcc>
    2b70:	01 00 00 00 	nop 
    2b74:	c0 36 20 0c 	clrh  [ %i0 + 0xc ]
    2b78:	10 80 00 19 	b  2bdc <fclose+0x128>
    2b7c:	90 10 00 10 	mov  %l0, %o0
    2b80:	40 00 01 27 	call  301c <_free_r>
    2b84:	d0 06 20 54 	ld  [ %i0 + 0x54 ], %o0
    2b88:	10 bf ff fb 	b  2b74 <fclose+0xc0>
    2b8c:	c0 26 20 44 	clr  [ %i0 + 0x44 ]
    2b90:	40 00 01 23 	call  301c <_free_r>
    2b94:	d2 06 20 10 	ld  [ %i0 + 0x10 ], %o1
    2b98:	10 bf ff e9 	b  2b3c <fclose+0x88>
    2b9c:	d2 06 20 30 	ld  [ %i0 + 0x30 ], %o1
    2ba0:	9f c0 40 00 	call  %g1
    2ba4:	d0 06 20 1c 	ld  [ %i0 + 0x1c ], %o0
    2ba8:	80 a2 20 00 	cmp  %o0, 0
    2bac:	26 bf ff df 	bl,a   2b28 <fclose+0x74>
    2bb0:	a0 10 3f ff 	mov  -1, %l0
    2bb4:	10 bf ff de 	b  2b2c <fclose+0x78>
    2bb8:	c2 16 20 0c 	lduh  [ %i0 + 0xc ], %g1
    2bbc:	40 00 00 0a 	call  2be4 <fflush>
    2bc0:	90 10 00 18 	mov  %i0, %o0
    2bc4:	10 bf ff d5 	b  2b18 <fclose+0x64>
    2bc8:	a0 10 00 08 	mov  %o0, %l0
    2bcc:	40 00 00 b3 	call  2e98 <__sinit>
    2bd0:	01 00 00 00 	nop 
    2bd4:	10 bf ff c9 	b  2af8 <fclose+0x44>
    2bd8:	c2 16 20 0c 	lduh  [ %i0 + 0xc ], %g1
    2bdc:	81 c7 e0 08 	ret 
    2be0:	91 e8 00 08 	restore  %g0, %o0, %o0

00002be4 <fflush>:
    2be4:	9d e3 bf 98 	save  %sp, -104, %sp
    2be8:	80 a6 20 00 	cmp  %i0, 0
    2bec:	02 80 00 35 	be  2cc0 <fflush+0xdc>
    2bf0:	03 00 00 3c 	sethi  %hi(0xf000), %g1
    2bf4:	d0 06 20 54 	ld  [ %i0 + 0x54 ], %o0
    2bf8:	80 a2 20 00 	cmp  %o0, 0
    2bfc:	32 80 00 07 	bne,a   2c18 <fflush+0x34>
    2c00:	c2 02 20 38 	ld  [ %o0 + 0x38 ], %g1
    2c04:	03 00 00 3c 	sethi  %hi(0xf000), %g1
    2c08:	da 00 60 98 	ld  [ %g1 + 0x98 ], %o5	! f098 <_impure_ptr>
    2c0c:	da 26 20 54 	st  %o5, [ %i0 + 0x54 ]
    2c10:	90 10 00 0d 	mov  %o5, %o0
    2c14:	c2 02 20 38 	ld  [ %o0 + 0x38 ], %g1
    2c18:	80 a0 60 00 	cmp  %g1, 0
    2c1c:	02 80 00 25 	be  2cb0 <fflush+0xcc>
    2c20:	01 00 00 00 	nop 
    2c24:	d0 56 20 0c 	ldsh  [ %i0 + 0xc ], %o0
    2c28:	80 8a 20 08 	btst  8, %o0
    2c2c:	02 80 00 29 	be  2cd0 <fflush+0xec>
    2c30:	9a 10 20 00 	clr  %o5
    2c34:	e0 06 20 10 	ld  [ %i0 + 0x10 ], %l0
    2c38:	80 a4 20 00 	cmp  %l0, 0
    2c3c:	02 80 00 25 	be  2cd0 <fflush+0xec>
    2c40:	80 8a 20 03 	btst  3, %o0
    2c44:	c2 06 00 00 	ld  [ %i0 ], %g1
    2c48:	b2 20 40 10 	sub  %g1, %l0, %i1
    2c4c:	e0 26 00 00 	st  %l0, [ %i0 ]
    2c50:	12 80 00 03 	bne  2c5c <fflush+0x78>
    2c54:	82 10 20 00 	clr  %g1
    2c58:	c2 06 20 14 	ld  [ %i0 + 0x14 ], %g1
    2c5c:	80 a6 60 00 	cmp  %i1, 0
    2c60:	04 80 00 0d 	ble  2c94 <fflush+0xb0>
    2c64:	c2 26 20 08 	st  %g1, [ %i0 + 8 ]
    2c68:	d0 06 20 1c 	ld  [ %i0 + 0x1c ], %o0
    2c6c:	c2 06 20 24 	ld  [ %i0 + 0x24 ], %g1
    2c70:	92 10 00 10 	mov  %l0, %o1
    2c74:	9f c0 40 00 	call  %g1
    2c78:	94 10 00 19 	mov  %i1, %o2
    2c7c:	80 a2 20 00 	cmp  %o0, 0
    2c80:	04 80 00 07 	ble  2c9c <fflush+0xb8>
    2c84:	b2 26 40 08 	sub  %i1, %o0, %i1
    2c88:	80 a6 60 00 	cmp  %i1, 0
    2c8c:	14 bf ff f7 	bg  2c68 <fflush+0x84>
    2c90:	a0 04 00 08 	add  %l0, %o0, %l0
    2c94:	10 80 00 0f 	b  2cd0 <fflush+0xec>
    2c98:	9a 10 20 00 	clr  %o5
    2c9c:	c2 16 20 0c 	lduh  [ %i0 + 0xc ], %g1
    2ca0:	9a 10 3f ff 	mov  -1, %o5
    2ca4:	82 10 60 40 	or  %g1, 0x40, %g1
    2ca8:	10 80 00 0a 	b  2cd0 <fflush+0xec>
    2cac:	c2 36 20 0c 	sth  %g1, [ %i0 + 0xc ]
    2cb0:	40 00 00 7a 	call  2e98 <__sinit>
    2cb4:	01 00 00 00 	nop 
    2cb8:	10 bf ff dc 	b  2c28 <fflush+0x44>
    2cbc:	d0 56 20 0c 	ldsh  [ %i0 + 0xc ], %o0
    2cc0:	f0 00 60 98 	ld  [ %g1 + 0x98 ], %i0
    2cc4:	33 00 00 0a 	sethi  %hi(0x2800), %i1
    2cc8:	40 00 03 05 	call  38dc <_fwalk>
    2ccc:	93 ee 63 e4 	restore  %i1, 0x3e4, %o1
    2cd0:	81 c7 e0 08 	ret 
    2cd4:	91 e8 00 0d 	restore  %g0, %o5, %o0

00002cd8 <std>:
    2cd8:	03 00 00 13 	sethi  %hi(0x4c00), %g1
    2cdc:	1b 00 00 13 	sethi  %hi(0x4c00), %o5
    2ce0:	82 10 60 3c 	or  %g1, 0x3c, %g1
    2ce4:	9a 13 60 84 	or  %o5, 0x84, %o5
    2ce8:	c2 22 20 20 	st  %g1, [ %o0 + 0x20 ]
    2cec:	da 22 20 24 	st  %o5, [ %o0 + 0x24 ]
    2cf0:	03 00 00 13 	sethi  %hi(0x4c00), %g1
    2cf4:	1b 00 00 13 	sethi  %hi(0x4c00), %o5
    2cf8:	82 10 60 dc 	or  %g1, 0xdc, %g1
    2cfc:	9a 13 61 28 	or  %o5, 0x128, %o5
    2d00:	d2 32 20 0c 	sth  %o1, [ %o0 + 0xc ]
    2d04:	d4 32 20 0e 	sth  %o2, [ %o0 + 0xe ]
    2d08:	d6 22 20 54 	st  %o3, [ %o0 + 0x54 ]
    2d0c:	c0 22 00 00 	clr  [ %o0 ]
    2d10:	c0 22 20 04 	clr  [ %o0 + 4 ]
    2d14:	c0 22 20 08 	clr  [ %o0 + 8 ]
    2d18:	c0 22 20 10 	clr  [ %o0 + 0x10 ]
    2d1c:	c0 22 20 14 	clr  [ %o0 + 0x14 ]
    2d20:	c0 22 20 18 	clr  [ %o0 + 0x18 ]
    2d24:	d0 22 20 1c 	st  %o0, [ %o0 + 0x1c ]
    2d28:	c2 22 20 28 	st  %g1, [ %o0 + 0x28 ]
    2d2c:	81 c3 e0 08 	retl 
    2d30:	da 22 20 2c 	st  %o5, [ %o0 + 0x2c ]

00002d34 <__sfmoreglue>:
    2d34:	9d e3 bf 98 	save  %sp, -104, %sp
    2d38:	90 10 00 18 	mov  %i0, %o0
    2d3c:	a0 06 40 19 	add  %i1, %i1, %l0
    2d40:	a0 04 00 19 	add  %l0, %i1, %l0
    2d44:	a1 2c 20 03 	sll  %l0, 3, %l0
    2d48:	a0 24 00 19 	sub  %l0, %i1, %l0
    2d4c:	a1 2c 20 02 	sll  %l0, 2, %l0
    2d50:	40 00 03 d6 	call  3ca8 <_malloc_r>
    2d54:	92 04 20 0c 	add  %l0, 0xc, %o1
    2d58:	94 10 00 10 	mov  %l0, %o2
    2d5c:	a2 92 20 00 	orcc  %o0, 0, %l1
    2d60:	02 80 00 0a 	be  2d88 <__sfmoreglue+0x54>
    2d64:	b0 10 20 00 	clr  %i0
    2d68:	82 04 60 0c 	add  %l1, 0xc, %g1
    2d6c:	f2 24 60 04 	st  %i1, [ %l1 + 4 ]
    2d70:	c0 24 40 00 	clr  [ %l1 ]
    2d74:	92 10 20 00 	clr  %o1
    2d78:	90 10 00 01 	mov  %g1, %o0
    2d7c:	c2 24 60 08 	st  %g1, [ %l1 + 8 ]
    2d80:	40 00 05 1d 	call  41f4 <memset>
    2d84:	b0 10 00 11 	mov  %l1, %i0
    2d88:	81 c7 e0 08 	ret 
    2d8c:	81 e8 00 00 	restore 

00002d90 <__sfp>:
    2d90:	9d e3 bf 98 	save  %sp, -104, %sp
    2d94:	c2 06 20 38 	ld  [ %i0 + 0x38 ], %g1
    2d98:	80 a0 60 00 	cmp  %g1, 0
    2d9c:	02 80 00 2d 	be  2e50 <__sfp+0xc0>
    2da0:	01 00 00 00 	nop 
    2da4:	a0 06 22 5c 	add  %i0, 0x25c, %l0
    2da8:	da 04 20 04 	ld  [ %l0 + 4 ], %o5
    2dac:	9a 83 7f ff 	addcc  %o5, -1, %o5
    2db0:	0c 80 00 08 	bneg  2dd0 <__sfp+0x40>
    2db4:	d8 04 20 08 	ld  [ %l0 + 8 ], %o4
    2db8:	c2 53 20 0c 	ldsh  [ %o4 + 0xc ], %g1
    2dbc:	80 a0 60 00 	cmp  %g1, 0
    2dc0:	02 80 00 13 	be  2e0c <__sfp+0x7c>
    2dc4:	9a 83 7f ff 	addcc  %o5, -1, %o5
    2dc8:	1c bf ff fc 	bpos  2db8 <__sfp+0x28>
    2dcc:	98 03 20 5c 	add  %o4, 0x5c, %o4
    2dd0:	d0 04 00 00 	ld  [ %l0 ], %o0
    2dd4:	80 a2 20 00 	cmp  %o0, 0
    2dd8:	22 80 00 04 	be,a   2de8 <__sfp+0x58>
    2ddc:	90 10 00 18 	mov  %i0, %o0
    2de0:	10 bf ff f2 	b  2da8 <__sfp+0x18>
    2de4:	a0 10 00 08 	mov  %o0, %l0
    2de8:	7f ff ff d3 	call  2d34 <__sfmoreglue>
    2dec:	92 10 20 04 	mov  4, %o1
    2df0:	80 a2 20 00 	cmp  %o0, 0
    2df4:	12 bf ff fb 	bne  2de0 <__sfp+0x50>
    2df8:	d0 24 00 00 	st  %o0, [ %l0 ]
    2dfc:	82 10 20 0c 	mov  0xc, %g1
    2e00:	c2 26 00 00 	st  %g1, [ %i0 ]
    2e04:	10 80 00 17 	b  2e60 <__sfp+0xd0>
    2e08:	b0 10 20 00 	clr  %i0
    2e0c:	f0 23 20 54 	st  %i0, [ %o4 + 0x54 ]
    2e10:	82 10 20 01 	mov  1, %g1
    2e14:	9a 10 3f ff 	mov  -1, %o5
    2e18:	c0 23 00 00 	clr  [ %o4 ]
    2e1c:	c0 23 20 08 	clr  [ %o4 + 8 ]
    2e20:	c0 23 20 04 	clr  [ %o4 + 4 ]
    2e24:	c0 23 20 10 	clr  [ %o4 + 0x10 ]
    2e28:	c0 23 20 14 	clr  [ %o4 + 0x14 ]
    2e2c:	c0 23 20 18 	clr  [ %o4 + 0x18 ]
    2e30:	c0 23 20 30 	clr  [ %o4 + 0x30 ]
    2e34:	c0 23 20 34 	clr  [ %o4 + 0x34 ]
    2e38:	c0 23 20 44 	clr  [ %o4 + 0x44 ]
    2e3c:	c0 23 20 48 	clr  [ %o4 + 0x48 ]
    2e40:	b0 10 00 0c 	mov  %o4, %i0
    2e44:	c2 33 20 0c 	sth  %g1, [ %o4 + 0xc ]
    2e48:	10 80 00 06 	b  2e60 <__sfp+0xd0>
    2e4c:	da 33 20 0e 	sth  %o5, [ %o4 + 0xe ]
    2e50:	40 00 00 12 	call  2e98 <__sinit>
    2e54:	90 10 00 18 	mov  %i0, %o0
    2e58:	10 bf ff d4 	b  2da8 <__sfp+0x18>
    2e5c:	a0 06 22 5c 	add  %i0, 0x25c, %l0
    2e60:	81 c7 e0 08 	ret 
    2e64:	81 e8 00 00 	restore 

00002e68 <_cleanup_r>:
    2e68:	13 00 00 0a 	sethi  %hi(0x2800), %o1
    2e6c:	92 12 63 e4 	or  %o1, 0x3e4, %o1	! 2be4 <fflush>
    2e70:	82 13 c0 00 	mov  %o7, %g1
    2e74:	40 00 02 9a 	call  38dc <_fwalk>
    2e78:	9e 10 40 00 	mov  %g1, %o7
    2e7c:	01 00 00 00 	nop 

00002e80 <_cleanup>:
    2e80:	03 00 00 3c 	sethi  %hi(0xf000), %g1
    2e84:	d0 00 60 98 	ld  [ %g1 + 0x98 ], %o0	! f098 <_impure_ptr>
    2e88:	82 13 c0 00 	mov  %o7, %g1
    2e8c:	7f ff ff f7 	call  2e68 <_cleanup_r>
    2e90:	9e 10 40 00 	mov  %g1, %o7
    2e94:	01 00 00 00 	nop 

00002e98 <__sinit>:
    2e98:	9d e3 bf 98 	save  %sp, -104, %sp
    2e9c:	d0 06 20 04 	ld  [ %i0 + 4 ], %o0
    2ea0:	9a 10 20 01 	mov  1, %o5
    2ea4:	03 00 00 0b 	sethi  %hi(0x2c00), %g1
    2ea8:	82 10 62 68 	or  %g1, 0x268, %g1	! 2e68 <_cleanup_r>
    2eac:	da 26 20 38 	st  %o5, [ %i0 + 0x38 ]
    2eb0:	c2 26 20 3c 	st  %g1, [ %i0 + 0x3c ]
    2eb4:	9a 06 22 68 	add  %i0, 0x268, %o5
    2eb8:	82 10 20 03 	mov  3, %g1
    2ebc:	96 10 00 18 	mov  %i0, %o3
    2ec0:	c2 26 22 60 	st  %g1, [ %i0 + 0x260 ]
    2ec4:	da 26 22 64 	st  %o5, [ %i0 + 0x264 ]
    2ec8:	c0 26 22 5c 	clr  [ %i0 + 0x25c ]
    2ecc:	92 10 20 04 	mov  4, %o1
    2ed0:	7f ff ff 82 	call  2cd8 <std>
    2ed4:	94 10 20 00 	clr  %o2
    2ed8:	d0 06 20 08 	ld  [ %i0 + 8 ], %o0
    2edc:	96 10 00 18 	mov  %i0, %o3
    2ee0:	b6 10 00 18 	mov  %i0, %i3
    2ee4:	92 10 20 09 	mov  9, %o1
    2ee8:	7f ff ff 7c 	call  2cd8 <std>
    2eec:	94 10 20 01 	mov  1, %o2
    2ef0:	f0 06 20 0c 	ld  [ %i0 + 0xc ], %i0
    2ef4:	b2 10 20 0a 	mov  0xa, %i1
    2ef8:	7f ff ff 78 	call  2cd8 <std>
    2efc:	95 e8 20 02 	restore  %g0, 2, %o2
    2f00:	01 00 00 00 	nop 

00002f04 <_fopen_r>:
    2f04:	9d e3 bf 90 	save  %sp, -112, %sp
    2f08:	90 10 00 18 	mov  %i0, %o0
    2f0c:	92 10 00 1a 	mov  %i2, %o1
    2f10:	40 00 18 a2 	call  9198 <__sflags>
    2f14:	94 07 bf f4 	add  %fp, -12, %o2
    2f18:	a0 92 20 00 	orcc  %o0, 0, %l0
    2f1c:	90 10 00 18 	mov  %i0, %o0
    2f20:	02 80 00 28 	be  2fc0 <_fopen_r+0xbc>
    2f24:	b0 10 20 00 	clr  %i0
    2f28:	7f ff ff 9a 	call  2d90 <__sfp>
    2f2c:	01 00 00 00 	nop 
    2f30:	92 10 00 19 	mov  %i1, %o1
    2f34:	b4 10 00 08 	mov  %o0, %i2
    2f38:	80 a2 20 00 	cmp  %o0, 0
    2f3c:	02 80 00 21 	be  2fc0 <_fopen_r+0xbc>
    2f40:	96 10 21 b6 	mov  0x1b6, %o3
    2f44:	d0 02 20 54 	ld  [ %o0 + 0x54 ], %o0
    2f48:	40 00 04 dc 	call  42b8 <_open_r>
    2f4c:	d4 07 bf f4 	ld  [ %fp + -12 ], %o2
    2f50:	80 a2 20 00 	cmp  %o0, 0
    2f54:	06 80 00 1a 	bl  2fbc <_fopen_r+0xb8>
    2f58:	03 00 00 13 	sethi  %hi(0x4c00), %g1
    2f5c:	1b 00 00 13 	sethi  %hi(0x4c00), %o5
    2f60:	82 10 60 3c 	or  %g1, 0x3c, %g1
    2f64:	9a 13 60 84 	or  %o5, 0x84, %o5
    2f68:	d0 36 a0 0e 	sth  %o0, [ %i2 + 0xe ]
    2f6c:	c2 26 a0 20 	st  %g1, [ %i2 + 0x20 ]
    2f70:	da 26 a0 24 	st  %o5, [ %i2 + 0x24 ]
    2f74:	03 00 00 13 	sethi  %hi(0x4c00), %g1
    2f78:	1b 00 00 13 	sethi  %hi(0x4c00), %o5
    2f7c:	82 10 60 dc 	or  %g1, 0xdc, %g1
    2f80:	9a 13 61 28 	or  %o5, 0x128, %o5
    2f84:	80 8c 21 00 	btst  0x100, %l0
    2f88:	e0 36 a0 0c 	sth  %l0, [ %i2 + 0xc ]
    2f8c:	f4 26 a0 1c 	st  %i2, [ %i2 + 0x1c ]
    2f90:	90 10 00 1a 	mov  %i2, %o0
    2f94:	92 10 20 00 	clr  %o1
    2f98:	94 10 20 02 	mov  2, %o2
    2f9c:	c2 26 a0 28 	st  %g1, [ %i2 + 0x28 ]
    2fa0:	12 80 00 04 	bne  2fb0 <_fopen_r+0xac>
    2fa4:	da 26 a0 2c 	st  %o5, [ %i2 + 0x2c ]
    2fa8:	10 80 00 06 	b  2fc0 <_fopen_r+0xbc>
    2fac:	b0 10 00 1a 	mov  %i2, %i0
    2fb0:	40 00 01 18 	call  3410 <fseek>
    2fb4:	b0 10 00 1a 	mov  %i2, %i0
    2fb8:	30 80 00 02 	b,a   2fc0 <_fopen_r+0xbc>
    2fbc:	c0 36 a0 0c 	clrh  [ %i2 + 0xc ]
    2fc0:	81 c7 e0 08 	ret 
    2fc4:	81 e8 00 00 	restore 

00002fc8 <fopen>:
    2fc8:	03 00 00 3c 	sethi  %hi(0xf000), %g1
    2fcc:	da 00 60 98 	ld  [ %g1 + 0x98 ], %o5	! f098 <_impure_ptr>
    2fd0:	98 10 00 08 	mov  %o0, %o4
    2fd4:	94 10 00 09 	mov  %o1, %o2
    2fd8:	90 10 00 0d 	mov  %o5, %o0
    2fdc:	92 10 00 0c 	mov  %o4, %o1
    2fe0:	82 13 c0 00 	mov  %o7, %g1
    2fe4:	7f ff ff c8 	call  2f04 <_fopen_r>
    2fe8:	9e 10 40 00 	mov  %g1, %o7
    2fec:	01 00 00 00 	nop 

00002ff0 <fprintf>:
    2ff0:	9d e3 bf 98 	save  %sp, -104, %sp
    2ff4:	90 10 00 18 	mov  %i0, %o0
    2ff8:	f4 27 a0 4c 	st  %i2, [ %fp + 0x4c ]
    2ffc:	f6 27 a0 50 	st  %i3, [ %fp + 0x50 ]
    3000:	f8 27 a0 54 	st  %i4, [ %fp + 0x54 ]
    3004:	fa 27 a0 58 	st  %i5, [ %fp + 0x58 ]
    3008:	92 10 00 19 	mov  %i1, %o1
    300c:	40 00 07 de 	call  4f84 <vfprintf>
    3010:	94 07 a0 4c 	add  %fp, 0x4c, %o2
    3014:	81 c7 e0 08 	ret 
    3018:	91 e8 00 08 	restore  %g0, %o0, %o0

0000301c <_free_r>:
    301c:	9d e3 bf 98 	save  %sp, -104, %sp
    3020:	80 a6 60 00 	cmp  %i1, 0
    3024:	02 80 00 a0 	be  32a4 <_free_r+0x288>
    3028:	a4 10 00 18 	mov  %i0, %l2
    302c:	a0 06 7f f8 	add  %i1, -8, %l0
    3030:	40 00 04 9e 	call  42a8 <__malloc_lock>
    3034:	90 10 00 18 	mov  %i0, %o0
    3038:	d8 04 20 04 	ld  [ %l0 + 4 ], %o4
    303c:	27 00 00 3c 	sethi  %hi(0xf000), %l3
    3040:	9e 0b 3f fe 	and  %o4, -2, %o7
    3044:	a2 14 e0 a0 	or  %l3, 0xa0, %l1
    3048:	92 04 00 0f 	add  %l0, %o7, %o1
    304c:	c2 04 60 08 	ld  [ %l1 + 8 ], %g1
    3050:	da 02 60 04 	ld  [ %o1 + 4 ], %o5
    3054:	80 a2 40 01 	cmp  %o1, %g1
    3058:	02 80 00 7d 	be  324c <_free_r+0x230>
    305c:	96 0b 7f fc 	and  %o5, -4, %o3
    3060:	80 8b 20 01 	btst  1, %o4
    3064:	d6 22 60 04 	st  %o3, [ %o1 + 4 ]
    3068:	12 80 00 0c 	bne  3098 <_free_r+0x7c>
    306c:	98 10 20 00 	clr  %o4
    3070:	f2 06 7f f8 	ld  [ %i1 + -8 ], %i1
    3074:	82 04 60 08 	add  %l1, 8, %g1
    3078:	a0 24 00 19 	sub  %l0, %i1, %l0
    307c:	da 04 20 08 	ld  [ %l0 + 8 ], %o5
    3080:	80 a3 40 01 	cmp  %o5, %g1
    3084:	02 80 00 70 	be  3244 <_free_r+0x228>
    3088:	9e 03 c0 19 	add  %o7, %i1, %o7
    308c:	d0 04 20 0c 	ld  [ %l0 + 0xc ], %o0
    3090:	da 22 20 08 	st  %o5, [ %o0 + 8 ]
    3094:	d0 23 60 0c 	st  %o0, [ %o5 + 0xc ]
    3098:	82 02 40 0b 	add  %o1, %o3, %g1
    309c:	da 00 60 04 	ld  [ %g1 + 4 ], %o5
    30a0:	80 8b 60 01 	btst  1, %o5
    30a4:	12 80 00 0f 	bne  30e0 <_free_r+0xc4>
    30a8:	82 13 e0 01 	or  %o7, 1, %g1
    30ac:	80 a3 20 00 	cmp  %o4, 0
    30b0:	12 80 00 63 	bne  323c <_free_r+0x220>
    30b4:	9e 03 c0 0b 	add  %o7, %o3, %o7
    30b8:	da 02 60 08 	ld  [ %o1 + 8 ], %o5
    30bc:	03 00 00 3c 	sethi  %hi(0xf000), %g1
    30c0:	82 10 60 a8 	or  %g1, 0xa8, %g1	! f0a8 <__malloc_av_+0x8>
    30c4:	80 a3 40 01 	cmp  %o5, %g1
    30c8:	22 80 00 58 	be,a   3228 <_free_r+0x20c>
    30cc:	e0 23 60 0c 	st  %l0, [ %o5 + 0xc ]
    30d0:	d0 02 60 0c 	ld  [ %o1 + 0xc ], %o0
    30d4:	da 22 20 08 	st  %o5, [ %o0 + 8 ]
    30d8:	d0 23 60 0c 	st  %o0, [ %o5 + 0xc ]
    30dc:	82 13 e0 01 	or  %o7, 1, %g1
    30e0:	80 a3 20 00 	cmp  %o4, 0
    30e4:	de 24 00 0f 	st  %o7, [ %l0 + %o7 ]
    30e8:	02 80 00 05 	be  30fc <_free_r+0xe0>
    30ec:	c2 24 20 04 	st  %g1, [ %l0 + 4 ]
    30f0:	b0 10 00 12 	mov  %l2, %i0
    30f4:	40 00 04 6f 	call  42b0 <__malloc_unlock>
    30f8:	81 e8 00 00 	restore 
    30fc:	80 a3 e1 ff 	cmp  %o7, 0x1ff
    3100:	18 80 00 12 	bgu  3148 <_free_r+0x12c>
    3104:	95 33 e0 09 	srl  %o7, 9, %o2
    3108:	96 14 e0 a0 	or  %l3, 0xa0, %o3
    310c:	9b 33 e0 03 	srl  %o7, 3, %o5
    3110:	83 2b 60 03 	sll  %o5, 3, %g1
    3114:	90 00 40 0b 	add  %g1, %o3, %o0
    3118:	d4 02 20 08 	ld  [ %o0 + 8 ], %o2
    311c:	d8 02 e0 04 	ld  [ %o3 + 4 ], %o4
    3120:	d0 24 20 0c 	st  %o0, [ %l0 + 0xc ]
    3124:	d4 24 20 08 	st  %o2, [ %l0 + 8 ]
    3128:	9b 33 60 02 	srl  %o5, 2, %o5
    312c:	82 10 20 01 	mov  1, %g1
    3130:	e0 22 a0 0c 	st  %l0, [ %o2 + 0xc ]
    3134:	83 28 40 0d 	sll  %g1, %o5, %g1
    3138:	e0 22 20 08 	st  %l0, [ %o0 + 8 ]
    313c:	98 13 00 01 	or  %o4, %g1, %o4
    3140:	10 bf ff ec 	b  30f0 <_free_r+0xd4>
    3144:	d8 22 e0 04 	st  %o4, [ %o3 + 4 ]
    3148:	80 a2 a0 00 	cmp  %o2, 0
    314c:	02 80 00 16 	be  31a4 <_free_r+0x188>
    3150:	9b 33 e0 03 	srl  %o7, 3, %o5
    3154:	83 33 e0 06 	srl  %o7, 6, %g1
    3158:	80 a2 a0 04 	cmp  %o2, 4
    315c:	08 80 00 12 	bleu  31a4 <_free_r+0x188>
    3160:	9a 00 60 38 	add  %g1, 0x38, %o5
    3164:	80 a2 a0 14 	cmp  %o2, 0x14
    3168:	08 80 00 0f 	bleu  31a4 <_free_r+0x188>
    316c:	9a 02 a0 5b 	add  %o2, 0x5b, %o5
    3170:	83 33 e0 0c 	srl  %o7, 0xc, %g1
    3174:	80 a2 a0 54 	cmp  %o2, 0x54
    3178:	08 80 00 0b 	bleu  31a4 <_free_r+0x188>
    317c:	9a 00 60 6e 	add  %g1, 0x6e, %o5
    3180:	83 33 e0 0f 	srl  %o7, 0xf, %g1
    3184:	80 a2 a1 54 	cmp  %o2, 0x154
    3188:	08 80 00 07 	bleu  31a4 <_free_r+0x188>
    318c:	9a 00 60 77 	add  %g1, 0x77, %o5
    3190:	83 33 e0 12 	srl  %o7, 0x12, %g1
    3194:	80 a2 a5 54 	cmp  %o2, 0x554
    3198:	08 80 00 03 	bleu  31a4 <_free_r+0x188>
    319c:	9a 00 60 7c 	add  %g1, 0x7c, %o5
    31a0:	9a 10 20 7e 	mov  0x7e, %o5
    31a4:	96 14 e0 a0 	or  %l3, 0xa0, %o3
    31a8:	83 2b 60 03 	sll  %o5, 3, %g1
    31ac:	90 00 40 0b 	add  %g1, %o3, %o0
    31b0:	d4 02 20 08 	ld  [ %o0 + 8 ], %o2
    31b4:	80 a2 80 08 	cmp  %o2, %o0
    31b8:	22 80 00 16 	be,a   3210 <_free_r+0x1f4>
    31bc:	c2 02 e0 04 	ld  [ %o3 + 4 ], %g1
    31c0:	c2 02 a0 04 	ld  [ %o2 + 4 ], %g1
    31c4:	82 08 7f fc 	and  %g1, -4, %g1
    31c8:	80 a3 c0 01 	cmp  %o7, %g1
    31cc:	3a 80 00 0c 	bcc,a   31fc <_free_r+0x1e0>
    31d0:	d0 02 a0 0c 	ld  [ %o2 + 0xc ], %o0
    31d4:	d4 02 a0 08 	ld  [ %o2 + 8 ], %o2
    31d8:	80 a2 80 08 	cmp  %o2, %o0
    31dc:	22 80 00 08 	be,a   31fc <_free_r+0x1e0>
    31e0:	d0 02 a0 0c 	ld  [ %o2 + 0xc ], %o0
    31e4:	c2 02 a0 04 	ld  [ %o2 + 4 ], %g1
    31e8:	82 08 7f fc 	and  %g1, -4, %g1
    31ec:	80 a3 c0 01 	cmp  %o7, %g1
    31f0:	2a bf ff fa 	bcs,a   31d8 <_free_r+0x1bc>
    31f4:	d4 02 a0 08 	ld  [ %o2 + 8 ], %o2
    31f8:	d0 02 a0 0c 	ld  [ %o2 + 0xc ], %o0
    31fc:	d0 24 20 0c 	st  %o0, [ %l0 + 0xc ]
    3200:	d4 24 20 08 	st  %o2, [ %l0 + 8 ]
    3204:	e0 22 a0 0c 	st  %l0, [ %o2 + 0xc ]
    3208:	10 bf ff ba 	b  30f0 <_free_r+0xd4>
    320c:	e0 22 20 08 	st  %l0, [ %o0 + 8 ]
    3210:	99 33 60 02 	srl  %o5, 2, %o4
    3214:	9a 10 20 01 	mov  1, %o5
    3218:	9b 2b 40 0c 	sll  %o5, %o4, %o5
    321c:	82 10 40 0d 	or  %g1, %o5, %g1
    3220:	10 bf ff f7 	b  31fc <_free_r+0x1e0>
    3224:	c2 22 e0 04 	st  %g1, [ %o3 + 4 ]
    3228:	e0 23 60 08 	st  %l0, [ %o5 + 8 ]
    322c:	da 24 20 08 	st  %o5, [ %l0 + 8 ]
    3230:	da 24 20 0c 	st  %o5, [ %l0 + 0xc ]
    3234:	10 bf ff aa 	b  30dc <_free_r+0xc0>
    3238:	98 10 20 01 	mov  1, %o4
    323c:	10 bf ff a5 	b  30d0 <_free_r+0xb4>
    3240:	da 02 60 08 	ld  [ %o1 + 8 ], %o5
    3244:	10 bf ff 95 	b  3098 <_free_r+0x7c>
    3248:	98 10 20 01 	mov  1, %o4
    324c:	80 8b 20 01 	btst  1, %o4
    3250:	12 80 00 09 	bne  3274 <_free_r+0x258>
    3254:	9e 03 c0 0b 	add  %o7, %o3, %o7
    3258:	f2 06 7f f8 	ld  [ %i1 + -8 ], %i1
    325c:	a0 24 00 19 	sub  %l0, %i1, %l0
    3260:	d0 04 20 0c 	ld  [ %l0 + 0xc ], %o0
    3264:	d4 04 20 08 	ld  [ %l0 + 8 ], %o2
    3268:	9e 03 c0 19 	add  %o7, %i1, %o7
    326c:	d4 22 20 08 	st  %o2, [ %o0 + 8 ]
    3270:	d0 22 a0 0c 	st  %o0, [ %o2 + 0xc ]
    3274:	03 00 00 3d 	sethi  %hi(0xf400), %g1
    3278:	da 00 60 a8 	ld  [ %g1 + 0xa8 ], %o5	! f4a8 <__malloc_trim_threshold>
    327c:	e0 24 60 08 	st  %l0, [ %l1 + 8 ]
    3280:	82 13 e0 01 	or  %o7, 1, %g1
    3284:	80 a3 c0 0d 	cmp  %o7, %o5
    3288:	0a bf ff 9b 	bcs  30f4 <_free_r+0xd8>
    328c:	c2 24 20 04 	st  %g1, [ %l0 + 4 ]
    3290:	03 00 00 3d 	sethi  %hi(0xf400), %g1
    3294:	d2 00 60 ec 	ld  [ %g1 + 0xec ], %o1	! f4ec <__malloc_top_pad>
    3298:	40 00 00 05 	call  32ac <_malloc_trim_r>
    329c:	90 10 00 12 	mov  %l2, %o0
    32a0:	30 bf ff 95 	b,a   30f4 <_free_r+0xd8>
    32a4:	81 c7 e0 08 	ret 
    32a8:	81 e8 00 00 	restore 

000032ac <_malloc_trim_r>:
    32ac:	9d e3 bf 98 	save  %sp, -104, %sp
    32b0:	40 00 03 fe 	call  42a8 <__malloc_lock>
    32b4:	90 10 00 18 	mov  %i0, %o0
    32b8:	03 00 00 3c 	sethi  %hi(0xf000), %g1
    32bc:	a2 10 60 a0 	or  %g1, 0xa0, %l1	! f0a0 <__malloc_av_>
    32c0:	da 04 60 08 	ld  [ %l1 + 8 ], %o5
    32c4:	92 10 20 00 	clr  %o1
    32c8:	c2 03 60 04 	ld  [ %o5 + 4 ], %g1
    32cc:	a0 08 7f fc 	and  %g1, -4, %l0
    32d0:	b2 24 00 19 	sub  %l0, %i1, %i1
    32d4:	b2 06 6f ef 	add  %i1, 0xfef, %i1
    32d8:	b2 0e 70 00 	and  %i1, -4096, %i1
    32dc:	b2 06 70 00 	add  %i1, -4096, %i1
    32e0:	80 a6 6f ff 	cmp  %i1, 0xfff
    32e4:	04 80 00 0b 	ble  3310 <_malloc_trim_r+0x64>
    32e8:	90 10 00 18 	mov  %i0, %o0
    32ec:	40 00 06 46 	call  4c04 <_sbrk_r>
    32f0:	01 00 00 00 	nop 
    32f4:	c2 04 60 08 	ld  [ %l1 + 8 ], %g1
    32f8:	98 10 00 08 	mov  %o0, %o4
    32fc:	82 00 40 10 	add  %g1, %l0, %g1
    3300:	90 10 00 18 	mov  %i0, %o0
    3304:	80 a3 00 01 	cmp  %o4, %g1
    3308:	02 80 00 05 	be  331c <_malloc_trim_r+0x70>
    330c:	92 20 00 19 	neg  %i1, %o1
    3310:	40 00 03 e8 	call  42b0 <__malloc_unlock>
    3314:	b0 10 20 00 	clr  %i0
    3318:	30 80 00 24 	b,a   33a8 <_malloc_trim_r+0xfc>
    331c:	40 00 06 3a 	call  4c04 <_sbrk_r>
    3320:	90 10 00 18 	mov  %i0, %o0
    3324:	82 24 00 19 	sub  %l0, %i1, %g1
    3328:	9a 10 00 08 	mov  %o0, %o5
    332c:	82 10 60 01 	or  %g1, 1, %g1
    3330:	92 10 20 00 	clr  %o1
    3334:	90 10 00 18 	mov  %i0, %o0
    3338:	80 a3 7f ff 	cmp  %o5, -1
    333c:	02 80 00 0b 	be  3368 <_malloc_trim_r+0xbc>
    3340:	19 00 00 3d 	sethi  %hi(0xf400), %o4
    3344:	da 04 60 08 	ld  [ %l1 + 8 ], %o5
    3348:	90 10 00 18 	mov  %i0, %o0
    334c:	c2 23 60 04 	st  %g1, [ %o5 + 4 ]
    3350:	c2 03 20 f8 	ld  [ %o4 + 0xf8 ], %g1
    3354:	b0 10 20 01 	mov  1, %i0
    3358:	82 20 40 19 	sub  %g1, %i1, %g1
    335c:	40 00 03 d5 	call  42b0 <__malloc_unlock>
    3360:	c2 23 20 f8 	st  %g1, [ %o4 + 0xf8 ]
    3364:	30 80 00 11 	b,a   33a8 <_malloc_trim_r+0xfc>
    3368:	40 00 06 27 	call  4c04 <_sbrk_r>
    336c:	01 00 00 00 	nop 
    3370:	d6 04 60 08 	ld  [ %l1 + 8 ], %o3
    3374:	98 10 00 08 	mov  %o0, %o4
    3378:	90 10 00 18 	mov  %i0, %o0
    337c:	a0 23 00 0b 	sub  %o4, %o3, %l0
    3380:	80 a4 20 0f 	cmp  %l0, 0xf
    3384:	04 bf ff e3 	ble  3310 <_malloc_trim_r+0x64>
    3388:	94 14 20 01 	or  %l0, 1, %o2
    338c:	03 00 00 3d 	sethi  %hi(0xf400), %g1
    3390:	da 00 60 ac 	ld  [ %g1 + 0xac ], %o5	! f4ac <__malloc_sbrk_base>
    3394:	03 00 00 3d 	sethi  %hi(0xf400), %g1
    3398:	9a 23 00 0d 	sub  %o4, %o5, %o5
    339c:	da 20 60 f8 	st  %o5, [ %g1 + 0xf8 ]
    33a0:	10 bf ff dc 	b  3310 <_malloc_trim_r+0x64>
    33a4:	d4 22 e0 04 	st  %o2, [ %o3 + 4 ]
    33a8:	81 c7 e0 08 	ret 
    33ac:	81 e8 00 00 	restore 

000033b0 <fscanf>:
    33b0:	9d e3 bf 98 	save  %sp, -104, %sp
    33b4:	03 00 00 3c 	sethi  %hi(0xf000), %g1
    33b8:	d0 00 60 98 	ld  [ %g1 + 0x98 ], %o0	! f098 <_impure_ptr>
    33bc:	92 10 00 18 	mov  %i0, %o1
    33c0:	f4 27 a0 4c 	st  %i2, [ %fp + 0x4c ]
    33c4:	f6 27 a0 50 	st  %i3, [ %fp + 0x50 ]
    33c8:	f8 27 a0 54 	st  %i4, [ %fp + 0x54 ]
    33cc:	fa 27 a0 58 	st  %i5, [ %fp + 0x58 ]
    33d0:	94 10 00 19 	mov  %i1, %o2
    33d4:	40 00 0e 90 	call  6e14 <__svfscanf_r>
    33d8:	96 07 a0 4c 	add  %fp, 0x4c, %o3
    33dc:	81 c7 e0 08 	ret 
    33e0:	91 e8 00 08 	restore  %g0, %o0, %o0

000033e4 <_fscanf_r>:
    33e4:	9d e3 bf 98 	save  %sp, -104, %sp
    33e8:	90 10 00 18 	mov  %i0, %o0
    33ec:	f6 27 a0 50 	st  %i3, [ %fp + 0x50 ]
    33f0:	f8 27 a0 54 	st  %i4, [ %fp + 0x54 ]
    33f4:	fa 27 a0 58 	st  %i5, [ %fp + 0x58 ]
    33f8:	92 10 00 19 	mov  %i1, %o1
    33fc:	94 10 00 1a 	mov  %i2, %o2
    3400:	40 00 0e 85 	call  6e14 <__svfscanf_r>
    3404:	96 07 a0 50 	add  %fp, 0x50, %o3
    3408:	81 c7 e0 08 	ret 
    340c:	91 e8 00 08 	restore  %g0, %o0, %o0

00003410 <fseek>:
    3410:	9d e3 bf 58 	save  %sp, -168, %sp
    3414:	e0 06 20 54 	ld  [ %i0 + 0x54 ], %l0
    3418:	80 a4 20 00 	cmp  %l0, 0
    341c:	32 80 00 07 	bne,a   3438 <fseek+0x28>
    3420:	c2 04 20 38 	ld  [ %l0 + 0x38 ], %g1
    3424:	03 00 00 3c 	sethi  %hi(0xf000), %g1
    3428:	da 00 60 98 	ld  [ %g1 + 0x98 ], %o5	! f098 <_impure_ptr>
    342c:	da 26 20 54 	st  %o5, [ %i0 + 0x54 ]
    3430:	a0 10 00 0d 	mov  %o5, %l0
    3434:	c2 04 20 38 	ld  [ %l0 + 0x38 ], %g1
    3438:	80 a0 60 00 	cmp  %g1, 0
    343c:	02 80 01 13 	be  3888 <fseek+0x478>
    3440:	01 00 00 00 	nop 
    3444:	c2 16 20 0c 	lduh  [ %i0 + 0xc ], %g1
    3448:	82 08 61 08 	and  %g1, 0x108, %g1
    344c:	80 a0 61 08 	cmp  %g1, 0x108
    3450:	02 80 01 0a 	be  3878 <fseek+0x468>
    3454:	01 00 00 00 	nop 
    3458:	e6 06 20 28 	ld  [ %i0 + 0x28 ], %l3
    345c:	80 a4 e0 00 	cmp  %l3, 0
    3460:	02 80 00 0a 	be  3488 <fseek+0x78>
    3464:	82 10 20 1d 	mov  0x1d, %g1
    3468:	80 a6 a0 01 	cmp  %i2, 1
    346c:	02 80 00 d5 	be  37c0 <fseek+0x3b0>
    3470:	01 00 00 00 	nop 
    3474:	04 80 00 03 	ble  3480 <fseek+0x70>
    3478:	80 a6 a0 00 	cmp  %i2, 0
    347c:	80 a6 a0 02 	cmp  %i2, 2
    3480:	02 80 00 05 	be  3494 <fseek+0x84>
    3484:	82 10 20 16 	mov  0x16, %g1
    3488:	c2 24 00 00 	st  %g1, [ %l0 ]
    348c:	10 80 01 03 	b  3898 <fseek+0x488>
    3490:	82 10 3f ff 	mov  -1, %g1
    3494:	d8 06 20 10 	ld  [ %i0 + 0x10 ], %o4
    3498:	a8 10 20 00 	clr  %l4
    349c:	80 a3 20 00 	cmp  %o4, 0
    34a0:	02 80 00 c4 	be  37b0 <fseek+0x3a0>
    34a4:	01 00 00 00 	nop 
    34a8:	c2 16 20 0c 	lduh  [ %i0 + 0xc ], %g1
    34ac:	80 88 68 1a 	btst  0x81a, %g1
    34b0:	12 80 00 0c 	bne  34e0 <fseek+0xd0>
    34b4:	d6 16 20 0c 	lduh  [ %i0 + 0xc ], %o3
    34b8:	80 88 64 00 	btst  0x400, %g1
    34bc:	12 80 00 3d 	bne  35b0 <fseek+0x1a0>
    34c0:	80 a6 a0 00 	cmp  %i2, 0
    34c4:	03 00 00 13 	sethi  %hi(0x4c00), %g1
    34c8:	82 10 60 dc 	or  %g1, 0xdc, %g1	! 4cdc <__sseek>
    34cc:	80 a4 c0 01 	cmp  %l3, %g1
    34d0:	22 80 00 22 	be,a   3558 <fseek+0x148>
    34d4:	d2 56 20 0e 	ldsh  [ %i0 + 0xe ], %o1
    34d8:	82 12 e8 00 	or  %o3, 0x800, %g1
    34dc:	c2 36 20 0c 	sth  %g1, [ %i0 + 0xc ]
    34e0:	7f ff fd c1 	call  2be4 <fflush>
    34e4:	90 10 00 18 	mov  %i0, %o0
    34e8:	80 a2 20 00 	cmp  %o0, 0
    34ec:	12 bf ff e8 	bne  348c <fseek+0x7c>
    34f0:	92 10 00 19 	mov  %i1, %o1
    34f4:	d0 06 20 1c 	ld  [ %i0 + 0x1c ], %o0
    34f8:	9f c4 c0 00 	call  %l3
    34fc:	94 10 00 1a 	mov  %i2, %o2
    3500:	80 a2 3f ff 	cmp  %o0, -1
    3504:	02 80 00 e5 	be  3898 <fseek+0x488>
    3508:	82 10 3f ff 	mov  -1, %g1
    350c:	d2 06 20 30 	ld  [ %i0 + 0x30 ], %o1
    3510:	80 a2 60 00 	cmp  %o1, 0
    3514:	22 80 00 0a 	be,a   353c <fseek+0x12c>
    3518:	c2 16 20 0c 	lduh  [ %i0 + 0xc ], %g1
    351c:	82 06 20 40 	add  %i0, 0x40, %g1
    3520:	80 a2 40 01 	cmp  %o1, %g1
    3524:	22 80 00 05 	be,a   3538 <fseek+0x128>
    3528:	c0 26 20 30 	clr  [ %i0 + 0x30 ]
    352c:	7f ff fe bc 	call  301c <_free_r>
    3530:	d0 06 20 54 	ld  [ %i0 + 0x54 ], %o0
    3534:	c0 26 20 30 	clr  [ %i0 + 0x30 ]
    3538:	c2 16 20 0c 	lduh  [ %i0 + 0xc ], %g1
    353c:	da 06 20 10 	ld  [ %i0 + 0x10 ], %o5
    3540:	82 08 7f df 	and  %g1, -33, %g1
    3544:	da 26 00 00 	st  %o5, [ %i0 ]
    3548:	c2 36 20 0c 	sth  %g1, [ %i0 + 0xc ]
    354c:	c0 26 20 04 	clr  [ %i0 + 4 ]
    3550:	10 80 00 d2 	b  3898 <fseek+0x488>
    3554:	82 10 20 00 	clr  %g1
    3558:	80 a2 60 00 	cmp  %o1, 0
    355c:	06 bf ff df 	bl  34d8 <fseek+0xc8>
    3560:	94 07 bf b8 	add  %fp, -72, %o2
    3564:	40 00 00 cf 	call  38a0 <_fstat_r>
    3568:	90 10 00 10 	mov  %l0, %o0
    356c:	80 a2 20 00 	cmp  %o0, 0
    3570:	32 bf ff da 	bne,a   34d8 <fseek+0xc8>
    3574:	d6 16 20 0c 	lduh  [ %i0 + 0xc ], %o3
    3578:	c2 07 bf c0 	ld  [ %fp + -64 ], %g1
    357c:	1b 00 00 3c 	sethi  %hi(0xf000), %o5
    3580:	19 00 00 20 	sethi  %hi(0x8000), %o4
    3584:	82 08 40 0d 	and  %g1, %o5, %g1
    3588:	80 a0 40 0c 	cmp  %g1, %o4
    358c:	22 80 00 04 	be,a   359c <fseek+0x18c>
    3590:	c2 16 20 0c 	lduh  [ %i0 + 0xc ], %g1
    3594:	10 bf ff d1 	b  34d8 <fseek+0xc8>
    3598:	d6 16 20 0c 	lduh  [ %i0 + 0xc ], %o3
    359c:	9a 10 24 00 	mov  0x400, %o5
    35a0:	82 10 64 00 	or  %g1, 0x400, %g1
    35a4:	da 26 20 4c 	st  %o5, [ %i0 + 0x4c ]
    35a8:	c2 36 20 0c 	sth  %g1, [ %i0 + 0xc ]
    35ac:	80 a6 a0 00 	cmp  %i2, 0
    35b0:	12 80 00 77 	bne  378c <fseek+0x37c>
    35b4:	a4 10 00 19 	mov  %i1, %l2
    35b8:	80 a5 20 00 	cmp  %l4, 0
    35bc:	12 80 00 71 	bne  3780 <fseek+0x370>
    35c0:	d6 16 20 0c 	lduh  [ %i0 + 0xc ], %o3
    35c4:	da 16 20 0c 	lduh  [ %i0 + 0xc ], %o5
    35c8:	03 00 00 04 	sethi  %hi(0x1000), %g1
    35cc:	80 8b 40 01 	btst  %o5, %g1
    35d0:	22 80 00 64 	be,a   3760 <fseek+0x350>
    35d4:	d0 06 20 1c 	ld  [ %i0 + 0x1c ], %o0
    35d8:	e2 06 20 50 	ld  [ %i0 + 0x50 ], %l1
    35dc:	d4 06 20 04 	ld  [ %i0 + 4 ], %o2
    35e0:	d2 06 20 30 	ld  [ %i0 + 0x30 ], %o1
    35e4:	80 a2 60 00 	cmp  %o1, 0
    35e8:	02 80 00 58 	be  3748 <fseek+0x338>
    35ec:	a2 24 40 0a 	sub  %l1, %o2, %l1
    35f0:	c2 06 20 3c 	ld  [ %i0 + 0x3c ], %g1
    35f4:	a2 24 40 01 	sub  %l1, %g1, %l1
    35f8:	80 a2 60 00 	cmp  %o1, 0
    35fc:	22 80 00 54 	be,a   374c <fseek+0x33c>
    3600:	c2 06 00 00 	ld  [ %i0 ], %g1
    3604:	c2 06 20 38 	ld  [ %i0 + 0x38 ], %g1
    3608:	d8 06 20 10 	ld  [ %i0 + 0x10 ], %o4
    360c:	da 06 20 3c 	ld  [ %i0 + 0x3c ], %o5
    3610:	a0 20 40 0c 	sub  %g1, %o4, %l0
    3614:	a2 04 40 0a 	add  %l1, %o2, %l1
    3618:	a2 24 40 10 	sub  %l1, %l0, %l1
    361c:	a0 04 00 0d 	add  %l0, %o5, %l0
    3620:	83 2a e0 10 	sll  %o3, 0x10, %g1
    3624:	80 a4 80 11 	cmp  %l2, %l1
    3628:	83 30 60 1d 	srl  %g1, 0x1d, %g1
    362c:	9a 10 20 01 	mov  1, %o5
    3630:	82 18 60 01 	xor  %g1, 1, %g1
    3634:	16 80 00 03 	bge  3640 <fseek+0x230>
    3638:	82 08 60 01 	and  %g1, 1, %g1
    363c:	9a 10 20 00 	clr  %o5
    3640:	80 88 40 0d 	btst  %g1, %o5
    3644:	02 80 00 17 	be  36a0 <fseek+0x290>
    3648:	82 04 40 10 	add  %l1, %l0, %g1
    364c:	80 a4 80 01 	cmp  %l2, %g1
    3650:	3a 80 00 15 	bcc,a   36a4 <fseek+0x294>
    3654:	c2 06 20 4c 	ld  [ %i0 + 0x4c ], %g1
    3658:	82 24 80 11 	sub  %l2, %l1, %g1
    365c:	80 a2 60 00 	cmp  %o1, 0
    3660:	9a 24 00 01 	sub  %l0, %g1, %o5
    3664:	82 03 00 01 	add  %o4, %g1, %g1
    3668:	da 26 20 04 	st  %o5, [ %i0 + 4 ]
    366c:	02 80 00 0a 	be  3694 <fseek+0x284>
    3670:	c2 26 00 00 	st  %g1, [ %i0 ]
    3674:	82 06 20 40 	add  %i0, 0x40, %g1
    3678:	80 a2 40 01 	cmp  %o1, %g1
    367c:	22 80 00 06 	be,a   3694 <fseek+0x284>
    3680:	c0 26 20 30 	clr  [ %i0 + 0x30 ]
    3684:	7f ff fe 66 	call  301c <_free_r>
    3688:	d0 06 20 54 	ld  [ %i0 + 0x54 ], %o0
    368c:	d6 16 20 0c 	lduh  [ %i0 + 0xc ], %o3
    3690:	c0 26 20 30 	clr  [ %i0 + 0x30 ]
    3694:	82 0a ff df 	and  %o3, -33, %g1
    3698:	10 bf ff ae 	b  3550 <fseek+0x140>
    369c:	c2 36 20 0c 	sth  %g1, [ %i0 + 0xc ]
    36a0:	c2 06 20 4c 	ld  [ %i0 + 0x4c ], %g1
    36a4:	d0 06 20 1c 	ld  [ %i0 + 0x1c ], %o0
    36a8:	82 20 00 01 	neg  %g1
    36ac:	94 10 20 00 	clr  %o2
    36b0:	a2 0c 80 01 	and  %l2, %g1, %l1
    36b4:	9f c4 c0 00 	call  %l3
    36b8:	92 10 00 11 	mov  %l1, %o1
    36bc:	80 a2 3f ff 	cmp  %o0, -1
    36c0:	02 bf ff 88 	be  34e0 <fseek+0xd0>
    36c4:	01 00 00 00 	nop 
    36c8:	c2 06 20 10 	ld  [ %i0 + 0x10 ], %g1
    36cc:	d2 06 20 30 	ld  [ %i0 + 0x30 ], %o1
    36d0:	c2 26 00 00 	st  %g1, [ %i0 ]
    36d4:	80 a2 60 00 	cmp  %o1, 0
    36d8:	02 80 00 09 	be  36fc <fseek+0x2ec>
    36dc:	c0 26 20 04 	clr  [ %i0 + 4 ]
    36e0:	82 06 20 40 	add  %i0, 0x40, %g1
    36e4:	80 a2 40 01 	cmp  %o1, %g1
    36e8:	22 80 00 05 	be,a   36fc <fseek+0x2ec>
    36ec:	c0 26 20 30 	clr  [ %i0 + 0x30 ]
    36f0:	7f ff fe 4b 	call  301c <_free_r>
    36f4:	d0 06 20 54 	ld  [ %i0 + 0x54 ], %o0
    36f8:	c0 26 20 30 	clr  [ %i0 + 0x30 ]
    36fc:	c2 16 20 0c 	lduh  [ %i0 + 0xc ], %g1
    3700:	a0 a4 80 11 	subcc  %l2, %l1, %l0
    3704:	82 08 7f df 	and  %g1, -33, %g1
    3708:	02 bf ff 92 	be  3550 <fseek+0x140>
    370c:	c2 36 20 0c 	sth  %g1, [ %i0 + 0xc ]
    3710:	40 00 04 d5 	call  4a64 <__srefill>
    3714:	90 10 00 18 	mov  %i0, %o0
    3718:	80 a2 20 00 	cmp  %o0, 0
    371c:	12 bf ff 71 	bne  34e0 <fseek+0xd0>
    3720:	01 00 00 00 	nop 
    3724:	da 06 20 04 	ld  [ %i0 + 4 ], %o5
    3728:	80 a3 40 10 	cmp  %o5, %l0
    372c:	0a bf ff 6d 	bcs  34e0 <fseek+0xd0>
    3730:	9a 23 40 10 	sub  %o5, %l0, %o5
    3734:	c2 06 00 00 	ld  [ %i0 ], %g1
    3738:	82 00 40 10 	add  %g1, %l0, %g1
    373c:	da 26 20 04 	st  %o5, [ %i0 + 4 ]
    3740:	10 bf ff 84 	b  3550 <fseek+0x140>
    3744:	c2 26 00 00 	st  %g1, [ %i0 ]
    3748:	c2 06 00 00 	ld  [ %i0 ], %g1
    374c:	d8 06 20 10 	ld  [ %i0 + 0x10 ], %o4
    3750:	a0 20 40 0c 	sub  %g1, %o4, %l0
    3754:	a2 24 40 10 	sub  %l1, %l0, %l1
    3758:	10 bf ff b2 	b  3620 <fseek+0x210>
    375c:	a0 04 00 0a 	add  %l0, %o2, %l0
    3760:	92 10 20 00 	clr  %o1
    3764:	9f c4 c0 00 	call  %l3
    3768:	94 10 20 01 	mov  1, %o2
    376c:	80 a2 3f ff 	cmp  %o0, -1
    3770:	02 bf ff 5c 	be  34e0 <fseek+0xd0>
    3774:	a2 10 00 08 	mov  %o0, %l1
    3778:	10 bf ff 99 	b  35dc <fseek+0x1cc>
    377c:	d6 16 20 0c 	lduh  [ %i0 + 0xc ], %o3
    3780:	d4 06 20 04 	ld  [ %i0 + 4 ], %o2
    3784:	10 bf ff 9d 	b  35f8 <fseek+0x1e8>
    3788:	d2 06 20 30 	ld  [ %i0 + 0x30 ], %o1
    378c:	d2 56 20 0e 	ldsh  [ %i0 + 0xe ], %o1
    3790:	90 10 00 10 	mov  %l0, %o0
    3794:	40 00 00 43 	call  38a0 <_fstat_r>
    3798:	94 07 bf b8 	add  %fp, -72, %o2
    379c:	80 a2 20 00 	cmp  %o0, 0
    37a0:	12 bf ff 50 	bne  34e0 <fseek+0xd0>
    37a4:	c2 07 bf cc 	ld  [ %fp + -52 ], %g1
    37a8:	10 bf ff 84 	b  35b8 <fseek+0x1a8>
    37ac:	a4 00 40 19 	add  %g1, %i1, %l2
    37b0:	40 00 00 66 	call  3948 <__smakebuf>
    37b4:	90 10 00 18 	mov  %i0, %o0
    37b8:	10 bf ff 3d 	b  34ac <fseek+0x9c>
    37bc:	c2 16 20 0c 	lduh  [ %i0 + 0xc ], %g1
    37c0:	7f ff fd 09 	call  2be4 <fflush>
    37c4:	90 10 00 18 	mov  %i0, %o0
    37c8:	da 16 20 0c 	lduh  [ %i0 + 0xc ], %o5
    37cc:	03 00 00 04 	sethi  %hi(0x1000), %g1
    37d0:	80 8b 40 01 	btst  %o5, %g1
    37d4:	02 80 00 1f 	be  3850 <fseek+0x440>
    37d8:	d6 16 20 0c 	lduh  [ %i0 + 0xc ], %o3
    37dc:	e2 06 20 50 	ld  [ %i0 + 0x50 ], %l1
    37e0:	83 2a e0 10 	sll  %o3, 0x10, %g1
    37e4:	83 30 60 10 	srl  %g1, 0x10, %g1
    37e8:	80 88 60 04 	btst  4, %g1
    37ec:	02 80 00 10 	be  382c <fseek+0x41c>
    37f0:	80 88 60 08 	btst  8, %g1
    37f4:	d4 06 20 04 	ld  [ %i0 + 4 ], %o2
    37f8:	d2 06 20 30 	ld  [ %i0 + 0x30 ], %o1
    37fc:	80 a2 60 00 	cmp  %o1, 0
    3800:	02 80 00 09 	be  3824 <fseek+0x414>
    3804:	a2 24 40 0a 	sub  %l1, %o2, %l1
    3808:	c2 06 20 3c 	ld  [ %i0 + 0x3c ], %g1
    380c:	d8 06 20 10 	ld  [ %i0 + 0x10 ], %o4
    3810:	a2 24 40 01 	sub  %l1, %g1, %l1
    3814:	b2 06 40 11 	add  %i1, %l1, %i1
    3818:	b4 10 20 00 	clr  %i2
    381c:	10 bf ff 20 	b  349c <fseek+0x8c>
    3820:	a8 10 20 01 	mov  1, %l4
    3824:	10 bf ff fc 	b  3814 <fseek+0x404>
    3828:	d8 06 20 10 	ld  [ %i0 + 0x10 ], %o4
    382c:	02 bf ff fa 	be  3814 <fseek+0x404>
    3830:	d8 06 20 10 	ld  [ %i0 + 0x10 ], %o4
    3834:	c2 06 00 00 	ld  [ %i0 ], %g1
    3838:	80 a0 60 00 	cmp  %g1, 0
    383c:	02 bf ff f6 	be  3814 <fseek+0x404>
    3840:	01 00 00 00 	nop 
    3844:	82 20 40 0c 	sub  %g1, %o4, %g1
    3848:	10 bf ff f3 	b  3814 <fseek+0x404>
    384c:	a2 04 40 01 	add  %l1, %g1, %l1
    3850:	d0 06 20 1c 	ld  [ %i0 + 0x1c ], %o0
    3854:	92 10 20 00 	clr  %o1
    3858:	9f c4 c0 00 	call  %l3
    385c:	94 10 20 01 	mov  1, %o2
    3860:	82 10 3f ff 	mov  -1, %g1
    3864:	80 a2 3f ff 	cmp  %o0, -1
    3868:	02 80 00 0c 	be  3898 <fseek+0x488>
    386c:	a2 10 00 08 	mov  %o0, %l1
    3870:	10 bf ff dc 	b  37e0 <fseek+0x3d0>
    3874:	d6 16 20 0c 	lduh  [ %i0 + 0xc ], %o3
    3878:	7f ff fc db 	call  2be4 <fflush>
    387c:	90 10 00 18 	mov  %i0, %o0
    3880:	10 bf fe f7 	b  345c <fseek+0x4c>
    3884:	e6 06 20 28 	ld  [ %i0 + 0x28 ], %l3
    3888:	7f ff fd 84 	call  2e98 <__sinit>
    388c:	90 10 00 10 	mov  %l0, %o0
    3890:	10 bf fe ed 	b  3444 <fseek+0x34>
    3894:	e0 06 20 54 	ld  [ %i0 + 0x54 ], %l0
    3898:	81 c7 e0 08 	ret 
    389c:	91 e8 00 01 	restore  %g0, %g1, %o0

000038a0 <_fstat_r>:
    38a0:	9d e3 bf 98 	save  %sp, -104, %sp
    38a4:	92 10 00 1a 	mov  %i2, %o1
    38a8:	90 10 00 19 	mov  %i1, %o0
    38ac:	35 00 00 4e 	sethi  %hi(0x13800), %i2
    38b0:	40 00 23 9c 	call  c720 <fstat>
    38b4:	c0 26 a1 54 	clr  [ %i2 + 0x154 ]	! 13954 <errno>
    38b8:	80 a2 3f ff 	cmp  %o0, -1
    38bc:	12 80 00 06 	bne  38d4 <_fstat_r+0x34>
    38c0:	c2 06 a1 54 	ld  [ %i2 + 0x154 ], %g1
    38c4:	80 a0 60 00 	cmp  %g1, 0
    38c8:	02 80 00 03 	be  38d4 <_fstat_r+0x34>
    38cc:	01 00 00 00 	nop 
    38d0:	c2 26 00 00 	st  %g1, [ %i0 ]
    38d4:	81 c7 e0 08 	ret 
    38d8:	91 e8 00 08 	restore  %g0, %o0, %o0

000038dc <_fwalk>:
    38dc:	9d e3 bf 98 	save  %sp, -104, %sp
    38e0:	b0 86 22 5c 	addcc  %i0, 0x25c, %i0
    38e4:	02 80 00 17 	be  3940 <_fwalk+0x64>
    38e8:	a4 10 20 00 	clr  %l2
    38ec:	e2 06 20 04 	ld  [ %i0 + 4 ], %l1
    38f0:	a2 84 7f ff 	addcc  %l1, -1, %l1
    38f4:	0c 80 00 0a 	bneg  391c <_fwalk+0x40>
    38f8:	e0 06 20 08 	ld  [ %i0 + 8 ], %l0
    38fc:	c2 54 20 0c 	ldsh  [ %l0 + 0xc ], %g1
    3900:	80 a0 60 00 	cmp  %g1, 0
    3904:	12 80 00 0b 	bne  3930 <_fwalk+0x54>
    3908:	90 10 00 10 	mov  %l0, %o0
    390c:	a0 04 20 5c 	add  %l0, 0x5c, %l0
    3910:	a2 84 7f ff 	addcc  %l1, -1, %l1
    3914:	3c bf ff fb 	bpos,a   3900 <_fwalk+0x24>
    3918:	c2 54 20 0c 	ldsh  [ %l0 + 0xc ], %g1
    391c:	f0 06 00 00 	ld  [ %i0 ], %i0
    3920:	80 a6 20 00 	cmp  %i0, 0
    3924:	32 bf ff f3 	bne,a   38f0 <_fwalk+0x14>
    3928:	e2 06 20 04 	ld  [ %i0 + 4 ], %l1
    392c:	30 80 00 05 	b,a   3940 <_fwalk+0x64>
    3930:	9f c6 40 00 	call  %i1
    3934:	a0 04 20 5c 	add  %l0, 0x5c, %l0
    3938:	10 bf ff f6 	b  3910 <_fwalk+0x34>
    393c:	a4 14 80 08 	or  %l2, %o0, %l2
    3940:	81 c7 e0 08 	ret 
    3944:	91 e8 00 12 	restore  %g0, %l2, %o0

00003948 <__smakebuf>:
    3948:	9d e3 bf 58 	save  %sp, -168, %sp
    394c:	c2 16 20 0c 	lduh  [ %i0 + 0xc ], %g1
    3950:	80 88 60 02 	btst  2, %g1
    3954:	02 80 00 08 	be  3974 <__smakebuf+0x2c>
    3958:	da 16 20 0c 	lduh  [ %i0 + 0xc ], %o5
    395c:	9a 06 20 43 	add  %i0, 0x43, %o5
    3960:	da 26 20 10 	st  %o5, [ %i0 + 0x10 ]
    3964:	82 10 20 01 	mov  1, %g1
    3968:	da 26 00 00 	st  %o5, [ %i0 ]
    396c:	10 80 00 48 	b  3a8c <__smakebuf+0x144>
    3970:	c2 26 20 14 	st  %g1, [ %i0 + 0x14 ]
    3974:	d2 56 20 0e 	ldsh  [ %i0 + 0xe ], %o1
    3978:	80 a2 60 00 	cmp  %o1, 0
    397c:	06 80 00 40 	bl  3a7c <__smakebuf+0x134>
    3980:	82 13 68 00 	or  %o5, 0x800, %g1
    3984:	d0 06 20 54 	ld  [ %i0 + 0x54 ], %o0
    3988:	7f ff ff c6 	call  38a0 <_fstat_r>
    398c:	94 07 bf b8 	add  %fp, -72, %o2
    3990:	80 a2 20 00 	cmp  %o0, 0
    3994:	06 80 00 38 	bl  3a74 <__smakebuf+0x12c>
    3998:	d8 07 bf c0 	ld  [ %fp + -64 ], %o4
    399c:	1b 00 00 3c 	sethi  %hi(0xf000), %o5
    39a0:	03 00 00 08 	sethi  %hi(0x2000), %g1
    39a4:	98 0b 00 0d 	and  %o4, %o5, %o4
    39a8:	82 1b 00 01 	xor  %o4, %g1, %g1
    39ac:	80 a0 00 01 	cmp  %g0, %g1
    39b0:	a2 60 3f ff 	subx  %g0, -1, %l1
    39b4:	03 00 00 20 	sethi  %hi(0x8000), %g1
    39b8:	80 a3 00 01 	cmp  %o4, %g1
    39bc:	02 80 00 25 	be  3a50 <__smakebuf+0x108>
    39c0:	a0 10 24 00 	mov  0x400, %l0
    39c4:	c2 16 20 0c 	lduh  [ %i0 + 0xc ], %g1
    39c8:	82 10 68 00 	or  %g1, 0x800, %g1
    39cc:	c2 36 20 0c 	sth  %g1, [ %i0 + 0xc ]
    39d0:	d0 06 20 54 	ld  [ %i0 + 0x54 ], %o0
    39d4:	40 00 00 b5 	call  3ca8 <_malloc_r>
    39d8:	92 10 24 00 	mov  0x400, %o1
    39dc:	80 a2 20 00 	cmp  %o0, 0
    39e0:	02 80 00 16 	be  3a38 <__smakebuf+0xf0>
    39e4:	80 a4 60 00 	cmp  %l1, 0
    39e8:	c2 16 20 0c 	lduh  [ %i0 + 0xc ], %g1
    39ec:	da 06 20 54 	ld  [ %i0 + 0x54 ], %o5
    39f0:	82 10 60 80 	or  %g1, 0x80, %g1
    39f4:	d0 26 20 10 	st  %o0, [ %i0 + 0x10 ]
    39f8:	c2 36 20 0c 	sth  %g1, [ %i0 + 0xc ]
    39fc:	e0 26 20 14 	st  %l0, [ %i0 + 0x14 ]
    3a00:	03 00 00 0b 	sethi  %hi(0x2c00), %g1
    3a04:	82 10 62 68 	or  %g1, 0x268, %g1	! 2e68 <_cleanup_r>
    3a08:	d0 26 00 00 	st  %o0, [ %i0 ]
    3a0c:	02 80 00 20 	be  3a8c <__smakebuf+0x144>
    3a10:	c2 23 60 3c 	st  %g1, [ %o5 + 0x3c ]
    3a14:	40 00 23 3d 	call  c708 <isatty>
    3a18:	d0 56 20 0e 	ldsh  [ %i0 + 0xe ], %o0
    3a1c:	80 a2 20 00 	cmp  %o0, 0
    3a20:	02 80 00 1b 	be  3a8c <__smakebuf+0x144>
    3a24:	01 00 00 00 	nop 
    3a28:	c2 16 20 0c 	lduh  [ %i0 + 0xc ], %g1
    3a2c:	82 10 60 01 	or  %g1, 1, %g1
    3a30:	10 80 00 17 	b  3a8c <__smakebuf+0x144>
    3a34:	c2 36 20 0c 	sth  %g1, [ %i0 + 0xc ]
    3a38:	c2 16 20 0c 	lduh  [ %i0 + 0xc ], %g1
    3a3c:	9a 06 20 43 	add  %i0, 0x43, %o5
    3a40:	82 10 60 02 	or  %g1, 2, %g1
    3a44:	da 26 20 10 	st  %o5, [ %i0 + 0x10 ]
    3a48:	10 bf ff c7 	b  3964 <__smakebuf+0x1c>
    3a4c:	c2 36 20 0c 	sth  %g1, [ %i0 + 0xc ]
    3a50:	da 06 20 28 	ld  [ %i0 + 0x28 ], %o5
    3a54:	03 00 00 13 	sethi  %hi(0x4c00), %g1
    3a58:	82 10 60 dc 	or  %g1, 0xdc, %g1	! 4cdc <__sseek>
    3a5c:	80 a3 40 01 	cmp  %o5, %g1
    3a60:	12 bf ff da 	bne  39c8 <__smakebuf+0x80>
    3a64:	c2 16 20 0c 	lduh  [ %i0 + 0xc ], %g1
    3a68:	e0 26 20 4c 	st  %l0, [ %i0 + 0x4c ]
    3a6c:	10 bf ff d8 	b  39cc <__smakebuf+0x84>
    3a70:	82 10 64 00 	or  %g1, 0x400, %g1
    3a74:	da 16 20 0c 	lduh  [ %i0 + 0xc ], %o5
    3a78:	82 13 68 00 	or  %o5, 0x800, %g1
    3a7c:	a2 10 20 00 	clr  %l1
    3a80:	c2 36 20 0c 	sth  %g1, [ %i0 + 0xc ]
    3a84:	10 bf ff d3 	b  39d0 <__smakebuf+0x88>
    3a88:	a0 10 24 00 	mov  0x400, %l0
    3a8c:	81 c7 e0 08 	ret 
    3a90:	81 e8 00 00 	restore 

00003a94 <malloc>:
    3a94:	03 00 00 3c 	sethi  %hi(0xf000), %g1
    3a98:	da 00 60 98 	ld  [ %g1 + 0x98 ], %o5	! f098 <_impure_ptr>
    3a9c:	92 10 00 08 	mov  %o0, %o1
    3aa0:	90 10 00 0d 	mov  %o5, %o0
    3aa4:	82 13 c0 00 	mov  %o7, %g1
    3aa8:	40 00 00 80 	call  3ca8 <_malloc_r>
    3aac:	9e 10 40 00 	mov  %g1, %o7
    3ab0:	01 00 00 00 	nop 

00003ab4 <free>:
    3ab4:	03 00 00 3c 	sethi  %hi(0xf000), %g1
    3ab8:	da 00 60 98 	ld  [ %g1 + 0x98 ], %o5	! f098 <_impure_ptr>
    3abc:	92 10 00 08 	mov  %o0, %o1
    3ac0:	90 10 00 0d 	mov  %o5, %o0
    3ac4:	82 13 c0 00 	mov  %o7, %g1
    3ac8:	7f ff fd 55 	call  301c <_free_r>
    3acc:	9e 10 40 00 	mov  %g1, %o7
    3ad0:	01 00 00 00 	nop 

00003ad4 <malloc_extend_top>:
    3ad4:	9d e3 bf 98 	save  %sp, -104, %sp
    3ad8:	2f 00 00 3c 	sethi  %hi(0xf000), %l7
    3adc:	ac 15 e0 a0 	or  %l7, 0xa0, %l6	! f0a0 <__malloc_av_>
    3ae0:	e4 05 a0 08 	ld  [ %l6 + 8 ], %l2
    3ae4:	03 00 00 3d 	sethi  %hi(0xf400), %g1
    3ae8:	d8 04 a0 04 	ld  [ %l2 + 4 ], %o4
    3aec:	da 00 60 ec 	ld  [ %g1 + 0xec ], %o5
    3af0:	29 00 00 3d 	sethi  %hi(0xf400), %l4
    3af4:	c2 05 20 ac 	ld  [ %l4 + 0xac ], %g1	! f4ac <__malloc_sbrk_base>
    3af8:	b2 06 40 0d 	add  %i1, %o5, %i1
    3afc:	a6 0b 3f fc 	and  %o4, -4, %l3
    3b00:	80 a0 7f ff 	cmp  %g1, -1
    3b04:	b2 06 60 10 	add  %i1, 0x10, %i1
    3b08:	02 80 00 04 	be  3b18 <malloc_extend_top+0x44>
    3b0c:	a2 04 80 13 	add  %l2, %l3, %l1
    3b10:	82 06 6f ff 	add  %i1, 0xfff, %g1
    3b14:	b2 08 70 00 	and  %g1, -4096, %i1
    3b18:	90 10 00 18 	mov  %i0, %o0
    3b1c:	40 00 04 3a 	call  4c04 <_sbrk_r>
    3b20:	92 10 00 19 	mov  %i1, %o1
    3b24:	80 a2 3f ff 	cmp  %o0, -1
    3b28:	02 80 00 5e 	be  3ca0 <malloc_extend_top+0x1cc>
    3b2c:	a0 10 00 08 	mov  %o0, %l0
    3b30:	80 a2 00 11 	cmp  %o0, %l1
    3b34:	1a 80 00 05 	bcc  3b48 <malloc_extend_top+0x74>
    3b38:	2b 00 00 3d 	sethi  %hi(0xf400), %l5
    3b3c:	80 a4 80 16 	cmp  %l2, %l6
    3b40:	12 80 00 58 	bne  3ca0 <malloc_extend_top+0x1cc>
    3b44:	01 00 00 00 	nop 
    3b48:	c2 05 60 f8 	ld  [ %l5 + 0xf8 ], %g1
    3b4c:	80 a4 00 11 	cmp  %l0, %l1
    3b50:	82 00 40 19 	add  %g1, %i1, %g1
    3b54:	02 80 00 4b 	be  3c80 <malloc_extend_top+0x1ac>
    3b58:	c2 25 60 f8 	st  %g1, [ %l5 + 0xf8 ]
    3b5c:	c2 05 20 ac 	ld  [ %l4 + 0xac ], %g1
    3b60:	80 a0 7f ff 	cmp  %g1, -1
    3b64:	02 80 00 45 	be  3c78 <malloc_extend_top+0x1a4>
    3b68:	c2 05 60 f8 	ld  [ %l5 + 0xf8 ], %g1
    3b6c:	9a 24 00 11 	sub  %l0, %l1, %o5
    3b70:	82 00 40 0d 	add  %g1, %o5, %g1
    3b74:	c2 25 60 f8 	st  %g1, [ %l5 + 0xf8 ]
    3b78:	9a 8c 20 07 	andcc  %l0, 7, %o5
    3b7c:	02 80 00 05 	be  3b90 <malloc_extend_top+0xbc>
    3b80:	a2 10 20 00 	clr  %l1
    3b84:	82 10 20 08 	mov  8, %g1
    3b88:	a2 20 40 0d 	sub  %g1, %o5, %l1
    3b8c:	a0 04 00 11 	add  %l0, %l1, %l0
    3b90:	9a 04 00 19 	add  %l0, %i1, %o5
    3b94:	9a 0b 6f ff 	and  %o5, 0xfff, %o5
    3b98:	03 00 00 04 	sethi  %hi(0x1000), %g1
    3b9c:	90 10 00 18 	mov  %i0, %o0
    3ba0:	82 20 40 0d 	sub  %g1, %o5, %g1
    3ba4:	a2 04 40 01 	add  %l1, %g1, %l1
    3ba8:	40 00 04 17 	call  4c04 <_sbrk_r>
    3bac:	92 10 00 11 	mov  %l1, %o1
    3bb0:	80 a2 3f ff 	cmp  %o0, -1
    3bb4:	22 80 00 2f 	be,a   3c70 <malloc_extend_top+0x19c>
    3bb8:	a2 10 20 00 	clr  %l1
    3bbc:	c2 05 60 f8 	ld  [ %l5 + 0xf8 ], %g1
    3bc0:	9a 15 e0 a0 	or  %l7, 0xa0, %o5
    3bc4:	82 00 40 11 	add  %g1, %l1, %g1
    3bc8:	c2 25 60 f8 	st  %g1, [ %l5 + 0xf8 ]
    3bcc:	80 a4 80 0d 	cmp  %l2, %o5
    3bd0:	82 22 00 10 	sub  %o0, %l0, %g1
    3bd4:	e0 23 60 08 	st  %l0, [ %o5 + 8 ]
    3bd8:	82 00 40 11 	add  %g1, %l1, %g1
    3bdc:	82 10 60 01 	or  %g1, 1, %g1
    3be0:	02 80 00 13 	be  3c2c <malloc_extend_top+0x158>
    3be4:	c2 24 20 04 	st  %g1, [ %l0 + 4 ]
    3be8:	80 a4 e0 0f 	cmp  %l3, 0xf
    3bec:	38 80 00 05 	bgu,a   3c00 <malloc_extend_top+0x12c>
    3bf0:	c2 04 a0 04 	ld  [ %l2 + 4 ], %g1
    3bf4:	82 10 20 01 	mov  1, %g1
    3bf8:	10 80 00 2a 	b  3ca0 <malloc_extend_top+0x1cc>
    3bfc:	c2 24 20 04 	st  %g1, [ %l0 + 4 ]
    3c00:	9a 04 ff f4 	add  %l3, -12, %o5
    3c04:	82 08 60 01 	and  %g1, 1, %g1
    3c08:	a6 0b 7f f8 	and  %o5, -8, %l3
    3c0c:	82 10 40 13 	or  %g1, %l3, %g1
    3c10:	c2 24 a0 04 	st  %g1, [ %l2 + 4 ]
    3c14:	9a 04 80 13 	add  %l2, %l3, %o5
    3c18:	82 10 20 05 	mov  5, %g1
    3c1c:	80 a4 e0 0f 	cmp  %l3, 0xf
    3c20:	c2 23 60 08 	st  %g1, [ %o5 + 8 ]
    3c24:	18 80 00 0e 	bgu  3c5c <malloc_extend_top+0x188>
    3c28:	c2 23 60 04 	st  %g1, [ %o5 + 4 ]
    3c2c:	da 05 60 f8 	ld  [ %l5 + 0xf8 ], %o5
    3c30:	19 00 00 3d 	sethi  %hi(0xf400), %o4
    3c34:	c2 03 20 f0 	ld  [ %o4 + 0xf0 ], %g1	! f4f0 <__malloc_max_sbrked_mem>
    3c38:	80 a3 40 01 	cmp  %o5, %g1
    3c3c:	38 80 00 02 	bgu,a   3c44 <malloc_extend_top+0x170>
    3c40:	da 23 20 f0 	st  %o5, [ %o4 + 0xf0 ]
    3c44:	19 00 00 3d 	sethi  %hi(0xf400), %o4
    3c48:	c2 03 20 f4 	ld  [ %o4 + 0xf4 ], %g1	! f4f4 <__malloc_max_total_mem>
    3c4c:	80 a3 40 01 	cmp  %o5, %g1
    3c50:	38 80 00 14 	bgu,a   3ca0 <malloc_extend_top+0x1cc>
    3c54:	da 23 20 f4 	st  %o5, [ %o4 + 0xf4 ]
    3c58:	30 80 00 12 	b,a   3ca0 <malloc_extend_top+0x1cc>
    3c5c:	92 04 a0 08 	add  %l2, 8, %o1
    3c60:	7f ff fc ef 	call  301c <_free_r>
    3c64:	90 10 00 18 	mov  %i0, %o0
    3c68:	10 bf ff f2 	b  3c30 <malloc_extend_top+0x15c>
    3c6c:	da 05 60 f8 	ld  [ %l5 + 0xf8 ], %o5
    3c70:	10 bf ff d3 	b  3bbc <malloc_extend_top+0xe8>
    3c74:	90 10 00 10 	mov  %l0, %o0
    3c78:	10 bf ff c0 	b  3b78 <malloc_extend_top+0xa4>
    3c7c:	e0 25 20 ac 	st  %l0, [ %l4 + 0xac ]
    3c80:	80 8c 2f ff 	btst  0xfff, %l0
    3c84:	12 bf ff b7 	bne  3b60 <malloc_extend_top+0x8c>
    3c88:	c2 05 20 ac 	ld  [ %l4 + 0xac ], %g1
    3c8c:	da 05 a0 08 	ld  [ %l6 + 8 ], %o5
    3c90:	82 06 40 13 	add  %i1, %l3, %g1
    3c94:	82 10 60 01 	or  %g1, 1, %g1
    3c98:	10 bf ff e5 	b  3c2c <malloc_extend_top+0x158>
    3c9c:	c2 23 60 04 	st  %g1, [ %o5 + 4 ]
    3ca0:	81 c7 e0 08 	ret 
    3ca4:	81 e8 00 00 	restore 

00003ca8 <_malloc_r>:
    3ca8:	9d e3 bf 98 	save  %sp, -104, %sp
    3cac:	b2 06 60 0b 	add  %i1, 0xb, %i1
    3cb0:	a2 10 00 18 	mov  %i0, %l1
    3cb4:	80 a6 60 16 	cmp  %i1, 0x16
    3cb8:	18 80 00 03 	bgu  3cc4 <_malloc_r+0x1c>
    3cbc:	b2 0e 7f f8 	and  %i1, -8, %i1
    3cc0:	b2 10 20 10 	mov  0x10, %i1
    3cc4:	80 a6 60 00 	cmp  %i1, 0
    3cc8:	06 80 01 49 	bl  41ec <_malloc_r+0x544>
    3ccc:	b0 10 20 00 	clr  %i0
    3cd0:	40 00 01 76 	call  42a8 <__malloc_lock>
    3cd4:	90 10 00 11 	mov  %l1, %o0
    3cd8:	80 a6 61 f7 	cmp  %i1, 0x1f7
    3cdc:	18 80 01 15 	bgu  4130 <_malloc_r+0x488>
    3ce0:	99 36 60 09 	srl  %i1, 9, %o4
    3ce4:	25 00 00 3c 	sethi  %hi(0xf000), %l2
    3ce8:	82 14 a0 a0 	or  %l2, 0xa0, %g1	! f0a0 <__malloc_av_>
    3cec:	98 06 40 01 	add  %i1, %g1, %o4
    3cf0:	f0 03 20 0c 	ld  [ %o4 + 0xc ], %i0
    3cf4:	80 a6 00 0c 	cmp  %i0, %o4
    3cf8:	02 80 00 10 	be  3d38 <_malloc_r+0x90>
    3cfc:	a1 36 60 03 	srl  %i1, 3, %l0
    3d00:	c2 06 20 04 	ld  [ %i0 + 4 ], %g1
    3d04:	de 06 20 0c 	ld  [ %i0 + 0xc ], %o7
    3d08:	92 08 7f fc 	and  %g1, -4, %o1
    3d0c:	9a 06 00 09 	add  %i0, %o1, %o5
    3d10:	d0 06 20 08 	ld  [ %i0 + 8 ], %o0
    3d14:	c2 03 60 04 	ld  [ %o5 + 4 ], %g1
    3d18:	d0 23 e0 08 	st  %o0, [ %o7 + 8 ]
    3d1c:	82 10 60 01 	or  %g1, 1, %g1
    3d20:	c2 23 60 04 	st  %g1, [ %o5 + 4 ]
    3d24:	de 22 20 0c 	st  %o7, [ %o0 + 0xc ]
    3d28:	90 10 00 11 	mov  %l1, %o0
    3d2c:	40 00 01 61 	call  42b0 <__malloc_unlock>
    3d30:	b0 06 20 08 	add  %i0, 8, %i0
    3d34:	30 80 01 2e 	b,a   41ec <_malloc_r+0x544>
    3d38:	98 06 20 08 	add  %i0, 8, %o4
    3d3c:	f0 03 20 0c 	ld  [ %o4 + 0xc ], %i0
    3d40:	80 a6 00 0c 	cmp  %i0, %o4
    3d44:	32 bf ff f0 	bne,a   3d04 <_malloc_r+0x5c>
    3d48:	c2 06 20 04 	ld  [ %i0 + 4 ], %g1
    3d4c:	a0 04 20 02 	add  %l0, 2, %l0
    3d50:	27 00 00 3c 	sethi  %hi(0xf000), %l3
    3d54:	96 14 e0 a8 	or  %l3, 0xa8, %o3	! f0a8 <__malloc_av_+0x8>
    3d58:	f0 02 e0 08 	ld  [ %o3 + 8 ], %i0
    3d5c:	80 a6 00 0b 	cmp  %i0, %o3
    3d60:	22 80 00 24 	be,a   3df0 <_malloc_r+0x148>
    3d64:	25 00 00 3c 	sethi  %hi(0xf000), %l2
    3d68:	c2 06 20 04 	ld  [ %i0 + 4 ], %g1
    3d6c:	92 08 7f fc 	and  %g1, -4, %o1
    3d70:	94 22 40 19 	sub  %o1, %i1, %o2
    3d74:	80 a2 a0 0f 	cmp  %o2, 0xf
    3d78:	14 80 00 e5 	bg  410c <_malloc_r+0x464>
    3d7c:	80 a2 a0 00 	cmp  %o2, 0
    3d80:	d6 22 e0 0c 	st  %o3, [ %o3 + 0xc ]
    3d84:	06 80 00 08 	bl  3da4 <_malloc_r+0xfc>
    3d88:	d6 22 e0 08 	st  %o3, [ %o3 + 8 ]
    3d8c:	9a 06 00 09 	add  %i0, %o1, %o5
    3d90:	c2 03 60 04 	ld  [ %o5 + 4 ], %g1
    3d94:	90 10 00 11 	mov  %l1, %o0
    3d98:	82 10 60 01 	or  %g1, 1, %g1
    3d9c:	10 bf ff e4 	b  3d2c <_malloc_r+0x84>
    3da0:	c2 23 60 04 	st  %g1, [ %o5 + 4 ]
    3da4:	80 a2 61 ff 	cmp  %o1, 0x1ff
    3da8:	38 80 00 a1 	bgu,a   402c <_malloc_r+0x384>
    3dac:	97 32 60 09 	srl  %o1, 9, %o3
    3db0:	96 02 ff f8 	add  %o3, -8, %o3
    3db4:	9b 32 60 03 	srl  %o1, 3, %o5
    3db8:	83 2b 60 03 	sll  %o5, 3, %g1
    3dbc:	9e 00 40 0b 	add  %g1, %o3, %o7
    3dc0:	d0 03 e0 08 	ld  [ %o7 + 8 ], %o0
    3dc4:	d8 02 e0 04 	ld  [ %o3 + 4 ], %o4
    3dc8:	de 26 20 0c 	st  %o7, [ %i0 + 0xc ]
    3dcc:	d0 26 20 08 	st  %o0, [ %i0 + 8 ]
    3dd0:	9b 33 60 02 	srl  %o5, 2, %o5
    3dd4:	82 10 20 01 	mov  1, %g1
    3dd8:	f0 22 20 0c 	st  %i0, [ %o0 + 0xc ]
    3ddc:	83 28 40 0d 	sll  %g1, %o5, %g1
    3de0:	f0 23 e0 08 	st  %i0, [ %o7 + 8 ]
    3de4:	98 13 00 01 	or  %o4, %g1, %o4
    3de8:	d8 22 e0 04 	st  %o4, [ %o3 + 4 ]
    3dec:	25 00 00 3c 	sethi  %hi(0xf000), %l2
    3df0:	82 14 a0 a0 	or  %l2, 0xa0, %g1	! f0a0 <__malloc_av_>
    3df4:	d8 00 60 04 	ld  [ %g1 + 4 ], %o4
    3df8:	9b 3c 20 1f 	sra  %l0, 0x1f, %o5
    3dfc:	82 10 20 01 	mov  1, %g1
    3e00:	9b 33 60 1e 	srl  %o5, 0x1e, %o5
    3e04:	9a 04 00 0d 	add  %l0, %o5, %o5
    3e08:	9b 3b 60 02 	sra  %o5, 2, %o5
    3e0c:	97 28 40 0d 	sll  %g1, %o5, %o3
    3e10:	80 a2 c0 0c 	cmp  %o3, %o4
    3e14:	38 80 00 42 	bgu,a   3f1c <_malloc_r+0x274>
    3e18:	a0 14 a0 a0 	or  %l2, 0xa0, %l0
    3e1c:	80 8a c0 0c 	btst  %o3, %o4
    3e20:	12 80 00 0d 	bne  3e54 <_malloc_r+0x1ac>
    3e24:	03 00 00 3c 	sethi  %hi(0xf000), %g1
    3e28:	82 0c 3f fc 	and  %l0, -4, %g1
    3e2c:	96 02 c0 0b 	add  %o3, %o3, %o3
    3e30:	80 8a c0 0c 	btst  %o3, %o4
    3e34:	12 80 00 07 	bne  3e50 <_malloc_r+0x1a8>
    3e38:	a0 00 60 04 	add  %g1, 4, %l0
    3e3c:	82 10 00 0c 	mov  %o4, %g1
    3e40:	96 02 c0 0b 	add  %o3, %o3, %o3
    3e44:	80 8a c0 01 	btst  %o3, %g1
    3e48:	02 bf ff fe 	be  3e40 <_malloc_r+0x198>
    3e4c:	a0 04 20 04 	add  %l0, 4, %l0
    3e50:	03 00 00 3c 	sethi  %hi(0xf000), %g1
    3e54:	9e 10 60 a0 	or  %g1, 0xa0, %o7	! f0a0 <__malloc_av_>
    3e58:	83 2c 20 03 	sll  %l0, 3, %g1
    3e5c:	90 10 00 10 	mov  %l0, %o0
    3e60:	98 00 40 0f 	add  %g1, %o7, %o4
    3e64:	9a 10 00 0c 	mov  %o4, %o5
    3e68:	f0 03 60 0c 	ld  [ %o5 + 0xc ], %i0
    3e6c:	80 a6 00 0d 	cmp  %i0, %o5
    3e70:	22 80 00 0f 	be,a   3eac <_malloc_r+0x204>
    3e74:	a0 04 20 01 	inc  %l0
    3e78:	c2 06 20 04 	ld  [ %i0 + 4 ], %g1
    3e7c:	92 08 7f fc 	and  %g1, -4, %o1
    3e80:	94 22 40 19 	sub  %o1, %i1, %o2
    3e84:	80 a2 a0 0f 	cmp  %o2, 0xf
    3e88:	14 80 00 58 	bg  3fe8 <_malloc_r+0x340>
    3e8c:	80 a2 a0 00 	cmp  %o2, 0
    3e90:	36 80 00 50 	bge,a   3fd0 <_malloc_r+0x328>
    3e94:	9a 06 00 09 	add  %i0, %o1, %o5
    3e98:	f0 06 20 0c 	ld  [ %i0 + 0xc ], %i0
    3e9c:	80 a6 00 0d 	cmp  %i0, %o5
    3ea0:	32 bf ff f7 	bne,a   3e7c <_malloc_r+0x1d4>
    3ea4:	c2 06 20 04 	ld  [ %i0 + 4 ], %g1
    3ea8:	a0 04 20 01 	inc  %l0
    3eac:	80 8c 20 03 	btst  3, %l0
    3eb0:	12 bf ff ee 	bne  3e68 <_malloc_r+0x1c0>
    3eb4:	9a 03 60 08 	add  %o5, 8, %o5
    3eb8:	80 8a 20 03 	btst  3, %o0
    3ebc:	02 80 00 41 	be  3fc0 <_malloc_r+0x318>
    3ec0:	98 03 3f f8 	add  %o4, -8, %o4
    3ec4:	c2 03 20 08 	ld  [ %o4 + 8 ], %g1
    3ec8:	80 a0 40 0c 	cmp  %g1, %o4
    3ecc:	02 bf ff fb 	be  3eb8 <_malloc_r+0x210>
    3ed0:	90 02 3f ff 	add  %o0, -1, %o0
    3ed4:	25 00 00 3c 	sethi  %hi(0xf000), %l2
    3ed8:	82 14 a0 a0 	or  %l2, 0xa0, %g1	! f0a0 <__malloc_av_>
    3edc:	c2 00 60 04 	ld  [ %g1 + 4 ], %g1
    3ee0:	96 02 c0 0b 	add  %o3, %o3, %o3
    3ee4:	80 a2 c0 01 	cmp  %o3, %g1
    3ee8:	18 80 00 0c 	bgu  3f18 <_malloc_r+0x270>
    3eec:	80 a2 e0 00 	cmp  %o3, 0
    3ef0:	02 80 00 0a 	be  3f18 <_malloc_r+0x270>
    3ef4:	80 8a c0 01 	btst  %o3, %g1
    3ef8:	32 bf ff d9 	bne,a   3e5c <_malloc_r+0x1b4>
    3efc:	83 2c 20 03 	sll  %l0, 3, %g1
    3f00:	96 02 c0 0b 	add  %o3, %o3, %o3
    3f04:	80 8a c0 01 	btst  %o3, %g1
    3f08:	02 bf ff fe 	be  3f00 <_malloc_r+0x258>
    3f0c:	a0 04 20 04 	add  %l0, 4, %l0
    3f10:	10 bf ff d3 	b  3e5c <_malloc_r+0x1b4>
    3f14:	83 2c 20 03 	sll  %l0, 3, %g1
    3f18:	a0 14 a0 a0 	or  %l2, 0xa0, %l0
    3f1c:	da 04 20 08 	ld  [ %l0 + 8 ], %o5
    3f20:	c2 03 60 04 	ld  [ %o5 + 4 ], %g1
    3f24:	82 08 7f fc 	and  %g1, -4, %g1
    3f28:	80 a0 40 19 	cmp  %g1, %i1
    3f2c:	94 20 40 19 	sub  %g1, %i1, %o2
    3f30:	9a 40 20 00 	addx  %g0, 0, %o5
    3f34:	80 a2 a0 0f 	cmp  %o2, 0xf
    3f38:	04 80 00 03 	ble  3f44 <_malloc_r+0x29c>
    3f3c:	98 10 20 01 	mov  1, %o4
    3f40:	98 10 20 00 	clr  %o4
    3f44:	80 93 40 0c 	orcc  %o5, %o4, %g0
    3f48:	02 80 00 12 	be  3f90 <_malloc_r+0x2e8>
    3f4c:	98 14 a0 a0 	or  %l2, 0xa0, %o4
    3f50:	90 10 00 11 	mov  %l1, %o0
    3f54:	7f ff fe e0 	call  3ad4 <malloc_extend_top>
    3f58:	92 10 00 19 	mov  %i1, %o1
    3f5c:	da 04 20 08 	ld  [ %l0 + 8 ], %o5
    3f60:	c2 03 60 04 	ld  [ %o5 + 4 ], %g1
    3f64:	82 08 7f fc 	and  %g1, -4, %g1
    3f68:	80 a0 40 19 	cmp  %g1, %i1
    3f6c:	94 20 40 19 	sub  %g1, %i1, %o2
    3f70:	9a 40 20 00 	addx  %g0, 0, %o5
    3f74:	80 a2 a0 0f 	cmp  %o2, 0xf
    3f78:	04 80 00 03 	ble  3f84 <_malloc_r+0x2dc>
    3f7c:	98 10 20 01 	mov  1, %o4
    3f80:	98 10 20 00 	clr  %o4
    3f84:	80 93 40 0c 	orcc  %o5, %o4, %g0
    3f88:	12 80 00 0a 	bne  3fb0 <_malloc_r+0x308>
    3f8c:	98 14 a0 a0 	or  %l2, 0xa0, %o4
    3f90:	f0 03 20 08 	ld  [ %o4 + 8 ], %i0
    3f94:	82 16 60 01 	or  %i1, 1, %g1
    3f98:	c2 26 20 04 	st  %g1, [ %i0 + 4 ]
    3f9c:	9a 06 00 19 	add  %i0, %i1, %o5
    3fa0:	82 12 a0 01 	or  %o2, 1, %g1
    3fa4:	da 23 20 08 	st  %o5, [ %o4 + 8 ]
    3fa8:	10 bf ff 60 	b  3d28 <_malloc_r+0x80>
    3fac:	c2 23 60 04 	st  %g1, [ %o5 + 4 ]
    3fb0:	90 10 00 11 	mov  %l1, %o0
    3fb4:	40 00 00 bf 	call  42b0 <__malloc_unlock>
    3fb8:	b0 10 20 00 	clr  %i0
    3fbc:	30 80 00 8c 	b,a   41ec <_malloc_r+0x544>
    3fc0:	c2 03 e0 04 	ld  [ %o7 + 4 ], %g1
    3fc4:	82 28 40 0b 	andn  %g1, %o3, %g1
    3fc8:	10 bf ff c3 	b  3ed4 <_malloc_r+0x22c>
    3fcc:	c2 23 e0 04 	st  %g1, [ %o7 + 4 ]
    3fd0:	de 06 20 0c 	ld  [ %i0 + 0xc ], %o7
    3fd4:	c2 03 60 04 	ld  [ %o5 + 4 ], %g1
    3fd8:	d0 06 20 08 	ld  [ %i0 + 8 ], %o0
    3fdc:	82 10 60 01 	or  %g1, 1, %g1
    3fe0:	10 bf ff 50 	b  3d20 <_malloc_r+0x78>
    3fe4:	d0 23 e0 08 	st  %o0, [ %o7 + 8 ]
    3fe8:	de 06 20 0c 	ld  [ %i0 + 0xc ], %o7
    3fec:	d0 06 20 08 	ld  [ %i0 + 8 ], %o0
    3ff0:	92 06 00 19 	add  %i0, %i1, %o1
    3ff4:	d0 23 e0 08 	st  %o0, [ %o7 + 8 ]
    3ff8:	de 22 20 0c 	st  %o7, [ %o0 + 0xc ]
    3ffc:	82 14 e0 a8 	or  %l3, 0xa8, %g1
    4000:	d2 20 60 0c 	st  %o1, [ %g1 + 0xc ]
    4004:	d2 20 60 08 	st  %o1, [ %g1 + 8 ]
    4008:	9a 16 60 01 	or  %i1, 1, %o5
    400c:	d4 22 40 0a 	st  %o2, [ %o1 + %o2 ]
    4010:	da 26 20 04 	st  %o5, [ %i0 + 4 ]
    4014:	c2 22 60 08 	st  %g1, [ %o1 + 8 ]
    4018:	c2 22 60 0c 	st  %g1, [ %o1 + 0xc ]
    401c:	82 12 a0 01 	or  %o2, 1, %g1
    4020:	90 10 00 11 	mov  %l1, %o0
    4024:	10 bf ff 42 	b  3d2c <_malloc_r+0x84>
    4028:	c2 22 60 04 	st  %g1, [ %o1 + 4 ]
    402c:	80 a2 e0 00 	cmp  %o3, 0
    4030:	02 80 00 16 	be  4088 <_malloc_r+0x3e0>
    4034:	9b 32 60 03 	srl  %o1, 3, %o5
    4038:	83 32 60 06 	srl  %o1, 6, %g1
    403c:	80 a2 e0 04 	cmp  %o3, 4
    4040:	08 80 00 12 	bleu  4088 <_malloc_r+0x3e0>
    4044:	9a 00 60 38 	add  %g1, 0x38, %o5
    4048:	80 a2 e0 14 	cmp  %o3, 0x14
    404c:	08 80 00 0f 	bleu  4088 <_malloc_r+0x3e0>
    4050:	9a 02 e0 5b 	add  %o3, 0x5b, %o5
    4054:	83 32 60 0c 	srl  %o1, 0xc, %g1
    4058:	80 a2 e0 54 	cmp  %o3, 0x54
    405c:	08 80 00 0b 	bleu  4088 <_malloc_r+0x3e0>
    4060:	9a 00 60 6e 	add  %g1, 0x6e, %o5
    4064:	83 32 60 0f 	srl  %o1, 0xf, %g1
    4068:	80 a2 e1 54 	cmp  %o3, 0x154
    406c:	08 80 00 07 	bleu  4088 <_malloc_r+0x3e0>
    4070:	9a 00 60 77 	add  %g1, 0x77, %o5
    4074:	83 32 60 12 	srl  %o1, 0x12, %g1
    4078:	80 a2 e5 54 	cmp  %o3, 0x554
    407c:	08 80 00 03 	bleu  4088 <_malloc_r+0x3e0>
    4080:	9a 00 60 7c 	add  %g1, 0x7c, %o5
    4084:	9a 10 20 7e 	mov  0x7e, %o5
    4088:	96 14 a0 a0 	or  %l2, 0xa0, %o3
    408c:	83 2b 60 03 	sll  %o5, 3, %g1
    4090:	9e 00 40 0b 	add  %g1, %o3, %o7
    4094:	d0 03 e0 08 	ld  [ %o7 + 8 ], %o0
    4098:	80 a2 00 0f 	cmp  %o0, %o7
    409c:	22 80 00 16 	be,a   40f4 <_malloc_r+0x44c>
    40a0:	c2 02 e0 04 	ld  [ %o3 + 4 ], %g1
    40a4:	c2 02 20 04 	ld  [ %o0 + 4 ], %g1
    40a8:	82 08 7f fc 	and  %g1, -4, %g1
    40ac:	80 a2 40 01 	cmp  %o1, %g1
    40b0:	3a 80 00 0c 	bcc,a   40e0 <_malloc_r+0x438>
    40b4:	de 02 20 0c 	ld  [ %o0 + 0xc ], %o7
    40b8:	d0 02 20 08 	ld  [ %o0 + 8 ], %o0
    40bc:	80 a2 00 0f 	cmp  %o0, %o7
    40c0:	22 80 00 08 	be,a   40e0 <_malloc_r+0x438>
    40c4:	de 02 20 0c 	ld  [ %o0 + 0xc ], %o7
    40c8:	c2 02 20 04 	ld  [ %o0 + 4 ], %g1
    40cc:	82 08 7f fc 	and  %g1, -4, %g1
    40d0:	80 a2 40 01 	cmp  %o1, %g1
    40d4:	2a bf ff fa 	bcs,a   40bc <_malloc_r+0x414>
    40d8:	d0 02 20 08 	ld  [ %o0 + 8 ], %o0
    40dc:	de 02 20 0c 	ld  [ %o0 + 0xc ], %o7
    40e0:	de 26 20 0c 	st  %o7, [ %i0 + 0xc ]
    40e4:	d0 26 20 08 	st  %o0, [ %i0 + 8 ]
    40e8:	f0 22 20 0c 	st  %i0, [ %o0 + 0xc ]
    40ec:	10 bf ff 40 	b  3dec <_malloc_r+0x144>
    40f0:	f0 23 e0 08 	st  %i0, [ %o7 + 8 ]
    40f4:	99 33 60 02 	srl  %o5, 2, %o4
    40f8:	9a 10 20 01 	mov  1, %o5
    40fc:	9b 2b 40 0c 	sll  %o5, %o4, %o5
    4100:	82 10 40 0d 	or  %g1, %o5, %g1
    4104:	10 bf ff f7 	b  40e0 <_malloc_r+0x438>
    4108:	c2 22 e0 04 	st  %g1, [ %o3 + 4 ]
    410c:	92 06 00 19 	add  %i0, %i1, %o1
    4110:	d2 22 e0 0c 	st  %o1, [ %o3 + 0xc ]
    4114:	d2 22 e0 08 	st  %o1, [ %o3 + 8 ]
    4118:	82 16 60 01 	or  %i1, 1, %g1
    411c:	d4 22 40 0a 	st  %o2, [ %o1 + %o2 ]
    4120:	c2 26 20 04 	st  %g1, [ %i0 + 4 ]
    4124:	d6 22 60 08 	st  %o3, [ %o1 + 8 ]
    4128:	10 bf ff bd 	b  401c <_malloc_r+0x374>
    412c:	d6 22 60 0c 	st  %o3, [ %o1 + 0xc ]
    4130:	80 a3 20 00 	cmp  %o4, 0
    4134:	02 80 00 16 	be  418c <_malloc_r+0x4e4>
    4138:	a1 36 60 03 	srl  %i1, 3, %l0
    413c:	83 36 60 06 	srl  %i1, 6, %g1
    4140:	80 a3 20 04 	cmp  %o4, 4
    4144:	08 80 00 12 	bleu  418c <_malloc_r+0x4e4>
    4148:	a0 00 60 38 	add  %g1, 0x38, %l0
    414c:	80 a3 20 14 	cmp  %o4, 0x14
    4150:	08 80 00 0f 	bleu  418c <_malloc_r+0x4e4>
    4154:	a0 03 20 5b 	add  %o4, 0x5b, %l0
    4158:	83 36 60 0c 	srl  %i1, 0xc, %g1
    415c:	80 a3 20 54 	cmp  %o4, 0x54
    4160:	08 80 00 0b 	bleu  418c <_malloc_r+0x4e4>
    4164:	a0 00 60 6e 	add  %g1, 0x6e, %l0
    4168:	83 36 60 0f 	srl  %i1, 0xf, %g1
    416c:	80 a3 21 54 	cmp  %o4, 0x154
    4170:	08 80 00 07 	bleu  418c <_malloc_r+0x4e4>
    4174:	a0 00 60 77 	add  %g1, 0x77, %l0
    4178:	83 36 60 12 	srl  %i1, 0x12, %g1
    417c:	80 a3 25 54 	cmp  %o4, 0x554
    4180:	08 80 00 03 	bleu  418c <_malloc_r+0x4e4>
    4184:	a0 00 60 7c 	add  %g1, 0x7c, %l0
    4188:	a0 10 20 7e 	mov  0x7e, %l0
    418c:	9b 2c 20 03 	sll  %l0, 3, %o5
    4190:	25 00 00 3c 	sethi  %hi(0xf000), %l2
    4194:	82 14 a0 a0 	or  %l2, 0xa0, %g1	! f0a0 <__malloc_av_>
    4198:	9a 03 40 01 	add  %o5, %g1, %o5
    419c:	f0 03 60 0c 	ld  [ %o5 + 0xc ], %i0
    41a0:	80 a6 00 0d 	cmp  %i0, %o5
    41a4:	22 bf fe eb 	be,a   3d50 <_malloc_r+0xa8>
    41a8:	a0 04 20 01 	inc  %l0
    41ac:	c2 06 20 04 	ld  [ %i0 + 4 ], %g1
    41b0:	92 08 7f fc 	and  %g1, -4, %o1
    41b4:	94 22 40 19 	sub  %o1, %i1, %o2
    41b8:	80 a2 a0 0f 	cmp  %o2, 0xf
    41bc:	14 80 00 0a 	bg  41e4 <_malloc_r+0x53c>
    41c0:	80 a2 a0 00 	cmp  %o2, 0
    41c4:	36 bf fe d2 	bge,a   3d0c <_malloc_r+0x64>
    41c8:	de 06 20 0c 	ld  [ %i0 + 0xc ], %o7
    41cc:	f0 06 20 0c 	ld  [ %i0 + 0xc ], %i0
    41d0:	80 a6 00 0d 	cmp  %i0, %o5
    41d4:	32 bf ff f7 	bne,a   41b0 <_malloc_r+0x508>
    41d8:	c2 06 20 04 	ld  [ %i0 + 4 ], %g1
    41dc:	10 bf fe dd 	b  3d50 <_malloc_r+0xa8>
    41e0:	a0 04 20 01 	inc  %l0
    41e4:	10 bf ff fe 	b  41dc <_malloc_r+0x534>
    41e8:	a0 04 3f ff 	add  %l0, -1, %l0
    41ec:	81 c7 e0 08 	ret 
    41f0:	81 e8 00 00 	restore 

000041f4 <memset>:
    41f4:	92 0a 60 ff 	and  %o1, 0xff, %o1
    41f8:	80 a2 a0 03 	cmp  %o2, 3
    41fc:	08 80 00 20 	bleu  427c <memset+0x88>
    4200:	82 10 00 08 	mov  %o0, %g1
    4204:	80 8a 20 03 	btst  3, %o0
    4208:	32 80 00 1e 	bne,a   4280 <memset+0x8c>
    420c:	94 02 bf ff 	add  %o2, -1, %o2
    4210:	83 2a 60 08 	sll  %o1, 8, %g1
    4214:	9a 10 00 08 	mov  %o0, %o5
    4218:	98 10 40 09 	or  %g1, %o1, %o4
    421c:	83 2b 20 10 	sll  %o4, 0x10, %g1
    4220:	80 a2 a0 0f 	cmp  %o2, 0xf
    4224:	08 80 00 0d 	bleu  4258 <memset+0x64>
    4228:	98 13 00 01 	or  %o4, %g1, %o4
    422c:	d8 23 40 00 	st  %o4, [ %o5 ]
    4230:	9a 03 60 04 	add  %o5, 4, %o5
    4234:	d8 23 40 00 	st  %o4, [ %o5 ]
    4238:	9a 03 60 04 	add  %o5, 4, %o5
    423c:	d8 23 40 00 	st  %o4, [ %o5 ]
    4240:	94 02 bf f0 	add  %o2, -16, %o2
    4244:	9a 03 60 04 	add  %o5, 4, %o5
    4248:	80 a2 a0 0f 	cmp  %o2, 0xf
    424c:	d8 23 40 00 	st  %o4, [ %o5 ]
    4250:	18 bf ff f7 	bgu  422c <memset+0x38>
    4254:	9a 03 60 04 	add  %o5, 4, %o5
    4258:	80 a2 a0 03 	cmp  %o2, 3
    425c:	28 80 00 08 	bleu,a   427c <memset+0x88>
    4260:	82 10 00 0d 	mov  %o5, %g1
    4264:	d8 23 40 00 	st  %o4, [ %o5 ]
    4268:	94 02 bf fc 	add  %o2, -4, %o2
    426c:	80 a2 a0 03 	cmp  %o2, 3
    4270:	18 bf ff fd 	bgu  4264 <memset+0x70>
    4274:	9a 03 60 04 	add  %o5, 4, %o5
    4278:	82 10 00 0d 	mov  %o5, %g1
    427c:	94 02 bf ff 	add  %o2, -1, %o2
    4280:	80 a2 bf ff 	cmp  %o2, -1
    4284:	02 80 00 07 	be  42a0 <memset+0xac>
    4288:	01 00 00 00 	nop 
    428c:	d2 28 40 00 	stb  %o1, [ %g1 ]
    4290:	94 02 bf ff 	add  %o2, -1, %o2
    4294:	80 a2 bf ff 	cmp  %o2, -1
    4298:	12 bf ff fd 	bne  428c <memset+0x98>
    429c:	82 00 60 01 	inc  %g1
    42a0:	81 c3 e0 08 	retl 
    42a4:	01 00 00 00 	nop 

000042a8 <__malloc_lock>:
    42a8:	81 c3 e0 08 	retl 
    42ac:	01 00 00 00 	nop 

000042b0 <__malloc_unlock>:
    42b0:	81 c3 e0 08 	retl 
    42b4:	01 00 00 00 	nop 

000042b8 <_open_r>:
    42b8:	9d e3 bf 98 	save  %sp, -104, %sp
    42bc:	94 10 00 1b 	mov  %i3, %o2
    42c0:	90 10 00 19 	mov  %i1, %o0
    42c4:	92 10 00 1a 	mov  %i2, %o1
    42c8:	37 00 00 4e 	sethi  %hi(0x13800), %i3
    42cc:	40 00 21 05 	call  c6e0 <open>
    42d0:	c0 26 e1 54 	clr  [ %i3 + 0x154 ]	! 13954 <errno>
    42d4:	80 a2 3f ff 	cmp  %o0, -1
    42d8:	12 80 00 06 	bne  42f0 <_open_r+0x38>
    42dc:	c2 06 e1 54 	ld  [ %i3 + 0x154 ], %g1
    42e0:	80 a0 60 00 	cmp  %g1, 0
    42e4:	02 80 00 03 	be  42f0 <_open_r+0x38>
    42e8:	01 00 00 00 	nop 
    42ec:	c2 26 00 00 	st  %g1, [ %i0 ]
    42f0:	81 c7 e0 08 	ret 
    42f4:	91 e8 00 08 	restore  %g0, %o0, %o0

000042f8 <_printf_r>:
    42f8:	9d e3 bf 98 	save  %sp, -104, %sp
    42fc:	d2 06 20 08 	ld  [ %i0 + 8 ], %o1
    4300:	90 10 00 18 	mov  %i0, %o0
    4304:	f4 27 a0 4c 	st  %i2, [ %fp + 0x4c ]
    4308:	f6 27 a0 50 	st  %i3, [ %fp + 0x50 ]
    430c:	f8 27 a0 54 	st  %i4, [ %fp + 0x54 ]
    4310:	fa 27 a0 58 	st  %i5, [ %fp + 0x58 ]
    4314:	94 10 00 19 	mov  %i1, %o2
    4318:	40 00 03 32 	call  4fe0 <_vfprintf_r>
    431c:	96 07 a0 4c 	add  %fp, 0x4c, %o3
    4320:	81 c7 e0 08 	ret 
    4324:	91 e8 00 08 	restore  %g0, %o0, %o0

00004328 <printf>:
    4328:	9d e3 bf 98 	save  %sp, -104, %sp
    432c:	03 00 00 3c 	sethi  %hi(0xf000), %g1
    4330:	da 00 60 98 	ld  [ %g1 + 0x98 ], %o5	! f098 <_impure_ptr>
    4334:	f2 27 a0 48 	st  %i1, [ %fp + 0x48 ]
    4338:	f4 27 a0 4c 	st  %i2, [ %fp + 0x4c ]
    433c:	f6 27 a0 50 	st  %i3, [ %fp + 0x50 ]
    4340:	f8 27 a0 54 	st  %i4, [ %fp + 0x54 ]
    4344:	fa 27 a0 58 	st  %i5, [ %fp + 0x58 ]
    4348:	d0 03 60 08 	ld  [ %o5 + 8 ], %o0
    434c:	92 10 00 18 	mov  %i0, %o1
    4350:	da 22 20 54 	st  %o5, [ %o0 + 0x54 ]
    4354:	40 00 03 0c 	call  4f84 <vfprintf>
    4358:	94 07 a0 48 	add  %fp, 0x48, %o2
    435c:	81 c7 e0 08 	ret 
    4360:	91 e8 00 08 	restore  %g0, %o0, %o0

00004364 <realloc>:
    4364:	03 00 00 3c 	sethi  %hi(0xf000), %g1
    4368:	da 00 60 98 	ld  [ %g1 + 0x98 ], %o5	! f098 <_impure_ptr>
    436c:	98 10 00 08 	mov  %o0, %o4
    4370:	94 10 00 09 	mov  %o1, %o2
    4374:	90 10 00 0d 	mov  %o5, %o0
    4378:	92 10 00 0c 	mov  %o4, %o1
    437c:	82 13 c0 00 	mov  %o7, %g1
    4380:	40 00 00 03 	call  438c <_realloc_r>
    4384:	9e 10 40 00 	mov  %g1, %o7
    4388:	01 00 00 00 	nop 

0000438c <_realloc_r>:
    438c:	9d e3 bf 98 	save  %sp, -104, %sp
    4390:	80 a6 60 00 	cmp  %i1, 0
    4394:	02 80 01 34 	be  4864 <_realloc_r+0x4d8>
    4398:	aa 10 00 18 	mov  %i0, %l5
    439c:	a0 06 7f f8 	add  %i1, -8, %l0
    43a0:	7f ff ff c2 	call  42a8 <__malloc_lock>
    43a4:	90 10 00 18 	mov  %i0, %o0
    43a8:	d2 04 20 04 	ld  [ %l0 + 4 ], %o1
    43ac:	82 06 a0 0b 	add  %i2, 0xb, %g1
    43b0:	a4 0a 7f fc 	and  %o1, -4, %l2
    43b4:	80 a0 60 16 	cmp  %g1, 0x16
    43b8:	a6 10 00 10 	mov  %l0, %l3
    43bc:	a2 10 00 12 	mov  %l2, %l1
    43c0:	18 80 00 03 	bgu  43cc <_realloc_r+0x40>
    43c4:	a8 08 7f f8 	and  %g1, -8, %l4
    43c8:	a8 10 20 10 	mov  0x10, %l4
    43cc:	80 a5 20 00 	cmp  %l4, 0
    43d0:	06 80 01 27 	bl  486c <_realloc_r+0x4e0>
    43d4:	90 10 20 00 	clr  %o0
    43d8:	80 a4 40 14 	cmp  %l1, %l4
    43dc:	16 80 00 6d 	bge  4590 <_realloc_r+0x204>
    43e0:	9a 24 80 14 	sub  %l2, %l4, %o5
    43e4:	2d 00 00 3c 	sethi  %hi(0xf000), %l6
    43e8:	90 15 a0 a0 	or  %l6, 0xa0, %o0	! f0a0 <__malloc_av_>
    43ec:	d4 02 20 08 	ld  [ %o0 + 8 ], %o2
    43f0:	96 04 c0 11 	add  %l3, %l1, %o3
    43f4:	80 a2 c0 0a 	cmp  %o3, %o2
    43f8:	02 80 00 09 	be  441c <_realloc_r+0x90>
    43fc:	d8 02 e0 04 	ld  [ %o3 + 4 ], %o4
    4400:	82 0b 3f fe 	and  %o4, -2, %g1
    4404:	82 02 c0 01 	add  %o3, %g1, %g1
    4408:	da 00 60 04 	ld  [ %g1 + 4 ], %o5
    440c:	80 8b 60 01 	btst  1, %o5
    4410:	32 80 01 13 	bne,a   485c <_realloc_r+0x4d0>
    4414:	96 10 20 00 	clr  %o3
    4418:	80 a2 c0 0a 	cmp  %o3, %o2
    441c:	02 80 00 fe 	be  4814 <_realloc_r+0x488>
    4420:	94 0b 3f fc 	and  %o4, -4, %o2
    4424:	98 02 80 11 	add  %o2, %l1, %o4
    4428:	80 a3 00 14 	cmp  %o4, %l4
    442c:	36 80 00 f5 	bge,a   4800 <_realloc_r+0x474>
    4430:	da 02 e0 08 	ld  [ %o3 + 8 ], %o5
    4434:	80 8a 60 01 	btst  1, %o1
    4438:	12 80 00 16 	bne  4490 <_realloc_r+0x104>
    443c:	80 a2 e0 00 	cmp  %o3, 0
    4440:	da 04 c0 00 	ld  [ %l3 ], %o5
    4444:	a4 24 c0 0d 	sub  %l3, %o5, %l2
    4448:	c2 04 a0 04 	ld  [ %l2 + 4 ], %g1
    444c:	02 80 00 0b 	be  4478 <_realloc_r+0xec>
    4450:	98 08 7f fc 	and  %g1, -4, %o4
    4454:	82 15 a0 a0 	or  %l6, 0xa0, %g1
    4458:	da 00 60 08 	ld  [ %g1 + 8 ], %o5
    445c:	80 a2 c0 0d 	cmp  %o3, %o5
    4460:	02 80 00 a9 	be  4704 <_realloc_r+0x378>
    4464:	82 02 80 0c 	add  %o2, %o4, %g1
    4468:	92 00 40 11 	add  %g1, %l1, %o1
    446c:	80 a2 40 14 	cmp  %o1, %l4
    4470:	36 80 00 9a 	bge,a   46d8 <_realloc_r+0x34c>
    4474:	da 02 e0 08 	ld  [ %o3 + 8 ], %o5
    4478:	80 a4 a0 00 	cmp  %l2, 0
    447c:	02 80 00 05 	be  4490 <_realloc_r+0x104>
    4480:	98 03 00 11 	add  %o4, %l1, %o4
    4484:	80 a3 00 14 	cmp  %o4, %l4
    4488:	36 80 00 63 	bge,a   4614 <_realloc_r+0x288>
    448c:	c2 04 a0 0c 	ld  [ %l2 + 0xc ], %g1
    4490:	92 10 00 1a 	mov  %i2, %o1
    4494:	7f ff fe 05 	call  3ca8 <_malloc_r>
    4498:	90 10 00 15 	mov  %l5, %o0
    449c:	b0 92 20 00 	orcc  %o0, 0, %i0
    44a0:	02 80 00 59 	be  4604 <_realloc_r+0x278>
    44a4:	a0 06 3f f8 	add  %i0, -8, %l0
    44a8:	c2 04 e0 04 	ld  [ %l3 + 4 ], %g1
    44ac:	82 08 7f fe 	and  %g1, -2, %g1
    44b0:	82 04 c0 01 	add  %l3, %g1, %g1
    44b4:	80 a4 00 01 	cmp  %l0, %g1
    44b8:	02 80 00 31 	be  457c <_realloc_r+0x1f0>
    44bc:	94 04 7f fc 	add  %l1, -4, %o2
    44c0:	80 a2 a0 24 	cmp  %o2, 0x24
    44c4:	18 80 00 2a 	bgu  456c <_realloc_r+0x1e0>
    44c8:	80 a2 a0 13 	cmp  %o2, 0x13
    44cc:	96 10 00 19 	mov  %i1, %o3
    44d0:	08 80 00 18 	bleu  4530 <_realloc_r+0x1a4>
    44d4:	98 10 00 18 	mov  %i0, %o4
    44d8:	c2 06 40 00 	ld  [ %i1 ], %g1
    44dc:	80 a2 a0 1b 	cmp  %o2, 0x1b
    44e0:	c2 26 00 00 	st  %g1, [ %i0 ]
    44e4:	da 06 60 04 	ld  [ %i1 + 4 ], %o5
    44e8:	96 06 60 08 	add  %i1, 8, %o3
    44ec:	da 26 20 04 	st  %o5, [ %i0 + 4 ]
    44f0:	08 80 00 10 	bleu  4530 <_realloc_r+0x1a4>
    44f4:	98 06 20 08 	add  %i0, 8, %o4
    44f8:	c2 06 60 08 	ld  [ %i1 + 8 ], %g1
    44fc:	80 a2 a0 23 	cmp  %o2, 0x23
    4500:	c2 26 20 08 	st  %g1, [ %i0 + 8 ]
    4504:	da 06 60 0c 	ld  [ %i1 + 0xc ], %o5
    4508:	96 06 60 10 	add  %i1, 0x10, %o3
    450c:	da 26 20 0c 	st  %o5, [ %i0 + 0xc ]
    4510:	08 80 00 08 	bleu  4530 <_realloc_r+0x1a4>
    4514:	98 06 20 10 	add  %i0, 0x10, %o4
    4518:	c2 06 60 10 	ld  [ %i1 + 0x10 ], %g1
    451c:	96 06 60 18 	add  %i1, 0x18, %o3
    4520:	c2 26 20 10 	st  %g1, [ %i0 + 0x10 ]
    4524:	da 06 60 14 	ld  [ %i1 + 0x14 ], %o5
    4528:	98 06 20 18 	add  %i0, 0x18, %o4
    452c:	da 26 20 14 	st  %o5, [ %i0 + 0x14 ]
    4530:	c2 02 c0 00 	ld  [ %o3 ], %g1
    4534:	96 02 e0 04 	add  %o3, 4, %o3
    4538:	c2 23 00 00 	st  %g1, [ %o4 ]
    453c:	da 02 c0 00 	ld  [ %o3 ], %o5
    4540:	98 03 20 04 	add  %o4, 4, %o4
    4544:	da 23 00 00 	st  %o5, [ %o4 ]
    4548:	c2 02 e0 04 	ld  [ %o3 + 4 ], %g1
    454c:	c2 23 20 04 	st  %g1, [ %o4 + 4 ]
    4550:	92 10 00 19 	mov  %i1, %o1
    4554:	7f ff fa b2 	call  301c <_free_r>
    4558:	90 10 00 15 	mov  %l5, %o0
    455c:	7f ff ff 55 	call  42b0 <__malloc_unlock>
    4560:	90 10 00 15 	mov  %l5, %o0
    4564:	10 80 00 c2 	b  486c <_realloc_r+0x4e0>
    4568:	90 10 00 18 	mov  %i0, %o0
    456c:	40 00 14 f9 	call  9950 <memcpy>
    4570:	92 10 00 19 	mov  %i1, %o1
    4574:	10 bf ff f8 	b  4554 <_realloc_r+0x1c8>
    4578:	92 10 00 19 	mov  %i1, %o1
    457c:	c2 04 20 04 	ld  [ %l0 + 4 ], %g1
    4580:	a0 10 00 13 	mov  %l3, %l0
    4584:	82 08 7f fc 	and  %g1, -4, %g1
    4588:	a4 04 40 01 	add  %l1, %g1, %l2
    458c:	9a 24 80 14 	sub  %l2, %l4, %o5
    4590:	80 a3 60 0f 	cmp  %o5, 0xf
    4594:	18 80 00 0d 	bgu  45c8 <_realloc_r+0x23c>
    4598:	98 04 00 12 	add  %l0, %l2, %o4
    459c:	c2 04 20 04 	ld  [ %l0 + 4 ], %g1
    45a0:	82 08 60 01 	and  %g1, 1, %g1
    45a4:	82 10 40 12 	or  %g1, %l2, %g1
    45a8:	c2 24 20 04 	st  %g1, [ %l0 + 4 ]
    45ac:	da 03 20 04 	ld  [ %o4 + 4 ], %o5
    45b0:	9a 13 60 01 	or  %o5, 1, %o5
    45b4:	da 23 20 04 	st  %o5, [ %o4 + 4 ]
    45b8:	7f ff ff 3e 	call  42b0 <__malloc_unlock>
    45bc:	90 10 00 15 	mov  %l5, %o0
    45c0:	10 80 00 ab 	b  486c <_realloc_r+0x4e0>
    45c4:	90 04 20 08 	add  %l0, 8, %o0
    45c8:	c2 04 20 04 	ld  [ %l0 + 4 ], %g1
    45cc:	92 04 00 14 	add  %l0, %l4, %o1
    45d0:	82 08 60 01 	and  %g1, 1, %g1
    45d4:	82 10 40 14 	or  %g1, %l4, %g1
    45d8:	c2 24 20 04 	st  %g1, [ %l0 + 4 ]
    45dc:	98 02 40 0d 	add  %o1, %o5, %o4
    45e0:	9a 13 60 01 	or  %o5, 1, %o5
    45e4:	da 22 60 04 	st  %o5, [ %o1 + 4 ]
    45e8:	c2 03 20 04 	ld  [ %o4 + 4 ], %g1
    45ec:	92 02 60 08 	add  %o1, 8, %o1
    45f0:	82 10 60 01 	or  %g1, 1, %g1
    45f4:	90 10 00 15 	mov  %l5, %o0
    45f8:	7f ff fa 89 	call  301c <_free_r>
    45fc:	c2 23 20 04 	st  %g1, [ %o4 + 4 ]
    4600:	30 bf ff ee 	b,a   45b8 <_realloc_r+0x22c>
    4604:	7f ff ff 2b 	call  42b0 <__malloc_unlock>
    4608:	90 10 00 15 	mov  %l5, %o0
    460c:	10 80 00 98 	b  486c <_realloc_r+0x4e0>
    4610:	90 10 20 00 	clr  %o0
    4614:	da 04 a0 08 	ld  [ %l2 + 8 ], %o5
    4618:	a0 10 00 12 	mov  %l2, %l0
    461c:	da 20 60 08 	st  %o5, [ %g1 + 8 ]
    4620:	94 04 7f fc 	add  %l1, -4, %o2
    4624:	c2 23 60 0c 	st  %g1, [ %o5 + 0xc ]
    4628:	a4 10 00 0c 	mov  %o4, %l2
    462c:	80 a2 a0 24 	cmp  %o2, 0x24
    4630:	18 80 00 25 	bgu  46c4 <_realloc_r+0x338>
    4634:	b0 04 20 08 	add  %l0, 8, %i0
    4638:	90 10 00 18 	mov  %i0, %o0
    463c:	80 a2 a0 13 	cmp  %o2, 0x13
    4640:	08 80 00 18 	bleu  46a0 <_realloc_r+0x314>
    4644:	98 10 00 19 	mov  %i1, %o4
    4648:	c2 06 40 00 	ld  [ %i1 ], %g1
    464c:	80 a2 a0 1b 	cmp  %o2, 0x1b
    4650:	c2 24 20 08 	st  %g1, [ %l0 + 8 ]
    4654:	da 06 60 04 	ld  [ %i1 + 4 ], %o5
    4658:	98 06 60 08 	add  %i1, 8, %o4
    465c:	da 24 20 0c 	st  %o5, [ %l0 + 0xc ]
    4660:	08 80 00 10 	bleu  46a0 <_realloc_r+0x314>
    4664:	90 04 20 10 	add  %l0, 0x10, %o0
    4668:	c2 06 60 08 	ld  [ %i1 + 8 ], %g1
    466c:	80 a2 a0 23 	cmp  %o2, 0x23
    4670:	c2 24 20 10 	st  %g1, [ %l0 + 0x10 ]
    4674:	da 06 60 0c 	ld  [ %i1 + 0xc ], %o5
    4678:	98 06 60 10 	add  %i1, 0x10, %o4
    467c:	da 24 20 14 	st  %o5, [ %l0 + 0x14 ]
    4680:	08 80 00 08 	bleu  46a0 <_realloc_r+0x314>
    4684:	90 04 20 18 	add  %l0, 0x18, %o0
    4688:	c2 06 60 10 	ld  [ %i1 + 0x10 ], %g1
    468c:	98 06 60 18 	add  %i1, 0x18, %o4
    4690:	c2 24 20 18 	st  %g1, [ %l0 + 0x18 ]
    4694:	da 06 60 14 	ld  [ %i1 + 0x14 ], %o5
    4698:	90 04 20 20 	add  %l0, 0x20, %o0
    469c:	da 24 20 1c 	st  %o5, [ %l0 + 0x1c ]
    46a0:	c2 03 00 00 	ld  [ %o4 ], %g1
    46a4:	98 03 20 04 	add  %o4, 4, %o4
    46a8:	c2 22 00 00 	st  %g1, [ %o0 ]
    46ac:	da 03 00 00 	ld  [ %o4 ], %o5
    46b0:	90 02 20 04 	add  %o0, 4, %o0
    46b4:	da 22 00 00 	st  %o5, [ %o0 ]
    46b8:	c2 03 20 04 	ld  [ %o4 + 4 ], %g1
    46bc:	10 bf ff b4 	b  458c <_realloc_r+0x200>
    46c0:	c2 22 20 04 	st  %g1, [ %o0 + 4 ]
    46c4:	90 10 00 18 	mov  %i0, %o0
    46c8:	40 00 14 a2 	call  9950 <memcpy>
    46cc:	92 10 00 19 	mov  %i1, %o1
    46d0:	10 bf ff b0 	b  4590 <_realloc_r+0x204>
    46d4:	9a 24 80 14 	sub  %l2, %l4, %o5
    46d8:	c2 02 e0 0c 	ld  [ %o3 + 0xc ], %g1
    46dc:	a0 10 00 12 	mov  %l2, %l0
    46e0:	da 20 60 08 	st  %o5, [ %g1 + 8 ]
    46e4:	c2 23 60 0c 	st  %g1, [ %o5 + 0xc ]
    46e8:	da 04 a0 08 	ld  [ %l2 + 8 ], %o5
    46ec:	c2 04 a0 0c 	ld  [ %l2 + 0xc ], %g1
    46f0:	94 04 7f fc 	add  %l1, -4, %o2
    46f4:	da 20 60 08 	st  %o5, [ %g1 + 8 ]
    46f8:	c2 23 60 0c 	st  %g1, [ %o5 + 0xc ]
    46fc:	10 bf ff cc 	b  462c <_realloc_r+0x2a0>
    4700:	a4 10 00 09 	mov  %o1, %l2
    4704:	9a 05 20 10 	add  %l4, 0x10, %o5
    4708:	ae 00 40 11 	add  %g1, %l1, %l7
    470c:	80 a5 c0 0d 	cmp  %l7, %o5
    4710:	06 bf ff 5b 	bl  447c <_realloc_r+0xf0>
    4714:	80 a4 a0 00 	cmp  %l2, 0
    4718:	c2 04 a0 0c 	ld  [ %l2 + 0xc ], %g1
    471c:	da 04 a0 08 	ld  [ %l2 + 8 ], %o5
    4720:	94 04 7f fc 	add  %l1, -4, %o2
    4724:	da 20 60 08 	st  %o5, [ %g1 + 8 ]
    4728:	c2 23 60 0c 	st  %g1, [ %o5 + 0xc ]
    472c:	80 a2 a0 24 	cmp  %o2, 0x24
    4730:	18 80 00 2f 	bgu  47ec <_realloc_r+0x460>
    4734:	b0 04 a0 08 	add  %l2, 8, %i0
    4738:	80 a2 a0 13 	cmp  %o2, 0x13
    473c:	96 10 00 19 	mov  %i1, %o3
    4740:	08 80 00 18 	bleu  47a0 <_realloc_r+0x414>
    4744:	98 10 00 18 	mov  %i0, %o4
    4748:	c2 06 40 00 	ld  [ %i1 ], %g1
    474c:	80 a2 a0 1b 	cmp  %o2, 0x1b
    4750:	c2 24 a0 08 	st  %g1, [ %l2 + 8 ]
    4754:	da 06 60 04 	ld  [ %i1 + 4 ], %o5
    4758:	96 06 60 08 	add  %i1, 8, %o3
    475c:	da 24 a0 0c 	st  %o5, [ %l2 + 0xc ]
    4760:	08 80 00 10 	bleu  47a0 <_realloc_r+0x414>
    4764:	98 04 a0 10 	add  %l2, 0x10, %o4
    4768:	c2 06 60 08 	ld  [ %i1 + 8 ], %g1
    476c:	80 a2 a0 23 	cmp  %o2, 0x23
    4770:	c2 24 a0 10 	st  %g1, [ %l2 + 0x10 ]
    4774:	da 06 60 0c 	ld  [ %i1 + 0xc ], %o5
    4778:	96 06 60 10 	add  %i1, 0x10, %o3
    477c:	da 24 a0 14 	st  %o5, [ %l2 + 0x14 ]
    4780:	08 80 00 08 	bleu  47a0 <_realloc_r+0x414>
    4784:	98 04 a0 18 	add  %l2, 0x18, %o4
    4788:	c2 06 60 10 	ld  [ %i1 + 0x10 ], %g1
    478c:	96 06 60 18 	add  %i1, 0x18, %o3
    4790:	c2 24 a0 18 	st  %g1, [ %l2 + 0x18 ]
    4794:	da 06 60 14 	ld  [ %i1 + 0x14 ], %o5
    4798:	98 04 a0 20 	add  %l2, 0x20, %o4
    479c:	da 24 a0 1c 	st  %o5, [ %l2 + 0x1c ]
    47a0:	c2 02 c0 00 	ld  [ %o3 ], %g1
    47a4:	96 02 e0 04 	add  %o3, 4, %o3
    47a8:	c2 23 00 00 	st  %g1, [ %o4 ]
    47ac:	da 02 c0 00 	ld  [ %o3 ], %o5
    47b0:	98 03 20 04 	add  %o4, 4, %o4
    47b4:	da 23 00 00 	st  %o5, [ %o4 ]
    47b8:	c2 02 e0 04 	ld  [ %o3 + 4 ], %g1
    47bc:	c2 23 20 04 	st  %g1, [ %o4 + 4 ]
    47c0:	98 04 80 14 	add  %l2, %l4, %o4
    47c4:	82 25 c0 14 	sub  %l7, %l4, %g1
    47c8:	82 10 60 01 	or  %g1, 1, %g1
    47cc:	c2 23 20 04 	st  %g1, [ %o4 + 4 ]
    47d0:	da 04 a0 04 	ld  [ %l2 + 4 ], %o5
    47d4:	82 15 a0 a0 	or  %l6, 0xa0, %g1
    47d8:	9a 0b 60 01 	and  %o5, 1, %o5
    47dc:	d8 20 60 08 	st  %o4, [ %g1 + 8 ]
    47e0:	9a 13 40 14 	or  %o5, %l4, %o5
    47e4:	10 bf ff 5e 	b  455c <_realloc_r+0x1d0>
    47e8:	da 24 a0 04 	st  %o5, [ %l2 + 4 ]
    47ec:	92 10 00 19 	mov  %i1, %o1
    47f0:	40 00 14 58 	call  9950 <memcpy>
    47f4:	90 10 00 18 	mov  %i0, %o0
    47f8:	10 bf ff f3 	b  47c4 <_realloc_r+0x438>
    47fc:	98 04 80 14 	add  %l2, %l4, %o4
    4800:	c2 02 e0 0c 	ld  [ %o3 + 0xc ], %g1
    4804:	a4 10 00 0c 	mov  %o4, %l2
    4808:	da 20 60 08 	st  %o5, [ %g1 + 8 ]
    480c:	10 bf ff 60 	b  458c <_realloc_r+0x200>
    4810:	c2 23 60 0c 	st  %g1, [ %o5 + 0xc ]
    4814:	9a 02 80 11 	add  %o2, %l1, %o5
    4818:	82 05 20 10 	add  %l4, 0x10, %g1
    481c:	80 a3 40 01 	cmp  %o5, %g1
    4820:	06 bf ff 06 	bl  4438 <_realloc_r+0xac>
    4824:	80 8a 60 01 	btst  1, %o1
    4828:	98 04 c0 14 	add  %l3, %l4, %o4
    482c:	82 23 40 14 	sub  %o5, %l4, %g1
    4830:	82 10 60 01 	or  %g1, 1, %g1
    4834:	c2 23 20 04 	st  %g1, [ %o4 + 4 ]
    4838:	da 04 e0 04 	ld  [ %l3 + 4 ], %o5
    483c:	d8 22 20 08 	st  %o4, [ %o0 + 8 ]
    4840:	9a 0b 60 01 	and  %o5, 1, %o5
    4844:	90 10 00 15 	mov  %l5, %o0
    4848:	9a 13 40 14 	or  %o5, %l4, %o5
    484c:	7f ff fe 99 	call  42b0 <__malloc_unlock>
    4850:	da 24 e0 04 	st  %o5, [ %l3 + 4 ]
    4854:	10 80 00 06 	b  486c <_realloc_r+0x4e0>
    4858:	90 04 e0 08 	add  %l3, 8, %o0
    485c:	10 bf fe f6 	b  4434 <_realloc_r+0xa8>
    4860:	94 10 20 00 	clr  %o2
    4864:	7f ff fd 11 	call  3ca8 <_malloc_r>
    4868:	93 e8 00 1a 	restore  %g0, %i2, %o1
    486c:	81 c7 e0 08 	ret 
    4870:	91 e8 00 08 	restore  %g0, %o0, %o0

00004874 <cleanup_glue>:
    4874:	9d e3 bf 98 	save  %sp, -104, %sp
    4878:	d2 06 40 00 	ld  [ %i1 ], %o1
    487c:	80 a2 60 00 	cmp  %o1, 0
    4880:	12 80 00 04 	bne  4890 <cleanup_glue+0x1c>
    4884:	90 10 00 18 	mov  %i0, %o0
    4888:	7f ff f9 e5 	call  301c <_free_r>
    488c:	81 e8 00 00 	restore 
    4890:	7f ff ff f9 	call  4874 <cleanup_glue>
    4894:	9e 03 ff f0 	add  %o7, -16, %o7
    4898:	01 00 00 00 	nop 

0000489c <_reclaim_reent>:
    489c:	9d e3 bf 98 	save  %sp, -104, %sp
    48a0:	03 00 00 3c 	sethi  %hi(0xf000), %g1
    48a4:	da 00 60 98 	ld  [ %g1 + 0x98 ], %o5	! f098 <_impure_ptr>
    48a8:	80 a6 00 0d 	cmp  %i0, %o5
    48ac:	02 80 00 3f 	be  49a8 <_reclaim_reent+0x10c>
    48b0:	01 00 00 00 	nop 
    48b4:	d2 06 20 4c 	ld  [ %i0 + 0x4c ], %o1
    48b8:	80 a2 60 00 	cmp  %o1, 0
    48bc:	22 80 00 17 	be,a   4918 <_reclaim_reent+0x7c>
    48c0:	d2 06 21 48 	ld  [ %i0 + 0x148 ], %o1
    48c4:	a0 10 20 00 	clr  %l0
    48c8:	83 2c 20 02 	sll  %l0, 2, %g1
    48cc:	f2 02 40 01 	ld  [ %o1 + %g1 ], %i1
    48d0:	80 a6 60 00 	cmp  %i1, 0
    48d4:	22 80 00 0b 	be,a   4900 <_reclaim_reent+0x64>
    48d8:	a0 04 20 01 	inc  %l0
    48dc:	92 10 00 19 	mov  %i1, %o1
    48e0:	f2 06 40 00 	ld  [ %i1 ], %i1
    48e4:	7f ff f9 ce 	call  301c <_free_r>
    48e8:	90 10 00 18 	mov  %i0, %o0
    48ec:	80 a6 60 00 	cmp  %i1, 0
    48f0:	12 bf ff fc 	bne  48e0 <_reclaim_reent+0x44>
    48f4:	92 10 00 19 	mov  %i1, %o1
    48f8:	d2 06 20 4c 	ld  [ %i0 + 0x4c ], %o1
    48fc:	a0 04 20 01 	inc  %l0
    4900:	80 a4 20 0e 	cmp  %l0, 0xe
    4904:	04 bf ff f2 	ble  48cc <_reclaim_reent+0x30>
    4908:	83 2c 20 02 	sll  %l0, 2, %g1
    490c:	7f ff f9 c4 	call  301c <_free_r>
    4910:	90 10 00 18 	mov  %i0, %o0
    4914:	d2 06 21 48 	ld  [ %i0 + 0x148 ], %o1
    4918:	80 a2 60 00 	cmp  %o1, 0
    491c:	22 80 00 0f 	be,a   4958 <_reclaim_reent+0xbc>
    4920:	d2 06 20 54 	ld  [ %i0 + 0x54 ], %o1
    4924:	a0 06 21 4c 	add  %i0, 0x14c, %l0
    4928:	80 a2 40 10 	cmp  %o1, %l0
    492c:	22 80 00 0b 	be,a   4958 <_reclaim_reent+0xbc>
    4930:	d2 06 20 54 	ld  [ %i0 + 0x54 ], %o1
    4934:	b2 10 00 09 	mov  %o1, %i1
    4938:	92 10 00 19 	mov  %i1, %o1
    493c:	f2 06 40 00 	ld  [ %i1 ], %i1
    4940:	7f ff f9 b7 	call  301c <_free_r>
    4944:	90 10 00 18 	mov  %i0, %o0
    4948:	80 a6 40 10 	cmp  %i1, %l0
    494c:	12 bf ff fc 	bne  493c <_reclaim_reent+0xa0>
    4950:	92 10 00 19 	mov  %i1, %o1
    4954:	d2 06 20 54 	ld  [ %i0 + 0x54 ], %o1
    4958:	80 a2 60 00 	cmp  %o1, 0
    495c:	12 80 00 0f 	bne  4998 <_reclaim_reent+0xfc>
    4960:	01 00 00 00 	nop 
    4964:	c2 06 20 38 	ld  [ %i0 + 0x38 ], %g1
    4968:	80 a0 60 00 	cmp  %g1, 0
    496c:	02 80 00 0f 	be  49a8 <_reclaim_reent+0x10c>
    4970:	01 00 00 00 	nop 
    4974:	c2 06 20 3c 	ld  [ %i0 + 0x3c ], %g1
    4978:	9f c0 40 00 	call  %g1
    497c:	90 10 00 18 	mov  %i0, %o0
    4980:	f2 06 22 5c 	ld  [ %i0 + 0x25c ], %i1
    4984:	80 a6 60 00 	cmp  %i1, 0
    4988:	02 80 00 08 	be  49a8 <_reclaim_reent+0x10c>
    498c:	01 00 00 00 	nop 
    4990:	7f ff ff b9 	call  4874 <cleanup_glue>
    4994:	81 e8 00 00 	restore 
    4998:	7f ff f9 a1 	call  301c <_free_r>
    499c:	90 10 00 18 	mov  %i0, %o0
    49a0:	10 bf ff f2 	b  4968 <_reclaim_reent+0xcc>
    49a4:	c2 06 20 38 	ld  [ %i0 + 0x38 ], %g1
    49a8:	81 c7 e0 08 	ret 
    49ac:	81 e8 00 00 	restore 

000049b0 <_wrapup_reent>:
    49b0:	9d e3 bf 98 	save  %sp, -104, %sp
    49b4:	80 a6 20 00 	cmp  %i0, 0
    49b8:	02 80 00 1d 	be  4a2c <_wrapup_reent+0x7c>
    49bc:	03 00 00 3c 	sethi  %hi(0xf000), %g1
    49c0:	e4 06 21 48 	ld  [ %i0 + 0x148 ], %l2
    49c4:	80 a4 a0 00 	cmp  %l2, 0
    49c8:	22 80 00 13 	be,a   4a14 <_wrapup_reent+0x64>
    49cc:	c2 06 20 3c 	ld  [ %i0 + 0x3c ], %g1
    49d0:	e2 04 a0 04 	ld  [ %l2 + 4 ], %l1
    49d4:	a2 84 7f ff 	addcc  %l1, -1, %l1
    49d8:	0c 80 00 0a 	bneg  4a00 <_wrapup_reent+0x50>
    49dc:	83 2c 60 02 	sll  %l1, 2, %g1
    49e0:	82 00 40 12 	add  %g1, %l2, %g1
    49e4:	a0 00 60 08 	add  %g1, 8, %l0
    49e8:	c2 04 00 00 	ld  [ %l0 ], %g1
    49ec:	9f c0 40 00 	call  %g1
    49f0:	a0 04 3f fc 	add  %l0, -4, %l0
    49f4:	a2 84 7f ff 	addcc  %l1, -1, %l1
    49f8:	3c bf ff fd 	bpos,a   49ec <_wrapup_reent+0x3c>
    49fc:	c2 04 00 00 	ld  [ %l0 ], %g1
    4a00:	e4 04 80 00 	ld  [ %l2 ], %l2
    4a04:	80 a4 a0 00 	cmp  %l2, 0
    4a08:	32 bf ff f3 	bne,a   49d4 <_wrapup_reent+0x24>
    4a0c:	e2 04 a0 04 	ld  [ %l2 + 4 ], %l1
    4a10:	c2 06 20 3c 	ld  [ %i0 + 0x3c ], %g1
    4a14:	80 a0 60 00 	cmp  %g1, 0
    4a18:	02 80 00 07 	be  4a34 <_wrapup_reent+0x84>
    4a1c:	01 00 00 00 	nop 
    4a20:	9f c0 40 00 	call  %g1
    4a24:	90 10 00 18 	mov  %i0, %o0
    4a28:	30 80 00 03 	b,a   4a34 <_wrapup_reent+0x84>
    4a2c:	10 bf ff e5 	b  49c0 <_wrapup_reent+0x10>
    4a30:	f0 00 60 98 	ld  [ %g1 + 0x98 ], %i0
    4a34:	81 c7 e0 08 	ret 
    4a38:	81 e8 00 00 	restore 

00004a3c <lflush>:
    4a3c:	c2 12 20 0c 	lduh  [ %o0 + 0xc ], %g1
    4a40:	82 08 60 09 	and  %g1, 9, %g1
    4a44:	80 a0 60 09 	cmp  %g1, 9
    4a48:	12 80 00 05 	bne  4a5c <lflush+0x20>
    4a4c:	01 00 00 00 	nop 
    4a50:	82 13 c0 00 	mov  %o7, %g1
    4a54:	7f ff f8 64 	call  2be4 <fflush>
    4a58:	9e 10 40 00 	mov  %g1, %o7
    4a5c:	81 c3 e0 08 	retl 
    4a60:	90 10 20 00 	clr  %o0

00004a64 <__srefill>:
    4a64:	9d e3 bf 98 	save  %sp, -104, %sp
    4a68:	d0 06 20 54 	ld  [ %i0 + 0x54 ], %o0
    4a6c:	80 a2 20 00 	cmp  %o0, 0
    4a70:	32 80 00 07 	bne,a   4a8c <__srefill+0x28>
    4a74:	c2 02 20 38 	ld  [ %o0 + 0x38 ], %g1
    4a78:	03 00 00 3c 	sethi  %hi(0xf000), %g1
    4a7c:	da 00 60 98 	ld  [ %g1 + 0x98 ], %o5	! f098 <_impure_ptr>
    4a80:	da 26 20 54 	st  %o5, [ %i0 + 0x54 ]
    4a84:	90 10 00 0d 	mov  %o5, %o0
    4a88:	c2 02 20 38 	ld  [ %o0 + 0x38 ], %g1
    4a8c:	80 a0 60 00 	cmp  %g1, 0
    4a90:	02 80 00 57 	be  4bec <__srefill+0x188>
    4a94:	01 00 00 00 	nop 
    4a98:	da 16 20 0c 	lduh  [ %i0 + 0xc ], %o5
    4a9c:	c0 26 20 04 	clr  [ %i0 + 4 ]
    4aa0:	80 8b 60 20 	btst  0x20, %o5
    4aa4:	c2 16 20 0c 	lduh  [ %i0 + 0xc ], %g1
    4aa8:	12 80 00 55 	bne  4bfc <__srefill+0x198>
    4aac:	98 10 3f ff 	mov  -1, %o4
    4ab0:	80 8b 60 04 	btst  4, %o5
    4ab4:	32 80 00 3c 	bne,a   4ba4 <__srefill+0x140>
    4ab8:	d2 06 20 30 	ld  [ %i0 + 0x30 ], %o1
    4abc:	80 8b 60 10 	btst  0x10, %o5
    4ac0:	02 80 00 4f 	be  4bfc <__srefill+0x198>
    4ac4:	80 8b 60 08 	btst  8, %o5
    4ac8:	12 80 00 2c 	bne  4b78 <__srefill+0x114>
    4acc:	01 00 00 00 	nop 
    4ad0:	82 10 60 04 	or  %g1, 4, %g1
    4ad4:	c2 36 20 0c 	sth  %g1, [ %i0 + 0xc ]
    4ad8:	c2 06 20 10 	ld  [ %i0 + 0x10 ], %g1
    4adc:	80 a0 60 00 	cmp  %g1, 0
    4ae0:	02 80 00 22 	be  4b68 <__srefill+0x104>
    4ae4:	01 00 00 00 	nop 
    4ae8:	c2 16 20 0c 	lduh  [ %i0 + 0xc ], %g1
    4aec:	80 88 60 03 	btst  3, %g1
    4af0:	32 80 00 19 	bne,a   4b54 <__srefill+0xf0>
    4af4:	d0 06 20 54 	ld  [ %i0 + 0x54 ], %o0
    4af8:	d2 06 20 10 	ld  [ %i0 + 0x10 ], %o1
    4afc:	c2 06 20 20 	ld  [ %i0 + 0x20 ], %g1
    4b00:	d0 06 20 1c 	ld  [ %i0 + 0x1c ], %o0
    4b04:	d4 06 20 14 	ld  [ %i0 + 0x14 ], %o2
    4b08:	9f c0 40 00 	call  %g1
    4b0c:	d2 26 00 00 	st  %o1, [ %i0 ]
    4b10:	da 16 20 0c 	lduh  [ %i0 + 0xc ], %o5
    4b14:	03 00 00 08 	sethi  %hi(0x2000), %g1
    4b18:	d0 26 20 04 	st  %o0, [ %i0 + 4 ]
    4b1c:	82 2b 40 01 	andn  %o5, %g1, %g1
    4b20:	80 a2 20 00 	cmp  %o0, 0
    4b24:	c2 36 20 0c 	sth  %g1, [ %i0 + 0xc ]
    4b28:	14 80 00 35 	bg  4bfc <__srefill+0x198>
    4b2c:	98 10 20 00 	clr  %o4
    4b30:	80 a2 20 00 	cmp  %o0, 0
    4b34:	32 80 00 06 	bne,a   4b4c <__srefill+0xe8>
    4b38:	82 10 60 40 	or  %g1, 0x40, %g1
    4b3c:	82 10 60 20 	or  %g1, 0x20, %g1
    4b40:	c2 36 20 0c 	sth  %g1, [ %i0 + 0xc ]
    4b44:	10 80 00 2e 	b  4bfc <__srefill+0x198>
    4b48:	98 10 3f ff 	mov  -1, %o4
    4b4c:	10 bf ff fd 	b  4b40 <__srefill+0xdc>
    4b50:	c0 26 20 04 	clr  [ %i0 + 4 ]
    4b54:	13 00 00 12 	sethi  %hi(0x4800), %o1
    4b58:	7f ff fb 61 	call  38dc <_fwalk>
    4b5c:	92 12 62 3c 	or  %o1, 0x23c, %o1	! 4a3c <lflush>
    4b60:	10 bf ff e7 	b  4afc <__srefill+0x98>
    4b64:	d2 06 20 10 	ld  [ %i0 + 0x10 ], %o1
    4b68:	7f ff fb 78 	call  3948 <__smakebuf>
    4b6c:	90 10 00 18 	mov  %i0, %o0
    4b70:	10 bf ff df 	b  4aec <__srefill+0x88>
    4b74:	c2 16 20 0c 	lduh  [ %i0 + 0xc ], %g1
    4b78:	7f ff f8 1b 	call  2be4 <fflush>
    4b7c:	90 10 00 18 	mov  %i0, %o0
    4b80:	80 a2 20 00 	cmp  %o0, 0
    4b84:	12 80 00 1e 	bne  4bfc <__srefill+0x198>
    4b88:	98 10 3f ff 	mov  -1, %o4
    4b8c:	c2 16 20 0c 	lduh  [ %i0 + 0xc ], %g1
    4b90:	c0 26 20 08 	clr  [ %i0 + 8 ]
    4b94:	82 08 7f f7 	and  %g1, -9, %g1
    4b98:	c0 26 20 18 	clr  [ %i0 + 0x18 ]
    4b9c:	10 bf ff cd 	b  4ad0 <__srefill+0x6c>
    4ba0:	c2 36 20 0c 	sth  %g1, [ %i0 + 0xc ]
    4ba4:	80 a2 60 00 	cmp  %o1, 0
    4ba8:	22 bf ff cd 	be,a   4adc <__srefill+0x78>
    4bac:	c2 06 20 10 	ld  [ %i0 + 0x10 ], %g1
    4bb0:	82 06 20 40 	add  %i0, 0x40, %g1
    4bb4:	80 a2 40 01 	cmp  %o1, %g1
    4bb8:	22 80 00 05 	be,a   4bcc <__srefill+0x168>
    4bbc:	c2 06 20 3c 	ld  [ %i0 + 0x3c ], %g1
    4bc0:	7f ff f9 17 	call  301c <_free_r>
    4bc4:	d0 06 20 54 	ld  [ %i0 + 0x54 ], %o0
    4bc8:	c2 06 20 3c 	ld  [ %i0 + 0x3c ], %g1
    4bcc:	c0 26 20 30 	clr  [ %i0 + 0x30 ]
    4bd0:	80 a0 60 00 	cmp  %g1, 0
    4bd4:	02 bf ff c1 	be  4ad8 <__srefill+0x74>
    4bd8:	c2 26 20 04 	st  %g1, [ %i0 + 4 ]
    4bdc:	c2 06 20 38 	ld  [ %i0 + 0x38 ], %g1
    4be0:	98 10 20 00 	clr  %o4
    4be4:	10 80 00 06 	b  4bfc <__srefill+0x198>
    4be8:	c2 26 00 00 	st  %g1, [ %i0 ]
    4bec:	7f ff f8 ab 	call  2e98 <__sinit>
    4bf0:	01 00 00 00 	nop 
    4bf4:	10 bf ff aa 	b  4a9c <__srefill+0x38>
    4bf8:	da 16 20 0c 	lduh  [ %i0 + 0xc ], %o5
    4bfc:	81 c7 e0 08 	ret 
    4c00:	91 e8 00 0c 	restore  %g0, %o4, %o0

00004c04 <_sbrk_r>:
    4c04:	9d e3 bf 98 	save  %sp, -104, %sp
    4c08:	90 10 00 19 	mov  %i1, %o0
    4c0c:	33 00 00 4e 	sethi  %hi(0x13800), %i1
    4c10:	40 00 1e c0 	call  c710 <sbrk>
    4c14:	c0 26 61 54 	clr  [ %i1 + 0x154 ]	! 13954 <errno>
    4c18:	80 a2 3f ff 	cmp  %o0, -1
    4c1c:	12 80 00 06 	bne  4c34 <_sbrk_r+0x30>
    4c20:	c2 06 61 54 	ld  [ %i1 + 0x154 ], %g1
    4c24:	80 a0 60 00 	cmp  %g1, 0
    4c28:	02 80 00 03 	be  4c34 <_sbrk_r+0x30>
    4c2c:	01 00 00 00 	nop 
    4c30:	c2 26 00 00 	st  %g1, [ %i0 ]
    4c34:	81 c7 e0 08 	ret 
    4c38:	91 e8 00 08 	restore  %g0, %o0, %o0

00004c3c <__sread>:
    4c3c:	9d e3 bf 98 	save  %sp, -104, %sp
    4c40:	d0 06 20 54 	ld  [ %i0 + 0x54 ], %o0
    4c44:	d2 56 20 0e 	ldsh  [ %i0 + 0xe ], %o1
    4c48:	94 10 00 19 	mov  %i1, %o2
    4c4c:	40 00 17 06 	call  a864 <_read_r>
    4c50:	96 10 00 1a 	mov  %i2, %o3
    4c54:	80 a2 20 00 	cmp  %o0, 0
    4c58:	26 80 00 06 	bl,a   4c70 <__sread+0x34>
    4c5c:	da 16 20 0c 	lduh  [ %i0 + 0xc ], %o5
    4c60:	c2 06 20 50 	ld  [ %i0 + 0x50 ], %g1
    4c64:	82 00 40 08 	add  %g1, %o0, %g1
    4c68:	10 80 00 05 	b  4c7c <__sread+0x40>
    4c6c:	c2 26 20 50 	st  %g1, [ %i0 + 0x50 ]
    4c70:	03 00 00 04 	sethi  %hi(0x1000), %g1
    4c74:	82 2b 40 01 	andn  %o5, %g1, %g1
    4c78:	c2 36 20 0c 	sth  %g1, [ %i0 + 0xc ]
    4c7c:	81 c7 e0 08 	ret 
    4c80:	91 e8 00 08 	restore  %g0, %o0, %o0

00004c84 <__swrite>:
    4c84:	9d e3 bf 98 	save  %sp, -104, %sp
    4c88:	c2 16 20 0c 	lduh  [ %i0 + 0xc ], %g1
    4c8c:	b6 10 00 1a 	mov  %i2, %i3
    4c90:	a0 10 00 18 	mov  %i0, %l0
    4c94:	80 88 61 00 	btst  0x100, %g1
    4c98:	b4 10 00 19 	mov  %i1, %i2
    4c9c:	12 80 00 09 	bne  4cc0 <__swrite+0x3c>
    4ca0:	da 16 20 0c 	lduh  [ %i0 + 0xc ], %o5
    4ca4:	f2 54 20 0e 	ldsh  [ %l0 + 0xe ], %i1
    4ca8:	f0 04 20 54 	ld  [ %l0 + 0x54 ], %i0
    4cac:	03 00 00 04 	sethi  %hi(0x1000), %g1
    4cb0:	82 2b 40 01 	andn  %o5, %g1, %g1
    4cb4:	c2 34 20 0c 	sth  %g1, [ %l0 + 0xc ]
    4cb8:	40 00 0b 98 	call  7b18 <_write_r>
    4cbc:	81 e8 00 00 	restore 
    4cc0:	d0 06 20 54 	ld  [ %i0 + 0x54 ], %o0
    4cc4:	d2 56 20 0e 	ldsh  [ %i0 + 0xe ], %o1
    4cc8:	94 10 20 00 	clr  %o2
    4ccc:	40 00 12 c2 	call  97d4 <_lseek_r>
    4cd0:	96 10 20 02 	mov  2, %o3
    4cd4:	10 bf ff f4 	b  4ca4 <__swrite+0x20>
    4cd8:	da 16 20 0c 	lduh  [ %i0 + 0xc ], %o5

00004cdc <__sseek>:
    4cdc:	9d e3 bf 98 	save  %sp, -104, %sp
    4ce0:	d0 06 20 54 	ld  [ %i0 + 0x54 ], %o0
    4ce4:	d2 56 20 0e 	ldsh  [ %i0 + 0xe ], %o1
    4ce8:	94 10 00 19 	mov  %i1, %o2
    4cec:	40 00 12 ba 	call  97d4 <_lseek_r>
    4cf0:	96 10 00 1a 	mov  %i2, %o3
    4cf4:	80 a2 3f ff 	cmp  %o0, -1
    4cf8:	02 80 00 06 	be  4d10 <__sseek+0x34>
    4cfc:	1b 00 00 04 	sethi  %hi(0x1000), %o5
    4d00:	c2 16 20 0c 	lduh  [ %i0 + 0xc ], %g1
    4d04:	d0 26 20 50 	st  %o0, [ %i0 + 0x50 ]
    4d08:	10 80 00 05 	b  4d1c <__sseek+0x40>
    4d0c:	82 10 40 0d 	or  %g1, %o5, %g1
    4d10:	da 16 20 0c 	lduh  [ %i0 + 0xc ], %o5
    4d14:	03 00 00 04 	sethi  %hi(0x1000), %g1
    4d18:	82 2b 40 01 	andn  %o5, %g1, %g1
    4d1c:	c2 36 20 0c 	sth  %g1, [ %i0 + 0xc ]
    4d20:	81 c7 e0 08 	ret 
    4d24:	91 e8 00 08 	restore  %g0, %o0, %o0

00004d28 <__sclose>:
    4d28:	d2 52 20 0e 	ldsh  [ %o0 + 0xe ], %o1
    4d2c:	d0 02 20 54 	ld  [ %o0 + 0x54 ], %o0
    4d30:	82 13 c0 00 	mov  %o7, %g1
    4d34:	40 00 0b d2 	call  7c7c <_close_r>
    4d38:	9e 10 40 00 	mov  %g1, %o7
    4d3c:	01 00 00 00 	nop 
    4d40:	00 00 51 50 	unimp  0x5150
    4d44:	00 00 66 70 	unimp  0x6670
    4d48:	00 00 66 70 	unimp  0x6670
    4d4c:	00 00 51 70 	unimp  0x5170
    4d50:	00 00 66 70 	unimp  0x6670
    4d54:	00 00 66 70 	unimp  0x6670
    4d58:	00 00 66 70 	unimp  0x6670
    4d5c:	00 00 66 70 	unimp  0x6670
    4d60:	00 00 66 70 	unimp  0x6670
    4d64:	00 00 66 70 	unimp  0x6670
    4d68:	00 00 51 7c 	unimp  0x517c
    4d6c:	00 00 51 a4 	unimp  0x51a4
    4d70:	00 00 66 70 	unimp  0x6670
    4d74:	00 00 51 98 	unimp  0x5198
    4d78:	00 00 51 ac 	unimp  0x51ac
    4d7c:	00 00 66 70 	unimp  0x6670
    4d80:	00 00 52 20 	unimp  0x5220
    4d84:	00 00 52 2c 	unimp  0x522c
    4d88:	00 00 52 2c 	unimp  0x522c
    4d8c:	00 00 52 2c 	unimp  0x522c
    4d90:	00 00 52 2c 	unimp  0x522c
    4d94:	00 00 52 2c 	unimp  0x522c
    4d98:	00 00 52 2c 	unimp  0x522c
    4d9c:	00 00 52 2c 	unimp  0x522c
    4da0:	00 00 52 2c 	unimp  0x522c
    4da4:	00 00 52 2c 	unimp  0x522c
    4da8:	00 00 66 70 	unimp  0x6670
    4dac:	00 00 66 70 	unimp  0x6670
    4db0:	00 00 66 70 	unimp  0x6670
    4db4:	00 00 66 70 	unimp  0x6670
    4db8:	00 00 66 70 	unimp  0x6670
    4dbc:	00 00 66 70 	unimp  0x6670
    4dc0:	00 00 66 70 	unimp  0x6670
    4dc4:	00 00 66 70 	unimp  0x6670
    4dc8:	00 00 66 70 	unimp  0x6670
    4dcc:	00 00 66 70 	unimp  0x6670
    4dd0:	00 00 52 64 	unimp  0x5264
    4dd4:	00 00 63 1c 	unimp  0x631c
    4dd8:	00 00 66 70 	unimp  0x6670
    4ddc:	00 00 63 1c 	unimp  0x631c
    4de0:	00 00 66 70 	unimp  0x6670
    4de4:	00 00 66 70 	unimp  0x6670
    4de8:	00 00 66 70 	unimp  0x6670
    4dec:	00 00 66 70 	unimp  0x6670
    4df0:	00 00 61 98 	unimp  0x6198
    4df4:	00 00 66 70 	unimp  0x6670
    4df8:	00 00 66 70 	unimp  0x6670
    4dfc:	00 00 61 a4 	unimp  0x61a4
    4e00:	00 00 66 70 	unimp  0x6670
    4e04:	00 00 66 70 	unimp  0x6670
    4e08:	00 00 66 70 	unimp  0x6670
    4e0c:	00 00 66 70 	unimp  0x6670
    4e10:	00 00 66 70 	unimp  0x6670
    4e14:	00 00 62 0c 	unimp  0x620c
    4e18:	00 00 66 70 	unimp  0x6670
    4e1c:	00 00 66 70 	unimp  0x6670
    4e20:	00 00 62 70 	unimp  0x6270
    4e24:	00 00 66 70 	unimp  0x6670
    4e28:	00 00 66 70 	unimp  0x6670
    4e2c:	00 00 66 70 	unimp  0x6670
    4e30:	00 00 66 70 	unimp  0x6670
    4e34:	00 00 66 70 	unimp  0x6670
    4e38:	00 00 66 70 	unimp  0x6670
    4e3c:	00 00 66 70 	unimp  0x6670
    4e40:	00 00 66 70 	unimp  0x6670
    4e44:	00 00 66 70 	unimp  0x6670
    4e48:	00 00 66 70 	unimp  0x6670
    4e4c:	00 00 63 00 	unimp  0x6300
    4e50:	00 00 52 68 	unimp  0x5268
    4e54:	00 00 63 1c 	unimp  0x631c
    4e58:	00 00 63 1c 	unimp  0x631c
    4e5c:	00 00 63 1c 	unimp  0x631c
    4e60:	00 00 65 50 	unimp  0x6550
    4e64:	00 00 52 68 	unimp  0x5268
    4e68:	00 00 66 70 	unimp  0x6670
    4e6c:	00 00 66 70 	unimp  0x6670
    4e70:	00 00 65 5c 	unimp  0x655c
    4e74:	00 00 66 70 	unimp  0x6670
    4e78:	00 00 65 84 	unimp  0x6584
    4e7c:	00 00 61 a8 	unimp  0x61a8
    4e80:	00 00 65 d8 	unimp  0x65d8
    4e84:	00 00 65 78 	unimp  0x6578
    4e88:	00 00 66 70 	unimp  0x6670
    4e8c:	00 00 66 04 	unimp  0x6604
    4e90:	00 00 66 70 	unimp  0x6670
    4e94:	00 00 62 10 	unimp  0x6210
    4e98:	00 00 66 70 	unimp  0x6670
    4e9c:	00 00 66 70 	unimp  0x6670
    4ea0:	00 00 66 bc 	unimp  0x66bc

00004ea4 <__sprint>:
    4ea4:	9d e3 bf 98 	save  %sp, -104, %sp
    4ea8:	c2 06 60 08 	ld  [ %i1 + 8 ], %g1
    4eac:	80 a0 60 00 	cmp  %g1, 0
    4eb0:	12 80 00 05 	bne  4ec4 <__sprint+0x20>
    4eb4:	90 10 00 18 	mov  %i0, %o0
    4eb8:	c0 26 60 04 	clr  [ %i1 + 4 ]
    4ebc:	10 80 00 06 	b  4ed4 <__sprint+0x30>
    4ec0:	90 10 20 00 	clr  %o0
    4ec4:	40 00 11 13 	call  9310 <__sfvwrite>
    4ec8:	92 10 00 19 	mov  %i1, %o1
    4ecc:	c0 26 60 04 	clr  [ %i1 + 4 ]
    4ed0:	c0 26 60 08 	clr  [ %i1 + 8 ]
    4ed4:	81 c7 e0 08 	ret 
    4ed8:	91 e8 00 08 	restore  %g0, %o0, %o0

00004edc <__sbprintf>:
    4edc:	9d e3 bb 38 	save  %sp, -1224, %sp
    4ee0:	c2 16 20 0c 	lduh  [ %i0 + 0xc ], %g1
    4ee4:	da 16 20 0e 	lduh  [ %i0 + 0xe ], %o5
    4ee8:	d4 06 20 54 	ld  [ %i0 + 0x54 ], %o2
    4eec:	d8 06 20 1c 	ld  [ %i0 + 0x1c ], %o4
    4ef0:	d6 06 20 24 	ld  [ %i0 + 0x24 ], %o3
    4ef4:	82 08 7f fd 	and  %g1, -3, %g1
    4ef8:	da 37 bf a6 	sth  %o5, [ %fp + -90 ]
    4efc:	c2 37 bf a4 	sth  %g1, [ %fp + -92 ]
    4f00:	9a 10 24 00 	mov  0x400, %o5
    4f04:	82 07 bb 98 	add  %fp, -1128, %g1
    4f08:	d4 27 bf ec 	st  %o2, [ %fp + -20 ]
    4f0c:	a0 10 00 18 	mov  %i0, %l0
    4f10:	94 10 00 1a 	mov  %i2, %o2
    4f14:	d8 27 bf b4 	st  %o4, [ %fp + -76 ]
    4f18:	d6 27 bf bc 	st  %o3, [ %fp + -68 ]
    4f1c:	92 10 00 19 	mov  %i1, %o1
    4f20:	c0 27 bf b0 	clr  [ %fp + -80 ]
    4f24:	c2 27 bf a8 	st  %g1, [ %fp + -88 ]
    4f28:	c2 27 bf 98 	st  %g1, [ %fp + -104 ]
    4f2c:	da 27 bf ac 	st  %o5, [ %fp + -84 ]
    4f30:	da 27 bf a0 	st  %o5, [ %fp + -96 ]
    4f34:	b4 07 bf 98 	add  %fp, -104, %i2
    4f38:	40 00 00 13 	call  4f84 <vfprintf>
    4f3c:	90 10 00 1a 	mov  %i2, %o0
    4f40:	b0 92 20 00 	orcc  %o0, 0, %i0
    4f44:	06 80 00 08 	bl  4f64 <__sbprintf+0x88>
    4f48:	c2 17 bf a4 	lduh  [ %fp + -92 ], %g1
    4f4c:	7f ff f7 26 	call  2be4 <fflush>
    4f50:	90 10 00 1a 	mov  %i2, %o0
    4f54:	80 a2 20 00 	cmp  %o0, 0
    4f58:	32 80 00 02 	bne,a   4f60 <__sbprintf+0x84>
    4f5c:	b0 10 3f ff 	mov  -1, %i0
    4f60:	c2 17 bf a4 	lduh  [ %fp + -92 ], %g1
    4f64:	80 88 60 40 	btst  0x40, %g1
    4f68:	02 80 00 05 	be  4f7c <__sbprintf+0xa0>
    4f6c:	01 00 00 00 	nop 
    4f70:	c2 14 20 0c 	lduh  [ %l0 + 0xc ], %g1
    4f74:	82 10 60 40 	or  %g1, 0x40, %g1
    4f78:	c2 34 20 0c 	sth  %g1, [ %l0 + 0xc ]
    4f7c:	81 c7 e0 08 	ret 
    4f80:	81 e8 00 00 	restore 

00004f84 <vfprintf>:
    4f84:	9d e3 bf 98 	save  %sp, -104, %sp
    4f88:	a0 10 00 18 	mov  %i0, %l0
    4f8c:	f0 06 20 54 	ld  [ %i0 + 0x54 ], %i0
    4f90:	98 10 00 19 	mov  %i1, %o4
    4f94:	80 a6 20 00 	cmp  %i0, 0
    4f98:	12 80 00 06 	bne  4fb0 <vfprintf+0x2c>
    4f9c:	b6 10 00 1a 	mov  %i2, %i3
    4fa0:	03 00 00 3c 	sethi  %hi(0xf000), %g1
    4fa4:	da 00 60 98 	ld  [ %g1 + 0x98 ], %o5	! f098 <_impure_ptr>
    4fa8:	b0 10 00 0d 	mov  %o5, %i0
    4fac:	da 24 20 54 	st  %o5, [ %l0 + 0x54 ]
    4fb0:	c2 06 20 38 	ld  [ %i0 + 0x38 ], %g1
    4fb4:	b2 10 00 10 	mov  %l0, %i1
    4fb8:	b4 10 00 0c 	mov  %o4, %i2
    4fbc:	80 a0 60 00 	cmp  %g1, 0
    4fc0:	02 80 00 04 	be  4fd0 <vfprintf+0x4c>
    4fc4:	90 10 00 18 	mov  %i0, %o0
    4fc8:	40 00 00 06 	call  4fe0 <_vfprintf_r>
    4fcc:	81 e8 00 00 	restore 
    4fd0:	7f ff f7 b2 	call  2e98 <__sinit>
    4fd4:	01 00 00 00 	nop 
    4fd8:	10 bf ff fc 	b  4fc8 <vfprintf+0x44>
    4fdc:	f0 04 20 54 	ld  [ %l0 + 0x54 ], %i0

00004fe0 <_vfprintf_r>:
    4fe0:	9d e3 bd 78 	save  %sp, -648, %sp
    4fe4:	40 00 11 f6 	call  97bc <localeconv>
    4fe8:	01 00 00 00 	nop 
    4fec:	d0 02 00 00 	ld  [ %o0 ], %o0
    4ff0:	92 10 20 00 	clr  %o1
    4ff4:	d0 27 bd fc 	st  %o0, [ %fp + -516 ]
    4ff8:	94 10 20 08 	mov  8, %o2
    4ffc:	7f ff fc 7e 	call  41f4 <memset>
    5000:	90 07 be 30 	add  %fp, -464, %o0
    5004:	c2 16 60 0c 	lduh  [ %i1 + 0xc ], %g1
    5008:	f0 27 a0 44 	st  %i0, [ %fp + 0x44 ]
    500c:	80 88 60 08 	btst  8, %g1
    5010:	c0 27 bd f0 	clr  [ %fp + -528 ]
    5014:	c0 27 bd f4 	clr  [ %fp + -524 ]
    5018:	c0 27 bd ec 	clr  [ %fp + -532 ]
    501c:	c0 27 bd e8 	clr  [ %fp + -536 ]
    5020:	02 80 00 06 	be  5038 <_vfprintf_r+0x58>
    5024:	da 16 60 0c 	lduh  [ %i1 + 0xc ], %o5
    5028:	c2 06 60 10 	ld  [ %i1 + 0x10 ], %g1
    502c:	80 a0 60 00 	cmp  %g1, 0
    5030:	12 80 00 09 	bne  5054 <_vfprintf_r+0x74>
    5034:	82 0b 60 1a 	and  %o5, 0x1a, %g1
    5038:	40 00 0a c8 	call  7b58 <__swsetup>
    503c:	90 10 00 19 	mov  %i1, %o0
    5040:	80 a2 20 00 	cmp  %o0, 0
    5044:	12 80 05 af 	bne  6700 <_vfprintf_r+0x1720>
    5048:	90 10 3f ff 	mov  -1, %o0
    504c:	da 16 60 0c 	lduh  [ %i1 + 0xc ], %o5
    5050:	82 0b 60 1a 	and  %o5, 0x1a, %g1
    5054:	80 a0 60 0a 	cmp  %g1, 0xa
    5058:	22 80 05 a4 	be,a   66e8 <_vfprintf_r+0x1708>
    505c:	c2 56 60 0e 	ldsh  [ %i1 + 0xe ], %g1
    5060:	a4 07 bf a0 	add  %fp, -96, %l2
    5064:	c0 27 bf e8 	clr  [ %fp + -24 ]
    5068:	c0 27 bf e4 	clr  [ %fp + -28 ]
    506c:	e4 27 bf e0 	st  %l2, [ %fp + -32 ]
    5070:	b0 10 00 12 	mov  %l2, %i0
    5074:	c0 27 be 04 	clr  [ %fp + -508 ]
    5078:	a6 10 00 1a 	mov  %i2, %l3
    507c:	03 00 00 3c 	sethi  %hi(0xf000), %g1
    5080:	19 00 00 3d 	sethi  %hi(0xf400), %o4
    5084:	d0 00 60 98 	ld  [ %g1 + 0x98 ], %o0
    5088:	d6 03 20 b8 	ld  [ %o4 + 0xb8 ], %o3
    508c:	92 07 be 14 	add  %fp, -492, %o1
    5090:	94 10 00 1a 	mov  %i2, %o2
    5094:	40 00 11 e0 	call  9814 <_mbtowc_r>
    5098:	98 07 be 30 	add  %fp, -464, %o4
    509c:	a0 92 20 00 	orcc  %o0, 0, %l0
    50a0:	04 80 00 06 	ble  50b8 <_vfprintf_r+0xd8>
    50a4:	c2 07 be 14 	ld  [ %fp + -492 ], %g1
    50a8:	80 a0 60 25 	cmp  %g1, 0x25
    50ac:	12 bf ff f4 	bne  507c <_vfprintf_r+0x9c>
    50b0:	b4 06 80 10 	add  %i2, %l0, %i2
    50b4:	b4 06 bf ff 	add  %i2, -1, %i2
    50b8:	a2 a6 80 13 	subcc  %i2, %l3, %l1
    50bc:	02 80 00 11 	be  5100 <_vfprintf_r+0x120>
    50c0:	80 a4 20 00 	cmp  %l0, 0
    50c4:	e2 24 a0 04 	st  %l1, [ %l2 + 4 ]
    50c8:	da 07 bf e4 	ld  [ %fp + -28 ], %o5
    50cc:	c2 07 bf e8 	ld  [ %fp + -24 ], %g1
    50d0:	9a 03 60 01 	inc  %o5
    50d4:	e6 24 80 00 	st  %l3, [ %l2 ]
    50d8:	82 00 40 11 	add  %g1, %l1, %g1
    50dc:	80 a3 60 07 	cmp  %o5, 7
    50e0:	c2 27 bf e8 	st  %g1, [ %fp + -24 ]
    50e4:	da 27 bf e4 	st  %o5, [ %fp + -28 ]
    50e8:	14 80 05 78 	bg  66c8 <_vfprintf_r+0x16e8>
    50ec:	a4 04 a0 08 	add  %l2, 8, %l2
    50f0:	da 07 be 04 	ld  [ %fp + -508 ], %o5
    50f4:	9a 03 40 11 	add  %o5, %l1, %o5
    50f8:	da 27 be 04 	st  %o5, [ %fp + -508 ]
    50fc:	80 a4 20 00 	cmp  %l0, 0
    5100:	04 80 05 62 	ble  6688 <_vfprintf_r+0x16a8>
    5104:	b4 06 a0 01 	inc  %i2
    5108:	c0 2f be 0a 	clrb  [ %fp + -502 ]
    510c:	da 0e 80 00 	ldub  [ %i2 ], %o5
    5110:	ba 10 20 00 	clr  %i5
    5114:	b8 10 20 00 	clr  %i4
    5118:	c0 27 be 00 	clr  [ %fp + -512 ]
    511c:	ac 10 3f ff 	mov  -1, %l6
    5120:	83 2b 60 18 	sll  %o5, 0x18, %g1
    5124:	b4 06 a0 01 	inc  %i2
    5128:	a9 38 60 18 	sra  %g1, 0x18, %l4
    512c:	82 05 3f e0 	add  %l4, -32, %g1
    5130:	80 a0 60 58 	cmp  %g1, 0x58
    5134:	18 80 05 4f 	bgu  6670 <_vfprintf_r+0x1690>
    5138:	83 28 60 02 	sll  %g1, 2, %g1
    513c:	1b 00 00 13 	sethi  %hi(0x4c00), %o5
    5140:	9a 13 61 40 	or  %o5, 0x140, %o5	! 4d40 <__sclose+0x18>
    5144:	d8 03 40 01 	ld  [ %o5 + %g1 ], %o4
    5148:	81 c3 00 00 	jmp  %o4
    514c:	01 00 00 00 	nop 
    5150:	c2 4f be 0a 	ldsb  [ %fp + -502 ], %g1
    5154:	80 a0 60 00 	cmp  %g1, 0
    5158:	02 80 00 04 	be  5168 <_vfprintf_r+0x188>
    515c:	9a 10 20 20 	mov  0x20, %o5
    5160:	10 bf ff f0 	b  5120 <_vfprintf_r+0x140>
    5164:	da 0e 80 00 	ldub  [ %i2 ], %o5
    5168:	10 bf ff fe 	b  5160 <_vfprintf_r+0x180>
    516c:	da 2f be 0a 	stb  %o5, [ %fp + -502 ]
    5170:	da 0e 80 00 	ldub  [ %i2 ], %o5
    5174:	10 bf ff eb 	b  5120 <_vfprintf_r+0x140>
    5178:	ba 17 60 01 	or  %i5, 1, %i5
    517c:	c2 06 c0 00 	ld  [ %i3 ], %g1
    5180:	b6 06 e0 04 	add  %i3, 4, %i3
    5184:	80 a0 60 00 	cmp  %g1, 0
    5188:	16 bf ff f6 	bge  5160 <_vfprintf_r+0x180>
    518c:	c2 27 be 00 	st  %g1, [ %fp + -512 ]
    5190:	82 20 00 01 	neg  %g1
    5194:	c2 27 be 00 	st  %g1, [ %fp + -512 ]
    5198:	da 0e 80 00 	ldub  [ %i2 ], %o5
    519c:	10 bf ff e1 	b  5120 <_vfprintf_r+0x140>
    51a0:	ba 17 60 04 	or  %i5, 4, %i5
    51a4:	10 bf ff f1 	b  5168 <_vfprintf_r+0x188>
    51a8:	9a 10 20 2b 	mov  0x2b, %o5
    51ac:	e8 4e 80 00 	ldsb  [ %i2 ], %l4
    51b0:	80 a5 20 2a 	cmp  %l4, 0x2a
    51b4:	02 80 00 15 	be  5208 <_vfprintf_r+0x228>
    51b8:	b4 06 a0 01 	inc  %i2
    51bc:	82 05 3f d0 	add  %l4, -48, %g1
    51c0:	80 a0 60 09 	cmp  %g1, 9
    51c4:	18 80 00 0c 	bgu  51f4 <_vfprintf_r+0x214>
    51c8:	a0 10 20 00 	clr  %l0
    51cc:	83 2c 20 02 	sll  %l0, 2, %g1
    51d0:	82 00 40 10 	add  %g1, %l0, %g1
    51d4:	82 00 40 01 	add  %g1, %g1, %g1
    51d8:	82 00 40 14 	add  %g1, %l4, %g1
    51dc:	e8 4e 80 00 	ldsb  [ %i2 ], %l4
    51e0:	a0 00 7f d0 	add  %g1, -48, %l0
    51e4:	9a 05 3f d0 	add  %l4, -48, %o5
    51e8:	80 a3 60 09 	cmp  %o5, 9
    51ec:	08 bf ff f8 	bleu  51cc <_vfprintf_r+0x1ec>
    51f0:	b4 06 a0 01 	inc  %i2
    51f4:	80 a4 3f ff 	cmp  %l0, -1
    51f8:	16 bf ff cd 	bge  512c <_vfprintf_r+0x14c>
    51fc:	ac 10 00 10 	mov  %l0, %l6
    5200:	10 bf ff cb 	b  512c <_vfprintf_r+0x14c>
    5204:	ac 10 3f ff 	mov  -1, %l6
    5208:	ec 06 c0 00 	ld  [ %i3 ], %l6
    520c:	80 a5 a0 00 	cmp  %l6, 0
    5210:	16 bf ff d4 	bge  5160 <_vfprintf_r+0x180>
    5214:	b6 06 e0 04 	add  %i3, 4, %i3
    5218:	10 bf ff c1 	b  511c <_vfprintf_r+0x13c>
    521c:	da 0e 80 00 	ldub  [ %i2 ], %o5
    5220:	da 0e 80 00 	ldub  [ %i2 ], %o5
    5224:	10 bf ff bf 	b  5120 <_vfprintf_r+0x140>
    5228:	ba 17 60 80 	or  %i5, 0x80, %i5
    522c:	a0 10 20 00 	clr  %l0
    5230:	83 2c 20 02 	sll  %l0, 2, %g1
    5234:	82 00 40 10 	add  %g1, %l0, %g1
    5238:	82 00 40 01 	add  %g1, %g1, %g1
    523c:	82 00 40 14 	add  %g1, %l4, %g1
    5240:	e8 4e 80 00 	ldsb  [ %i2 ], %l4
    5244:	a0 00 7f d0 	add  %g1, -48, %l0
    5248:	9a 05 3f d0 	add  %l4, -48, %o5
    524c:	b4 06 a0 01 	inc  %i2
    5250:	80 a3 60 09 	cmp  %o5, 9
    5254:	08 bf ff f7 	bleu  5230 <_vfprintf_r+0x250>
    5258:	e0 27 be 00 	st  %l0, [ %fp + -512 ]
    525c:	10 bf ff b5 	b  5130 <_vfprintf_r+0x150>
    5260:	82 05 3f e0 	add  %l4, -32, %g1
    5264:	ba 17 60 10 	or  %i5, 0x10, %i5
    5268:	80 8f 60 20 	btst  0x20, %i5
    526c:	02 80 03 bd 	be  6160 <_vfprintf_r+0x1180>
    5270:	80 8f 60 10 	btst  0x10, %i5
    5274:	da 06 e0 04 	ld  [ %i3 + 4 ], %o5
    5278:	d8 06 c0 00 	ld  [ %i3 ], %o4
    527c:	b6 06 e0 08 	add  %i3, 8, %i3
    5280:	d8 3f be 28 	std  %o4, [ %fp + -472 ]
    5284:	e0 1f be 28 	ldd  [ %fp + -472 ], %l0
    5288:	80 a4 20 00 	cmp  %l0, 0
    528c:	26 80 03 b1 	bl,a   6150 <_vfprintf_r+0x1170>
    5290:	a2 a0 00 11 	subcc  %g0, %l1, %l1
    5294:	98 10 20 01 	mov  1, %o4
    5298:	b8 95 a0 00 	orcc  %l6, 0, %i4
    529c:	36 80 00 02 	bge,a   52a4 <_vfprintf_r+0x2c4>
    52a0:	ba 0f 7f 7f 	and  %i5, -129, %i5
    52a4:	80 94 00 11 	orcc  %l0, %l1, %g0
    52a8:	a6 07 bf 9c 	add  %fp, -100, %l3
    52ac:	02 80 00 03 	be  52b8 <_vfprintf_r+0x2d8>
    52b0:	9a 10 20 00 	clr  %o5
    52b4:	9a 10 20 01 	mov  1, %o5
    52b8:	80 a0 00 1c 	cmp  %g0, %i4
    52bc:	82 40 20 00 	addx  %g0, 0, %g1
    52c0:	80 93 40 01 	orcc  %o5, %g1, %g0
    52c4:	02 80 03 9a 	be  612c <_vfprintf_r+0x114c>
    52c8:	80 8b 20 ff 	btst  0xff, %o4
    52cc:	82 0b 20 ff 	and  %o4, 0xff, %g1
    52d0:	80 a0 60 01 	cmp  %g1, 1
    52d4:	22 80 03 74 	be,a   60a4 <_vfprintf_r+0x10c4>
    52d8:	80 a4 20 00 	cmp  %l0, 0
    52dc:	04 80 03 5a 	ble  6044 <_vfprintf_r+0x1064>
    52e0:	80 a0 60 02 	cmp  %g1, 2
    52e4:	02 80 03 49 	be  6008 <_vfprintf_r+0x1028>
    52e8:	da 07 bd e8 	ld  [ %fp + -536 ], %o5
    52ec:	03 00 00 39 	sethi  %hi(0xe400), %g1
    52f0:	a6 10 63 b0 	or  %g1, 0x3b0, %l3	! e7b0 <zeroes.1+0x10>
    52f4:	40 00 15 e8 	call  aa94 <strlen>
    52f8:	90 10 00 13 	mov  %l3, %o0
    52fc:	aa 10 00 08 	mov  %o0, %l5
    5300:	80 a5 40 1c 	cmp  %l5, %i4
    5304:	16 80 00 03 	bge  5310 <_vfprintf_r+0x330>
    5308:	ae 10 00 15 	mov  %l5, %l7
    530c:	ae 10 00 1c 	mov  %i4, %l7
    5310:	c2 4f be 0a 	ldsb  [ %fp + -502 ], %g1
    5314:	80 a0 60 00 	cmp  %g1, 0
    5318:	02 80 03 36 	be  5ff0 <_vfprintf_r+0x1010>
    531c:	da 0f be 0a 	ldub  [ %fp + -502 ], %o5
    5320:	ae 05 e0 01 	inc  %l7
    5324:	ac 8f 60 84 	andcc  %i5, 0x84, %l6
    5328:	12 80 00 29 	bne  53cc <_vfprintf_r+0x3ec>
    532c:	83 2b 60 18 	sll  %o5, 0x18, %g1
    5330:	c2 07 be 00 	ld  [ %fp + -512 ], %g1
    5334:	a0 20 40 17 	sub  %g1, %l7, %l0
    5338:	80 a4 20 00 	cmp  %l0, 0
    533c:	04 80 00 23 	ble  53c8 <_vfprintf_r+0x3e8>
    5340:	80 a4 20 10 	cmp  %l0, 0x10
    5344:	04 80 00 13 	ble  5390 <_vfprintf_r+0x3b0>
    5348:	19 00 00 39 	sethi  %hi(0xe400), %o4
    534c:	a2 13 23 90 	or  %o4, 0x390, %l1	! e790 <blanks.0>
    5350:	82 10 20 10 	mov  0x10, %g1
    5354:	c2 24 a0 04 	st  %g1, [ %l2 + 4 ]
    5358:	da 07 bf e4 	ld  [ %fp + -28 ], %o5
    535c:	c2 07 bf e8 	ld  [ %fp + -24 ], %g1
    5360:	9a 03 60 01 	inc  %o5
    5364:	e2 24 80 00 	st  %l1, [ %l2 ]
    5368:	82 00 60 10 	add  %g1, 0x10, %g1
    536c:	80 a3 60 07 	cmp  %o5, 7
    5370:	c2 27 bf e8 	st  %g1, [ %fp + -24 ]
    5374:	da 27 bf e4 	st  %o5, [ %fp + -28 ]
    5378:	14 80 03 16 	bg  5fd0 <_vfprintf_r+0xff0>
    537c:	a4 04 a0 08 	add  %l2, 8, %l2
    5380:	a0 04 3f f0 	add  %l0, -16, %l0
    5384:	80 a4 20 10 	cmp  %l0, 0x10
    5388:	14 bf ff f3 	bg  5354 <_vfprintf_r+0x374>
    538c:	82 10 20 10 	mov  0x10, %g1
    5390:	e0 24 a0 04 	st  %l0, [ %l2 + 4 ]
    5394:	c2 07 bf e8 	ld  [ %fp + -24 ], %g1
    5398:	da 07 bf e4 	ld  [ %fp + -28 ], %o5
    539c:	82 00 40 10 	add  %g1, %l0, %g1
    53a0:	9a 03 60 01 	inc  %o5
    53a4:	c2 27 bf e8 	st  %g1, [ %fp + -24 ]
    53a8:	19 00 00 39 	sethi  %hi(0xe400), %o4
    53ac:	80 a3 60 07 	cmp  %o5, 7
    53b0:	82 13 23 90 	or  %o4, 0x390, %g1
    53b4:	da 27 bf e4 	st  %o5, [ %fp + -28 ]
    53b8:	c2 24 80 00 	st  %g1, [ %l2 ]
    53bc:	14 80 02 fd 	bg  5fb0 <_vfprintf_r+0xfd0>
    53c0:	a4 04 a0 08 	add  %l2, 8, %l2
    53c4:	da 0f be 0a 	ldub  [ %fp + -502 ], %o5
    53c8:	83 2b 60 18 	sll  %o5, 0x18, %g1
    53cc:	80 a0 60 00 	cmp  %g1, 0
    53d0:	02 80 02 de 	be  5f48 <_vfprintf_r+0xf68>
    53d4:	80 8f 60 02 	btst  2, %i5
    53d8:	9a 10 20 01 	mov  1, %o5
    53dc:	da 24 a0 04 	st  %o5, [ %l2 + 4 ]
    53e0:	c2 07 bf e8 	ld  [ %fp + -24 ], %g1
    53e4:	da 07 bf e4 	ld  [ %fp + -28 ], %o5
    53e8:	82 00 60 01 	inc  %g1
    53ec:	9a 03 60 01 	inc  %o5
    53f0:	c2 27 bf e8 	st  %g1, [ %fp + -24 ]
    53f4:	80 a3 60 07 	cmp  %o5, 7
    53f8:	82 07 be 0a 	add  %fp, -502, %g1
    53fc:	da 27 bf e4 	st  %o5, [ %fp + -28 ]
    5400:	c2 24 80 00 	st  %g1, [ %l2 ]
    5404:	14 80 02 c8 	bg  5f24 <_vfprintf_r+0xf44>
    5408:	a4 04 a0 08 	add  %l2, 8, %l2
    540c:	80 a5 a0 80 	cmp  %l6, 0x80
    5410:	02 80 02 92 	be  5e58 <_vfprintf_r+0xe78>
    5414:	da 07 be 00 	ld  [ %fp + -512 ], %o5
    5418:	a0 27 00 15 	sub  %i4, %l5, %l0
    541c:	80 a4 20 00 	cmp  %l0, 0
    5420:	04 80 00 21 	ble  54a4 <_vfprintf_r+0x4c4>
    5424:	80 a4 20 10 	cmp  %l0, 0x10
    5428:	04 80 00 13 	ble  5474 <_vfprintf_r+0x494>
    542c:	2d 00 00 39 	sethi  %hi(0xe400), %l6
    5430:	a2 15 a3 a0 	or  %l6, 0x3a0, %l1	! e7a0 <zeroes.1>
    5434:	82 10 20 10 	mov  0x10, %g1
    5438:	c2 24 a0 04 	st  %g1, [ %l2 + 4 ]
    543c:	da 07 bf e4 	ld  [ %fp + -28 ], %o5
    5440:	c2 07 bf e8 	ld  [ %fp + -24 ], %g1
    5444:	9a 03 60 01 	inc  %o5
    5448:	e2 24 80 00 	st  %l1, [ %l2 ]
    544c:	82 00 60 10 	add  %g1, 0x10, %g1
    5450:	80 a3 60 07 	cmp  %o5, 7
    5454:	c2 27 bf e8 	st  %g1, [ %fp + -24 ]
    5458:	da 27 bf e4 	st  %o5, [ %fp + -28 ]
    545c:	14 80 02 77 	bg  5e38 <_vfprintf_r+0xe58>
    5460:	a4 04 a0 08 	add  %l2, 8, %l2
    5464:	a0 04 3f f0 	add  %l0, -16, %l0
    5468:	80 a4 20 10 	cmp  %l0, 0x10
    546c:	14 bf ff f3 	bg  5438 <_vfprintf_r+0x458>
    5470:	82 10 20 10 	mov  0x10, %g1
    5474:	e0 24 a0 04 	st  %l0, [ %l2 + 4 ]
    5478:	c2 07 bf e8 	ld  [ %fp + -24 ], %g1
    547c:	da 07 bf e4 	ld  [ %fp + -28 ], %o5
    5480:	82 00 40 10 	add  %g1, %l0, %g1
    5484:	9a 03 60 01 	inc  %o5
    5488:	c2 27 bf e8 	st  %g1, [ %fp + -24 ]
    548c:	80 a3 60 07 	cmp  %o5, 7
    5490:	82 15 a3 a0 	or  %l6, 0x3a0, %g1
    5494:	da 27 bf e4 	st  %o5, [ %fp + -28 ]
    5498:	c2 24 80 00 	st  %g1, [ %l2 ]
    549c:	14 80 02 5f 	bg  5e18 <_vfprintf_r+0xe38>
    54a0:	a4 04 a0 08 	add  %l2, 8, %l2
    54a4:	80 8f 61 00 	btst  0x100, %i5
    54a8:	12 80 00 66 	bne  5640 <_vfprintf_r+0x660>
    54ac:	80 a5 20 65 	cmp  %l4, 0x65
    54b0:	ea 24 a0 04 	st  %l5, [ %l2 + 4 ]
    54b4:	c2 07 bf e8 	ld  [ %fp + -24 ], %g1
    54b8:	e6 24 80 00 	st  %l3, [ %l2 ]
    54bc:	82 00 40 15 	add  %g1, %l5, %g1
    54c0:	da 07 bf e4 	ld  [ %fp + -28 ], %o5
    54c4:	c2 27 bf e8 	st  %g1, [ %fp + -24 ]
    54c8:	9a 03 60 01 	inc  %o5
    54cc:	80 a3 60 07 	cmp  %o5, 7
    54d0:	da 27 bf e4 	st  %o5, [ %fp + -28 ]
    54d4:	14 80 00 52 	bg  561c <_vfprintf_r+0x63c>
    54d8:	a4 04 a0 08 	add  %l2, 8, %l2
    54dc:	80 8f 60 04 	btst  4, %i5
    54e0:	02 80 00 26 	be  5578 <_vfprintf_r+0x598>
    54e4:	da 07 be 00 	ld  [ %fp + -512 ], %o5
    54e8:	a0 23 40 17 	sub  %o5, %l7, %l0
    54ec:	80 a4 20 00 	cmp  %l0, 0
    54f0:	04 80 00 22 	ble  5578 <_vfprintf_r+0x598>
    54f4:	80 a4 20 10 	cmp  %l0, 0x10
    54f8:	04 80 00 13 	ble  5544 <_vfprintf_r+0x564>
    54fc:	03 00 00 39 	sethi  %hi(0xe400), %g1
    5500:	a2 10 63 90 	or  %g1, 0x390, %l1	! e790 <blanks.0>
    5504:	82 10 20 10 	mov  0x10, %g1
    5508:	c2 24 a0 04 	st  %g1, [ %l2 + 4 ]
    550c:	da 07 bf e4 	ld  [ %fp + -28 ], %o5
    5510:	c2 07 bf e8 	ld  [ %fp + -24 ], %g1
    5514:	9a 03 60 01 	inc  %o5
    5518:	e2 24 80 00 	st  %l1, [ %l2 ]
    551c:	82 00 60 10 	add  %g1, 0x10, %g1
    5520:	80 a3 60 07 	cmp  %o5, 7
    5524:	c2 27 bf e8 	st  %g1, [ %fp + -24 ]
    5528:	da 27 bf e4 	st  %o5, [ %fp + -28 ]
    552c:	14 80 00 34 	bg  55fc <_vfprintf_r+0x61c>
    5530:	a4 04 a0 08 	add  %l2, 8, %l2
    5534:	a0 04 3f f0 	add  %l0, -16, %l0
    5538:	80 a4 20 10 	cmp  %l0, 0x10
    553c:	14 bf ff f3 	bg  5508 <_vfprintf_r+0x528>
    5540:	82 10 20 10 	mov  0x10, %g1
    5544:	e0 24 a0 04 	st  %l0, [ %l2 + 4 ]
    5548:	c2 07 bf e8 	ld  [ %fp + -24 ], %g1
    554c:	da 07 bf e4 	ld  [ %fp + -28 ], %o5
    5550:	82 00 40 10 	add  %g1, %l0, %g1
    5554:	9a 03 60 01 	inc  %o5
    5558:	c2 27 bf e8 	st  %g1, [ %fp + -24 ]
    555c:	19 00 00 39 	sethi  %hi(0xe400), %o4
    5560:	80 a3 60 07 	cmp  %o5, 7
    5564:	82 13 23 90 	or  %o4, 0x390, %g1
    5568:	da 27 bf e4 	st  %o5, [ %fp + -28 ]
    556c:	14 80 00 1c 	bg  55dc <_vfprintf_r+0x5fc>
    5570:	c2 24 80 00 	st  %g1, [ %l2 ]
    5574:	da 07 be 00 	ld  [ %fp + -512 ], %o5
    5578:	80 a5 c0 0d 	cmp  %l7, %o5
    557c:	16 80 00 03 	bge  5588 <_vfprintf_r+0x5a8>
    5580:	82 10 00 17 	mov  %l7, %g1
    5584:	82 10 00 0d 	mov  %o5, %g1
    5588:	d8 07 be 04 	ld  [ %fp + -508 ], %o4
    558c:	98 03 00 01 	add  %o4, %g1, %o4
    5590:	c2 07 bf e8 	ld  [ %fp + -24 ], %g1
    5594:	80 a0 60 00 	cmp  %g1, 0
    5598:	12 80 00 05 	bne  55ac <_vfprintf_r+0x5cc>
    559c:	d8 27 be 04 	st  %o4, [ %fp + -508 ]
    55a0:	c0 27 bf e4 	clr  [ %fp + -28 ]
    55a4:	10 bf fe b5 	b  5078 <_vfprintf_r+0x98>
    55a8:	a4 10 00 18 	mov  %i0, %l2
    55ac:	92 07 bf e0 	add  %fp, -32, %o1
    55b0:	7f ff fe 3d 	call  4ea4 <__sprint>
    55b4:	90 10 00 19 	mov  %i1, %o0
    55b8:	80 a2 20 00 	cmp  %o0, 0
    55bc:	22 bf ff fa 	be,a   55a4 <_vfprintf_r+0x5c4>
    55c0:	c0 27 bf e4 	clr  [ %fp + -28 ]
    55c4:	c2 16 60 0c 	lduh  [ %i1 + 0xc ], %g1
    55c8:	80 88 60 40 	btst  0x40, %g1
    55cc:	02 80 04 4d 	be  6700 <_vfprintf_r+0x1720>
    55d0:	d0 07 be 04 	ld  [ %fp + -508 ], %o0
    55d4:	10 80 04 4b 	b  6700 <_vfprintf_r+0x1720>
    55d8:	90 10 3f ff 	mov  -1, %o0
    55dc:	92 07 bf e0 	add  %fp, -32, %o1
    55e0:	7f ff fe 31 	call  4ea4 <__sprint>
    55e4:	90 10 00 19 	mov  %i1, %o0
    55e8:	80 a2 20 00 	cmp  %o0, 0
    55ec:	02 bf ff e3 	be  5578 <_vfprintf_r+0x598>
    55f0:	da 07 be 00 	ld  [ %fp + -512 ], %o5
    55f4:	10 bf ff f5 	b  55c8 <_vfprintf_r+0x5e8>
    55f8:	c2 16 60 0c 	lduh  [ %i1 + 0xc ], %g1
    55fc:	90 10 00 19 	mov  %i1, %o0
    5600:	7f ff fe 29 	call  4ea4 <__sprint>
    5604:	92 07 bf e0 	add  %fp, -32, %o1
    5608:	80 a2 20 00 	cmp  %o0, 0
    560c:	12 bf ff ee 	bne  55c4 <_vfprintf_r+0x5e4>
    5610:	a4 10 00 18 	mov  %i0, %l2
    5614:	10 bf ff c9 	b  5538 <_vfprintf_r+0x558>
    5618:	a0 04 3f f0 	add  %l0, -16, %l0
    561c:	92 07 bf e0 	add  %fp, -32, %o1
    5620:	90 10 00 19 	mov  %i1, %o0
    5624:	7f ff fe 20 	call  4ea4 <__sprint>
    5628:	a4 10 00 18 	mov  %i0, %l2
    562c:	80 a2 20 00 	cmp  %o0, 0
    5630:	02 bf ff ac 	be  54e0 <_vfprintf_r+0x500>
    5634:	80 8f 60 04 	btst  4, %i5
    5638:	10 bf ff e4 	b  55c8 <_vfprintf_r+0x5e8>
    563c:	c2 16 60 0c 	lduh  [ %i1 + 0xc ], %g1
    5640:	04 80 01 66 	ble  5bd8 <_vfprintf_r+0xbf8>
    5644:	c2 07 be 0c 	ld  [ %fp + -500 ], %g1
    5648:	03 00 00 3a 	sethi  %hi(0xe800), %g1
    564c:	d0 1f bd f0 	ldd  [ %fp + -528 ], %o0
    5650:	40 00 20 63 	call  d7dc <__eqdf2>
    5654:	d4 18 60 28 	ldd  [ %g1 + 0x28 ], %o2
    5658:	80 a2 20 00 	cmp  %o0, 0
    565c:	12 80 00 5e 	bne  57d4 <_vfprintf_r+0x7f4>
    5660:	d2 07 be 10 	ld  [ %fp + -496 ], %o1
    5664:	a0 10 20 01 	mov  1, %l0
    5668:	e0 24 a0 04 	st  %l0, [ %l2 + 4 ]
    566c:	c2 07 bf e8 	ld  [ %fp + -24 ], %g1
    5670:	da 07 bf e4 	ld  [ %fp + -28 ], %o5
    5674:	82 00 60 01 	inc  %g1
    5678:	9a 03 60 01 	inc  %o5
    567c:	c2 27 bf e8 	st  %g1, [ %fp + -24 ]
    5680:	80 a3 60 07 	cmp  %o5, 7
    5684:	03 00 00 39 	sethi  %hi(0xe400), %g1
    5688:	da 27 bf e4 	st  %o5, [ %fp + -28 ]
    568c:	82 10 63 d0 	or  %g1, 0x3d0, %g1
    5690:	c2 24 80 00 	st  %g1, [ %l2 ]
    5694:	14 80 00 48 	bg  57b4 <_vfprintf_r+0x7d4>
    5698:	a4 04 a0 08 	add  %l2, 8, %l2
    569c:	da 07 be 10 	ld  [ %fp + -496 ], %o5
    56a0:	c2 07 be 0c 	ld  [ %fp + -500 ], %g1
    56a4:	80 a3 40 01 	cmp  %o5, %g1
    56a8:	26 80 00 06 	bl,a   56c0 <_vfprintf_r+0x6e0>
    56ac:	e0 24 a0 04 	st  %l0, [ %l2 + 4 ]
    56b0:	80 8f 60 01 	btst  1, %i5
    56b4:	02 bf ff 8b 	be  54e0 <_vfprintf_r+0x500>
    56b8:	80 8f 60 04 	btst  4, %i5
    56bc:	e0 24 a0 04 	st  %l0, [ %l2 + 4 ]
    56c0:	d8 07 bd fc 	ld  [ %fp + -516 ], %o4
    56c4:	da 07 bf e4 	ld  [ %fp + -28 ], %o5
    56c8:	c2 07 bf e8 	ld  [ %fp + -24 ], %g1
    56cc:	9a 03 60 01 	inc  %o5
    56d0:	d8 24 80 00 	st  %o4, [ %l2 ]
    56d4:	82 00 60 01 	inc  %g1
    56d8:	80 a3 60 07 	cmp  %o5, 7
    56dc:	c2 27 bf e8 	st  %g1, [ %fp + -24 ]
    56e0:	da 27 bf e4 	st  %o5, [ %fp + -28 ]
    56e4:	14 80 00 2c 	bg  5794 <_vfprintf_r+0x7b4>
    56e8:	a4 04 a0 08 	add  %l2, 8, %l2
    56ec:	c2 07 be 0c 	ld  [ %fp + -500 ], %g1
    56f0:	a0 00 7f ff 	add  %g1, -1, %l0
    56f4:	80 a4 20 00 	cmp  %l0, 0
    56f8:	04 bf ff 79 	ble  54dc <_vfprintf_r+0x4fc>
    56fc:	80 a4 20 10 	cmp  %l0, 0x10
    5700:	04 80 00 13 	ble  574c <_vfprintf_r+0x76c>
    5704:	2d 00 00 39 	sethi  %hi(0xe400), %l6
    5708:	a2 15 a3 a0 	or  %l6, 0x3a0, %l1	! e7a0 <zeroes.1>
    570c:	82 10 20 10 	mov  0x10, %g1
    5710:	c2 24 a0 04 	st  %g1, [ %l2 + 4 ]
    5714:	da 07 bf e4 	ld  [ %fp + -28 ], %o5
    5718:	c2 07 bf e8 	ld  [ %fp + -24 ], %g1
    571c:	9a 03 60 01 	inc  %o5
    5720:	e2 24 80 00 	st  %l1, [ %l2 ]
    5724:	82 00 60 10 	add  %g1, 0x10, %g1
    5728:	80 a3 60 07 	cmp  %o5, 7
    572c:	c2 27 bf e8 	st  %g1, [ %fp + -24 ]
    5730:	da 27 bf e4 	st  %o5, [ %fp + -28 ]
    5734:	14 80 00 10 	bg  5774 <_vfprintf_r+0x794>
    5738:	a4 04 a0 08 	add  %l2, 8, %l2
    573c:	a0 04 3f f0 	add  %l0, -16, %l0
    5740:	80 a4 20 10 	cmp  %l0, 0x10
    5744:	14 bf ff f3 	bg  5710 <_vfprintf_r+0x730>
    5748:	82 10 20 10 	mov  0x10, %g1
    574c:	e0 24 a0 04 	st  %l0, [ %l2 + 4 ]
    5750:	c2 07 bf e8 	ld  [ %fp + -24 ], %g1
    5754:	da 07 bf e4 	ld  [ %fp + -28 ], %o5
    5758:	82 00 40 10 	add  %g1, %l0, %g1
    575c:	9a 03 60 01 	inc  %o5
    5760:	c2 27 bf e8 	st  %g1, [ %fp + -24 ]
    5764:	80 a3 60 07 	cmp  %o5, 7
    5768:	82 15 a3 a0 	or  %l6, 0x3a0, %g1
    576c:	10 bf ff 59 	b  54d0 <_vfprintf_r+0x4f0>
    5770:	c2 24 80 00 	st  %g1, [ %l2 ]
    5774:	90 10 00 19 	mov  %i1, %o0
    5778:	7f ff fd cb 	call  4ea4 <__sprint>
    577c:	92 07 bf e0 	add  %fp, -32, %o1
    5780:	80 a2 20 00 	cmp  %o0, 0
    5784:	12 bf ff 90 	bne  55c4 <_vfprintf_r+0x5e4>
    5788:	a4 10 00 18 	mov  %i0, %l2
    578c:	10 bf ff ed 	b  5740 <_vfprintf_r+0x760>
    5790:	a0 04 3f f0 	add  %l0, -16, %l0
    5794:	92 07 bf e0 	add  %fp, -32, %o1
    5798:	7f ff fd c3 	call  4ea4 <__sprint>
    579c:	90 10 00 19 	mov  %i1, %o0
    57a0:	80 a2 20 00 	cmp  %o0, 0
    57a4:	12 bf ff 88 	bne  55c4 <_vfprintf_r+0x5e4>
    57a8:	a4 10 00 18 	mov  %i0, %l2
    57ac:	10 bf ff d1 	b  56f0 <_vfprintf_r+0x710>
    57b0:	c2 07 be 0c 	ld  [ %fp + -500 ], %g1
    57b4:	92 07 bf e0 	add  %fp, -32, %o1
    57b8:	7f ff fd bb 	call  4ea4 <__sprint>
    57bc:	90 10 00 19 	mov  %i1, %o0
    57c0:	80 a2 20 00 	cmp  %o0, 0
    57c4:	12 bf ff 80 	bne  55c4 <_vfprintf_r+0x5e4>
    57c8:	a4 10 00 18 	mov  %i0, %l2
    57cc:	10 bf ff b5 	b  56a0 <_vfprintf_r+0x6c0>
    57d0:	da 07 be 10 	ld  [ %fp + -496 ], %o5
    57d4:	80 a2 60 00 	cmp  %o1, 0
    57d8:	04 80 00 8e 	ble  5a10 <_vfprintf_r+0xa30>
    57dc:	c2 07 be 0c 	ld  [ %fp + -500 ], %g1
    57e0:	80 a2 40 01 	cmp  %o1, %g1
    57e4:	26 80 00 5a 	bl,a   594c <_vfprintf_r+0x96c>
    57e8:	d2 24 a0 04 	st  %o1, [ %l2 + 4 ]
    57ec:	c2 24 a0 04 	st  %g1, [ %l2 + 4 ]
    57f0:	90 10 00 01 	mov  %g1, %o0
    57f4:	da 07 bf e4 	ld  [ %fp + -28 ], %o5
    57f8:	c2 07 bf e8 	ld  [ %fp + -24 ], %g1
    57fc:	9a 03 60 01 	inc  %o5
    5800:	e6 24 80 00 	st  %l3, [ %l2 ]
    5804:	82 00 40 08 	add  %g1, %o0, %g1
    5808:	80 a3 60 07 	cmp  %o5, 7
    580c:	da 27 bf e4 	st  %o5, [ %fp + -28 ]
    5810:	c2 27 bf e8 	st  %g1, [ %fp + -24 ]
    5814:	14 80 00 46 	bg  592c <_vfprintf_r+0x94c>
    5818:	a4 04 a0 08 	add  %l2, 8, %l2
    581c:	c2 07 be 10 	ld  [ %fp + -496 ], %g1
    5820:	a0 20 40 08 	sub  %g1, %o0, %l0
    5824:	80 a4 20 00 	cmp  %l0, 0
    5828:	04 80 00 21 	ble  58ac <_vfprintf_r+0x8cc>
    582c:	80 a4 20 10 	cmp  %l0, 0x10
    5830:	04 80 00 13 	ble  587c <_vfprintf_r+0x89c>
    5834:	2d 00 00 39 	sethi  %hi(0xe400), %l6
    5838:	a2 15 a3 a0 	or  %l6, 0x3a0, %l1	! e7a0 <zeroes.1>
    583c:	82 10 20 10 	mov  0x10, %g1
    5840:	c2 24 a0 04 	st  %g1, [ %l2 + 4 ]
    5844:	da 07 bf e4 	ld  [ %fp + -28 ], %o5
    5848:	c2 07 bf e8 	ld  [ %fp + -24 ], %g1
    584c:	9a 03 60 01 	inc  %o5
    5850:	e2 24 80 00 	st  %l1, [ %l2 ]
    5854:	82 00 60 10 	add  %g1, 0x10, %g1
    5858:	80 a3 60 07 	cmp  %o5, 7
    585c:	c2 27 bf e8 	st  %g1, [ %fp + -24 ]
    5860:	da 27 bf e4 	st  %o5, [ %fp + -28 ]
    5864:	14 80 00 2a 	bg  590c <_vfprintf_r+0x92c>
    5868:	a4 04 a0 08 	add  %l2, 8, %l2
    586c:	a0 04 3f f0 	add  %l0, -16, %l0
    5870:	80 a4 20 10 	cmp  %l0, 0x10
    5874:	14 bf ff f3 	bg  5840 <_vfprintf_r+0x860>
    5878:	82 10 20 10 	mov  0x10, %g1
    587c:	e0 24 a0 04 	st  %l0, [ %l2 + 4 ]
    5880:	c2 07 bf e8 	ld  [ %fp + -24 ], %g1
    5884:	da 07 bf e4 	ld  [ %fp + -28 ], %o5
    5888:	82 00 40 10 	add  %g1, %l0, %g1
    588c:	9a 03 60 01 	inc  %o5
    5890:	c2 27 bf e8 	st  %g1, [ %fp + -24 ]
    5894:	80 a3 60 07 	cmp  %o5, 7
    5898:	82 15 a3 a0 	or  %l6, 0x3a0, %g1
    589c:	da 27 bf e4 	st  %o5, [ %fp + -28 ]
    58a0:	c2 24 80 00 	st  %g1, [ %l2 ]
    58a4:	14 80 00 12 	bg  58ec <_vfprintf_r+0x90c>
    58a8:	a4 04 a0 08 	add  %l2, 8, %l2
    58ac:	80 8f 60 01 	btst  1, %i5
    58b0:	22 bf ff 0c 	be,a   54e0 <_vfprintf_r+0x500>
    58b4:	80 8f 60 04 	btst  4, %i5
    58b8:	9a 10 20 01 	mov  1, %o5
    58bc:	da 24 a0 04 	st  %o5, [ %l2 + 4 ]
    58c0:	c2 07 bf e8 	ld  [ %fp + -24 ], %g1
    58c4:	da 07 bf e4 	ld  [ %fp + -28 ], %o5
    58c8:	82 00 60 01 	inc  %g1
    58cc:	9a 03 60 01 	inc  %o5
    58d0:	c2 27 bf e8 	st  %g1, [ %fp + -24 ]
    58d4:	80 a3 60 07 	cmp  %o5, 7
    58d8:	03 00 00 39 	sethi  %hi(0xe400), %g1
    58dc:	da 27 bf e4 	st  %o5, [ %fp + -28 ]
    58e0:	82 10 63 d8 	or  %g1, 0x3d8, %g1
    58e4:	10 bf fe fc 	b  54d4 <_vfprintf_r+0x4f4>
    58e8:	c2 24 80 00 	st  %g1, [ %l2 ]
    58ec:	92 07 bf e0 	add  %fp, -32, %o1
    58f0:	7f ff fd 6d 	call  4ea4 <__sprint>
    58f4:	90 10 00 19 	mov  %i1, %o0
    58f8:	80 a2 20 00 	cmp  %o0, 0
    58fc:	12 bf ff 32 	bne  55c4 <_vfprintf_r+0x5e4>
    5900:	a4 10 00 18 	mov  %i0, %l2
    5904:	10 bf ff eb 	b  58b0 <_vfprintf_r+0x8d0>
    5908:	80 8f 60 01 	btst  1, %i5
    590c:	90 10 00 19 	mov  %i1, %o0
    5910:	7f ff fd 65 	call  4ea4 <__sprint>
    5914:	92 07 bf e0 	add  %fp, -32, %o1
    5918:	80 a2 20 00 	cmp  %o0, 0
    591c:	12 bf ff 2a 	bne  55c4 <_vfprintf_r+0x5e4>
    5920:	a4 10 00 18 	mov  %i0, %l2
    5924:	10 bf ff d3 	b  5870 <_vfprintf_r+0x890>
    5928:	a0 04 3f f0 	add  %l0, -16, %l0
    592c:	92 07 bf e0 	add  %fp, -32, %o1
    5930:	7f ff fd 5d 	call  4ea4 <__sprint>
    5934:	90 10 00 19 	mov  %i1, %o0
    5938:	80 a2 20 00 	cmp  %o0, 0
    593c:	12 bf ff 22 	bne  55c4 <_vfprintf_r+0x5e4>
    5940:	d0 07 be 0c 	ld  [ %fp + -500 ], %o0
    5944:	10 bf ff b6 	b  581c <_vfprintf_r+0x83c>
    5948:	a4 10 00 18 	mov  %i0, %l2
    594c:	da 07 bf e4 	ld  [ %fp + -28 ], %o5
    5950:	c2 07 bf e8 	ld  [ %fp + -24 ], %g1
    5954:	9a 03 60 01 	inc  %o5
    5958:	e6 24 80 00 	st  %l3, [ %l2 ]
    595c:	82 00 40 09 	add  %g1, %o1, %g1
    5960:	80 a3 60 07 	cmp  %o5, 7
    5964:	da 27 bf e4 	st  %o5, [ %fp + -28 ]
    5968:	c2 27 bf e8 	st  %g1, [ %fp + -24 ]
    596c:	14 80 00 21 	bg  59f0 <_vfprintf_r+0xa10>
    5970:	a4 04 a0 08 	add  %l2, 8, %l2
    5974:	9a 10 20 01 	mov  1, %o5
    5978:	da 24 a0 04 	st  %o5, [ %l2 + 4 ]
    597c:	c2 07 bf e8 	ld  [ %fp + -24 ], %g1
    5980:	da 07 bf e4 	ld  [ %fp + -28 ], %o5
    5984:	82 00 60 01 	inc  %g1
    5988:	9a 03 60 01 	inc  %o5
    598c:	c2 27 bf e8 	st  %g1, [ %fp + -24 ]
    5990:	80 a3 60 07 	cmp  %o5, 7
    5994:	03 00 00 39 	sethi  %hi(0xe400), %g1
    5998:	a6 04 c0 09 	add  %l3, %o1, %l3
    599c:	82 10 63 d8 	or  %g1, 0x3d8, %g1
    59a0:	da 27 bf e4 	st  %o5, [ %fp + -28 ]
    59a4:	c2 24 80 00 	st  %g1, [ %l2 ]
    59a8:	14 80 00 0a 	bg  59d0 <_vfprintf_r+0x9f0>
    59ac:	a4 04 a0 08 	add  %l2, 8, %l2
    59b0:	c2 07 be 10 	ld  [ %fp + -496 ], %g1
    59b4:	da 07 be 0c 	ld  [ %fp + -500 ], %o5
    59b8:	e6 24 80 00 	st  %l3, [ %l2 ]
    59bc:	9a 23 40 01 	sub  %o5, %g1, %o5
    59c0:	da 24 a0 04 	st  %o5, [ %l2 + 4 ]
    59c4:	c2 07 bf e8 	ld  [ %fp + -24 ], %g1
    59c8:	10 bf fe be 	b  54c0 <_vfprintf_r+0x4e0>
    59cc:	82 00 40 0d 	add  %g1, %o5, %g1
    59d0:	92 07 bf e0 	add  %fp, -32, %o1
    59d4:	7f ff fd 34 	call  4ea4 <__sprint>
    59d8:	90 10 00 19 	mov  %i1, %o0
    59dc:	80 a2 20 00 	cmp  %o0, 0
    59e0:	12 bf fe f9 	bne  55c4 <_vfprintf_r+0x5e4>
    59e4:	a4 10 00 18 	mov  %i0, %l2
    59e8:	10 bf ff f3 	b  59b4 <_vfprintf_r+0x9d4>
    59ec:	c2 07 be 10 	ld  [ %fp + -496 ], %g1
    59f0:	92 07 bf e0 	add  %fp, -32, %o1
    59f4:	7f ff fd 2c 	call  4ea4 <__sprint>
    59f8:	90 10 00 19 	mov  %i1, %o0
    59fc:	80 a2 20 00 	cmp  %o0, 0
    5a00:	12 bf fe f1 	bne  55c4 <_vfprintf_r+0x5e4>
    5a04:	d2 07 be 10 	ld  [ %fp + -496 ], %o1
    5a08:	10 bf ff db 	b  5974 <_vfprintf_r+0x994>
    5a0c:	a4 10 00 18 	mov  %i0, %l2
    5a10:	a0 10 20 01 	mov  1, %l0
    5a14:	e0 24 a0 04 	st  %l0, [ %l2 + 4 ]
    5a18:	c2 07 bf e8 	ld  [ %fp + -24 ], %g1
    5a1c:	da 07 bf e4 	ld  [ %fp + -28 ], %o5
    5a20:	82 00 60 01 	inc  %g1
    5a24:	9a 03 60 01 	inc  %o5
    5a28:	c2 27 bf e8 	st  %g1, [ %fp + -24 ]
    5a2c:	80 a3 60 07 	cmp  %o5, 7
    5a30:	03 00 00 39 	sethi  %hi(0xe400), %g1
    5a34:	da 27 bf e4 	st  %o5, [ %fp + -28 ]
    5a38:	82 10 63 d0 	or  %g1, 0x3d0, %g1
    5a3c:	c2 24 80 00 	st  %g1, [ %l2 ]
    5a40:	14 80 00 5e 	bg  5bb8 <_vfprintf_r+0xbd8>
    5a44:	a4 04 a0 08 	add  %l2, 8, %l2
    5a48:	c2 07 be 10 	ld  [ %fp + -496 ], %g1
