
dijkstra.sparc.x: formato do arquivo elf32-sparc

Disassembly of section .text:

00000000 <_start>:
       0:	40 00 00 40 	call  100 <main>
       4:	01 00 00 00 	nop 
       8:	40 00 31 c8 	call  c728 <_exit>
       c:	01 00 00 00 	nop 
	...

00000100 <main>:
     100:	9d e3 bf 98 	save  %sp, -104, %sp
     104:	f0 27 a0 44 	st  %i0, [ %fp + 0x44 ]
     108:	f2 27 a0 48 	st  %i1, [ %fp + 0x48 ]
     10c:	03 00 00 3b 	sethi  %hi(0xec00), %g1
     110:	82 10 61 10 	or  %g1, 0x110, %g1	! ed10 <_data_start>
     114:	c2 00 40 00 	ld  [ %g1 ], %g1
     118:	c2 00 40 00 	ld  [ %g1 ], %g1
     11c:	80 a0 60 00 	cmp  %g1, 0
     120:	12 bf ff fb 	bne  10c <main+0xc>
     124:	01 00 00 00 	nop 
     128:	03 00 00 4a 	sethi  %hi(0x12800), %g1
     12c:	98 10 62 2c 	or  %g1, 0x22c, %o4	! 12a2c <procCounter>
     130:	c2 03 00 00 	ld  [ %o4 ], %g1
     134:	9a 10 00 01 	mov  %g1, %o5
     138:	82 00 60 01 	inc  %g1
     13c:	c2 23 00 00 	st  %g1, [ %o4 ]
     140:	03 00 00 3b 	sethi  %hi(0xec00), %g1
     144:	82 10 61 10 	or  %g1, 0x110, %g1	! ed10 <_data_start>
     148:	c2 00 40 00 	ld  [ %g1 ], %g1
     14c:	c0 20 40 00 	clr  [ %g1 ]
     150:	80 a3 60 00 	cmp  %o5, 0
     154:	12 80 00 8d 	bne  388 <main+0x288>
     158:	01 00 00 00 	nop 
     15c:	03 00 00 4e 	sethi  %hi(0x13800), %g1
     160:	9a 10 61 50 	or  %g1, 0x150, %o5	! 13950 <pthread_n_workers>
     164:	82 10 20 01 	mov  1, %g1
     168:	c2 23 40 00 	st  %g1, [ %o5 ]
     16c:	03 00 00 4e 	sethi  %hi(0x13800), %g1
     170:	9a 10 61 50 	or  %g1, 0x150, %o5	! 13950 <pthread_n_workers>
     174:	03 00 00 38 	sethi  %hi(0xe000), %g1
     178:	90 10 63 30 	or  %g1, 0x330, %o0	! e330 <__CTOR_END__>
     17c:	d2 03 40 00 	ld  [ %o5 ], %o1
     180:	40 00 10 6a 	call  4328 <printf>
     184:	01 00 00 00 	nop 
     188:	03 00 00 4c 	sethi  %hi(0x13000), %g1
     18c:	9a 10 63 08 	or  %g1, 0x308, %o5	! 13308 <PROCESSORS>
     190:	03 00 00 4e 	sethi  %hi(0x13800), %g1
     194:	82 10 61 50 	or  %g1, 0x150, %g1	! 13950 <pthread_n_workers>
     198:	c2 00 40 00 	ld  [ %g1 ], %g1
     19c:	c2 23 40 00 	st  %g1, [ %o5 ]
     1a0:	03 00 00 4c 	sethi  %hi(0x13000), %g1
     1a4:	9a 10 63 18 	or  %g1, 0x318, %o5	! 13318 <m_argc>
     1a8:	82 10 20 02 	mov  2, %g1
     1ac:	c2 23 40 00 	st  %g1, [ %o5 ]
     1b0:	03 00 00 4c 	sethi  %hi(0x13000), %g1
     1b4:	9a 10 63 0c 	or  %g1, 0x30c, %o5	! 1330c <m_argv>
     1b8:	03 00 00 38 	sethi  %hi(0xe000), %g1
     1bc:	82 10 63 48 	or  %g1, 0x348, %g1	! e348 <__CTOR_END__+0x18>
     1c0:	c2 23 60 04 	st  %g1, [ %o5 + 4 ]
     1c4:	03 00 00 38 	sethi  %hi(0xe000), %g1
     1c8:	90 10 63 70 	or  %g1, 0x370, %o0	! e370 <__CTOR_END__+0x40>
     1cc:	03 00 00 38 	sethi  %hi(0xe000), %g1
     1d0:	92 10 63 78 	or  %g1, 0x378, %o1	! e378 <__CTOR_END__+0x48>
     1d4:	40 00 0b 7d 	call  2fc8 <fopen>
     1d8:	01 00 00 00 	nop 
     1dc:	9a 10 00 08 	mov  %o0, %o5
     1e0:	03 00 00 4b 	sethi  %hi(0x12c00), %g1
     1e4:	82 10 62 3c 	or  %g1, 0x23c, %g1	! 12e3c <fileout>
     1e8:	da 20 40 00 	st  %o5, [ %g1 ]
     1ec:	03 00 00 4b 	sethi  %hi(0x12c00), %g1
     1f0:	82 10 62 3c 	or  %g1, 0x23c, %g1	! 12e3c <fileout>
     1f4:	c2 00 40 00 	ld  [ %g1 ], %g1
     1f8:	80 a0 60 00 	cmp  %g1, 0
     1fc:	12 80 00 09 	bne  220 <main+0x120>
     200:	01 00 00 00 	nop 
     204:	03 00 00 38 	sethi  %hi(0xe000), %g1
     208:	90 10 63 80 	or  %g1, 0x380, %o0	! e380 <__CTOR_END__+0x50>
     20c:	40 00 10 47 	call  4328 <printf>
     210:	01 00 00 00 	nop 
     214:	90 10 20 01 	mov  1, %o0	! 1 <__DYNAMIC+0x1>
     218:	40 00 09 f8 	call  29f8 <exit>
     21c:	01 00 00 00 	nop 
     220:	40 00 06 51 	call  1b64 <pthread_init>
     224:	01 00 00 00 	nop 
     228:	03 00 00 4d 	sethi  %hi(0x13400), %g1
     22c:	90 10 62 40 	or  %g1, 0x240, %o0	! 13640 <mutex_print>
     230:	92 10 20 00 	clr  %o1
     234:	40 00 05 e1 	call  19b8 <pthread_mutex_init>
     238:	01 00 00 00 	nop 
     23c:	03 00 00 4d 	sethi  %hi(0x13400), %g1
     240:	90 10 62 40 	or  %g1, 0x240, %o0	! 13640 <mutex_print>
     244:	40 00 05 ef 	call  1a00 <pthread_mutex_lock>
     248:	01 00 00 00 	nop 
     24c:	03 00 00 38 	sethi  %hi(0xe000), %g1
     250:	90 10 63 90 	or  %g1, 0x390, %o0	! e390 <__CTOR_END__+0x60>
     254:	40 00 10 35 	call  4328 <printf>
     258:	01 00 00 00 	nop 
     25c:	03 00 00 38 	sethi  %hi(0xe000), %g1
     260:	90 10 63 90 	or  %g1, 0x390, %o0	! e390 <__CTOR_END__+0x60>
     264:	40 00 10 31 	call  4328 <printf>
     268:	01 00 00 00 	nop 
     26c:	03 00 00 38 	sethi  %hi(0xe000), %g1
     270:	90 10 63 98 	or  %g1, 0x398, %o0	! e398 <__CTOR_END__+0x68>
     274:	40 00 10 2d 	call  4328 <printf>
     278:	01 00 00 00 	nop 
     27c:	03 00 00 38 	sethi  %hi(0xe000), %g1
     280:	90 10 63 e0 	or  %g1, 0x3e0, %o0	! e3e0 <__CTOR_END__+0xb0>
     284:	40 00 10 29 	call  4328 <printf>
     288:	01 00 00 00 	nop 
     28c:	03 00 00 39 	sethi  %hi(0xe400), %g1
     290:	90 10 60 28 	or  %g1, 0x28, %o0	! e428 <__CTOR_END__+0xf8>
     294:	40 00 10 25 	call  4328 <printf>
     298:	01 00 00 00 	nop 
     29c:	03 00 00 39 	sethi  %hi(0xe400), %g1
     2a0:	90 10 60 70 	or  %g1, 0x70, %o0	! e470 <__CTOR_END__+0x140>
     2a4:	40 00 10 21 	call  4328 <printf>
     2a8:	01 00 00 00 	nop 
     2ac:	03 00 00 39 	sethi  %hi(0xe400), %g1
     2b0:	90 10 60 b8 	or  %g1, 0xb8, %o0	! e4b8 <__CTOR_END__+0x188>
     2b4:	40 00 10 1d 	call  4328 <printf>
     2b8:	01 00 00 00 	nop 
     2bc:	03 00 00 38 	sethi  %hi(0xe000), %g1
     2c0:	90 10 63 98 	or  %g1, 0x398, %o0	! e398 <__CTOR_END__+0x68>
     2c4:	40 00 10 19 	call  4328 <printf>
     2c8:	01 00 00 00 	nop 
     2cc:	03 00 00 38 	sethi  %hi(0xe000), %g1
     2d0:	90 10 63 90 	or  %g1, 0x390, %o0	! e390 <__CTOR_END__+0x60>
     2d4:	40 00 10 15 	call  4328 <printf>
     2d8:	01 00 00 00 	nop 
     2dc:	03 00 00 4d 	sethi  %hi(0x13400), %g1
     2e0:	90 10 62 40 	or  %g1, 0x240, %o0	! 13640 <mutex_print>
     2e4:	40 00 05 f4 	call  1ab4 <pthread_mutex_unlock>
     2e8:	01 00 00 00 	nop 
     2ec:	03 00 00 39 	sethi  %hi(0xe400), %g1
     2f0:	90 10 61 00 	or  %g1, 0x100, %o0	! e500 <__CTOR_END__+0x1d0>
     2f4:	40 00 10 0d 	call  4328 <printf>
     2f8:	01 00 00 00 	nop 
     2fc:	03 00 00 3b 	sethi  %hi(0xec00), %g1
     300:	82 10 61 10 	or  %g1, 0x110, %g1	! ed10 <_data_start>
     304:	c2 00 40 00 	ld  [ %g1 ], %g1
     308:	c2 00 40 00 	ld  [ %g1 ], %g1
     30c:	80 a0 60 00 	cmp  %g1, 0
     310:	12 bf ff fb 	bne  2fc <main+0x1fc>
     314:	01 00 00 00 	nop 
     318:	03 00 00 39 	sethi  %hi(0xe400), %g1
     31c:	90 10 61 18 	or  %g1, 0x118, %o0	! e518 <__CTOR_END__+0x1e8>
     320:	40 00 10 02 	call  4328 <printf>
     324:	01 00 00 00 	nop 
     328:	03 00 00 3d 	sethi  %hi(0xf400), %g1
     32c:	9a 10 60 d0 	or  %g1, 0xd0, %o5	! f4d0 <_edata>
     330:	82 10 20 01 	mov  1, %g1
     334:	c2 23 40 00 	st  %g1, [ %o5 ]
     338:	03 00 00 3b 	sethi  %hi(0xec00), %g1
     33c:	82 10 61 10 	or  %g1, 0x110, %g1	! ed10 <_data_start>
     340:	c2 00 40 00 	ld  [ %g1 ], %g1
     344:	c0 20 40 00 	clr  [ %g1 ]
     348:	03 00 00 4c 	sethi  %hi(0x13000), %g1
     34c:	82 10 63 18 	or  %g1, 0x318, %g1	! 13318 <m_argc>
     350:	d0 00 40 00 	ld  [ %g1 ], %o0
     354:	03 00 00 4c 	sethi  %hi(0x13000), %g1
     358:	92 10 63 0c 	or  %g1, 0x30c, %o1	! 1330c <m_argv>
     35c:	40 00 03 aa 	call  1204 <main0>
     360:	01 00 00 00 	nop 
     364:	40 00 05 19 	call  17c8 <pthread_my_exit>
     368:	01 00 00 00 	nop 
     36c:	03 00 00 4b 	sethi  %hi(0x12c00), %g1
     370:	82 10 62 3c 	or  %g1, 0x23c, %g1	! 12e3c <fileout>
     374:	d0 00 40 00 	ld  [ %g1 ], %o0
     378:	40 00 09 cf 	call  2ab4 <fclose>
     37c:	01 00 00 00 	nop 
     380:	10 80 00 1b 	b  3ec <main+0x2ec>
     384:	01 00 00 00 	nop 
     388:	03 00 00 3d 	sethi  %hi(0xf400), %g1
     38c:	82 10 60 d0 	or  %g1, 0xd0, %g1	! f4d0 <_edata>
     390:	c2 00 40 00 	ld  [ %g1 ], %g1
     394:	80 a0 60 00 	cmp  %g1, 0
     398:	02 bf ff fc 	be  388 <main+0x288>
     39c:	01 00 00 00 	nop 
     3a0:	01 00 00 00 	nop 
     3a4:	03 00 00 3d 	sethi  %hi(0xf400), %g1
     3a8:	82 10 60 e0 	or  %g1, 0xe0, %g1	! f4e0 <pthread_finished>
     3ac:	c2 00 40 00 	ld  [ %g1 ], %g1
     3b0:	80 a0 60 00 	cmp  %g1, 0
     3b4:	02 80 00 04 	be  3c4 <main+0x2c4>
     3b8:	01 00 00 00 	nop 
     3bc:	10 80 00 0c 	b  3ec <main+0x2ec>
     3c0:	01 00 00 00 	nop 
     3c4:	03 00 00 3d 	sethi  %hi(0xf400), %g1
     3c8:	82 10 60 d8 	or  %g1, 0xd8, %g1	! f4d8 <pthread_created>
     3cc:	c2 00 40 00 	ld  [ %g1 ], %g1
     3d0:	80 a0 60 01 	cmp  %g1, 1
     3d4:	12 bf ff f4 	bne  3a4 <main+0x2a4>
     3d8:	01 00 00 00 	nop 
     3dc:	40 00 06 02 	call  1be4 <pthread_executeThread>
     3e0:	01 00 00 00 	nop 
     3e4:	10 bf ff f0 	b  3a4 <main+0x2a4>
     3e8:	01 00 00 00 	nop 
     3ec:	90 10 20 00 	clr  %o0	! 0 <__DYNAMIC>
     3f0:	40 00 30 ce 	call  c728 <_exit>
     3f4:	01 00 00 00 	nop 
     3f8:	01 00 00 00 	nop 

000003fc <print_path>:
     3fc:	9d e3 bf 98 	save  %sp, -104, %sp
     400:	f0 27 a0 44 	st  %i0, [ %fp + 0x44 ]
     404:	f2 27 a0 48 	st  %i1, [ %fp + 0x48 ]
     408:	da 07 a0 48 	ld  [ %fp + 0x48 ], %o5
     40c:	82 10 00 0d 	mov  %o5, %g1
     410:	82 00 40 01 	add  %g1, %g1, %g1
     414:	82 00 40 0d 	add  %g1, %o5, %g1
     418:	9b 28 60 02 	sll  %g1, 2, %o5
     41c:	c2 07 a0 44 	ld  [ %fp + 0x44 ], %g1
     420:	82 03 40 01 	add  %o5, %g1, %g1
     424:	da 00 60 04 	ld  [ %g1 + 4 ], %o5
     428:	03 00 00 09 	sethi  %hi(0x2400), %g1
     42c:	82 10 63 0f 	or  %g1, 0x30f, %g1	! 270f <not_too_big+0x7>
     430:	80 a3 40 01 	cmp  %o5, %g1
     434:	02 80 00 0d 	be  468 <print_path+0x6c>
     438:	01 00 00 00 	nop 
     43c:	da 07 a0 48 	ld  [ %fp + 0x48 ], %o5
     440:	82 10 00 0d 	mov  %o5, %g1
     444:	82 00 40 01 	add  %g1, %g1, %g1
     448:	82 00 40 0d 	add  %g1, %o5, %g1
     44c:	9b 28 60 02 	sll  %g1, 2, %o5
     450:	c2 07 a0 44 	ld  [ %fp + 0x44 ], %g1
     454:	82 03 40 01 	add  %o5, %g1, %g1
     458:	d0 07 a0 44 	ld  [ %fp + 0x44 ], %o0
     45c:	d2 00 60 04 	ld  [ %g1 + 4 ], %o1
     460:	7f ff ff e7 	call  3fc <print_path>
     464:	01 00 00 00 	nop 
     468:	03 00 00 4b 	sethi  %hi(0x12c00), %g1
     46c:	9a 10 62 3c 	or  %g1, 0x23c, %o5	! 12e3c <fileout>
     470:	c2 07 a0 48 	ld  [ %fp + 0x48 ], %g1
     474:	98 00 60 01 	add  %g1, 1, %o4
     478:	d0 03 40 00 	ld  [ %o5 ], %o0
     47c:	03 00 00 39 	sethi  %hi(0xe400), %g1
     480:	92 10 61 30 	or  %g1, 0x130, %o1	! e530 <__CTOR_END__+0x200>
     484:	94 10 00 0c 	mov  %o4, %o2
     488:	40 00 0a da 	call  2ff0 <fprintf>
     48c:	01 00 00 00 	nop 
     490:	01 00 00 00 	nop 
     494:	81 c7 e0 08 	ret 
     498:	81 e8 00 00 	restore 

0000049c <printResult>:
     49c:	9d e3 bf 98 	save  %sp, -104, %sp
     4a0:	f0 27 a0 44 	st  %i0, [ %fp + 0x44 ]
     4a4:	f2 27 a0 48 	st  %i1, [ %fp + 0x48 ]
     4a8:	f4 27 a0 4c 	st  %i2, [ %fp + 0x4c ]
     4ac:	03 00 00 4d 	sethi  %hi(0x13400), %g1
     4b0:	90 10 62 40 	or  %g1, 0x240, %o0	! 13640 <mutex_print>
     4b4:	40 00 05 53 	call  1a00 <pthread_mutex_lock>
     4b8:	01 00 00 00 	nop 
     4bc:	03 00 00 4b 	sethi  %hi(0x12c00), %g1
     4c0:	96 10 62 3c 	or  %g1, 0x23c, %o3	! 12e3c <fileout>
     4c4:	c2 07 a0 48 	ld  [ %fp + 0x48 ], %g1
     4c8:	94 00 60 01 	add  %g1, 1, %o2
     4cc:	c2 07 a0 4c 	ld  [ %fp + 0x4c ], %g1
     4d0:	9e 00 60 01 	add  %g1, 1, %o7
     4d4:	03 00 00 3e 	sethi  %hi(0xf800), %g1
     4d8:	a0 10 61 2c 	or  %g1, 0x12c, %l0	! f92c <rgnNodes>
     4dc:	d8 07 a0 4c 	ld  [ %fp + 0x4c ], %o4
     4e0:	da 07 a0 44 	ld  [ %fp + 0x44 ], %o5
     4e4:	82 10 00 0d 	mov  %o5, %g1
     4e8:	82 00 40 01 	add  %g1, %g1, %g1
     4ec:	82 00 40 0d 	add  %g1, %o5, %g1
     4f0:	9b 28 60 06 	sll  %g1, 6, %o5
     4f4:	82 10 00 0c 	mov  %o4, %g1
     4f8:	82 00 40 01 	add  %g1, %g1, %g1
     4fc:	82 00 40 0c 	add  %g1, %o4, %g1
     500:	83 28 60 02 	sll  %g1, 2, %g1
     504:	9a 03 40 01 	add  %o5, %g1, %o5
     508:	d0 02 c0 00 	ld  [ %o3 ], %o0
     50c:	03 00 00 39 	sethi  %hi(0xe400), %g1
     510:	92 10 61 38 	or  %g1, 0x138, %o1	! e538 <__CTOR_END__+0x208>
     514:	96 10 00 0f 	mov  %o7, %o3
     518:	d8 03 40 10 	ld  [ %o5 + %l0 ], %o4
     51c:	40 00 0a b5 	call  2ff0 <fprintf>
     520:	01 00 00 00 	nop 
     524:	03 00 00 4b 	sethi  %hi(0x12c00), %g1
     528:	9a 10 62 3c 	or  %g1, 0x23c, %o5	! 12e3c <fileout>
     52c:	c2 07 a0 48 	ld  [ %fp + 0x48 ], %g1
     530:	98 00 60 01 	add  %g1, 1, %o4
     534:	d0 03 40 00 	ld  [ %o5 ], %o0
     538:	03 00 00 39 	sethi  %hi(0xe400), %g1
     53c:	92 10 61 68 	or  %g1, 0x168, %o1	! e568 <__CTOR_END__+0x238>
     540:	94 10 00 0c 	mov  %o4, %o2
     544:	40 00 0a ab 	call  2ff0 <fprintf>
     548:	01 00 00 00 	nop 
     54c:	da 07 a0 44 	ld  [ %fp + 0x44 ], %o5
     550:	82 10 00 0d 	mov  %o5, %g1
     554:	82 00 40 01 	add  %g1, %g1, %g1
     558:	82 00 40 0d 	add  %g1, %o5, %g1
     55c:	9b 28 60 06 	sll  %g1, 6, %o5
     560:	03 00 00 3e 	sethi  %hi(0xf800), %g1
     564:	82 10 61 2c 	or  %g1, 0x12c, %g1	! f92c <rgnNodes>
     568:	82 03 40 01 	add  %o5, %g1, %g1
     56c:	90 10 00 01 	mov  %g1, %o0
     570:	d2 07 a0 4c 	ld  [ %fp + 0x4c ], %o1
     574:	7f ff ff a2 	call  3fc <print_path>
     578:	01 00 00 00 	nop 
     57c:	03 00 00 4b 	sethi  %hi(0x12c00), %g1
     580:	82 10 62 3c 	or  %g1, 0x23c, %g1	! 12e3c <fileout>
     584:	d0 00 40 00 	ld  [ %g1 ], %o0
     588:	03 00 00 38 	sethi  %hi(0xe000), %g1
     58c:	92 10 63 90 	or  %g1, 0x390, %o1	! e390 <__CTOR_END__+0x60>
     590:	40 00 0a 98 	call  2ff0 <fprintf>
     594:	01 00 00 00 	nop 
     598:	03 00 00 4d 	sethi  %hi(0x13400), %g1
     59c:	90 10 62 40 	or  %g1, 0x240, %o0	! 13640 <mutex_print>
     5a0:	40 00 05 45 	call  1ab4 <pthread_mutex_unlock>
     5a4:	01 00 00 00 	nop 
     5a8:	01 00 00 00 	nop 
     5ac:	81 c7 e0 08 	ret 
     5b0:	81 e8 00 00 	restore 

000005b4 <d_enqueue>:
     5b4:	9d e3 bf 90 	save  %sp, -112, %sp
     5b8:	f0 27 a0 44 	st  %i0, [ %fp + 0x44 ]
     5bc:	f2 27 a0 48 	st  %i1, [ %fp + 0x48 ]
     5c0:	f4 27 a0 4c 	st  %i2, [ %fp + 0x4c ]
     5c4:	90 10 20 10 	mov  0x10, %o0
     5c8:	40 00 06 f8 	call  21a8 <acPthread_malloc>
     5cc:	01 00 00 00 	nop 
     5d0:	d0 27 bf f4 	st  %o0, [ %fp + -12 ]
     5d4:	03 00 00 3d 	sethi  %hi(0xf400), %g1
     5d8:	82 10 60 d4 	or  %g1, 0xd4, %g1	! f4d4 <qHead>
     5dc:	c2 00 40 00 	ld  [ %g1 ], %g1
     5e0:	c2 27 bf f0 	st  %g1, [ %fp + -16 ]
     5e4:	c2 07 bf f4 	ld  [ %fp + -12 ], %g1
     5e8:	80 a0 60 00 	cmp  %g1, 0
     5ec:	12 80 00 0d 	bne  620 <d_enqueue+0x6c>
     5f0:	01 00 00 00 	nop 
     5f4:	03 00 00 3c 	sethi  %hi(0xf000), %g1
     5f8:	82 10 60 98 	or  %g1, 0x98, %g1	! f098 <_impure_ptr>
     5fc:	c2 00 40 00 	ld  [ %g1 ], %g1
     600:	d0 00 60 0c 	ld  [ %g1 + 0xc ], %o0
     604:	03 00 00 39 	sethi  %hi(0xe400), %g1
     608:	92 10 61 78 	or  %g1, 0x178, %o1	! e578 <__CTOR_END__+0x248>
     60c:	40 00 0a 79 	call  2ff0 <fprintf>
     610:	01 00 00 00 	nop 
     614:	90 10 20 01 	mov  1, %o0	! 1 <__DYNAMIC+0x1>
     618:	40 00 08 f8 	call  29f8 <exit>
     61c:	01 00 00 00 	nop 
     620:	da 07 bf f4 	ld  [ %fp + -12 ], %o5
     624:	c2 07 a0 44 	ld  [ %fp + 0x44 ], %g1
     628:	c2 23 40 00 	st  %g1, [ %o5 ]
     62c:	da 07 bf f4 	ld  [ %fp + -12 ], %o5
     630:	c2 07 a0 48 	ld  [ %fp + 0x48 ], %g1
     634:	c2 23 60 04 	st  %g1, [ %o5 + 4 ]
     638:	da 07 bf f4 	ld  [ %fp + -12 ], %o5
     63c:	c2 07 a0 4c 	ld  [ %fp + 0x4c ], %g1
     640:	c2 23 60 08 	st  %g1, [ %o5 + 8 ]
     644:	c2 07 bf f4 	ld  [ %fp + -12 ], %g1
     648:	c0 20 60 0c 	clr  [ %g1 + 0xc ]
     64c:	c2 07 bf f0 	ld  [ %fp + -16 ], %g1
     650:	80 a0 60 00 	cmp  %g1, 0
     654:	12 80 00 08 	bne  674 <d_enqueue+0xc0>
     658:	01 00 00 00 	nop 
     65c:	03 00 00 3d 	sethi  %hi(0xf400), %g1
     660:	9a 10 60 d4 	or  %g1, 0xd4, %o5	! f4d4 <qHead>
     664:	c2 07 bf f4 	ld  [ %fp + -12 ], %g1
     668:	c2 23 40 00 	st  %g1, [ %o5 ]
     66c:	10 80 00 11 	b  6b0 <d_enqueue+0xfc>
     670:	01 00 00 00 	nop 
     674:	c2 07 bf f0 	ld  [ %fp + -16 ], %g1
     678:	c2 00 60 0c 	ld  [ %g1 + 0xc ], %g1
     67c:	80 a0 60 00 	cmp  %g1, 0
     680:	12 80 00 04 	bne  690 <d_enqueue+0xdc>
     684:	01 00 00 00 	nop 
     688:	10 80 00 07 	b  6a4 <d_enqueue+0xf0>
     68c:	01 00 00 00 	nop 
     690:	c2 07 bf f0 	ld  [ %fp + -16 ], %g1
     694:	c2 00 60 0c 	ld  [ %g1 + 0xc ], %g1
     698:	c2 27 bf f0 	st  %g1, [ %fp + -16 ]
     69c:	10 bf ff f6 	b  674 <d_enqueue+0xc0>
     6a0:	01 00 00 00 	nop 
     6a4:	da 07 bf f0 	ld  [ %fp + -16 ], %o5
     6a8:	c2 07 bf f4 	ld  [ %fp + -12 ], %g1
     6ac:	c2 23 60 0c 	st  %g1, [ %o5 + 0xc ]
     6b0:	81 c7 e0 08 	ret 
     6b4:	81 e8 00 00 	restore 

000006b8 <d_dequeue>:
     6b8:	9d e3 bf 90 	save  %sp, -112, %sp
     6bc:	f0 27 a0 44 	st  %i0, [ %fp + 0x44 ]
     6c0:	f2 27 a0 48 	st  %i1, [ %fp + 0x48 ]
     6c4:	f4 27 a0 4c 	st  %i2, [ %fp + 0x4c ]
     6c8:	03 00 00 3d 	sethi  %hi(0xf400), %g1
     6cc:	82 10 60 d4 	or  %g1, 0xd4, %g1	! f4d4 <qHead>
     6d0:	c2 00 40 00 	ld  [ %g1 ], %g1
     6d4:	c2 27 bf f4 	st  %g1, [ %fp + -12 ]
     6d8:	03 00 00 3d 	sethi  %hi(0xf400), %g1
     6dc:	82 10 60 d4 	or  %g1, 0xd4, %g1	! f4d4 <qHead>
     6e0:	c2 00 40 00 	ld  [ %g1 ], %g1
     6e4:	80 a0 60 00 	cmp  %g1, 0
     6e8:	02 80 00 1e 	be  760 <d_dequeue+0xa8>
     6ec:	01 00 00 00 	nop 
     6f0:	da 07 a0 44 	ld  [ %fp + 0x44 ], %o5
     6f4:	03 00 00 3d 	sethi  %hi(0xf400), %g1
     6f8:	82 10 60 d4 	or  %g1, 0xd4, %g1	! f4d4 <qHead>
     6fc:	c2 00 40 00 	ld  [ %g1 ], %g1
     700:	c2 00 40 00 	ld  [ %g1 ], %g1
     704:	c2 23 40 00 	st  %g1, [ %o5 ]
     708:	da 07 a0 48 	ld  [ %fp + 0x48 ], %o5
     70c:	03 00 00 3d 	sethi  %hi(0xf400), %g1
     710:	82 10 60 d4 	or  %g1, 0xd4, %g1	! f4d4 <qHead>
     714:	c2 00 40 00 	ld  [ %g1 ], %g1
     718:	c2 00 60 04 	ld  [ %g1 + 4 ], %g1
     71c:	c2 23 40 00 	st  %g1, [ %o5 ]
     720:	da 07 a0 4c 	ld  [ %fp + 0x4c ], %o5
     724:	03 00 00 3d 	sethi  %hi(0xf400), %g1
     728:	82 10 60 d4 	or  %g1, 0xd4, %g1	! f4d4 <qHead>
     72c:	c2 00 40 00 	ld  [ %g1 ], %g1
     730:	c2 00 60 08 	ld  [ %g1 + 8 ], %g1
     734:	c2 23 40 00 	st  %g1, [ %o5 ]
     738:	03 00 00 3d 	sethi  %hi(0xf400), %g1
     73c:	9a 10 60 d4 	or  %g1, 0xd4, %o5	! f4d4 <qHead>
     740:	03 00 00 3d 	sethi  %hi(0xf400), %g1
     744:	82 10 60 d4 	or  %g1, 0xd4, %g1	! f4d4 <qHead>
     748:	c2 00 40 00 	ld  [ %g1 ], %g1
     74c:	c2 00 60 0c 	ld  [ %g1 + 0xc ], %g1
     750:	c2 23 40 00 	st  %g1, [ %o5 ]
     754:	d0 07 bf f4 	ld  [ %fp + -12 ], %o0
     758:	40 00 06 d0 	call  2298 <acPthread_free>
     75c:	01 00 00 00 	nop 
     760:	01 00 00 00 	nop 
     764:	81 c7 e0 08 	ret 
     768:	81 e8 00 00 	restore 

0000076c <qcount>:
     76c:	9d e3 bf 98 	save  %sp, -104, %sp
     770:	f0 27 a0 44 	st  %i0, [ %fp + 0x44 ]
     774:	03 00 00 4c 	sethi  %hi(0x13000), %g1
     778:	ba 10 62 04 	or  %g1, 0x204, %i5	! 13204 <g_qCount>
     77c:	c2 07 a0 44 	ld  [ %fp + 0x44 ], %g1
     780:	83 28 60 02 	sll  %g1, 2, %g1
     784:	c2 07 40 01 	ld  [ %i5 + %g1 ], %g1
     788:	b0 10 00 01 	mov  %g1, %i0
     78c:	81 c7 e0 08 	ret 
     790:	81 e8 00 00 	restore 

00000794 <startThreads>:
     794:	9d e3 bf 78 	save  %sp, -136, %sp
     798:	c0 27 bf f4 	clr  [ %fp + -12 ]
     79c:	03 00 00 4c 	sethi  %hi(0x13000), %g1
     7a0:	82 10 63 08 	or  %g1, 0x308, %g1	! 13308 <PROCESSORS>
     7a4:	da 07 bf f4 	ld  [ %fp + -12 ], %o5
     7a8:	c2 00 40 00 	ld  [ %g1 ], %g1
     7ac:	80 a3 40 01 	cmp  %o5, %g1
     7b0:	06 80 00 04 	bl  7c0 <startThreads+0x2c>
     7b4:	01 00 00 00 	nop 
     7b8:	10 80 00 29 	b  85c <startThreads+0xc8>
     7bc:	01 00 00 00 	nop 
     7c0:	90 10 20 04 	mov  4, %o0	! 4 <__DYNAMIC+0x4>
     7c4:	40 00 06 79 	call  21a8 <acPthread_malloc>
     7c8:	01 00 00 00 	nop 
     7cc:	d0 27 bf e4 	st  %o0, [ %fp + -28 ]
     7d0:	da 07 bf e4 	ld  [ %fp + -28 ], %o5
     7d4:	c2 07 bf f4 	ld  [ %fp + -12 ], %g1
     7d8:	c2 23 40 00 	st  %g1, [ %o5 ]
     7dc:	82 07 bf e8 	add  %fp, -24, %g1
     7e0:	90 10 00 01 	mov  %g1, %o0
     7e4:	92 10 20 00 	clr  %o1
     7e8:	03 00 00 02 	sethi  %hi(0x800), %g1
     7ec:	94 10 60 b4 	or  %g1, 0xb4, %o2	! 8b4 <startWorking>
     7f0:	d6 07 bf e4 	ld  [ %fp + -28 ], %o3
     7f4:	40 00 05 b5 	call  1ec8 <pthread_create>
     7f8:	01 00 00 00 	nop 
     7fc:	82 10 00 08 	mov  %o0, %g1
     800:	c2 27 bf f0 	st  %g1, [ %fp + -16 ]
     804:	c2 07 bf f0 	ld  [ %fp + -16 ], %g1
     808:	80 a0 60 00 	cmp  %g1, 0
     80c:	02 80 00 09 	be  830 <startThreads+0x9c>
     810:	01 00 00 00 	nop 
     814:	03 00 00 39 	sethi  %hi(0xe400), %g1
     818:	90 10 61 88 	or  %g1, 0x188, %o0	! e588 <__CTOR_END__+0x258>
     81c:	40 00 0e c3 	call  4328 <printf>
     820:	01 00 00 00 	nop 
     824:	90 10 20 00 	clr  %o0	! 0 <__DYNAMIC>
     828:	40 00 08 74 	call  29f8 <exit>
     82c:	01 00 00 00 	nop 
     830:	03 00 00 3d 	sethi  %hi(0xf400), %g1
     834:	98 10 62 2c 	or  %g1, 0x22c, %o4	! f62c <threadPool>
     838:	c2 07 bf f4 	ld  [ %fp + -12 ], %g1
     83c:	9b 28 60 02 	sll  %g1, 2, %o5
     840:	c2 07 bf f4 	ld  [ %fp + -12 ], %g1
     844:	c2 23 00 0d 	st  %g1, [ %o4 + %o5 ]
     848:	c2 07 bf f4 	ld  [ %fp + -12 ], %g1
     84c:	82 00 60 01 	inc  %g1
     850:	c2 27 bf f4 	st  %g1, [ %fp + -12 ]
     854:	10 bf ff d2 	b  79c <startThreads+0x8>
     858:	01 00 00 00 	nop 
     85c:	c0 27 bf f4 	clr  [ %fp + -12 ]
     860:	03 00 00 4c 	sethi  %hi(0x13000), %g1
     864:	82 10 63 08 	or  %g1, 0x308, %g1	! 13308 <PROCESSORS>
     868:	da 07 bf f4 	ld  [ %fp + -12 ], %o5
     86c:	c2 00 40 00 	ld  [ %g1 ], %g1
     870:	80 a3 40 01 	cmp  %o5, %g1
     874:	06 80 00 04 	bl  884 <startThreads+0xf0>
     878:	01 00 00 00 	nop 
     87c:	10 80 00 0c 	b  8ac <startThreads+0x118>
     880:	01 00 00 00 	nop 
     884:	82 07 bf d8 	add  %fp, -40, %g1
     888:	90 10 00 01 	mov  %g1, %o0
     88c:	92 10 20 00 	clr  %o1
     890:	40 00 04 46 	call  19a8 <pthread_join>
     894:	01 00 00 00 	nop 
     898:	c2 07 bf f4 	ld  [ %fp + -12 ], %g1
     89c:	82 00 60 01 	inc  %g1
     8a0:	c2 27 bf f4 	st  %g1, [ %fp + -12 ]
     8a4:	10 bf ff ef 	b  860 <startThreads+0xcc>
     8a8:	01 00 00 00 	nop 
     8ac:	81 c7 e0 08 	ret 
     8b0:	81 e8 00 00 	restore 

000008b4 <startWorking>:
     8b4:	9d e3 bf 88 	save  %sp, -120, %sp
     8b8:	f0 27 a0 44 	st  %i0, [ %fp + 0x44 ]
     8bc:	c2 07 a0 44 	ld  [ %fp + 0x44 ], %g1
     8c0:	c2 27 bf ec 	st  %g1, [ %fp + -20 ]
     8c4:	c2 07 bf ec 	ld  [ %fp + -20 ], %g1
     8c8:	c2 00 40 00 	ld  [ %g1 ], %g1
     8cc:	c2 27 bf e8 	st  %g1, [ %fp + -24 ]
     8d0:	d0 07 bf e8 	ld  [ %fp + -24 ], %o0
     8d4:	40 00 00 06 	call  8ec <dijkstra>
     8d8:	01 00 00 00 	nop 
     8dc:	82 10 20 00 	clr  %g1	! 0 <__DYNAMIC>
     8e0:	b0 10 00 01 	mov  %g1, %i0
     8e4:	81 c7 e0 08 	ret 
     8e8:	81 e8 00 00 	restore 

000008ec <dijkstra>:
     8ec:	9d e3 bf 78 	save  %sp, -136, %sp
     8f0:	f0 27 a0 44 	st  %i0, [ %fp + 0x44 ]
     8f4:	82 10 3f ff 	mov  -1, %g1
     8f8:	c2 27 bf dc 	st  %g1, [ %fp + -36 ]
     8fc:	03 00 00 3d 	sethi  %hi(0xf400), %g1
     900:	9a 10 63 2c 	or  %g1, 0x32c, %o5	! f72c <tasks>
     904:	c2 07 a0 44 	ld  [ %fp + 0x44 ], %g1
     908:	83 28 60 03 	sll  %g1, 3, %g1
     90c:	c2 03 40 01 	ld  [ %o5 + %g1 ], %g1
     910:	c2 27 bf f4 	st  %g1, [ %fp + -12 ]
     914:	03 00 00 3d 	sethi  %hi(0xf400), %g1
     918:	9a 10 63 2c 	or  %g1, 0x32c, %o5	! f72c <tasks>
     91c:	c2 07 a0 44 	ld  [ %fp + 0x44 ], %g1
     920:	83 28 60 03 	sll  %g1, 3, %g1
     924:	82 00 40 0d 	add  %g1, %o5, %g1
     928:	da 07 bf f4 	ld  [ %fp + -12 ], %o5
     92c:	c2 00 60 04 	ld  [ %g1 + 4 ], %g1
     930:	80 a3 40 01 	cmp  %o5, %g1
     934:	06 80 00 04 	bl  944 <dijkstra+0x58>
     938:	01 00 00 00 	nop 
     93c:	10 80 01 d1 	b  1080 <dijkstra+0x794>
     940:	01 00 00 00 	nop 
     944:	03 00 00 4b 	sethi  %hi(0x12c00), %g1
     948:	9a 10 62 40 	or  %g1, 0x240, %o5	! 12e40 <nodes_tasks>
     94c:	c2 07 bf f4 	ld  [ %fp + -12 ], %g1
     950:	83 28 60 03 	sll  %g1, 3, %g1
     954:	c2 03 40 01 	ld  [ %o5 + %g1 ], %g1
     958:	c2 27 bf e4 	st  %g1, [ %fp + -28 ]
     95c:	03 00 00 4b 	sethi  %hi(0x12c00), %g1
     960:	9a 10 62 40 	or  %g1, 0x240, %o5	! 12e40 <nodes_tasks>
     964:	c2 07 bf f4 	ld  [ %fp + -12 ], %g1
     968:	83 28 60 03 	sll  %g1, 3, %g1
     96c:	82 00 40 0d 	add  %g1, %o5, %g1
     970:	c2 00 60 04 	ld  [ %g1 + 4 ], %g1
     974:	c2 27 bf e0 	st  %g1, [ %fp + -32 ]
     978:	82 10 3f ff 	mov  -1, %g1
     97c:	c2 27 bf dc 	st  %g1, [ %fp + -36 ]
     980:	03 00 00 4c 	sethi  %hi(0x13000), %g1
     984:	98 10 63 20 	or  %g1, 0x320, %o4	! 13320 <uVertex>
     988:	da 07 a0 44 	ld  [ %fp + 0x44 ], %o5
     98c:	82 10 00 0d 	mov  %o5, %g1
     990:	82 00 40 01 	add  %g1, %g1, %g1
     994:	82 00 40 0d 	add  %g1, %o5, %g1
     998:	83 28 60 02 	sll  %g1, 2, %g1
     99c:	9a 00 40 0c 	add  %g1, %o4, %o5
     9a0:	03 00 00 09 	sethi  %hi(0x2400), %g1
     9a4:	82 10 63 0f 	or  %g1, 0x30f, %g1	! 270f <not_too_big+0x7>
     9a8:	c2 23 60 08 	st  %g1, [ %o5 + 8 ]
     9ac:	03 00 00 4c 	sethi  %hi(0x13000), %g1
     9b0:	98 10 63 20 	or  %g1, 0x320, %o4	! 13320 <uVertex>
     9b4:	da 07 a0 44 	ld  [ %fp + 0x44 ], %o5
     9b8:	82 10 00 0d 	mov  %o5, %g1
     9bc:	82 00 40 01 	add  %g1, %g1, %g1
     9c0:	82 00 40 0d 	add  %g1, %o5, %g1
     9c4:	9b 28 60 02 	sll  %g1, 2, %o5
     9c8:	c2 07 a0 44 	ld  [ %fp + 0x44 ], %g1
     9cc:	c2 23 00 0d 	st  %g1, [ %o4 + %o5 ]
     9d0:	03 00 00 4c 	sethi  %hi(0x13000), %g1
     9d4:	98 10 63 20 	or  %g1, 0x320, %o4	! 13320 <uVertex>
     9d8:	da 07 a0 44 	ld  [ %fp + 0x44 ], %o5
     9dc:	82 10 00 0d 	mov  %o5, %g1
     9e0:	82 00 40 01 	add  %g1, %g1, %g1
     9e4:	82 00 40 0d 	add  %g1, %o5, %g1
     9e8:	83 28 60 02 	sll  %g1, 2, %g1
     9ec:	9a 00 40 0c 	add  %g1, %o4, %o5
     9f0:	03 00 00 09 	sethi  %hi(0x2400), %g1
     9f4:	82 10 63 0f 	or  %g1, 0x30f, %g1	! 270f <not_too_big+0x7>
     9f8:	c2 23 60 04 	st  %g1, [ %o5 + 4 ]
     9fc:	03 00 00 4c 	sethi  %hi(0x13000), %g1
     a00:	9a 10 62 04 	or  %g1, 0x204, %o5	! 13204 <g_qCount>
     a04:	c2 07 a0 44 	ld  [ %fp + 0x44 ], %g1
     a08:	83 28 60 02 	sll  %g1, 2, %g1
     a0c:	c0 23 40 01 	clr  [ %o5 + %g1 ]
     a10:	82 10 3f ff 	mov  -1, %g1
     a14:	c2 27 bf dc 	st  %g1, [ %fp + -36 ]
     a18:	c0 27 bf ec 	clr  [ %fp + -20 ]
     a1c:	c2 07 bf ec 	ld  [ %fp + -20 ], %g1
     a20:	80 a0 60 0f 	cmp  %g1, 0xf
     a24:	04 80 00 04 	ble  a34 <dijkstra+0x148>
     a28:	01 00 00 00 	nop 
     a2c:	10 80 00 3d 	b  b20 <dijkstra+0x234>
     a30:	01 00 00 00 	nop 
     a34:	03 00 00 3e 	sethi  %hi(0xf800), %g1
     a38:	94 10 61 2c 	or  %g1, 0x12c, %o2	! f92c <rgnNodes>
     a3c:	d8 07 bf ec 	ld  [ %fp + -20 ], %o4
     a40:	da 07 a0 44 	ld  [ %fp + 0x44 ], %o5
     a44:	82 10 00 0d 	mov  %o5, %g1
     a48:	82 00 40 01 	add  %g1, %g1, %g1
     a4c:	82 00 40 0d 	add  %g1, %o5, %g1
     a50:	9b 28 60 06 	sll  %g1, 6, %o5
     a54:	82 10 00 0c 	mov  %o4, %g1
     a58:	82 00 40 01 	add  %g1, %g1, %g1
     a5c:	82 00 40 0c 	add  %g1, %o4, %g1
     a60:	83 28 60 02 	sll  %g1, 2, %g1
     a64:	96 03 40 01 	add  %o5, %g1, %o3
     a68:	03 00 00 4a 	sethi  %hi(0x12800), %g1
     a6c:	98 10 62 30 	or  %g1, 0x230, %o4	! 12a30 <AdjMatrix>
     a70:	c2 07 bf e4 	ld  [ %fp + -28 ], %g1
     a74:	9b 28 60 04 	sll  %g1, 4, %o5
     a78:	c2 07 bf ec 	ld  [ %fp + -20 ], %g1
     a7c:	82 03 40 01 	add  %o5, %g1, %g1
     a80:	83 28 60 02 	sll  %g1, 2, %g1
     a84:	c2 03 00 01 	ld  [ %o4 + %g1 ], %g1
     a88:	c2 22 c0 0a 	st  %g1, [ %o3 + %o2 ]
     a8c:	03 00 00 3e 	sethi  %hi(0xf800), %g1
     a90:	96 10 61 2c 	or  %g1, 0x12c, %o3	! f92c <rgnNodes>
     a94:	d8 07 bf ec 	ld  [ %fp + -20 ], %o4
     a98:	da 07 a0 44 	ld  [ %fp + 0x44 ], %o5
     a9c:	82 10 00 0d 	mov  %o5, %g1
     aa0:	82 00 40 01 	add  %g1, %g1, %g1
     aa4:	82 00 40 0d 	add  %g1, %o5, %g1
     aa8:	9b 28 60 06 	sll  %g1, 6, %o5
     aac:	82 10 00 0c 	mov  %o4, %g1
     ab0:	82 00 40 01 	add  %g1, %g1, %g1
     ab4:	82 00 40 0c 	add  %g1, %o4, %g1
     ab8:	83 28 60 02 	sll  %g1, 2, %g1
     abc:	82 03 40 01 	add  %o5, %g1, %g1
     ac0:	9a 00 40 0b 	add  %g1, %o3, %o5
     ac4:	03 00 00 09 	sethi  %hi(0x2400), %g1
     ac8:	82 10 63 0f 	or  %g1, 0x30f, %g1	! 270f <not_too_big+0x7>
     acc:	c2 23 60 04 	st  %g1, [ %o5 + 4 ]
     ad0:	03 00 00 3e 	sethi  %hi(0xf800), %g1
     ad4:	96 10 61 2c 	or  %g1, 0x12c, %o3	! f92c <rgnNodes>
     ad8:	d8 07 bf ec 	ld  [ %fp + -20 ], %o4
     adc:	da 07 a0 44 	ld  [ %fp + 0x44 ], %o5
     ae0:	82 10 00 0d 	mov  %o5, %g1
     ae4:	82 00 40 01 	add  %g1, %g1, %g1
     ae8:	82 00 40 0d 	add  %g1, %o5, %g1
     aec:	9b 28 60 06 	sll  %g1, 6, %o5
     af0:	82 10 00 0c 	mov  %o4, %g1
     af4:	82 00 40 01 	add  %g1, %g1, %g1
     af8:	82 00 40 0c 	add  %g1, %o4, %g1
     afc:	83 28 60 02 	sll  %g1, 2, %g1
     b00:	82 03 40 01 	add  %o5, %g1, %g1
     b04:	82 00 40 0b 	add  %g1, %o3, %g1
     b08:	c0 20 60 08 	clr  [ %g1 + 8 ]
     b0c:	c2 07 bf ec 	ld  [ %fp + -20 ], %g1
     b10:	82 00 60 01 	inc  %g1
     b14:	c2 27 bf ec 	st  %g1, [ %fp + -20 ]
     b18:	10 bf ff c1 	b  a1c <dijkstra+0x130>
     b1c:	01 00 00 00 	nop 
     b20:	01 00 00 00 	nop 
     b24:	d0 07 a0 44 	ld  [ %fp + 0x44 ], %o0
     b28:	7f ff ff 11 	call  76c <qcount>
     b2c:	01 00 00 00 	nop 
     b30:	82 10 00 08 	mov  %o0, %g1
     b34:	80 a0 60 0e 	cmp  %g1, 0xe
     b38:	04 80 00 04 	ble  b48 <dijkstra+0x25c>
     b3c:	01 00 00 00 	nop 
     b40:	10 80 01 46 	b  1058 <dijkstra+0x76c>
     b44:	01 00 00 00 	nop 
     b48:	c0 27 bf f0 	clr  [ %fp + -16 ]
     b4c:	c2 07 bf f0 	ld  [ %fp + -16 ], %g1
     b50:	80 a0 60 0f 	cmp  %g1, 0xf
     b54:	04 80 00 04 	ble  b64 <dijkstra+0x278>
     b58:	01 00 00 00 	nop 
     b5c:	10 80 00 65 	b  cf0 <dijkstra+0x404>
     b60:	01 00 00 00 	nop 
     b64:	03 00 00 3e 	sethi  %hi(0xf800), %g1
     b68:	96 10 61 2c 	or  %g1, 0x12c, %o3	! f92c <rgnNodes>
     b6c:	d8 07 bf f0 	ld  [ %fp + -16 ], %o4
     b70:	da 07 a0 44 	ld  [ %fp + 0x44 ], %o5
     b74:	82 10 00 0d 	mov  %o5, %g1
     b78:	82 00 40 01 	add  %g1, %g1, %g1
     b7c:	82 00 40 0d 	add  %g1, %o5, %g1
     b80:	9b 28 60 06 	sll  %g1, 6, %o5
     b84:	82 10 00 0c 	mov  %o4, %g1
     b88:	82 00 40 01 	add  %g1, %g1, %g1
     b8c:	82 00 40 0c 	add  %g1, %o4, %g1
     b90:	83 28 60 02 	sll  %g1, 2, %g1
     b94:	82 03 40 01 	add  %o5, %g1, %g1
     b98:	82 00 40 0b 	add  %g1, %o3, %g1
     b9c:	c2 00 60 08 	ld  [ %g1 + 8 ], %g1
     ba0:	80 a0 60 00 	cmp  %g1, 0
     ba4:	12 80 00 4e 	bne  cdc <dijkstra+0x3f0>
     ba8:	01 00 00 00 	nop 
     bac:	03 00 00 3e 	sethi  %hi(0xf800), %g1
     bb0:	94 10 61 2c 	or  %g1, 0x12c, %o2	! f92c <rgnNodes>
     bb4:	d8 07 bf f0 	ld  [ %fp + -16 ], %o4
     bb8:	da 07 a0 44 	ld  [ %fp + 0x44 ], %o5
     bbc:	82 10 00 0d 	mov  %o5, %g1
     bc0:	82 00 40 01 	add  %g1, %g1, %g1
     bc4:	82 00 40 0d 	add  %g1, %o5, %g1
     bc8:	9b 28 60 06 	sll  %g1, 6, %o5
     bcc:	82 10 00 0c 	mov  %o4, %g1
     bd0:	82 00 40 01 	add  %g1, %g1, %g1
     bd4:	82 00 40 0c 	add  %g1, %o4, %g1
     bd8:	83 28 60 02 	sll  %g1, 2, %g1
     bdc:	96 03 40 01 	add  %o5, %g1, %o3
     be0:	03 00 00 4c 	sethi  %hi(0x13000), %g1
     be4:	98 10 63 20 	or  %g1, 0x320, %o4	! 13320 <uVertex>
     be8:	da 07 a0 44 	ld  [ %fp + 0x44 ], %o5
     bec:	82 10 00 0d 	mov  %o5, %g1
     bf0:	82 00 40 01 	add  %g1, %g1, %g1
     bf4:	82 00 40 0d 	add  %g1, %o5, %g1
     bf8:	83 28 60 02 	sll  %g1, 2, %g1
     bfc:	82 00 40 0c 	add  %g1, %o4, %g1
     c00:	da 02 c0 0a 	ld  [ %o3 + %o2 ], %o5
     c04:	c2 00 60 08 	ld  [ %g1 + 8 ], %g1
     c08:	80 a3 40 01 	cmp  %o5, %g1
     c0c:	16 80 00 34 	bge  cdc <dijkstra+0x3f0>
     c10:	01 00 00 00 	nop 
     c14:	03 00 00 3e 	sethi  %hi(0xf800), %g1
     c18:	96 10 61 2c 	or  %g1, 0x12c, %o3	! f92c <rgnNodes>
     c1c:	d8 07 bf f0 	ld  [ %fp + -16 ], %o4
     c20:	da 07 a0 44 	ld  [ %fp + 0x44 ], %o5
     c24:	82 10 00 0d 	mov  %o5, %g1
     c28:	82 00 40 01 	add  %g1, %g1, %g1
     c2c:	82 00 40 0d 	add  %g1, %o5, %g1
     c30:	9b 28 60 06 	sll  %g1, 6, %o5
     c34:	82 10 00 0c 	mov  %o4, %g1
     c38:	82 00 40 01 	add  %g1, %g1, %g1
     c3c:	82 00 40 0c 	add  %g1, %o4, %g1
     c40:	83 28 60 02 	sll  %g1, 2, %g1
     c44:	82 03 40 01 	add  %o5, %g1, %g1
     c48:	c2 00 40 0b 	ld  [ %g1 + %o3 ], %g1
     c4c:	80 a0 60 00 	cmp  %g1, 0
     c50:	02 80 00 23 	be  cdc <dijkstra+0x3f0>
     c54:	01 00 00 00 	nop 
     c58:	03 00 00 4c 	sethi  %hi(0x13000), %g1
     c5c:	98 10 63 20 	or  %g1, 0x320, %o4	! 13320 <uVertex>
     c60:	da 07 a0 44 	ld  [ %fp + 0x44 ], %o5
     c64:	82 10 00 0d 	mov  %o5, %g1
     c68:	82 00 40 01 	add  %g1, %g1, %g1
     c6c:	82 00 40 0d 	add  %g1, %o5, %g1
     c70:	83 28 60 02 	sll  %g1, 2, %g1
     c74:	96 00 40 0c 	add  %g1, %o4, %o3
     c78:	03 00 00 3e 	sethi  %hi(0xf800), %g1
     c7c:	94 10 61 2c 	or  %g1, 0x12c, %o2	! f92c <rgnNodes>
     c80:	d8 07 bf f0 	ld  [ %fp + -16 ], %o4
     c84:	da 07 a0 44 	ld  [ %fp + 0x44 ], %o5
     c88:	82 10 00 0d 	mov  %o5, %g1
     c8c:	82 00 40 01 	add  %g1, %g1, %g1
     c90:	82 00 40 0d 	add  %g1, %o5, %g1
     c94:	9b 28 60 06 	sll  %g1, 6, %o5
     c98:	82 10 00 0c 	mov  %o4, %g1
     c9c:	82 00 40 01 	add  %g1, %g1, %g1
     ca0:	82 00 40 0c 	add  %g1, %o4, %g1
     ca4:	83 28 60 02 	sll  %g1, 2, %g1
     ca8:	82 03 40 01 	add  %o5, %g1, %g1
     cac:	c2 00 40 0a 	ld  [ %g1 + %o2 ], %g1
     cb0:	c2 22 e0 08 	st  %g1, [ %o3 + 8 ]
     cb4:	03 00 00 4c 	sethi  %hi(0x13000), %g1
     cb8:	98 10 63 20 	or  %g1, 0x320, %o4	! 13320 <uVertex>
     cbc:	da 07 a0 44 	ld  [ %fp + 0x44 ], %o5
     cc0:	82 10 00 0d 	mov  %o5, %g1
     cc4:	82 00 40 01 	add  %g1, %g1, %g1
     cc8:	82 00 40 0d 	add  %g1, %o5, %g1
     ccc:	83 28 60 02 	sll  %g1, 2, %g1
     cd0:	9a 00 40 0c 	add  %g1, %o4, %o5
     cd4:	c2 07 bf f0 	ld  [ %fp + -16 ], %g1
     cd8:	c2 23 60 04 	st  %g1, [ %o5 + 4 ]
     cdc:	c2 07 bf f0 	ld  [ %fp + -16 ], %g1
     ce0:	82 00 60 01 	inc  %g1
     ce4:	c2 27 bf f0 	st  %g1, [ %fp + -16 ]
     ce8:	10 bf ff 99 	b  b4c <dijkstra+0x260>
     cec:	01 00 00 00 	nop 
     cf0:	03 00 00 4a 	sethi  %hi(0x12800), %g1
     cf4:	98 10 61 2c 	or  %g1, 0x12c, %o4	! 1292c <globalMiniCost>
     cf8:	c2 07 a0 44 	ld  [ %fp + 0x44 ], %g1
     cfc:	9b 28 60 02 	sll  %g1, 2, %o5
     d00:	03 00 00 09 	sethi  %hi(0x2400), %g1
     d04:	82 10 63 0f 	or  %g1, 0x30f, %g1	! 270f <not_too_big+0x7>
     d08:	c2 23 00 0d 	st  %g1, [ %o4 + %o5 ]
     d0c:	03 00 00 4a 	sethi  %hi(0x12800), %g1
     d10:	94 10 61 2c 	or  %g1, 0x12c, %o2	! 1292c <globalMiniCost>
     d14:	c2 07 a0 44 	ld  [ %fp + 0x44 ], %g1
     d18:	97 28 60 02 	sll  %g1, 2, %o3
     d1c:	03 00 00 4c 	sethi  %hi(0x13000), %g1
     d20:	98 10 63 20 	or  %g1, 0x320, %o4	! 13320 <uVertex>
     d24:	da 07 a0 44 	ld  [ %fp + 0x44 ], %o5
     d28:	82 10 00 0d 	mov  %o5, %g1
     d2c:	82 00 40 01 	add  %g1, %g1, %g1
     d30:	82 00 40 0d 	add  %g1, %o5, %g1
     d34:	83 28 60 02 	sll  %g1, 2, %g1
     d38:	82 00 40 0c 	add  %g1, %o4, %g1
     d3c:	da 02 80 0b 	ld  [ %o2 + %o3 ], %o5
     d40:	c2 00 60 08 	ld  [ %g1 + 8 ], %g1
     d44:	80 a3 40 01 	cmp  %o5, %g1
     d48:	04 80 00 25 	ble  ddc <dijkstra+0x4f0>
     d4c:	01 00 00 00 	nop 
     d50:	03 00 00 4a 	sethi  %hi(0x12800), %g1
     d54:	94 10 61 2c 	or  %g1, 0x12c, %o2	! 1292c <globalMiniCost>
     d58:	c2 07 a0 44 	ld  [ %fp + 0x44 ], %g1
     d5c:	97 28 60 02 	sll  %g1, 2, %o3
     d60:	03 00 00 4c 	sethi  %hi(0x13000), %g1
     d64:	98 10 63 20 	or  %g1, 0x320, %o4	! 13320 <uVertex>
     d68:	da 07 a0 44 	ld  [ %fp + 0x44 ], %o5
     d6c:	82 10 00 0d 	mov  %o5, %g1
     d70:	82 00 40 01 	add  %g1, %g1, %g1
     d74:	82 00 40 0d 	add  %g1, %o5, %g1
     d78:	83 28 60 02 	sll  %g1, 2, %g1
     d7c:	82 00 40 0c 	add  %g1, %o4, %g1
     d80:	c2 00 60 08 	ld  [ %g1 + 8 ], %g1
     d84:	c2 22 80 0b 	st  %g1, [ %o2 + %o3 ]
     d88:	03 00 00 4c 	sethi  %hi(0x13000), %g1
     d8c:	98 10 63 20 	or  %g1, 0x320, %o4	! 13320 <uVertex>
     d90:	da 07 a0 44 	ld  [ %fp + 0x44 ], %o5
     d94:	82 10 00 0d 	mov  %o5, %g1
     d98:	82 00 40 01 	add  %g1, %g1, %g1
     d9c:	82 00 40 0d 	add  %g1, %o5, %g1
     da0:	83 28 60 02 	sll  %g1, 2, %g1
     da4:	82 00 40 0c 	add  %g1, %o4, %g1
     da8:	c2 00 60 04 	ld  [ %g1 + 4 ], %g1
     dac:	c2 27 bf dc 	st  %g1, [ %fp + -36 ]
     db0:	03 00 00 4c 	sethi  %hi(0x13000), %g1
     db4:	96 10 62 04 	or  %g1, 0x204, %o3	! 13204 <g_qCount>
     db8:	c2 07 a0 44 	ld  [ %fp + 0x44 ], %g1
     dbc:	99 28 60 02 	sll  %g1, 2, %o4
     dc0:	03 00 00 4c 	sethi  %hi(0x13000), %g1
     dc4:	9a 10 62 04 	or  %g1, 0x204, %o5	! 13204 <g_qCount>
     dc8:	c2 07 a0 44 	ld  [ %fp + 0x44 ], %g1
     dcc:	83 28 60 02 	sll  %g1, 2, %g1
     dd0:	c2 03 40 01 	ld  [ %o5 + %g1 ], %g1
     dd4:	82 00 60 01 	inc  %g1
     dd8:	c2 22 c0 0c 	st  %g1, [ %o3 + %o4 ]
     ddc:	c0 27 bf ec 	clr  [ %fp + -20 ]
     de0:	c2 07 bf ec 	ld  [ %fp + -20 ], %g1
     de4:	80 a0 60 0f 	cmp  %g1, 0xf
     de8:	04 80 00 04 	ble  df8 <dijkstra+0x50c>
     dec:	01 00 00 00 	nop 
     df0:	10 80 00 8d 	b  1024 <dijkstra+0x738>
     df4:	01 00 00 00 	nop 
     df8:	da 07 bf ec 	ld  [ %fp + -20 ], %o5
     dfc:	c2 07 bf dc 	ld  [ %fp + -36 ], %g1
     e00:	80 a3 40 01 	cmp  %o5, %g1
     e04:	12 80 00 14 	bne  e54 <dijkstra+0x568>
     e08:	01 00 00 00 	nop 
     e0c:	03 00 00 3e 	sethi  %hi(0xf800), %g1
     e10:	96 10 61 2c 	or  %g1, 0x12c, %o3	! f92c <rgnNodes>
     e14:	d8 07 bf ec 	ld  [ %fp + -20 ], %o4
     e18:	da 07 a0 44 	ld  [ %fp + 0x44 ], %o5
     e1c:	82 10 00 0d 	mov  %o5, %g1
     e20:	82 00 40 01 	add  %g1, %g1, %g1
     e24:	82 00 40 0d 	add  %g1, %o5, %g1
     e28:	9b 28 60 06 	sll  %g1, 6, %o5
     e2c:	82 10 00 0c 	mov  %o4, %g1
     e30:	82 00 40 01 	add  %g1, %g1, %g1
     e34:	82 00 40 0c 	add  %g1, %o4, %g1
     e38:	83 28 60 02 	sll  %g1, 2, %g1
     e3c:	82 03 40 01 	add  %o5, %g1, %g1
     e40:	9a 00 40 0b 	add  %g1, %o3, %o5
     e44:	82 10 20 01 	mov  1, %g1
     e48:	c2 23 60 08 	st  %g1, [ %o5 + 8 ]
     e4c:	10 80 00 71 	b  1010 <dijkstra+0x724>
     e50:	01 00 00 00 	nop 
     e54:	03 00 00 3e 	sethi  %hi(0xf800), %g1
     e58:	96 10 61 2c 	or  %g1, 0x12c, %o3	! f92c <rgnNodes>
     e5c:	d8 07 bf ec 	ld  [ %fp + -20 ], %o4
     e60:	da 07 a0 44 	ld  [ %fp + 0x44 ], %o5
     e64:	82 10 00 0d 	mov  %o5, %g1
     e68:	82 00 40 01 	add  %g1, %g1, %g1
     e6c:	82 00 40 0d 	add  %g1, %o5, %g1
     e70:	9b 28 60 06 	sll  %g1, 6, %o5
     e74:	82 10 00 0c 	mov  %o4, %g1
     e78:	82 00 40 01 	add  %g1, %g1, %g1
     e7c:	82 00 40 0c 	add  %g1, %o4, %g1
     e80:	83 28 60 02 	sll  %g1, 2, %g1
     e84:	82 03 40 01 	add  %o5, %g1, %g1
     e88:	82 00 40 0b 	add  %g1, %o3, %g1
     e8c:	c2 00 60 08 	ld  [ %g1 + 8 ], %g1
     e90:	80 a0 60 00 	cmp  %g1, 0
     e94:	12 80 00 5f 	bne  1010 <dijkstra+0x724>
     e98:	01 00 00 00 	nop 
     e9c:	03 00 00 3e 	sethi  %hi(0xf800), %g1
     ea0:	94 10 61 2c 	or  %g1, 0x12c, %o2	! f92c <rgnNodes>
     ea4:	d8 07 bf ec 	ld  [ %fp + -20 ], %o4
     ea8:	da 07 a0 44 	ld  [ %fp + 0x44 ], %o5
     eac:	82 10 00 0d 	mov  %o5, %g1
     eb0:	82 00 40 01 	add  %g1, %g1, %g1
     eb4:	82 00 40 0d 	add  %g1, %o5, %g1
     eb8:	9b 28 60 06 	sll  %g1, 6, %o5
     ebc:	82 10 00 0c 	mov  %o4, %g1
     ec0:	82 00 40 01 	add  %g1, %g1, %g1
     ec4:	82 00 40 0c 	add  %g1, %o4, %g1
     ec8:	83 28 60 02 	sll  %g1, 2, %g1
     ecc:	92 03 40 01 	add  %o5, %g1, %o1
     ed0:	03 00 00 3e 	sethi  %hi(0xf800), %g1
     ed4:	90 10 61 2c 	or  %g1, 0x12c, %o0	! f92c <rgnNodes>
     ed8:	d8 07 bf dc 	ld  [ %fp + -36 ], %o4
     edc:	da 07 a0 44 	ld  [ %fp + 0x44 ], %o5
     ee0:	82 10 00 0d 	mov  %o5, %g1
     ee4:	82 00 40 01 	add  %g1, %g1, %g1
     ee8:	82 00 40 0d 	add  %g1, %o5, %g1
     eec:	9b 28 60 06 	sll  %g1, 6, %o5
     ef0:	82 10 00 0c 	mov  %o4, %g1
     ef4:	82 00 40 01 	add  %g1, %g1, %g1
     ef8:	82 00 40 0c 	add  %g1, %o4, %g1
     efc:	83 28 60 02 	sll  %g1, 2, %g1
     f00:	98 03 40 01 	add  %o5, %g1, %o4
     f04:	03 00 00 4a 	sethi  %hi(0x12800), %g1
     f08:	96 10 62 30 	or  %g1, 0x230, %o3	! 12a30 <AdjMatrix>
     f0c:	c2 07 bf dc 	ld  [ %fp + -36 ], %g1
     f10:	9b 28 60 04 	sll  %g1, 4, %o5
     f14:	c2 07 bf ec 	ld  [ %fp + -20 ], %g1
     f18:	82 03 40 01 	add  %o5, %g1, %g1
     f1c:	83 28 60 02 	sll  %g1, 2, %g1
     f20:	da 03 00 08 	ld  [ %o4 + %o0 ], %o5
     f24:	c2 02 c0 01 	ld  [ %o3 + %g1 ], %g1
     f28:	9a 03 40 01 	add  %o5, %g1, %o5
     f2c:	c2 02 40 0a 	ld  [ %o1 + %o2 ], %g1
     f30:	80 a0 40 0d 	cmp  %g1, %o5
     f34:	04 80 00 37 	ble  1010 <dijkstra+0x724>
     f38:	01 00 00 00 	nop 
     f3c:	03 00 00 3e 	sethi  %hi(0xf800), %g1
     f40:	94 10 61 2c 	or  %g1, 0x12c, %o2	! f92c <rgnNodes>
     f44:	d8 07 bf ec 	ld  [ %fp + -20 ], %o4
     f48:	da 07 a0 44 	ld  [ %fp + 0x44 ], %o5
     f4c:	82 10 00 0d 	mov  %o5, %g1
     f50:	82 00 40 01 	add  %g1, %g1, %g1
     f54:	82 00 40 0d 	add  %g1, %o5, %g1
     f58:	9b 28 60 06 	sll  %g1, 6, %o5
     f5c:	82 10 00 0c 	mov  %o4, %g1
     f60:	82 00 40 01 	add  %g1, %g1, %g1
     f64:	82 00 40 0c 	add  %g1, %o4, %g1
     f68:	83 28 60 02 	sll  %g1, 2, %g1
     f6c:	92 03 40 01 	add  %o5, %g1, %o1
     f70:	03 00 00 3e 	sethi  %hi(0xf800), %g1
     f74:	90 10 61 2c 	or  %g1, 0x12c, %o0	! f92c <rgnNodes>
     f78:	d8 07 bf dc 	ld  [ %fp + -36 ], %o4
     f7c:	da 07 a0 44 	ld  [ %fp + 0x44 ], %o5
     f80:	82 10 00 0d 	mov  %o5, %g1
     f84:	82 00 40 01 	add  %g1, %g1, %g1
     f88:	82 00 40 0d 	add  %g1, %o5, %g1
     f8c:	9b 28 60 06 	sll  %g1, 6, %o5
     f90:	82 10 00 0c 	mov  %o4, %g1
     f94:	82 00 40 01 	add  %g1, %g1, %g1
     f98:	82 00 40 0c 	add  %g1, %o4, %g1
     f9c:	83 28 60 02 	sll  %g1, 2, %g1
     fa0:	98 03 40 01 	add  %o5, %g1, %o4
     fa4:	03 00 00 4a 	sethi  %hi(0x12800), %g1
     fa8:	96 10 62 30 	or  %g1, 0x230, %o3	! 12a30 <AdjMatrix>
     fac:	c2 07 bf dc 	ld  [ %fp + -36 ], %g1
     fb0:	9b 28 60 04 	sll  %g1, 4, %o5
     fb4:	c2 07 bf ec 	ld  [ %fp + -20 ], %g1
     fb8:	82 03 40 01 	add  %o5, %g1, %g1
     fbc:	83 28 60 02 	sll  %g1, 2, %g1
     fc0:	da 03 00 08 	ld  [ %o4 + %o0 ], %o5
     fc4:	c2 02 c0 01 	ld  [ %o3 + %g1 ], %g1
     fc8:	82 03 40 01 	add  %o5, %g1, %g1
     fcc:	c2 22 40 0a 	st  %g1, [ %o1 + %o2 ]
     fd0:	03 00 00 3e 	sethi  %hi(0xf800), %g1
     fd4:	96 10 61 2c 	or  %g1, 0x12c, %o3	! f92c <rgnNodes>
     fd8:	d8 07 bf ec 	ld  [ %fp + -20 ], %o4
     fdc:	da 07 a0 44 	ld  [ %fp + 0x44 ], %o5
     fe0:	82 10 00 0d 	mov  %o5, %g1
     fe4:	82 00 40 01 	add  %g1, %g1, %g1
     fe8:	82 00 40 0d 	add  %g1, %o5, %g1
     fec:	9b 28 60 06 	sll  %g1, 6, %o5
     ff0:	82 10 00 0c 	mov  %o4, %g1
     ff4:	82 00 40 01 	add  %g1, %g1, %g1
     ff8:	82 00 40 0c 	add  %g1, %o4, %g1
     ffc:	83 28 60 02 	sll  %g1, 2, %g1
    1000:	82 03 40 01 	add  %o5, %g1, %g1
    1004:	9a 00 40 0b 	add  %g1, %o3, %o5
    1008:	c2 07 bf dc 	ld  [ %fp + -36 ], %g1
    100c:	c2 23 60 04 	st  %g1, [ %o5 + 4 ]
    1010:	c2 07 bf ec 	ld  [ %fp + -20 ], %g1
    1014:	82 00 60 01 	inc  %g1
    1018:	c2 27 bf ec 	st  %g1, [ %fp + -20 ]
    101c:	10 bf ff 71 	b  de0 <dijkstra+0x4f4>
    1020:	01 00 00 00 	nop 
    1024:	03 00 00 4c 	sethi  %hi(0x13000), %g1
    1028:	98 10 63 20 	or  %g1, 0x320, %o4	! 13320 <uVertex>
    102c:	da 07 a0 44 	ld  [ %fp + 0x44 ], %o5
    1030:	82 10 00 0d 	mov  %o5, %g1
    1034:	82 00 40 01 	add  %g1, %g1, %g1
    1038:	82 00 40 0d 	add  %g1, %o5, %g1
    103c:	83 28 60 02 	sll  %g1, 2, %g1
    1040:	9a 00 40 0c 	add  %g1, %o4, %o5
    1044:	03 00 00 09 	sethi  %hi(0x2400), %g1
    1048:	82 10 63 0f 	or  %g1, 0x30f, %g1	! 270f <not_too_big+0x7>
    104c:	c2 23 60 08 	st  %g1, [ %o5 + 8 ]
    1050:	10 bf fe b5 	b  b24 <dijkstra+0x238>
    1054:	01 00 00 00 	nop 
    1058:	d0 07 a0 44 	ld  [ %fp + 0x44 ], %o0
    105c:	d2 07 bf e4 	ld  [ %fp + -28 ], %o1
    1060:	d4 07 bf e0 	ld  [ %fp + -32 ], %o2
    1064:	7f ff fd 0e 	call  49c <printResult>
    1068:	01 00 00 00 	nop 
    106c:	c2 07 bf f4 	ld  [ %fp + -12 ], %g1
    1070:	82 00 60 01 	inc  %g1
    1074:	c2 27 bf f4 	st  %g1, [ %fp + -12 ]
    1078:	10 bf fe 27 	b  914 <dijkstra+0x28>
    107c:	01 00 00 00 	nop 
    1080:	b0 10 00 01 	mov  %g1, %i0
    1084:	81 c7 e0 08 	ret 
    1088:	81 e8 00 00 	restore 

0000108c <divide_task_group>:
    108c:	9d e3 bf 88 	save  %sp, -120, %sp
    1090:	f0 27 a0 44 	st  %i0, [ %fp + 0x44 ]
    1094:	c0 27 bf f4 	clr  [ %fp + -12 ]
    1098:	03 00 00 4c 	sethi  %hi(0x13000), %g1
    109c:	82 10 63 08 	or  %g1, 0x308, %g1	! 13308 <PROCESSORS>
    10a0:	da 07 bf f4 	ld  [ %fp + -12 ], %o5
    10a4:	c2 00 40 00 	ld  [ %g1 ], %g1
    10a8:	80 a3 40 01 	cmp  %o5, %g1
    10ac:	06 80 00 04 	bl  10bc <divide_task_group+0x30>
    10b0:	01 00 00 00 	nop 
    10b4:	10 80 00 52 	b  11fc <divide_task_group+0x170>
    10b8:	01 00 00 00 	nop 
    10bc:	03 00 00 3d 	sethi  %hi(0xf400), %g1
    10c0:	a0 10 63 2c 	or  %g1, 0x32c, %l0	! f72c <tasks>
    10c4:	c2 07 bf f4 	ld  [ %fp + -12 ], %g1
    10c8:	a3 28 60 03 	sll  %g1, 3, %l1
    10cc:	03 00 00 4c 	sethi  %hi(0x13000), %g1
    10d0:	82 10 63 08 	or  %g1, 0x308, %g1	! 13308 <PROCESSORS>
    10d4:	d0 07 a0 44 	ld  [ %fp + 0x44 ], %o0
    10d8:	d2 00 40 00 	ld  [ %g1 ], %o1
    10dc:	40 00 04 bb 	call  23c8 <.div>
    10e0:	01 00 00 00 	nop 
    10e4:	82 10 00 08 	mov  %o0, %g1
    10e8:	90 10 00 01 	mov  %g1, %o0
    10ec:	d2 07 bf f4 	ld  [ %fp + -12 ], %o1
    10f0:	40 00 04 7a 	call  22d8 <.umul>
    10f4:	01 00 00 00 	nop 
    10f8:	82 10 00 08 	mov  %o0, %g1
    10fc:	c2 24 00 11 	st  %g1, [ %l0 + %l1 ]
    1100:	03 00 00 3d 	sethi  %hi(0xf400), %g1
    1104:	9a 10 63 2c 	or  %g1, 0x32c, %o5	! f72c <tasks>
    1108:	c2 07 bf f4 	ld  [ %fp + -12 ], %g1
    110c:	83 28 60 03 	sll  %g1, 3, %g1
    1110:	82 00 40 0d 	add  %g1, %o5, %g1
    1114:	c2 27 bf f0 	st  %g1, [ %fp + -16 ]
    1118:	03 00 00 4c 	sethi  %hi(0x13000), %g1
    111c:	82 10 63 08 	or  %g1, 0x308, %g1	! 13308 <PROCESSORS>
    1120:	d0 07 a0 44 	ld  [ %fp + 0x44 ], %o0
    1124:	d2 00 40 00 	ld  [ %g1 ], %o1
    1128:	40 00 04 a8 	call  23c8 <.div>
    112c:	01 00 00 00 	nop 
    1130:	9a 10 00 08 	mov  %o0, %o5
    1134:	c2 07 bf f4 	ld  [ %fp + -12 ], %g1
    1138:	82 00 60 01 	inc  %g1
    113c:	90 10 00 0d 	mov  %o5, %o0
    1140:	92 10 00 01 	mov  %g1, %o1
    1144:	40 00 04 65 	call  22d8 <.umul>
    1148:	01 00 00 00 	nop 
    114c:	82 10 00 08 	mov  %o0, %g1
    1150:	c2 27 bf ec 	st  %g1, [ %fp + -20 ]
    1154:	c2 07 bf f4 	ld  [ %fp + -12 ], %g1
    1158:	9a 00 60 01 	add  %g1, 1, %o5
    115c:	03 00 00 4c 	sethi  %hi(0x13000), %g1
    1160:	82 10 63 08 	or  %g1, 0x308, %g1	! 13308 <PROCESSORS>
    1164:	c2 00 40 00 	ld  [ %g1 ], %g1
    1168:	82 1b 40 01 	xor  %o5, %g1, %g1
    116c:	80 a0 00 01 	cmp  %g0, %g1
    1170:	a0 60 3f ff 	subx  %g0, -1, %l0
    1174:	03 00 00 4c 	sethi  %hi(0x13000), %g1
    1178:	9a 10 63 08 	or  %g1, 0x308, %o5	! 13308 <PROCESSORS>
    117c:	c2 07 a0 44 	ld  [ %fp + 0x44 ], %g1
    1180:	90 10 00 01 	mov  %g1, %o0
    1184:	d2 03 40 00 	ld  [ %o5 ], %o1
    1188:	40 00 05 3c 	call  2678 <.rem>
    118c:	01 00 00 00 	nop 
    1190:	82 10 00 08 	mov  %o0, %g1
    1194:	82 18 60 00 	xor  %g1, 0, %g1
    1198:	80 a0 00 01 	cmp  %g0, %g1
    119c:	82 40 20 00 	addx  %g0, 0, %g1
    11a0:	82 0c 00 01 	and  %l0, %g1, %g1
    11a4:	80 a0 60 00 	cmp  %g1, 0
    11a8:	02 80 00 0d 	be  11dc <divide_task_group+0x150>
    11ac:	01 00 00 00 	nop 
    11b0:	03 00 00 4c 	sethi  %hi(0x13000), %g1
    11b4:	9a 10 63 08 	or  %g1, 0x308, %o5	! 13308 <PROCESSORS>
    11b8:	c2 07 a0 44 	ld  [ %fp + 0x44 ], %g1
    11bc:	90 10 00 01 	mov  %g1, %o0
    11c0:	d2 03 40 00 	ld  [ %o5 ], %o1
    11c4:	40 00 05 2d 	call  2678 <.rem>
    11c8:	01 00 00 00 	nop 
    11cc:	82 10 00 08 	mov  %o0, %g1
    11d0:	da 07 bf ec 	ld  [ %fp + -20 ], %o5
    11d4:	9a 03 40 01 	add  %o5, %g1, %o5
    11d8:	da 27 bf ec 	st  %o5, [ %fp + -20 ]
    11dc:	da 07 bf ec 	ld  [ %fp + -20 ], %o5
    11e0:	c2 07 bf f0 	ld  [ %fp + -16 ], %g1
    11e4:	da 20 60 04 	st  %o5, [ %g1 + 4 ]
    11e8:	c2 07 bf f4 	ld  [ %fp + -12 ], %g1
    11ec:	82 00 60 01 	inc  %g1
    11f0:	c2 27 bf f4 	st  %g1, [ %fp + -12 ]
    11f4:	10 bf ff a9 	b  1098 <divide_task_group+0xc>
    11f8:	01 00 00 00 	nop 
    11fc:	81 c7 e0 08 	ret 
    1200:	81 e8 00 00 	restore 

00001204 <main0>:
    1204:	9d e3 bf 80 	save  %sp, -128, %sp
    1208:	f0 27 a0 44 	st  %i0, [ %fp + 0x44 ]
    120c:	f2 27 a0 48 	st  %i1, [ %fp + 0x48 ]
    1210:	c2 07 a0 44 	ld  [ %fp + 0x44 ], %g1
    1214:	80 a0 60 01 	cmp  %g1, 1
    1218:	14 80 00 12 	bg  1260 <main0+0x5c>
    121c:	01 00 00 00 	nop 
    1220:	03 00 00 3c 	sethi  %hi(0xf000), %g1
    1224:	82 10 60 98 	or  %g1, 0x98, %g1	! f098 <_impure_ptr>
    1228:	c2 00 40 00 	ld  [ %g1 ], %g1
    122c:	d0 00 60 0c 	ld  [ %g1 + 0xc ], %o0
    1230:	03 00 00 39 	sethi  %hi(0xe400), %g1
    1234:	92 10 61 a0 	or  %g1, 0x1a0, %o1	! e5a0 <__CTOR_END__+0x270>
    1238:	40 00 07 6e 	call  2ff0 <fprintf>
    123c:	01 00 00 00 	nop 
    1240:	03 00 00 3c 	sethi  %hi(0xf000), %g1
    1244:	82 10 60 98 	or  %g1, 0x98, %g1	! f098 <_impure_ptr>
    1248:	c2 00 40 00 	ld  [ %g1 ], %g1
    124c:	d0 00 60 0c 	ld  [ %g1 + 0xc ], %o0
    1250:	03 00 00 39 	sethi  %hi(0xe400), %g1
    1254:	92 10 61 c0 	or  %g1, 0x1c0, %o1	! e5c0 <__CTOR_END__+0x290>
    1258:	40 00 07 66 	call  2ff0 <fprintf>
    125c:	01 00 00 00 	nop 
    1260:	9a 10 20 04 	mov  4, %o5	! 4 <__DYNAMIC+0x4>
    1264:	c2 07 a0 48 	ld  [ %fp + 0x48 ], %g1
    1268:	82 03 40 01 	add  %o5, %g1, %g1
    126c:	d0 00 40 00 	ld  [ %g1 ], %o0
    1270:	03 00 00 39 	sethi  %hi(0xe400), %g1
    1274:	92 10 61 f0 	or  %g1, 0x1f0, %o1	! e5f0 <__CTOR_END__+0x2c0>
    1278:	40 00 07 54 	call  2fc8 <fopen>
    127c:	01 00 00 00 	nop 
    1280:	82 10 00 08 	mov  %o0, %g1
    1284:	c2 27 bf e8 	st  %g1, [ %fp + -24 ]
    1288:	c0 27 bf f4 	clr  [ %fp + -12 ]
    128c:	c2 07 bf f4 	ld  [ %fp + -12 ], %g1
    1290:	80 a0 60 0f 	cmp  %g1, 0xf
    1294:	04 80 00 04 	ble  12a4 <main0+0xa0>
    1298:	01 00 00 00 	nop 
    129c:	10 80 00 23 	b  1328 <main0+0x124>
    12a0:	01 00 00 00 	nop 
    12a4:	c0 27 bf f0 	clr  [ %fp + -16 ]
    12a8:	c2 07 bf f0 	ld  [ %fp + -16 ], %g1
    12ac:	80 a0 60 0f 	cmp  %g1, 0xf
    12b0:	04 80 00 04 	ble  12c0 <main0+0xbc>
    12b4:	01 00 00 00 	nop 
    12b8:	10 80 00 17 	b  1314 <main0+0x110>
    12bc:	01 00 00 00 	nop 
    12c0:	9a 07 bf ec 	add  %fp, -20, %o5
    12c4:	d0 07 bf e8 	ld  [ %fp + -24 ], %o0
    12c8:	03 00 00 39 	sethi  %hi(0xe400), %g1
    12cc:	92 10 61 f8 	or  %g1, 0x1f8, %o1	! e5f8 <__CTOR_END__+0x2c8>
    12d0:	94 10 00 0d 	mov  %o5, %o2
    12d4:	40 00 08 37 	call  33b0 <fscanf>
    12d8:	01 00 00 00 	nop 
    12dc:	03 00 00 4a 	sethi  %hi(0x12800), %g1
    12e0:	98 10 62 30 	or  %g1, 0x230, %o4	! 12a30 <AdjMatrix>
    12e4:	c2 07 bf f4 	ld  [ %fp + -12 ], %g1
    12e8:	9b 28 60 04 	sll  %g1, 4, %o5
    12ec:	c2 07 bf f0 	ld  [ %fp + -16 ], %g1
    12f0:	82 03 40 01 	add  %o5, %g1, %g1
    12f4:	9b 28 60 02 	sll  %g1, 2, %o5
    12f8:	c2 07 bf ec 	ld  [ %fp + -20 ], %g1
    12fc:	c2 23 00 0d 	st  %g1, [ %o4 + %o5 ]
    1300:	c2 07 bf f0 	ld  [ %fp + -16 ], %g1
    1304:	82 00 60 01 	inc  %g1
    1308:	c2 27 bf f0 	st  %g1, [ %fp + -16 ]
    130c:	10 bf ff e7 	b  12a8 <main0+0xa4>
    1310:	01 00 00 00 	nop 
    1314:	c2 07 bf f4 	ld  [ %fp + -12 ], %g1
    1318:	82 00 60 01 	inc  %g1
    131c:	c2 27 bf f4 	st  %g1, [ %fp + -12 ]
    1320:	10 bf ff db 	b  128c <main0+0x88>
    1324:	01 00 00 00 	nop 
    1328:	d0 07 bf e8 	ld  [ %fp + -24 ], %o0
    132c:	40 00 05 e2 	call  2ab4 <fclose>
    1330:	01 00 00 00 	nop 
    1334:	82 10 20 78 	mov  0x78, %g1	! 78 <__DYNAMIC+0x78>
    1338:	c2 27 bf e4 	st  %g1, [ %fp + -28 ]
    133c:	c0 27 bf e0 	clr  [ %fp + -32 ]
    1340:	c0 27 bf f4 	clr  [ %fp + -12 ]
    1344:	c2 07 bf f4 	ld  [ %fp + -12 ], %g1
    1348:	80 a0 60 0e 	cmp  %g1, 0xe
    134c:	04 80 00 04 	ble  135c <main0+0x158>
    1350:	01 00 00 00 	nop 
    1354:	10 80 00 25 	b  13e8 <main0+0x1e4>
    1358:	01 00 00 00 	nop 
    135c:	c2 07 bf f4 	ld  [ %fp + -12 ], %g1
    1360:	82 00 60 01 	inc  %g1
    1364:	c2 27 bf f0 	st  %g1, [ %fp + -16 ]
    1368:	c2 07 bf f0 	ld  [ %fp + -16 ], %g1
    136c:	80 a0 60 0f 	cmp  %g1, 0xf
    1370:	04 80 00 04 	ble  1380 <main0+0x17c>
    1374:	01 00 00 00 	nop 
    1378:	10 80 00 17 	b  13d4 <main0+0x1d0>
    137c:	01 00 00 00 	nop 
    1380:	03 00 00 4b 	sethi  %hi(0x12c00), %g1
    1384:	98 10 62 40 	or  %g1, 0x240, %o4	! 12e40 <nodes_tasks>
    1388:	c2 07 bf e0 	ld  [ %fp + -32 ], %g1
    138c:	9b 28 60 03 	sll  %g1, 3, %o5
    1390:	c2 07 bf f4 	ld  [ %fp + -12 ], %g1
    1394:	c2 23 00 0d 	st  %g1, [ %o4 + %o5 ]
    1398:	03 00 00 4b 	sethi  %hi(0x12c00), %g1
    139c:	9a 10 62 40 	or  %g1, 0x240, %o5	! 12e40 <nodes_tasks>
    13a0:	c2 07 bf e0 	ld  [ %fp + -32 ], %g1
    13a4:	83 28 60 03 	sll  %g1, 3, %g1
    13a8:	9a 00 40 0d 	add  %g1, %o5, %o5
    13ac:	c2 07 bf f0 	ld  [ %fp + -16 ], %g1
    13b0:	c2 23 60 04 	st  %g1, [ %o5 + 4 ]
    13b4:	c2 07 bf e0 	ld  [ %fp + -32 ], %g1
    13b8:	82 00 60 01 	inc  %g1
    13bc:	c2 27 bf e0 	st  %g1, [ %fp + -32 ]
    13c0:	c2 07 bf f0 	ld  [ %fp + -16 ], %g1
    13c4:	82 00 60 01 	inc  %g1
    13c8:	c2 27 bf f0 	st  %g1, [ %fp + -16 ]
    13cc:	10 bf ff e7 	b  1368 <main0+0x164>
    13d0:	01 00 00 00 	nop 
    13d4:	c2 07 bf f4 	ld  [ %fp + -12 ], %g1
    13d8:	82 00 60 01 	inc  %g1
    13dc:	c2 27 bf f4 	st  %g1, [ %fp + -12 ]
    13e0:	10 bf ff d9 	b  1344 <main0+0x140>
    13e4:	01 00 00 00 	nop 
    13e8:	d0 07 bf e4 	ld  [ %fp + -28 ], %o0
    13ec:	7f ff ff 28 	call  108c <divide_task_group>
    13f0:	01 00 00 00 	nop 
    13f4:	7f ff fc e8 	call  794 <startThreads>
    13f8:	01 00 00 00 	nop 
    13fc:	82 10 20 00 	clr  %g1	! 0 <__DYNAMIC>
    1400:	b0 10 00 01 	mov  %g1, %i0
    1404:	81 c7 e0 08 	ret 
    1408:	81 e8 00 00 	restore 

0000140c <initNode>:
    140c:	9d e3 bf 98 	save  %sp, -104, %sp
    1410:	f0 27 a0 44 	st  %i0, [ %fp + 0x44 ]
    1414:	f2 27 a0 48 	st  %i1, [ %fp + 0x48 ]
    1418:	f4 27 a0 4c 	st  %i2, [ %fp + 0x4c ]
    141c:	fa 07 a0 44 	ld  [ %fp + 0x44 ], %i5
    1420:	c2 07 a0 4c 	ld  [ %fp + 0x4c ], %g1
    1424:	c2 27 60 04 	st  %g1, [ %i5 + 4 ]
    1428:	fa 07 a0 44 	ld  [ %fp + 0x44 ], %i5
    142c:	c2 07 a0 48 	ld  [ %fp + 0x48 ], %g1
    1430:	c2 27 40 00 	st  %g1, [ %i5 ]
    1434:	81 c7 e0 08 	ret 
    1438:	81 e8 00 00 	restore 

0000143c <initQueue>:
    143c:	9d e3 bf 98 	save  %sp, -104, %sp
    1440:	f0 27 a0 44 	st  %i0, [ %fp + 0x44 ]
    1444:	03 00 00 3b 	sethi  %hi(0xec00), %g1
    1448:	82 10 61 10 	or  %g1, 0x110, %g1	! ed10 <_data_start>
    144c:	c2 00 40 00 	ld  [ %g1 ], %g1
    1450:	c2 00 40 00 	ld  [ %g1 ], %g1
    1454:	80 a0 60 00 	cmp  %g1, 0
    1458:	12 bf ff fb 	bne  1444 <initQueue+0x8>
    145c:	01 00 00 00 	nop 
    1460:	fa 07 a0 44 	ld  [ %fp + 0x44 ], %i5
    1464:	82 10 3f ff 	mov  -1, %g1
    1468:	c2 27 40 00 	st  %g1, [ %i5 ]
    146c:	fa 07 a0 44 	ld  [ %fp + 0x44 ], %i5
    1470:	82 10 3f ff 	mov  -1, %g1
    1474:	c2 27 60 04 	st  %g1, [ %i5 + 4 ]
    1478:	c2 07 a0 44 	ld  [ %fp + 0x44 ], %g1
    147c:	c0 20 63 08 	clr  [ %g1 + 0x308 ]
    1480:	03 00 00 3b 	sethi  %hi(0xec00), %g1
    1484:	82 10 61 10 	or  %g1, 0x110, %g1	! ed10 <_data_start>
    1488:	c2 00 40 00 	ld  [ %g1 ], %g1
    148c:	c0 20 40 00 	clr  [ %g1 ]
    1490:	81 c7 e0 08 	ret 
    1494:	81 e8 00 00 	restore 

00001498 <printQueue>:
    1498:	9d e3 bf 90 	save  %sp, -112, %sp
    149c:	f0 27 a0 44 	st  %i0, [ %fp + 0x44 ]
    14a0:	03 00 00 4d 	sethi  %hi(0x13400), %g1
    14a4:	90 10 62 40 	or  %g1, 0x240, %o0	! 13640 <mutex_print>
    14a8:	40 00 01 56 	call  1a00 <pthread_mutex_lock>
    14ac:	01 00 00 00 	nop 
    14b0:	03 00 00 39 	sethi  %hi(0xe400), %g1
    14b4:	90 10 62 00 	or  %g1, 0x200, %o0	! e600 <__CTOR_END__+0x2d0>
    14b8:	40 00 0b 9c 	call  4328 <printf>
    14bc:	01 00 00 00 	nop 
    14c0:	da 07 a0 44 	ld  [ %fp + 0x44 ], %o5
    14c4:	03 00 00 39 	sethi  %hi(0xe400), %g1
    14c8:	90 10 62 18 	or  %g1, 0x218, %o0	! e618 <__CTOR_END__+0x2e8>
    14cc:	d2 03 63 08 	ld  [ %o5 + 0x308 ], %o1
    14d0:	40 00 0b 96 	call  4328 <printf>
    14d4:	01 00 00 00 	nop 
    14d8:	da 07 a0 44 	ld  [ %fp + 0x44 ], %o5
    14dc:	03 00 00 39 	sethi  %hi(0xe400), %g1
    14e0:	90 10 62 30 	or  %g1, 0x230, %o0	! e630 <__CTOR_END__+0x300>
    14e4:	d2 03 40 00 	ld  [ %o5 ], %o1
    14e8:	40 00 0b 90 	call  4328 <printf>
    14ec:	01 00 00 00 	nop 
    14f0:	da 07 a0 44 	ld  [ %fp + 0x44 ], %o5
    14f4:	03 00 00 39 	sethi  %hi(0xe400), %g1
    14f8:	90 10 62 40 	or  %g1, 0x240, %o0	! e640 <__CTOR_END__+0x310>
    14fc:	d2 03 60 04 	ld  [ %o5 + 4 ], %o1
    1500:	40 00 0b 8a 	call  4328 <printf>
    1504:	01 00 00 00 	nop 
    1508:	03 00 00 4d 	sethi  %hi(0x13400), %g1
    150c:	90 10 62 40 	or  %g1, 0x240, %o0	! 13640 <mutex_print>
    1510:	40 00 01 69 	call  1ab4 <pthread_mutex_unlock>
    1514:	01 00 00 00 	nop 
    1518:	01 00 00 00 	nop 
    151c:	81 c7 e0 08 	ret 
    1520:	81 e8 00 00 	restore 

00001524 <isEmpty>:
    1524:	9d e3 bf 90 	save  %sp, -112, %sp
    1528:	f0 27 a0 44 	st  %i0, [ %fp + 0x44 ]
    152c:	c2 07 a0 44 	ld  [ %fp + 0x44 ], %g1
    1530:	c2 00 63 08 	ld  [ %g1 + 0x308 ], %g1
    1534:	80 a0 60 00 	cmp  %g1, 0
    1538:	12 80 00 06 	bne  1550 <isEmpty+0x2c>
    153c:	01 00 00 00 	nop 
    1540:	82 10 20 01 	mov  1, %g1	! 1 <__DYNAMIC+0x1>
    1544:	c2 27 bf f4 	st  %g1, [ %fp + -12 ]
    1548:	10 80 00 03 	b  1554 <isEmpty+0x30>
    154c:	01 00 00 00 	nop 
    1550:	c0 27 bf f4 	clr  [ %fp + -12 ]
    1554:	f0 07 bf f4 	ld  [ %fp + -12 ], %i0
    1558:	81 c7 e0 08 	ret 
    155c:	81 e8 00 00 	restore 

00001560 <enqueue>:
    1560:	9d e3 bf 98 	save  %sp, -104, %sp
    1564:	f0 27 a0 44 	st  %i0, [ %fp + 0x44 ]
    1568:	f2 27 a0 48 	st  %i1, [ %fp + 0x48 ]
    156c:	d0 07 a0 44 	ld  [ %fp + 0x44 ], %o0
    1570:	7f ff ff ed 	call  1524 <isEmpty>
    1574:	01 00 00 00 	nop 
    1578:	82 10 00 08 	mov  %o0, %g1
    157c:	80 a0 60 00 	cmp  %g1, 0
    1580:	02 80 00 1d 	be  15f4 <enqueue+0x94>
    1584:	01 00 00 00 	nop 
    1588:	da 07 a0 44 	ld  [ %fp + 0x44 ], %o5
    158c:	c2 07 a0 44 	ld  [ %fp + 0x44 ], %g1
    1590:	c2 00 40 00 	ld  [ %g1 ], %g1
    1594:	82 00 60 01 	inc  %g1
    1598:	c2 23 40 00 	st  %g1, [ %o5 ]
    159c:	da 07 a0 44 	ld  [ %fp + 0x44 ], %o5
    15a0:	c2 07 a0 44 	ld  [ %fp + 0x44 ], %g1
    15a4:	c2 00 60 04 	ld  [ %g1 + 4 ], %g1
    15a8:	82 00 60 01 	inc  %g1
    15ac:	c2 23 60 04 	st  %g1, [ %o5 + 4 ]
    15b0:	d8 07 a0 44 	ld  [ %fp + 0x44 ], %o4
    15b4:	c2 07 a0 44 	ld  [ %fp + 0x44 ], %g1
    15b8:	da 00 60 04 	ld  [ %g1 + 4 ], %o5
    15bc:	82 10 00 0d 	mov  %o5, %g1
    15c0:	82 00 40 01 	add  %g1, %g1, %g1
    15c4:	82 00 40 0d 	add  %g1, %o5, %g1
    15c8:	83 28 60 02 	sll  %g1, 2, %g1
    15cc:	98 00 40 0c 	add  %g1, %o4, %o4
    15d0:	da 07 a0 48 	ld  [ %fp + 0x48 ], %o5
    15d4:	c2 03 40 00 	ld  [ %o5 ], %g1
    15d8:	c2 23 20 08 	st  %g1, [ %o4 + 8 ]
    15dc:	c2 03 60 04 	ld  [ %o5 + 4 ], %g1
    15e0:	c2 23 20 0c 	st  %g1, [ %o4 + 0xc ]
    15e4:	c2 03 60 08 	ld  [ %o5 + 8 ], %g1
    15e8:	c2 23 20 10 	st  %g1, [ %o4 + 0x10 ]
    15ec:	10 80 00 16 	b  1644 <enqueue+0xe4>
    15f0:	01 00 00 00 	nop 
    15f4:	da 07 a0 44 	ld  [ %fp + 0x44 ], %o5
    15f8:	c2 07 a0 44 	ld  [ %fp + 0x44 ], %g1
    15fc:	c2 00 60 04 	ld  [ %g1 + 4 ], %g1
    1600:	82 00 60 01 	inc  %g1
    1604:	c2 23 60 04 	st  %g1, [ %o5 + 4 ]
    1608:	d8 07 a0 44 	ld  [ %fp + 0x44 ], %o4
    160c:	c2 07 a0 44 	ld  [ %fp + 0x44 ], %g1
    1610:	da 00 60 04 	ld  [ %g1 + 4 ], %o5
    1614:	82 10 00 0d 	mov  %o5, %g1
    1618:	82 00 40 01 	add  %g1, %g1, %g1
    161c:	82 00 40 0d 	add  %g1, %o5, %g1
    1620:	83 28 60 02 	sll  %g1, 2, %g1
    1624:	98 00 40 0c 	add  %g1, %o4, %o4
    1628:	da 07 a0 48 	ld  [ %fp + 0x48 ], %o5
    162c:	c2 03 40 00 	ld  [ %o5 ], %g1
    1630:	c2 23 20 08 	st  %g1, [ %o4 + 8 ]
    1634:	c2 03 60 04 	ld  [ %o5 + 4 ], %g1
    1638:	c2 23 20 0c 	st  %g1, [ %o4 + 0xc ]
    163c:	c2 03 60 08 	ld  [ %o5 + 8 ], %g1
    1640:	c2 23 20 10 	st  %g1, [ %o4 + 0x10 ]
    1644:	da 07 a0 44 	ld  [ %fp + 0x44 ], %o5
    1648:	c2 07 a0 44 	ld  [ %fp + 0x44 ], %g1
    164c:	c2 00 63 08 	ld  [ %g1 + 0x308 ], %g1
    1650:	82 00 60 01 	inc  %g1
    1654:	c2 23 63 08 	st  %g1, [ %o5 + 0x308 ]
    1658:	81 c7 e0 08 	ret 
    165c:	81 e8 00 00 	restore 

00001660 <dequeue>:
    1660:	9d e3 bf 90 	save  %sp, -112, %sp
    1664:	f0 27 a0 44 	st  %i0, [ %fp + 0x44 ]
    1668:	d0 07 a0 44 	ld  [ %fp + 0x44 ], %o0
    166c:	7f ff ff ae 	call  1524 <isEmpty>
    1670:	01 00 00 00 	nop 
    1674:	82 10 00 08 	mov  %o0, %g1
    1678:	80 a0 60 00 	cmp  %g1, 0
    167c:	12 80 00 29 	bne  1720 <dequeue+0xc0>
    1680:	01 00 00 00 	nop 
    1684:	c2 07 a0 44 	ld  [ %fp + 0x44 ], %g1
    1688:	c2 00 40 00 	ld  [ %g1 ], %g1
    168c:	c2 27 bf f4 	st  %g1, [ %fp + -12 ]
    1690:	c2 07 a0 44 	ld  [ %fp + 0x44 ], %g1
    1694:	da 07 a0 44 	ld  [ %fp + 0x44 ], %o5
    1698:	d8 00 40 00 	ld  [ %g1 ], %o4
    169c:	c2 03 60 04 	ld  [ %o5 + 4 ], %g1
    16a0:	80 a3 00 01 	cmp  %o4, %g1
    16a4:	12 80 00 0a 	bne  16cc <dequeue+0x6c>
    16a8:	01 00 00 00 	nop 
    16ac:	d8 07 a0 44 	ld  [ %fp + 0x44 ], %o4
    16b0:	da 07 a0 44 	ld  [ %fp + 0x44 ], %o5
    16b4:	82 10 3f ff 	mov  -1, %g1
    16b8:	c2 23 60 04 	st  %g1, [ %o5 + 4 ]
    16bc:	82 10 3f ff 	mov  -1, %g1
    16c0:	c2 23 00 00 	st  %g1, [ %o4 ]
    16c4:	10 80 00 07 	b  16e0 <dequeue+0x80>
    16c8:	01 00 00 00 	nop 
    16cc:	da 07 a0 44 	ld  [ %fp + 0x44 ], %o5
    16d0:	c2 07 a0 44 	ld  [ %fp + 0x44 ], %g1
    16d4:	c2 00 40 00 	ld  [ %g1 ], %g1
    16d8:	82 00 60 01 	inc  %g1
    16dc:	c2 23 40 00 	st  %g1, [ %o5 ]
    16e0:	da 07 a0 44 	ld  [ %fp + 0x44 ], %o5
    16e4:	c2 07 a0 44 	ld  [ %fp + 0x44 ], %g1
    16e8:	c2 00 63 08 	ld  [ %g1 + 0x308 ], %g1
    16ec:	82 00 7f ff 	add  %g1, -1, %g1
    16f0:	c2 23 63 08 	st  %g1, [ %o5 + 0x308 ]
    16f4:	da 07 bf f4 	ld  [ %fp + -12 ], %o5
    16f8:	82 10 00 0d 	mov  %o5, %g1
    16fc:	82 00 40 01 	add  %g1, %g1, %g1
    1700:	82 00 40 0d 	add  %g1, %o5, %g1
    1704:	9b 28 60 02 	sll  %g1, 2, %o5
    1708:	c2 07 a0 44 	ld  [ %fp + 0x44 ], %g1
    170c:	82 03 40 01 	add  %o5, %g1, %g1
    1710:	82 00 60 08 	add  %g1, 8, %g1
    1714:	c2 27 bf f0 	st  %g1, [ %fp + -16 ]
    1718:	10 80 00 07 	b  1734 <dequeue+0xd4>
    171c:	01 00 00 00 	nop 
    1720:	03 00 00 39 	sethi  %hi(0xe400), %g1
    1724:	90 10 62 50 	or  %g1, 0x250, %o0	! e650 <__CTOR_END__+0x320>
    1728:	40 00 0b 00 	call  4328 <printf>
    172c:	01 00 00 00 	nop 
    1730:	c0 27 bf f0 	clr  [ %fp + -16 ]
    1734:	f0 07 bf f0 	ld  [ %fp + -16 ], %i0
    1738:	81 c7 e0 08 	ret 
    173c:	81 e8 00 00 	restore 

00001740 <destroy>:
    1740:	9d e3 bf 98 	save  %sp, -104, %sp
    1744:	f0 27 a0 44 	st  %i0, [ %fp + 0x44 ]
    1748:	81 c7 e0 08 	ret 
    174c:	81 e8 00 00 	restore 

00001750 <size>:
    1750:	9d e3 bf 98 	save  %sp, -104, %sp
    1754:	f0 27 a0 44 	st  %i0, [ %fp + 0x44 ]
    1758:	c2 07 a0 44 	ld  [ %fp + 0x44 ], %g1
    175c:	c2 00 63 08 	ld  [ %g1 + 0x308 ], %g1
    1760:	b0 10 00 01 	mov  %g1, %i0
    1764:	81 c7 e0 08 	ret 
    1768:	81 e8 00 00 	restore 

0000176c <pthread_attr_setdetachstate>:
    176c:	9d e3 bf 98 	save  %sp, -104, %sp
    1770:	f0 27 a0 44 	st  %i0, [ %fp + 0x44 ]
    1774:	f2 27 a0 48 	st  %i1, [ %fp + 0x48 ]
    1778:	82 10 20 00 	clr  %g1
    177c:	b0 10 00 01 	mov  %g1, %i0
    1780:	81 c7 e0 08 	ret 
    1784:	81 e8 00 00 	restore 

00001788 <pthread_attr_getdetachstate>:
    1788:	9d e3 bf 98 	save  %sp, -104, %sp
    178c:	f0 27 a0 44 	st  %i0, [ %fp + 0x44 ]
    1790:	f2 27 a0 48 	st  %i1, [ %fp + 0x48 ]
    1794:	82 10 20 00 	clr  %g1
    1798:	b0 10 00 01 	mov  %g1, %i0
    179c:	81 c7 e0 08 	ret 
    17a0:	81 e8 00 00 	restore 

000017a4 <pthread_attr_init>:
    17a4:	9d e3 bf 98 	save  %sp, -104, %sp
    17a8:	f0 27 a0 44 	st  %i0, [ %fp + 0x44 ]
    17ac:	b0 10 00 01 	mov  %g1, %i0
    17b0:	81 c7 e0 08 	ret 
    17b4:	81 e8 00 00 	restore 

000017b8 <pthread_exit>:
    17b8:	9d e3 bf 98 	save  %sp, -104, %sp
    17bc:	f0 27 a0 44 	st  %i0, [ %fp + 0x44 ]
    17c0:	81 c7 e0 08 	ret 
    17c4:	81 e8 00 00 	restore 

000017c8 <pthread_my_exit>:
    17c8:	9d e3 bf 98 	save  %sp, -104, %sp
    17cc:	01 00 00 00 	nop 
    17d0:	03 00 00 3b 	sethi  %hi(0xec00), %g1
    17d4:	82 10 61 10 	or  %g1, 0x110, %g1	! ed10 <_data_start>
    17d8:	c2 00 40 00 	ld  [ %g1 ], %g1
    17dc:	c2 00 40 00 	ld  [ %g1 ], %g1
    17e0:	80 a0 60 00 	cmp  %g1, 0
    17e4:	12 bf ff fb 	bne  17d0 <pthread_my_exit+0x8>
    17e8:	01 00 00 00 	nop 
    17ec:	03 00 00 3d 	sethi  %hi(0xf400), %g1
    17f0:	9a 10 60 e0 	or  %g1, 0xe0, %o5	! f4e0 <pthread_finished>
    17f4:	82 10 20 01 	mov  1, %g1
    17f8:	c2 23 40 00 	st  %g1, [ %o5 ]
    17fc:	03 00 00 3b 	sethi  %hi(0xec00), %g1
    1800:	82 10 61 10 	or  %g1, 0x110, %g1	! ed10 <_data_start>
    1804:	c2 00 40 00 	ld  [ %g1 ], %g1
    1808:	c0 20 40 00 	clr  [ %g1 ]
    180c:	03 00 00 4d 	sethi  %hi(0x13400), %g1
    1810:	90 10 62 40 	or  %g1, 0x240, %o0	! 13640 <mutex_print>
    1814:	40 00 00 7b 	call  1a00 <pthread_mutex_lock>
    1818:	01 00 00 00 	nop 
    181c:	03 00 00 39 	sethi  %hi(0xe400), %g1
    1820:	90 10 62 60 	or  %g1, 0x260, %o0	! e660 <__CTOR_END__+0x330>
    1824:	40 00 0a c1 	call  4328 <printf>
    1828:	01 00 00 00 	nop 
    182c:	03 00 00 4d 	sethi  %hi(0x13400), %g1
    1830:	90 10 62 40 	or  %g1, 0x240, %o0	! 13640 <mutex_print>
    1834:	40 00 00 a0 	call  1ab4 <pthread_mutex_unlock>
    1838:	01 00 00 00 	nop 
    183c:	01 00 00 00 	nop 
    1840:	81 c7 e0 08 	ret 
    1844:	81 e8 00 00 	restore 

00001848 <pthread_join_init>:
    1848:	9d e3 bf 98 	save  %sp, -104, %sp
    184c:	f0 27 a0 44 	st  %i0, [ %fp + 0x44 ]
    1850:	03 00 00 3b 	sethi  %hi(0xec00), %g1
    1854:	82 10 61 10 	or  %g1, 0x110, %g1	! ed10 <_data_start>
    1858:	c2 00 40 00 	ld  [ %g1 ], %g1
    185c:	c2 00 40 00 	ld  [ %g1 ], %g1
    1860:	80 a0 60 00 	cmp  %g1, 0
    1864:	12 bf ff fb 	bne  1850 <pthread_join_init+0x8>
    1868:	01 00 00 00 	nop 
    186c:	fa 07 a0 44 	ld  [ %fp + 0x44 ], %i5
    1870:	03 00 00 4e 	sethi  %hi(0x13800), %g1
    1874:	82 10 61 50 	or  %g1, 0x150, %g1	! 13950 <pthread_n_workers>
    1878:	c2 00 40 00 	ld  [ %g1 ], %g1
    187c:	c2 27 40 00 	st  %g1, [ %i5 ]
    1880:	03 00 00 4d 	sethi  %hi(0x13400), %g1
    1884:	ba 10 62 3c 	or  %g1, 0x23c, %i5	! 1363c <pthread_ended>
    1888:	03 00 00 4e 	sethi  %hi(0x13800), %g1
    188c:	82 10 61 50 	or  %g1, 0x150, %g1	! 13950 <pthread_n_workers>
    1890:	c2 00 40 00 	ld  [ %g1 ], %g1
    1894:	c2 27 40 00 	st  %g1, [ %i5 ]
    1898:	03 00 00 3b 	sethi  %hi(0xec00), %g1
    189c:	82 10 61 10 	or  %g1, 0x110, %g1	! ed10 <_data_start>
    18a0:	c2 00 40 00 	ld  [ %g1 ], %g1
    18a4:	c0 20 40 00 	clr  [ %g1 ]
    18a8:	82 10 20 00 	clr  %g1
    18ac:	b0 10 00 01 	mov  %g1, %i0
    18b0:	81 c7 e0 08 	ret 
    18b4:	81 e8 00 00 	restore 

000018b8 <pthread_join_control>:
    18b8:	9d e3 bf 98 	save  %sp, -104, %sp
    18bc:	f0 27 a0 44 	st  %i0, [ %fp + 0x44 ]
    18c0:	03 00 00 3b 	sethi  %hi(0xec00), %g1
    18c4:	82 10 61 10 	or  %g1, 0x110, %g1	! ed10 <_data_start>
    18c8:	c2 00 40 00 	ld  [ %g1 ], %g1
    18cc:	c2 00 40 00 	ld  [ %g1 ], %g1
    18d0:	80 a0 60 00 	cmp  %g1, 0
    18d4:	12 bf ff fb 	bne  18c0 <pthread_join_control+0x8>
    18d8:	01 00 00 00 	nop 
    18dc:	da 07 a0 44 	ld  [ %fp + 0x44 ], %o5
    18e0:	c2 07 a0 44 	ld  [ %fp + 0x44 ], %g1
    18e4:	c2 00 40 00 	ld  [ %g1 ], %g1
    18e8:	82 00 7f ff 	add  %g1, -1, %g1
    18ec:	c2 23 40 00 	st  %g1, [ %o5 ]
    18f0:	d8 07 a0 44 	ld  [ %fp + 0x44 ], %o4
    18f4:	03 00 00 4e 	sethi  %hi(0x13800), %g1
    18f8:	9a 10 61 50 	or  %g1, 0x150, %o5	! 13950 <pthread_n_workers>
    18fc:	03 00 00 39 	sethi  %hi(0xe400), %g1
    1900:	90 10 62 88 	or  %g1, 0x288, %o0	! e688 <__CTOR_END__+0x358>
    1904:	d2 03 00 00 	ld  [ %o4 ], %o1
    1908:	d4 03 40 00 	ld  [ %o5 ], %o2
    190c:	40 00 0a 87 	call  4328 <printf>
    1910:	01 00 00 00 	nop 
    1914:	c2 07 a0 44 	ld  [ %fp + 0x44 ], %g1
    1918:	c2 00 40 00 	ld  [ %g1 ], %g1
    191c:	80 a0 60 00 	cmp  %g1, 0
    1920:	12 80 00 06 	bne  1938 <pthread_join_control+0x80>
    1924:	01 00 00 00 	nop 
    1928:	03 00 00 3d 	sethi  %hi(0xf400), %g1
    192c:	9a 10 60 e8 	or  %g1, 0xe8, %o5	! f4e8 <join_out>
    1930:	82 10 20 01 	mov  1, %g1
    1934:	c2 23 40 00 	st  %g1, [ %o5 ]
    1938:	03 00 00 3b 	sethi  %hi(0xec00), %g1
    193c:	82 10 61 10 	or  %g1, 0x110, %g1	! ed10 <_data_start>
    1940:	c2 00 40 00 	ld  [ %g1 ], %g1
    1944:	c0 20 40 00 	clr  [ %g1 ]
    1948:	03 00 00 3d 	sethi  %hi(0xf400), %g1
    194c:	82 10 60 e8 	or  %g1, 0xe8, %g1	! f4e8 <join_out>
    1950:	c2 00 40 00 	ld  [ %g1 ], %g1
    1954:	80 a0 60 00 	cmp  %g1, 0
    1958:	02 bf ff fc 	be  1948 <pthread_join_control+0x90>
    195c:	01 00 00 00 	nop 
    1960:	90 10 21 f4 	mov  0x1f4, %o0	! 1f4 <main+0xf4>
    1964:	40 00 00 6f 	call  1b20 <pthread_busywait>
    1968:	01 00 00 00 	nop 
    196c:	03 00 00 4d 	sethi  %hi(0x13400), %g1
    1970:	90 10 62 40 	or  %g1, 0x240, %o0	! 13640 <mutex_print>
    1974:	40 00 00 23 	call  1a00 <pthread_mutex_lock>
    1978:	01 00 00 00 	nop 
    197c:	03 00 00 39 	sethi  %hi(0xe400), %g1
    1980:	90 10 62 c0 	or  %g1, 0x2c0, %o0	! e6c0 <__CTOR_END__+0x390>
    1984:	40 00 0a 69 	call  4328 <printf>
    1988:	01 00 00 00 	nop 
    198c:	03 00 00 4d 	sethi  %hi(0x13400), %g1
    1990:	90 10 62 40 	or  %g1, 0x240, %o0	! 13640 <mutex_print>
    1994:	40 00 00 48 	call  1ab4 <pthread_mutex_unlock>
    1998:	01 00 00 00 	nop 
    199c:	01 00 00 00 	nop 
    19a0:	81 c7 e0 08 	ret 
    19a4:	81 e8 00 00 	restore 

000019a8 <pthread_join>:
    19a8:	9d e3 bf 98 	save  %sp, -104, %sp
    19ac:	f2 27 a0 48 	st  %i1, [ %fp + 0x48 ]
    19b0:	81 c7 e0 08 	ret 
    19b4:	81 e8 00 00 	restore 

000019b8 <pthread_mutex_init>:
    19b8:	9d e3 bf 98 	save  %sp, -104, %sp
    19bc:	f0 27 a0 44 	st  %i0, [ %fp + 0x44 ]
    19c0:	f2 27 a0 48 	st  %i1, [ %fp + 0x48 ]
    19c4:	03 00 00 3b 	sethi  %hi(0xec00), %g1
    19c8:	82 10 61 10 	or  %g1, 0x110, %g1	! ed10 <_data_start>
    19cc:	c2 00 40 00 	ld  [ %g1 ], %g1
    19d0:	c2 00 40 00 	ld  [ %g1 ], %g1
    19d4:	80 a0 60 00 	cmp  %g1, 0
    19d8:	12 bf ff fb 	bne  19c4 <pthread_mutex_init+0xc>
    19dc:	01 00 00 00 	nop 
    19e0:	c2 07 a0 44 	ld  [ %fp + 0x44 ], %g1
    19e4:	c0 20 40 00 	clr  [ %g1 ]
    19e8:	03 00 00 3b 	sethi  %hi(0xec00), %g1
    19ec:	82 10 61 10 	or  %g1, 0x110, %g1	! ed10 <_data_start>
    19f0:	c2 00 40 00 	ld  [ %g1 ], %g1
    19f4:	c0 20 40 00 	clr  [ %g1 ]
    19f8:	81 c7 e0 08 	ret 
    19fc:	81 e8 00 00 	restore 

00001a00 <pthread_mutex_lock>:
    1a00:	9d e3 bf 90 	save  %sp, -112, %sp
    1a04:	f0 27 a0 44 	st  %i0, [ %fp + 0x44 ]
    1a08:	03 00 00 3b 	sethi  %hi(0xec00), %g1
    1a0c:	82 10 61 10 	or  %g1, 0x110, %g1	! ed10 <_data_start>
    1a10:	c2 00 40 00 	ld  [ %g1 ], %g1
    1a14:	c2 00 40 00 	ld  [ %g1 ], %g1
    1a18:	80 a0 60 00 	cmp  %g1, 0
    1a1c:	12 bf ff fb 	bne  1a08 <pthread_mutex_lock+0x8>
    1a20:	01 00 00 00 	nop 
    1a24:	01 00 00 00 	nop 
    1a28:	c2 07 a0 44 	ld  [ %fp + 0x44 ], %g1
    1a2c:	c2 00 40 00 	ld  [ %g1 ], %g1
    1a30:	80 a0 60 01 	cmp  %g1, 1
    1a34:	02 80 00 04 	be  1a44 <pthread_mutex_lock+0x44>
    1a38:	01 00 00 00 	nop 
    1a3c:	10 80 00 12 	b  1a84 <pthread_mutex_lock+0x84>
    1a40:	01 00 00 00 	nop 
    1a44:	03 00 00 3b 	sethi  %hi(0xec00), %g1
    1a48:	82 10 61 10 	or  %g1, 0x110, %g1	! ed10 <_data_start>
    1a4c:	c2 00 40 00 	ld  [ %g1 ], %g1
    1a50:	c0 20 40 00 	clr  [ %g1 ]
    1a54:	90 10 21 f4 	mov  0x1f4, %o0
    1a58:	40 00 00 32 	call  1b20 <pthread_busywait>
    1a5c:	01 00 00 00 	nop 
    1a60:	03 00 00 3b 	sethi  %hi(0xec00), %g1
    1a64:	82 10 61 10 	or  %g1, 0x110, %g1	! ed10 <_data_start>
    1a68:	c2 00 40 00 	ld  [ %g1 ], %g1
    1a6c:	c2 00 40 00 	ld  [ %g1 ], %g1
    1a70:	80 a0 60 00 	cmp  %g1, 0
    1a74:	12 bf ff fb 	bne  1a60 <pthread_mutex_lock+0x60>
    1a78:	01 00 00 00 	nop 
    1a7c:	10 bf ff eb 	b  1a28 <pthread_mutex_lock+0x28>
    1a80:	01 00 00 00 	nop 
    1a84:	da 07 a0 44 	ld  [ %fp + 0x44 ], %o5
    1a88:	82 10 20 01 	mov  1, %g1
    1a8c:	c2 23 40 00 	st  %g1, [ %o5 ]
    1a90:	03 00 00 3b 	sethi  %hi(0xec00), %g1
    1a94:	82 10 61 10 	or  %g1, 0x110, %g1	! ed10 <_data_start>
    1a98:	c2 00 40 00 	ld  [ %g1 ], %g1
    1a9c:	c0 20 40 00 	clr  [ %g1 ]
    1aa0:	c0 27 bf f4 	clr  [ %fp + -12 ]
    1aa4:	c2 07 bf f4 	ld  [ %fp + -12 ], %g1
    1aa8:	b0 10 00 01 	mov  %g1, %i0
    1aac:	81 c7 e0 08 	ret 
    1ab0:	81 e8 00 00 	restore 

00001ab4 <pthread_mutex_unlock>:
    1ab4:	9d e3 bf 98 	save  %sp, -104, %sp
    1ab8:	f0 27 a0 44 	st  %i0, [ %fp + 0x44 ]
    1abc:	03 00 00 3b 	sethi  %hi(0xec00), %g1
    1ac0:	82 10 61 10 	or  %g1, 0x110, %g1	! ed10 <_data_start>
    1ac4:	c2 00 40 00 	ld  [ %g1 ], %g1
    1ac8:	c2 00 40 00 	ld  [ %g1 ], %g1
    1acc:	80 a0 60 00 	cmp  %g1, 0
    1ad0:	12 bf ff fb 	bne  1abc <pthread_mutex_unlock+0x8>
    1ad4:	01 00 00 00 	nop 
    1ad8:	c2 07 a0 44 	ld  [ %fp + 0x44 ], %g1
    1adc:	c0 20 40 00 	clr  [ %g1 ]
    1ae0:	03 00 00 3b 	sethi  %hi(0xec00), %g1
    1ae4:	82 10 61 10 	or  %g1, 0x110, %g1	! ed10 <_data_start>
    1ae8:	c2 00 40 00 	ld  [ %g1 ], %g1
    1aec:	c0 20 40 00 	clr  [ %g1 ]
    1af0:	82 10 20 00 	clr  %g1
    1af4:	b0 10 00 01 	mov  %g1, %i0
    1af8:	81 c7 e0 08 	ret 
    1afc:	81 e8 00 00 	restore 

00001b00 <pthread_mutex_destroy>:
    1b00:	9d e3 bf 98 	save  %sp, -104, %sp
    1b04:	f0 27 a0 44 	st  %i0, [ %fp + 0x44 ]
    1b08:	d0 07 a0 44 	ld  [ %fp + 0x44 ], %o0
    1b0c:	40 00 07 ea 	call  3ab4 <free>
    1b10:	01 00 00 00 	nop 
    1b14:	01 00 00 00 	nop 
    1b18:	81 c7 e0 08 	ret 
    1b1c:	81 e8 00 00 	restore 

00001b20 <pthread_busywait>:
    1b20:	9d e3 bf 90 	save  %sp, -112, %sp
    1b24:	f0 27 a0 44 	st  %i0, [ %fp + 0x44 ]
    1b28:	c0 27 bf f4 	clr  [ %fp + -12 ]
    1b2c:	fa 07 bf f4 	ld  [ %fp + -12 ], %i5
    1b30:	c2 07 a0 44 	ld  [ %fp + 0x44 ], %g1
    1b34:	80 a7 40 01 	cmp  %i5, %g1
    1b38:	06 80 00 04 	bl  1b48 <pthread_busywait+0x28>
    1b3c:	01 00 00 00 	nop 
    1b40:	10 80 00 07 	b  1b5c <pthread_busywait+0x3c>
    1b44:	01 00 00 00 	nop 
    1b48:	c2 07 bf f4 	ld  [ %fp + -12 ], %g1
    1b4c:	82 00 60 01 	inc  %g1
    1b50:	c2 27 bf f4 	st  %g1, [ %fp + -12 ]
    1b54:	10 bf ff f6 	b  1b2c <pthread_busywait+0xc>
    1b58:	01 00 00 00 	nop 
    1b5c:	81 c7 e0 08 	ret 
    1b60:	81 e8 00 00 	restore 

00001b64 <pthread_init>:
    1b64:	9d e3 bf 98 	save  %sp, -104, %sp
    1b68:	03 00 00 4d 	sethi  %hi(0x13400), %g1
    1b6c:	90 10 62 44 	or  %g1, 0x244, %o0	! 13644 <tQueue>
    1b70:	7f ff fe 33 	call  143c <initQueue>
    1b74:	01 00 00 00 	nop 
    1b78:	03 00 00 4d 	sethi  %hi(0x13400), %g1
    1b7c:	90 10 62 30 	or  %g1, 0x230, %o0	! 13630 <join>
    1b80:	7f ff ff 32 	call  1848 <pthread_join_init>
    1b84:	01 00 00 00 	nop 
    1b88:	03 00 00 3b 	sethi  %hi(0xec00), %g1
    1b8c:	82 10 61 10 	or  %g1, 0x110, %g1	! ed10 <_data_start>
    1b90:	c2 00 40 00 	ld  [ %g1 ], %g1
    1b94:	c2 00 40 00 	ld  [ %g1 ], %g1
    1b98:	80 a0 60 00 	cmp  %g1, 0
    1b9c:	12 bf ff fb 	bne  1b88 <pthread_init+0x24>
    1ba0:	01 00 00 00 	nop 
    1ba4:	03 00 00 3d 	sethi  %hi(0xf400), %g1
    1ba8:	82 10 60 dc 	or  %g1, 0xdc, %g1	! f4dc <pthread_numberOfActiveThreads>
    1bac:	c0 20 40 00 	clr  [ %g1 ]
    1bb0:	03 00 00 3d 	sethi  %hi(0xf400), %g1
    1bb4:	82 10 60 e4 	or  %g1, 0xe4, %g1	! f4e4 <pthread_free_for_start>
    1bb8:	c0 20 40 00 	clr  [ %g1 ]
    1bbc:	03 00 00 3d 	sethi  %hi(0xf400), %g1
    1bc0:	82 10 60 e0 	or  %g1, 0xe0, %g1	! f4e0 <pthread_finished>
    1bc4:	c0 20 40 00 	clr  [ %g1 ]
    1bc8:	03 00 00 3b 	sethi  %hi(0xec00), %g1
    1bcc:	82 10 61 10 	or  %g1, 0x110, %g1	! ed10 <_data_start>
    1bd0:	c2 00 40 00 	ld  [ %g1 ], %g1
    1bd4:	c0 20 40 00 	clr  [ %g1 ]
    1bd8:	b0 10 00 01 	mov  %g1, %i0
    1bdc:	81 c7 e0 08 	ret 
    1be0:	81 e8 00 00 	restore 

00001be4 <pthread_executeThread>:
    1be4:	9d e3 bf 88 	save  %sp, -120, %sp
    1be8:	01 00 00 00 	nop 
    1bec:	03 00 00 3b 	sethi  %hi(0xec00), %g1
    1bf0:	82 10 61 10 	or  %g1, 0x110, %g1	! ed10 <_data_start>
    1bf4:	c2 00 40 00 	ld  [ %g1 ], %g1
    1bf8:	c2 00 40 00 	ld  [ %g1 ], %g1
    1bfc:	80 a0 60 00 	cmp  %g1, 0
    1c00:	12 bf ff fb 	bne  1bec <pthread_executeThread+0x8>
    1c04:	01 00 00 00 	nop 
    1c08:	03 00 00 3d 	sethi  %hi(0xf400), %g1
    1c0c:	9a 10 60 dc 	or  %g1, 0xdc, %o5	! f4dc <pthread_numberOfActiveThreads>
    1c10:	03 00 00 3d 	sethi  %hi(0xf400), %g1
    1c14:	82 10 60 dc 	or  %g1, 0xdc, %g1	! f4dc <pthread_numberOfActiveThreads>
    1c18:	c2 00 40 00 	ld  [ %g1 ], %g1
    1c1c:	82 00 60 01 	inc  %g1
    1c20:	c2 23 40 00 	st  %g1, [ %o5 ]
    1c24:	03 00 00 3d 	sethi  %hi(0xf400), %g1
    1c28:	82 10 60 dc 	or  %g1, 0xdc, %g1	! f4dc <pthread_numberOfActiveThreads>
    1c2c:	c2 00 40 00 	ld  [ %g1 ], %g1
    1c30:	c2 27 bf f4 	st  %g1, [ %fp + -12 ]
    1c34:	03 00 00 3d 	sethi  %hi(0xf400), %g1
    1c38:	9a 10 60 dc 	or  %g1, 0xdc, %o5	! f4dc <pthread_numberOfActiveThreads>
    1c3c:	03 00 00 4e 	sethi  %hi(0x13800), %g1
    1c40:	82 10 61 50 	or  %g1, 0x150, %g1	! 13950 <pthread_n_workers>
    1c44:	da 03 40 00 	ld  [ %o5 ], %o5
    1c48:	c2 00 40 00 	ld  [ %g1 ], %g1
    1c4c:	80 a3 40 01 	cmp  %o5, %g1
    1c50:	12 80 00 13 	bne  1c9c <pthread_executeThread+0xb8>
    1c54:	01 00 00 00 	nop 
    1c58:	03 00 00 3d 	sethi  %hi(0xf400), %g1
    1c5c:	9a 10 60 dc 	or  %g1, 0xdc, %o5	! f4dc <pthread_numberOfActiveThreads>
    1c60:	03 00 00 39 	sethi  %hi(0xe400), %g1
    1c64:	90 10 62 e0 	or  %g1, 0x2e0, %o0	! e6e0 <__CTOR_END__+0x3b0>
    1c68:	d2 03 40 00 	ld  [ %o5 ], %o1
    1c6c:	40 00 09 af 	call  4328 <printf>
    1c70:	01 00 00 00 	nop 
    1c74:	03 00 00 3d 	sethi  %hi(0xf400), %g1
    1c78:	82 10 60 dc 	or  %g1, 0xdc, %g1	! f4dc <pthread_numberOfActiveThreads>
    1c7c:	c0 20 40 00 	clr  [ %g1 ]
    1c80:	03 00 00 3d 	sethi  %hi(0xf400), %g1
    1c84:	9a 10 60 e4 	or  %g1, 0xe4, %o5	! f4e4 <pthread_free_for_start>
    1c88:	82 10 20 01 	mov  1, %g1
    1c8c:	c2 23 40 00 	st  %g1, [ %o5 ]
    1c90:	03 00 00 3d 	sethi  %hi(0xf400), %g1
    1c94:	82 10 60 d8 	or  %g1, 0xd8, %g1	! f4d8 <pthread_created>
    1c98:	c0 20 40 00 	clr  [ %g1 ]
    1c9c:	03 00 00 3b 	sethi  %hi(0xec00), %g1
    1ca0:	82 10 61 10 	or  %g1, 0x110, %g1	! ed10 <_data_start>
    1ca4:	c2 00 40 00 	ld  [ %g1 ], %g1
    1ca8:	c0 20 40 00 	clr  [ %g1 ]
    1cac:	03 00 00 3d 	sethi  %hi(0xf400), %g1
    1cb0:	82 10 60 e4 	or  %g1, 0xe4, %g1	! f4e4 <pthread_free_for_start>
    1cb4:	c2 00 40 00 	ld  [ %g1 ], %g1
    1cb8:	80 a0 60 00 	cmp  %g1, 0
    1cbc:	02 bf ff fc 	be  1cac <pthread_executeThread+0xc8>
    1cc0:	01 00 00 00 	nop 
    1cc4:	01 00 00 00 	nop 
    1cc8:	03 00 00 3b 	sethi  %hi(0xec00), %g1
    1ccc:	82 10 61 10 	or  %g1, 0x110, %g1	! ed10 <_data_start>
    1cd0:	c2 00 40 00 	ld  [ %g1 ], %g1
    1cd4:	c2 00 40 00 	ld  [ %g1 ], %g1
    1cd8:	80 a0 60 00 	cmp  %g1, 0
    1cdc:	12 bf ff fb 	bne  1cc8 <pthread_executeThread+0xe4>
    1ce0:	01 00 00 00 	nop 
    1ce4:	03 00 00 4d 	sethi  %hi(0x13400), %g1
    1ce8:	90 10 62 44 	or  %g1, 0x244, %o0	! 13644 <tQueue>
    1cec:	7f ff fe 5d 	call  1660 <dequeue>
    1cf0:	01 00 00 00 	nop 
    1cf4:	82 10 00 08 	mov  %o0, %g1
    1cf8:	c2 27 bf f0 	st  %g1, [ %fp + -16 ]
    1cfc:	03 00 00 3b 	sethi  %hi(0xec00), %g1
    1d00:	82 10 61 10 	or  %g1, 0x110, %g1	! ed10 <_data_start>
    1d04:	c2 00 40 00 	ld  [ %g1 ], %g1
    1d08:	c0 20 40 00 	clr  [ %g1 ]
    1d0c:	03 00 00 4d 	sethi  %hi(0x13400), %g1
    1d10:	90 10 62 40 	or  %g1, 0x240, %o0	! 13640 <mutex_print>
    1d14:	7f ff ff 3b 	call  1a00 <pthread_mutex_lock>
    1d18:	01 00 00 00 	nop 
    1d1c:	da 07 bf f0 	ld  [ %fp + -16 ], %o5
    1d20:	03 00 00 39 	sethi  %hi(0xe400), %g1
    1d24:	90 10 63 00 	or  %g1, 0x300, %o0	! e700 <__CTOR_END__+0x3d0>
    1d28:	d2 03 40 00 	ld  [ %o5 ], %o1
    1d2c:	40 00 09 7f 	call  4328 <printf>
    1d30:	01 00 00 00 	nop 
    1d34:	da 07 bf f0 	ld  [ %fp + -16 ], %o5
    1d38:	03 00 00 39 	sethi  %hi(0xe400), %g1
    1d3c:	90 10 63 38 	or  %g1, 0x338, %o0	! e738 <__CTOR_END__+0x408>
    1d40:	d2 03 60 04 	ld  [ %o5 + 4 ], %o1
    1d44:	40 00 09 79 	call  4328 <printf>
    1d48:	01 00 00 00 	nop 
    1d4c:	03 00 00 4d 	sethi  %hi(0x13400), %g1
    1d50:	90 10 62 40 	or  %g1, 0x240, %o0	! 13640 <mutex_print>
    1d54:	7f ff ff 58 	call  1ab4 <pthread_mutex_unlock>
    1d58:	01 00 00 00 	nop 
    1d5c:	c2 07 bf f0 	ld  [ %fp + -16 ], %g1
    1d60:	c2 00 40 00 	ld  [ %g1 ], %g1
    1d64:	c2 27 bf ec 	st  %g1, [ %fp + -20 ]
    1d68:	c2 07 bf f0 	ld  [ %fp + -16 ], %g1
    1d6c:	c2 00 60 04 	ld  [ %g1 + 4 ], %g1
    1d70:	c2 27 bf e8 	st  %g1, [ %fp + -24 ]
    1d74:	c2 07 bf ec 	ld  [ %fp + -20 ], %g1
    1d78:	d0 07 bf e8 	ld  [ %fp + -24 ], %o0
    1d7c:	9f c0 40 00 	call  %g1
    1d80:	01 00 00 00 	nop 
    1d84:	03 00 00 4d 	sethi  %hi(0x13400), %g1
    1d88:	90 10 62 40 	or  %g1, 0x240, %o0	! 13640 <mutex_print>
    1d8c:	7f ff ff 1d 	call  1a00 <pthread_mutex_lock>
    1d90:	01 00 00 00 	nop 
    1d94:	da 07 bf f0 	ld  [ %fp + -16 ], %o5
    1d98:	03 00 00 39 	sethi  %hi(0xe400), %g1
    1d9c:	90 10 63 60 	or  %g1, 0x360, %o0	! e760 <__CTOR_END__+0x430>
    1da0:	d2 03 40 00 	ld  [ %o5 ], %o1
    1da4:	40 00 09 61 	call  4328 <printf>
    1da8:	01 00 00 00 	nop 
    1dac:	da 07 bf f0 	ld  [ %fp + -16 ], %o5
    1db0:	03 00 00 39 	sethi  %hi(0xe400), %g1
    1db4:	90 10 63 38 	or  %g1, 0x338, %o0	! e738 <__CTOR_END__+0x408>
    1db8:	d2 03 60 04 	ld  [ %o5 + 4 ], %o1
    1dbc:	40 00 09 5b 	call  4328 <printf>
    1dc0:	01 00 00 00 	nop 
    1dc4:	03 00 00 4d 	sethi  %hi(0x13400), %g1
    1dc8:	90 10 62 40 	or  %g1, 0x240, %o0	! 13640 <mutex_print>
    1dcc:	7f ff ff 3a 	call  1ab4 <pthread_mutex_unlock>
    1dd0:	01 00 00 00 	nop 
    1dd4:	03 00 00 4d 	sethi  %hi(0x13400), %g1
    1dd8:	90 10 62 30 	or  %g1, 0x230, %o0	! 13630 <join>
    1ddc:	7f ff fe b7 	call  18b8 <pthread_join_control>
    1de0:	01 00 00 00 	nop 
    1de4:	03 00 00 3b 	sethi  %hi(0xec00), %g1
    1de8:	82 10 61 10 	or  %g1, 0x110, %g1	! ed10 <_data_start>
    1dec:	c2 00 40 00 	ld  [ %g1 ], %g1
    1df0:	c2 00 40 00 	ld  [ %g1 ], %g1
    1df4:	80 a0 60 00 	cmp  %g1, 0
    1df8:	12 bf ff fb 	bne  1de4 <pthread_executeThread+0x200>
    1dfc:	01 00 00 00 	nop 
    1e00:	03 00 00 4d 	sethi  %hi(0x13400), %g1
    1e04:	9a 10 62 3c 	or  %g1, 0x23c, %o5	! 1363c <pthread_ended>
    1e08:	03 00 00 4d 	sethi  %hi(0x13400), %g1
    1e0c:	82 10 62 3c 	or  %g1, 0x23c, %g1	! 1363c <pthread_ended>
    1e10:	c2 00 40 00 	ld  [ %g1 ], %g1
    1e14:	82 00 7f ff 	add  %g1, -1, %g1
    1e18:	c2 23 40 00 	st  %g1, [ %o5 ]
    1e1c:	03 00 00 4d 	sethi  %hi(0x13400), %g1
    1e20:	82 10 62 3c 	or  %g1, 0x23c, %g1	! 1363c <pthread_ended>
    1e24:	c2 00 40 00 	ld  [ %g1 ], %g1
    1e28:	c2 27 bf f4 	st  %g1, [ %fp + -12 ]
    1e2c:	03 00 00 3b 	sethi  %hi(0xec00), %g1
    1e30:	82 10 61 10 	or  %g1, 0x110, %g1	! ed10 <_data_start>
    1e34:	c2 00 40 00 	ld  [ %g1 ], %g1
    1e38:	c0 20 40 00 	clr  [ %g1 ]
    1e3c:	c2 07 bf f4 	ld  [ %fp + -12 ], %g1
    1e40:	80 a0 60 00 	cmp  %g1, 0
    1e44:	12 80 00 1f 	bne  1ec0 <pthread_executeThread+0x2dc>
    1e48:	01 00 00 00 	nop 
    1e4c:	03 00 00 3b 	sethi  %hi(0xec00), %g1
    1e50:	82 10 61 10 	or  %g1, 0x110, %g1	! ed10 <_data_start>
    1e54:	c2 00 40 00 	ld  [ %g1 ], %g1
    1e58:	c2 00 40 00 	ld  [ %g1 ], %g1
    1e5c:	80 a0 60 00 	cmp  %g1, 0
    1e60:	12 bf ff fb 	bne  1e4c <pthread_executeThread+0x268>
    1e64:	01 00 00 00 	nop 
    1e68:	03 00 00 4d 	sethi  %hi(0x13400), %g1
    1e6c:	9a 10 62 30 	or  %g1, 0x230, %o5	! 13630 <join>
    1e70:	03 00 00 4e 	sethi  %hi(0x13800), %g1
    1e74:	82 10 61 50 	or  %g1, 0x150, %g1	! 13950 <pthread_n_workers>
    1e78:	c2 00 40 00 	ld  [ %g1 ], %g1
    1e7c:	c2 23 40 00 	st  %g1, [ %o5 ]
    1e80:	03 00 00 3d 	sethi  %hi(0xf400), %g1
    1e84:	82 10 60 e4 	or  %g1, 0xe4, %g1	! f4e4 <pthread_free_for_start>
    1e88:	c0 20 40 00 	clr  [ %g1 ]
    1e8c:	03 00 00 3d 	sethi  %hi(0xf400), %g1
    1e90:	82 10 60 e8 	or  %g1, 0xe8, %g1	! f4e8 <join_out>
    1e94:	c0 20 40 00 	clr  [ %g1 ]
    1e98:	03 00 00 4d 	sethi  %hi(0x13400), %g1
    1e9c:	9a 10 62 3c 	or  %g1, 0x23c, %o5	! 1363c <pthread_ended>
    1ea0:	03 00 00 4e 	sethi  %hi(0x13800), %g1
    1ea4:	82 10 61 50 	or  %g1, 0x150, %g1	! 13950 <pthread_n_workers>
    1ea8:	c2 00 40 00 	ld  [ %g1 ], %g1
    1eac:	c2 23 40 00 	st  %g1, [ %o5 ]
    1eb0:	03 00 00 3b 	sethi  %hi(0xec00), %g1
    1eb4:	82 10 61 10 	or  %g1, 0x110, %g1	! ed10 <_data_start>
    1eb8:	c2 00 40 00 	ld  [ %g1 ], %g1
    1ebc:	c0 20 40 00 	clr  [ %g1 ]
    1ec0:	81 c7 e0 08 	ret 
    1ec4:	81 e8 00 00 	restore 

00001ec8 <pthread_create>:
    1ec8:	9d e3 bf 80 	save  %sp, -128, %sp
    1ecc:	f0 27 a0 44 	st  %i0, [ %fp + 0x44 ]
    1ed0:	f2 27 a0 48 	st  %i1, [ %fp + 0x48 ]
    1ed4:	f4 27 a0 4c 	st  %i2, [ %fp + 0x4c ]
    1ed8:	f6 27 a0 50 	st  %i3, [ %fp + 0x50 ]
    1edc:	82 07 bf e8 	add  %fp, -24, %g1
    1ee0:	90 10 00 01 	mov  %g1, %o0
    1ee4:	d2 07 a0 4c 	ld  [ %fp + 0x4c ], %o1
    1ee8:	d4 07 a0 50 	ld  [ %fp + 0x50 ], %o2
    1eec:	7f ff fd 48 	call  140c <initNode>
    1ef0:	01 00 00 00 	nop 
    1ef4:	03 00 00 3b 	sethi  %hi(0xec00), %g1
    1ef8:	82 10 61 10 	or  %g1, 0x110, %g1	! ed10 <_data_start>
    1efc:	c2 00 40 00 	ld  [ %g1 ], %g1
    1f00:	c2 00 40 00 	ld  [ %g1 ], %g1
    1f04:	80 a0 60 00 	cmp  %g1, 0
    1f08:	12 bf ff fb 	bne  1ef4 <pthread_create+0x2c>
    1f0c:	01 00 00 00 	nop 
    1f10:	9a 07 bf e8 	add  %fp, -24, %o5
    1f14:	03 00 00 4d 	sethi  %hi(0x13400), %g1
    1f18:	90 10 62 44 	or  %g1, 0x244, %o0	! 13644 <tQueue>
    1f1c:	92 10 00 0d 	mov  %o5, %o1
    1f20:	7f ff fd 90 	call  1560 <enqueue>
    1f24:	01 00 00 00 	nop 
    1f28:	03 00 00 3b 	sethi  %hi(0xec00), %g1
    1f2c:	82 10 61 10 	or  %g1, 0x110, %g1	! ed10 <_data_start>
    1f30:	c2 00 40 00 	ld  [ %g1 ], %g1
    1f34:	c0 20 40 00 	clr  [ %g1 ]
    1f38:	03 00 00 4d 	sethi  %hi(0x13400), %g1
    1f3c:	90 10 62 44 	or  %g1, 0x244, %o0	! 13644 <tQueue>
    1f40:	7f ff fe 04 	call  1750 <size>
    1f44:	01 00 00 00 	nop 
    1f48:	82 10 00 08 	mov  %o0, %g1
    1f4c:	c2 27 bf e4 	st  %g1, [ %fp + -28 ]
    1f50:	03 00 00 4e 	sethi  %hi(0x13800), %g1
    1f54:	82 10 61 50 	or  %g1, 0x150, %g1	! 13950 <pthread_n_workers>
    1f58:	da 07 bf e4 	ld  [ %fp + -28 ], %o5
    1f5c:	c2 00 40 00 	ld  [ %g1 ], %g1
    1f60:	80 a3 40 01 	cmp  %o5, %g1
    1f64:	12 80 00 13 	bne  1fb0 <pthread_create+0xe8>
    1f68:	01 00 00 00 	nop 
    1f6c:	03 00 00 3b 	sethi  %hi(0xec00), %g1
    1f70:	82 10 61 10 	or  %g1, 0x110, %g1	! ed10 <_data_start>
    1f74:	c2 00 40 00 	ld  [ %g1 ], %g1
    1f78:	c2 00 40 00 	ld  [ %g1 ], %g1
    1f7c:	80 a0 60 00 	cmp  %g1, 0
    1f80:	12 bf ff fb 	bne  1f6c <pthread_create+0xa4>
    1f84:	01 00 00 00 	nop 
    1f88:	03 00 00 3d 	sethi  %hi(0xf400), %g1
    1f8c:	9a 10 60 d8 	or  %g1, 0xd8, %o5	! f4d8 <pthread_created>
    1f90:	82 10 20 01 	mov  1, %g1
    1f94:	c2 23 40 00 	st  %g1, [ %o5 ]
    1f98:	03 00 00 3b 	sethi  %hi(0xec00), %g1
    1f9c:	82 10 61 10 	or  %g1, 0x110, %g1	! ed10 <_data_start>
    1fa0:	c2 00 40 00 	ld  [ %g1 ], %g1
    1fa4:	c0 20 40 00 	clr  [ %g1 ]
    1fa8:	7f ff ff 0f 	call  1be4 <pthread_executeThread>
    1fac:	01 00 00 00 	nop 
    1fb0:	82 10 20 00 	clr  %g1	! 0 <__DYNAMIC>
    1fb4:	b0 10 00 01 	mov  %g1, %i0
    1fb8:	81 c7 e0 08 	ret 
    1fbc:	81 e8 00 00 	restore 

00001fc0 <pthread_cond_init>:
    1fc0:	9d e3 bf 98 	save  %sp, -104, %sp
    1fc4:	f0 27 a0 44 	st  %i0, [ %fp + 0x44 ]
    1fc8:	f2 27 a0 48 	st  %i1, [ %fp + 0x48 ]
    1fcc:	c2 07 a0 44 	ld  [ %fp + 0x44 ], %g1
    1fd0:	c0 20 40 00 	clr  [ %g1 ]
    1fd4:	b0 10 00 01 	mov  %g1, %i0
    1fd8:	81 c7 e0 08 	ret 
    1fdc:	81 e8 00 00 	restore 

00001fe0 <pthread_cond_wait>:
    1fe0:	9d e3 bf 98 	save  %sp, -104, %sp
    1fe4:	f0 27 a0 44 	st  %i0, [ %fp + 0x44 ]
    1fe8:	f2 27 a0 48 	st  %i1, [ %fp + 0x48 ]
    1fec:	d0 07 a0 48 	ld  [ %fp + 0x48 ], %o0
    1ff0:	7f ff fe b1 	call  1ab4 <pthread_mutex_unlock>
    1ff4:	01 00 00 00 	nop 
    1ff8:	c2 07 a0 44 	ld  [ %fp + 0x44 ], %g1
    1ffc:	c2 00 40 00 	ld  [ %g1 ], %g1
    2000:	80 a0 60 00 	cmp  %g1, 0
    2004:	02 bf ff fd 	be  1ff8 <pthread_cond_wait+0x18>
    2008:	01 00 00 00 	nop 
    200c:	b0 10 00 01 	mov  %g1, %i0
    2010:	81 c7 e0 08 	ret 
    2014:	81 e8 00 00 	restore 

00002018 <pthread_cond_broadcast>:
    2018:	9d e3 bf 90 	save  %sp, -112, %sp
    201c:	f0 27 a0 44 	st  %i0, [ %fp + 0x44 ]
    2020:	fa 07 a0 44 	ld  [ %fp + 0x44 ], %i5
    2024:	82 10 20 01 	mov  1, %g1
    2028:	c2 27 40 00 	st  %g1, [ %i5 ]
    202c:	c0 27 bf f4 	clr  [ %fp + -12 ]
    2030:	c2 07 bf f4 	ld  [ %fp + -12 ], %g1
    2034:	80 a0 65 dc 	cmp  %g1, 0x5dc
    2038:	04 80 00 04 	ble  2048 <pthread_cond_broadcast+0x30>
    203c:	01 00 00 00 	nop 
    2040:	10 80 00 07 	b  205c <pthread_cond_broadcast+0x44>
    2044:	01 00 00 00 	nop 
    2048:	c2 07 bf f4 	ld  [ %fp + -12 ], %g1
    204c:	82 00 60 01 	inc  %g1
    2050:	c2 27 bf f4 	st  %g1, [ %fp + -12 ]
    2054:	10 bf ff f7 	b  2030 <pthread_cond_broadcast+0x18>
    2058:	01 00 00 00 	nop 
    205c:	c2 07 a0 44 	ld  [ %fp + 0x44 ], %g1
    2060:	c0 20 40 00 	clr  [ %g1 ]
    2064:	b0 10 00 01 	mov  %g1, %i0
    2068:	81 c7 e0 08 	ret 
    206c:	81 e8 00 00 	restore 

00002070 <pthread_barrier_init>:
    2070:	9d e3 bf 98 	save  %sp, -104, %sp
    2074:	f0 27 a0 44 	st  %i0, [ %fp + 0x44 ]
    2078:	f2 27 a0 48 	st  %i1, [ %fp + 0x48 ]
    207c:	03 00 00 3b 	sethi  %hi(0xec00), %g1
    2080:	82 10 61 10 	or  %g1, 0x110, %g1	! ed10 <_data_start>
    2084:	c2 00 40 00 	ld  [ %g1 ], %g1
    2088:	c2 00 40 00 	ld  [ %g1 ], %g1
    208c:	80 a0 60 00 	cmp  %g1, 0
    2090:	12 bf ff fb 	bne  207c <pthread_barrier_init+0xc>
    2094:	01 00 00 00 	nop 
    2098:	c2 07 a0 44 	ld  [ %fp + 0x44 ], %g1
    209c:	c0 20 60 0c 	clr  [ %g1 + 0xc ]
    20a0:	f8 07 a0 44 	ld  [ %fp + 0x44 ], %i4
    20a4:	fa 07 a0 44 	ld  [ %fp + 0x44 ], %i5
    20a8:	c2 07 a0 48 	ld  [ %fp + 0x48 ], %g1
    20ac:	c2 27 60 04 	st  %g1, [ %i5 + 4 ]
    20b0:	c2 27 20 08 	st  %g1, [ %i4 + 8 ]
    20b4:	03 00 00 3b 	sethi  %hi(0xec00), %g1
    20b8:	82 10 61 10 	or  %g1, 0x110, %g1	! ed10 <_data_start>
    20bc:	c2 00 40 00 	ld  [ %g1 ], %g1
    20c0:	c0 20 40 00 	clr  [ %g1 ]
    20c4:	81 c7 e0 08 	ret 
    20c8:	81 e8 00 00 	restore 

000020cc <pthread_barrier_wait>:
    20cc:	9d e3 bf 90 	save  %sp, -112, %sp
    20d0:	f0 27 a0 44 	st  %i0, [ %fp + 0x44 ]
    20d4:	03 00 00 3b 	sethi  %hi(0xec00), %g1
    20d8:	82 10 61 10 	or  %g1, 0x110, %g1	! ed10 <_data_start>
    20dc:	c2 00 40 00 	ld  [ %g1 ], %g1
    20e0:	c2 00 40 00 	ld  [ %g1 ], %g1
    20e4:	80 a0 60 00 	cmp  %g1, 0
    20e8:	12 bf ff fb 	bne  20d4 <pthread_barrier_wait+0x8>
    20ec:	01 00 00 00 	nop 
    20f0:	c2 07 a0 44 	ld  [ %fp + 0x44 ], %g1
    20f4:	c2 00 60 0c 	ld  [ %g1 + 0xc ], %g1
    20f8:	c2 27 bf f0 	st  %g1, [ %fp + -16 ]
    20fc:	fa 07 a0 44 	ld  [ %fp + 0x44 ], %i5
    2100:	c2 07 a0 44 	ld  [ %fp + 0x44 ], %g1
    2104:	c2 00 60 08 	ld  [ %g1 + 8 ], %g1
    2108:	82 00 7f ff 	add  %g1, -1, %g1
    210c:	c2 27 60 08 	st  %g1, [ %i5 + 8 ]
    2110:	80 a0 60 00 	cmp  %g1, 0
    2114:	12 80 00 15 	bne  2168 <pthread_barrier_wait+0x9c>
    2118:	01 00 00 00 	nop 
    211c:	fa 07 a0 44 	ld  [ %fp + 0x44 ], %i5
    2120:	c2 07 a0 44 	ld  [ %fp + 0x44 ], %g1
    2124:	c2 00 60 0c 	ld  [ %g1 + 0xc ], %g1
    2128:	82 18 60 00 	xor  %g1, 0, %g1
    212c:	80 a0 00 01 	cmp  %g0, %g1
    2130:	82 60 3f ff 	subx  %g0, -1, %g1
    2134:	c2 27 60 0c 	st  %g1, [ %i5 + 0xc ]
    2138:	fa 07 a0 44 	ld  [ %fp + 0x44 ], %i5
    213c:	c2 07 a0 44 	ld  [ %fp + 0x44 ], %g1
    2140:	c2 00 60 04 	ld  [ %g1 + 4 ], %g1
    2144:	c2 27 60 08 	st  %g1, [ %i5 + 8 ]
    2148:	03 00 00 3b 	sethi  %hi(0xec00), %g1
    214c:	82 10 61 10 	or  %g1, 0x110, %g1	! ed10 <_data_start>
    2150:	c2 00 40 00 	ld  [ %g1 ], %g1
    2154:	c0 20 40 00 	clr  [ %g1 ]
    2158:	82 10 20 01 	mov  1, %g1
    215c:	c2 27 bf f4 	st  %g1, [ %fp + -12 ]
    2160:	10 80 00 0e 	b  2198 <pthread_barrier_wait+0xcc>
    2164:	01 00 00 00 	nop 
    2168:	03 00 00 3b 	sethi  %hi(0xec00), %g1
    216c:	82 10 61 10 	or  %g1, 0x110, %g1	! ed10 <_data_start>
    2170:	c2 00 40 00 	ld  [ %g1 ], %g1
    2174:	c0 20 40 00 	clr  [ %g1 ]
    2178:	c2 07 a0 44 	ld  [ %fp + 0x44 ], %g1
    217c:	fa 07 bf f0 	ld  [ %fp + -16 ], %i5
    2180:	c2 00 60 0c 	ld  [ %g1 + 0xc ], %g1
    2184:	80 a7 40 01 	cmp  %i5, %g1
    2188:	02 bf ff fc 	be  2178 <pthread_barrier_wait+0xac>
    218c:	01 00 00 00 	nop 
    2190:	82 10 20 01 	mov  1, %g1	! 1 <__DYNAMIC+0x1>
    2194:	c2 27 bf f4 	st  %g1, [ %fp + -12 ]
    2198:	c2 07 bf f4 	ld  [ %fp + -12 ], %g1
    219c:	b0 10 00 01 	mov  %g1, %i0
    21a0:	81 c7 e0 08 	ret 
    21a4:	81 e8 00 00 	restore 

000021a8 <acPthread_malloc>:
    21a8:	9d e3 bf 90 	save  %sp, -112, %sp
    21ac:	f0 27 a0 44 	st  %i0, [ %fp + 0x44 ]
    21b0:	03 00 00 4d 	sethi  %hi(0x13400), %g1
    21b4:	90 10 62 38 	or  %g1, 0x238, %o0	! 13638 <mutex_malloc>
    21b8:	7f ff fe 12 	call  1a00 <pthread_mutex_lock>
    21bc:	01 00 00 00 	nop 
    21c0:	d0 07 a0 44 	ld  [ %fp + 0x44 ], %o0
    21c4:	40 00 06 34 	call  3a94 <malloc>
    21c8:	01 00 00 00 	nop 
    21cc:	82 10 00 08 	mov  %o0, %g1
    21d0:	c2 27 bf f4 	st  %g1, [ %fp + -12 ]
    21d4:	03 00 00 4d 	sethi  %hi(0x13400), %g1
    21d8:	90 10 62 38 	or  %g1, 0x238, %o0	! 13638 <mutex_malloc>
    21dc:	7f ff fe 36 	call  1ab4 <pthread_mutex_unlock>
    21e0:	01 00 00 00 	nop 
    21e4:	c2 07 bf f4 	ld  [ %fp + -12 ], %g1
    21e8:	b0 10 00 01 	mov  %g1, %i0
    21ec:	81 c7 e0 08 	ret 
    21f0:	81 e8 00 00 	restore 

000021f4 <acPthread_realloc>:
    21f4:	9d e3 bf 90 	save  %sp, -112, %sp
    21f8:	f0 27 a0 44 	st  %i0, [ %fp + 0x44 ]
    21fc:	f2 27 a0 48 	st  %i1, [ %fp + 0x48 ]
    2200:	03 00 00 4d 	sethi  %hi(0x13400), %g1
    2204:	90 10 62 38 	or  %g1, 0x238, %o0	! 13638 <mutex_malloc>
    2208:	7f ff fd fe 	call  1a00 <pthread_mutex_lock>
    220c:	01 00 00 00 	nop 
    2210:	d0 07 a0 44 	ld  [ %fp + 0x44 ], %o0
    2214:	d2 07 a0 48 	ld  [ %fp + 0x48 ], %o1
    2218:	40 00 08 53 	call  4364 <realloc>
    221c:	01 00 00 00 	nop 
    2220:	d0 27 bf f4 	st  %o0, [ %fp + -12 ]
    2224:	03 00 00 4d 	sethi  %hi(0x13400), %g1
    2228:	90 10 62 38 	or  %g1, 0x238, %o0	! 13638 <mutex_malloc>
    222c:	7f ff fe 22 	call  1ab4 <pthread_mutex_unlock>
    2230:	01 00 00 00 	nop 
    2234:	c2 07 bf f4 	ld  [ %fp + -12 ], %g1
    2238:	b0 10 00 01 	mov  %g1, %i0
    223c:	81 c7 e0 08 	ret 
    2240:	81 e8 00 00 	restore 

00002244 <acPthread_calloc>:
    2244:	9d e3 bf 90 	save  %sp, -112, %sp
    2248:	f0 27 a0 44 	st  %i0, [ %fp + 0x44 ]
    224c:	f2 27 a0 48 	st  %i1, [ %fp + 0x48 ]
    2250:	03 00 00 4d 	sethi  %hi(0x13400), %g1
    2254:	90 10 62 38 	or  %g1, 0x238, %o0	! 13638 <mutex_malloc>
    2258:	7f ff fd ea 	call  1a00 <pthread_mutex_lock>
    225c:	01 00 00 00 	nop 
    2260:	d0 07 a0 44 	ld  [ %fp + 0x44 ], %o0
    2264:	d2 07 a0 48 	ld  [ %fp + 0x48 ], %o1
    2268:	40 00 01 ae 	call  2920 <calloc>
    226c:	01 00 00 00 	nop 
    2270:	82 10 00 08 	mov  %o0, %g1
    2274:	c2 27 bf f4 	st  %g1, [ %fp + -12 ]
    2278:	03 00 00 4d 	sethi  %hi(0x13400), %g1
    227c:	90 10 62 38 	or  %g1, 0x238, %o0	! 13638 <mutex_malloc>
    2280:	7f ff fe 0d 	call  1ab4 <pthread_mutex_unlock>
    2284:	01 00 00 00 	nop 
    2288:	c2 07 bf f4 	ld  [ %fp + -12 ], %g1
    228c:	b0 10 00 01 	mov  %g1, %i0
    2290:	81 c7 e0 08 	ret 
    2294:	81 e8 00 00 	restore 

00002298 <acPthread_free>:
    2298:	9d e3 bf 98 	save  %sp, -104, %sp
    229c:	f0 27 a0 44 	st  %i0, [ %fp + 0x44 ]
    22a0:	03 00 00 4d 	sethi  %hi(0x13400), %g1
    22a4:	90 10 62 38 	or  %g1, 0x238, %o0	! 13638 <mutex_malloc>
    22a8:	7f ff fd d6 	call  1a00 <pthread_mutex_lock>
    22ac:	01 00 00 00 	nop 
    22b0:	d0 07 a0 44 	ld  [ %fp + 0x44 ], %o0
    22b4:	40 00 06 00 	call  3ab4 <free>
    22b8:	01 00 00 00 	nop 
    22bc:	03 00 00 4d 	sethi  %hi(0x13400), %g1
    22c0:	90 10 62 38 	or  %g1, 0x238, %o0	! 13638 <mutex_malloc>
    22c4:	7f ff fd fc 	call  1ab4 <pthread_mutex_unlock>
    22c8:	01 00 00 00 	nop 
    22cc:	01 00 00 00 	nop 
    22d0:	81 c7 e0 08 	ret 
    22d4:	81 e8 00 00 	restore 

000022d8 <.umul>:
    22d8:	98 12 00 09 	or  %o0, %o1, %o4
    22dc:	81 82 00 00 	mov  %o0, %y
    22e0:	9a ab 2f ff 	andncc  %o4, 0xfff, %o5
    22e4:	02 80 00 25 	be  2378 <mul_shortway>
    22e8:	98 88 00 00 	andcc  %g0, %g0, %o4
    22ec:	99 23 00 09 	mulscc  %o4, %o1, %o4
    22f0:	99 23 00 09 	mulscc  %o4, %o1, %o4
    22f4:	99 23 00 09 	mulscc  %o4, %o1, %o4
    22f8:	99 23 00 09 	mulscc  %o4, %o1, %o4
    22fc:	99 23 00 09 	mulscc  %o4, %o1, %o4
    2300:	99 23 00 09 	mulscc  %o4, %o1, %o4
    2304:	99 23 00 09 	mulscc  %o4, %o1, %o4
    2308:	99 23 00 09 	mulscc  %o4, %o1, %o4
    230c:	99 23 00 09 	mulscc  %o4, %o1, %o4
    2310:	99 23 00 09 	mulscc  %o4, %o1, %o4
    2314:	99 23 00 09 	mulscc  %o4, %o1, %o4
    2318:	99 23 00 09 	mulscc  %o4, %o1, %o4
    231c:	99 23 00 09 	mulscc  %o4, %o1, %o4
    2320:	99 23 00 09 	mulscc  %o4, %o1, %o4
    2324:	99 23 00 09 	mulscc  %o4, %o1, %o4
    2328:	99 23 00 09 	mulscc  %o4, %o1, %o4
    232c:	99 23 00 09 	mulscc  %o4, %o1, %o4
    2330:	99 23 00 09 	mulscc  %o4, %o1, %o4
    2334:	99 23 00 09 	mulscc  %o4, %o1, %o4
    2338:	99 23 00 09 	mulscc  %o4, %o1, %o4
    233c:	99 23 00 09 	mulscc  %o4, %o1, %o4
    2340:	99 23 00 09 	mulscc  %o4, %o1, %o4
    2344:	99 23 00 09 	mulscc  %o4, %o1, %o4
    2348:	99 23 00 09 	mulscc  %o4, %o1, %o4
    234c:	99 23 00 09 	mulscc  %o4, %o1, %o4
    2350:	99 23 00 09 	mulscc  %o4, %o1, %o4
    2354:	99 23 00 09 	mulscc  %o4, %o1, %o4
    2358:	99 23 00 09 	mulscc  %o4, %o1, %o4
    235c:	99 23 00 09 	mulscc  %o4, %o1, %o4
    2360:	99 23 00 09 	mulscc  %o4, %o1, %o4
    2364:	99 23 00 09 	mulscc  %o4, %o1, %o4
    2368:	99 23 00 09 	mulscc  %o4, %o1, %o4
    236c:	99 23 00 00 	mulscc  %o4, %g0, %o4
    2370:	81 c3 e0 08 	retl 
    2374:	91 40 00 00 	rd  %y, %o0

00002378 <mul_shortway>:
    2378:	99 23 00 09 	mulscc  %o4, %o1, %o4
    237c:	99 23 00 09 	mulscc  %o4, %o1, %o4
    2380:	99 23 00 09 	mulscc  %o4, %o1, %o4
    2384:	99 23 00 09 	mulscc  %o4, %o1, %o4
    2388:	99 23 00 09 	mulscc  %o4, %o1, %o4
    238c:	99 23 00 09 	mulscc  %o4, %o1, %o4
    2390:	99 23 00 09 	mulscc  %o4, %o1, %o4
    2394:	99 23 00 09 	mulscc  %o4, %o1, %o4
    2398:	99 23 00 09 	mulscc  %o4, %o1, %o4
    239c:	99 23 00 09 	mulscc  %o4, %o1, %o4
    23a0:	99 23 00 09 	mulscc  %o4, %o1, %o4
    23a4:	99 23 00 09 	mulscc  %o4, %o1, %o4
    23a8:	99 23 00 00 	mulscc  %o4, %g0, %o4
    23ac:	9b 40 00 00 	rd  %y, %o5
    23b0:	99 2b 20 0c 	sll  %o4, 0xc, %o4
    23b4:	9b 33 60 14 	srl  %o5, 0x14, %o5
    23b8:	81 c3 e0 08 	retl 
    23bc:	90 13 40 0c 	or  %o5, %o4, %o0

000023c0 <.udiv>:
    23c0:	10 80 00 0b 	b  23ec <ready_to_divide>
    23c4:	86 10 20 00 	clr  %g3

000023c8 <.div>:
    23c8:	80 92 40 08 	orcc  %o1, %o0, %g0
    23cc:	16 80 00 08 	bge  23ec <ready_to_divide>
    23d0:	86 1a 40 08 	xor  %o1, %o0, %g3
    23d4:	80 92 40 00 	tst  %o1
    23d8:	16 80 00 04 	bge  23e8 <.div+0x20>
    23dc:	80 92 00 00 	tst  %o0
    23e0:	16 80 00 03 	bge  23ec <ready_to_divide>
    23e4:	92 20 00 09 	neg  %o1
    23e8:	90 20 00 08 	neg  %o0

000023ec <ready_to_divide>:
    23ec:	9a 92 40 00 	orcc  %o1, %g0, %o5
    23f0:	12 80 00 05 	bne  2404 <ready_to_divide+0x18>
    23f4:	96 10 00 08 	mov  %o0, %o3
    23f8:	91 d0 20 02 	ta  2
    23fc:	81 c3 e0 08 	retl 
    2400:	90 10 00 00 	mov  %g0, %o0
    2404:	80 a2 c0 0d 	cmp  %o3, %o5
    2408:	0a 80 00 95 	bcs  265c <got_result>
    240c:	94 10 00 00 	mov  %g0, %o2
    2410:	03 02 00 00 	sethi  %hi(0x8000000), %g1
    2414:	80 a2 c0 01 	cmp  %o3, %g1
    2418:	0a 80 00 28 	bcs  24b8 <not_really_big>
    241c:	98 10 00 00 	mov  %g0, %o4
    2420:	80 a3 40 01 	cmp  %o5, %g1
    2424:	1a 80 00 0d 	bcc  2458 <not_too_big>
    2428:	84 10 20 01 	mov  1, %g2
    242c:	9b 2b 60 04 	sll  %o5, 4, %o5
    2430:	10 bf ff fc 	b  2420 <ready_to_divide+0x34>
    2434:	98 03 20 01 	inc  %o4
    2438:	9a 83 40 0d 	addcc  %o5, %o5, %o5
    243c:	1a 80 00 07 	bcc  2458 <not_too_big>
    2440:	84 00 a0 01 	inc  %g2
    2444:	83 28 60 04 	sll  %g1, 4, %g1
    2448:	9b 33 60 01 	srl  %o5, 1, %o5
    244c:	9a 03 40 01 	add  %o5, %g1, %o5
    2450:	10 80 00 07 	b  246c <do_single_div>
    2454:	84 20 a0 01 	dec  %g2

00002458 <not_too_big>:
    2458:	80 a3 40 0b 	cmp  %o5, %o3
    245c:	0a bf ff f7 	bcs  2438 <ready_to_divide+0x4c>
    2460:	01 00 00 00 	nop 
    2464:	02 80 00 02 	be  246c <do_single_div>
    2468:	01 00 00 00 	nop 

0000246c <do_single_div>:
    246c:	84 a0 a0 01 	deccc  %g2
    2470:	06 80 00 76 	bl  2648 <end_regular_divide>
    2474:	01 00 00 00 	nop 
    2478:	96 22 c0 0d 	sub  %o3, %o5, %o3
    247c:	94 10 20 01 	mov  1, %o2
    2480:	10 80 00 0a 	b  24a8 <end_single_divloop>
    2484:	01 00 00 00 	nop 

00002488 <single_divloop>:
    2488:	95 2a a0 01 	sll  %o2, 1, %o2
    248c:	06 80 00 05 	bl  24a0 <single_divloop+0x18>
    2490:	9b 33 60 01 	srl  %o5, 1, %o5
    2494:	96 22 c0 0d 	sub  %o3, %o5, %o3
    2498:	10 80 00 04 	b  24a8 <end_single_divloop>
    249c:	94 02 a0 01 	inc  %o2
    24a0:	96 02 c0 0d 	add  %o3, %o5, %o3
    24a4:	94 22 a0 01 	dec  %o2

000024a8 <end_single_divloop>:
    24a8:	84 a0 a0 01 	deccc  %g2
    24ac:	16 bf ff f7 	bge  2488 <single_divloop>
    24b0:	80 92 c0 00 	tst  %o3
    24b4:	30 80 00 65 	b,a   2648 <end_regular_divide>

000024b8 <not_really_big>:
    24b8:	9b 2b 60 04 	sll  %o5, 4, %o5
    24bc:	80 a3 40 0b 	cmp  %o5, %o3
    24c0:	08 bf ff fe 	bleu  24b8 <not_really_big>
    24c4:	98 83 20 01 	inccc  %o4
    24c8:	02 80 00 65 	be  265c <got_result>
    24cc:	98 23 20 01 	dec  %o4
    24d0:	80 92 c0 00 	tst  %o3

000024d4 <divloop>:
    24d4:	95 2a a0 04 	sll  %o2, 4, %o2
    24d8:	06 80 00 2f 	bl  2594 <L1.16>
    24dc:	9b 33 60 01 	srl  %o5, 1, %o5
    24e0:	96 a2 c0 0d 	subcc  %o3, %o5, %o3
    24e4:	06 80 00 17 	bl  2540 <L2.17>
    24e8:	9b 33 60 01 	srl  %o5, 1, %o5
    24ec:	96 a2 c0 0d 	subcc  %o3, %o5, %o3
    24f0:	06 80 00 0b 	bl  251c <L3.19>
    24f4:	9b 33 60 01 	srl  %o5, 1, %o5
    24f8:	96 a2 c0 0d 	subcc  %o3, %o5, %o3
    24fc:	06 80 00 05 	bl  2510 <L4.23>
    2500:	9b 33 60 01 	srl  %o5, 1, %o5
    2504:	96 a2 c0 0d 	subcc  %o3, %o5, %o3
    2508:	10 80 00 50 	b  2648 <end_regular_divide>
    250c:	94 02 a0 0f 	add  %o2, 0xf, %o2

00002510 <L4.23>:
    2510:	96 82 c0 0d 	addcc  %o3, %o5, %o3
    2514:	10 80 00 4d 	b  2648 <end_regular_divide>
    2518:	94 02 a0 0d 	add  %o2, 0xd, %o2

0000251c <L3.19>:
    251c:	96 82 c0 0d 	addcc  %o3, %o5, %o3
    2520:	06 80 00 05 	bl  2534 <L4.21>
    2524:	9b 33 60 01 	srl  %o5, 1, %o5
    2528:	96 a2 c0 0d 	subcc  %o3, %o5, %o3
    252c:	10 80 00 47 	b  2648 <end_regular_divide>
    2530:	94 02 a0 0b 	add  %o2, 0xb, %o2

00002534 <L4.21>:
    2534:	96 82 c0 0d 	addcc  %o3, %o5, %o3
    2538:	10 80 00 44 	b  2648 <end_regular_divide>
    253c:	94 02 a0 09 	add  %o2, 9, %o2

00002540 <L2.17>:
    2540:	96 82 c0 0d 	addcc  %o3, %o5, %o3
    2544:	06 80 00 0b 	bl  2570 <L3.17>
    2548:	9b 33 60 01 	srl  %o5, 1, %o5
    254c:	96 a2 c0 0d 	subcc  %o3, %o5, %o3
    2550:	06 80 00 05 	bl  2564 <L4.19>
    2554:	9b 33 60 01 	srl  %o5, 1, %o5
    2558:	96 a2 c0 0d 	subcc  %o3, %o5, %o3
    255c:	10 80 00 3b 	b  2648 <end_regular_divide>
    2560:	94 02 a0 07 	add  %o2, 7, %o2

00002564 <L4.19>:
    2564:	96 82 c0 0d 	addcc  %o3, %o5, %o3
    2568:	10 80 00 38 	b  2648 <end_regular_divide>
    256c:	94 02 a0 05 	add  %o2, 5, %o2

00002570 <L3.17>:
    2570:	96 82 c0 0d 	addcc  %o3, %o5, %o3
    2574:	06 80 00 05 	bl  2588 <L4.17>
    2578:	9b 33 60 01 	srl  %o5, 1, %o5
    257c:	96 a2 c0 0d 	subcc  %o3, %o5, %o3
    2580:	10 80 00 32 	b  2648 <end_regular_divide>
    2584:	94 02 a0 03 	add  %o2, 3, %o2

00002588 <L4.17>:
    2588:	96 82 c0 0d 	addcc  %o3, %o5, %o3
    258c:	10 80 00 2f 	b  2648 <end_regular_divide>
    2590:	94 02 a0 01 	inc  %o2

00002594 <L1.16>:
    2594:	96 82 c0 0d 	addcc  %o3, %o5, %o3
    2598:	06 80 00 17 	bl  25f4 <L2.15>
    259c:	9b 33 60 01 	srl  %o5, 1, %o5
    25a0:	96 a2 c0 0d 	subcc  %o3, %o5, %o3
    25a4:	06 80 00 0b 	bl  25d0 <L3.15>
    25a8:	9b 33 60 01 	srl  %o5, 1, %o5
    25ac:	96 a2 c0 0d 	subcc  %o3, %o5, %o3
    25b0:	06 80 00 05 	bl  25c4 <L4.15>
    25b4:	9b 33 60 01 	srl  %o5, 1, %o5
    25b8:	96 a2 c0 0d 	subcc  %o3, %o5, %o3
    25bc:	10 80 00 23 	b  2648 <end_regular_divide>
    25c0:	94 02 bf ff 	add  %o2, -1, %o2

000025c4 <L4.15>:
    25c4:	96 82 c0 0d 	addcc  %o3, %o5, %o3
    25c8:	10 80 00 20 	b  2648 <end_regular_divide>
    25cc:	94 02 bf fd 	add  %o2, -3, %o2

000025d0 <L3.15>:
    25d0:	96 82 c0 0d 	addcc  %o3, %o5, %o3
    25d4:	06 80 00 05 	bl  25e8 <L4.13>
    25d8:	9b 33 60 01 	srl  %o5, 1, %o5
    25dc:	96 a2 c0 0d 	subcc  %o3, %o5, %o3
    25e0:	10 80 00 1a 	b  2648 <end_regular_divide>
    25e4:	94 02 bf fb 	add  %o2, -5, %o2

000025e8 <L4.13>:
    25e8:	96 82 c0 0d 	addcc  %o3, %o5, %o3
    25ec:	10 80 00 17 	b  2648 <end_regular_divide>
    25f0:	94 02 bf f9 	add  %o2, -7, %o2

000025f4 <L2.15>:
    25f4:	96 82 c0 0d 	addcc  %o3, %o5, %o3
    25f8:	06 80 00 0b 	bl  2624 <L3.13>
    25fc:	9b 33 60 01 	srl  %o5, 1, %o5
    2600:	96 a2 c0 0d 	subcc  %o3, %o5, %o3
    2604:	06 80 00 05 	bl  2618 <L4.11>
    2608:	9b 33 60 01 	srl  %o5, 1, %o5
    260c:	96 a2 c0 0d 	subcc  %o3, %o5, %o3
    2610:	10 80 00 0e 	b  2648 <end_regular_divide>
    2614:	94 02 bf f7 	add  %o2, -9, %o2

00002618 <L4.11>:
    2618:	96 82 c0 0d 	addcc  %o3, %o5, %o3
    261c:	10 80 00 0b 	b  2648 <end_regular_divide>
    2620:	94 02 bf f5 	add  %o2, -11, %o2

00002624 <L3.13>:
    2624:	96 82 c0 0d 	addcc  %o3, %o5, %o3
    2628:	06 80 00 05 	bl  263c <L4.9>
    262c:	9b 33 60 01 	srl  %o5, 1, %o5
    2630:	96 a2 c0 0d 	subcc  %o3, %o5, %o3
    2634:	10 80 00 05 	b  2648 <end_regular_divide>
    2638:	94 02 bf f3 	add  %o2, -13, %o2

0000263c <L4.9>:
    263c:	96 82 c0 0d 	addcc  %o3, %o5, %o3
    2640:	10 80 00 02 	b  2648 <end_regular_divide>
    2644:	94 02 bf f1 	add  %o2, -15, %o2

00002648 <end_regular_divide>:
    2648:	98 a3 20 01 	deccc  %o4
    264c:	16 bf ff a2 	bge  24d4 <divloop>
    2650:	80 92 c0 00 	tst  %o3
    2654:	26 80 00 02 	bl,a   265c <got_result>
    2658:	94 22 a0 01 	dec  %o2

0000265c <got_result>:
    265c:	80 90 c0 00 	tst  %g3
    2660:	26 80 00 02 	bl,a   2668 <got_result+0xc>
    2664:	94 20 00 0a 	neg  %o2
    2668:	81 c3 e0 08 	retl 
    266c:	90 10 00 0a 	mov  %o2, %o0

00002670 <.urem>:
    2670:	10 80 00 0b 	b  269c <divide>
    2674:	86 10 20 00 	clr  %g3

00002678 <.rem>:
    2678:	80 92 40 08 	orcc  %o1, %o0, %g0
    267c:	16 80 00 08 	bge  269c <divide>
    2680:	86 10 00 08 	mov  %o0, %g3
    2684:	80 92 40 00 	tst  %o1
    2688:	16 80 00 04 	bge  2698 <.rem+0x20>
    268c:	80 92 00 00 	tst  %o0
    2690:	16 80 00 03 	bge  269c <divide>
    2694:	92 20 00 09 	neg  %o1
    2698:	90 20 00 08 	neg  %o0

0000269c <divide>:
    269c:	9a 92 40 00 	orcc  %o1, %g0, %o5
    26a0:	12 80 00 05 	bne  26b4 <divide+0x18>
    26a4:	96 10 00 08 	mov  %o0, %o3
    26a8:	91 d0 20 02 	ta  2
    26ac:	81 c3 e0 08 	retl 
    26b0:	90 10 00 00 	mov  %g0, %o0
    26b4:	80 a2 c0 0d 	cmp  %o3, %o5
    26b8:	0a 80 00 95 	bcs  290c <got_result>
    26bc:	94 10 00 00 	mov  %g0, %o2
    26c0:	03 02 00 00 	sethi  %hi(0x8000000), %g1
    26c4:	80 a2 c0 01 	cmp  %o3, %g1
    26c8:	0a 80 00 28 	bcs  2768 <not_really_big>
    26cc:	98 10 00 00 	mov  %g0, %o4
    26d0:	80 a3 40 01 	cmp  %o5, %g1
    26d4:	1a 80 00 0d 	bcc  2708 <not_too_big>
    26d8:	84 10 20 01 	mov  1, %g2
    26dc:	9b 2b 60 04 	sll  %o5, 4, %o5
    26e0:	10 bf ff fc 	b  26d0 <divide+0x34>
    26e4:	98 03 20 01 	inc  %o4
    26e8:	9a 83 40 0d 	addcc  %o5, %o5, %o5
    26ec:	1a 80 00 07 	bcc  2708 <not_too_big>
    26f0:	84 00 a0 01 	inc  %g2
    26f4:	83 28 60 04 	sll  %g1, 4, %g1
    26f8:	9b 33 60 01 	srl  %o5, 1, %o5
    26fc:	9a 03 40 01 	add  %o5, %g1, %o5
    2700:	10 80 00 07 	b  271c <do_single_div>
    2704:	84 20 a0 01 	dec  %g2

00002708 <not_too_big>:
    2708:	80 a3 40 0b 	cmp  %o5, %o3
    270c:	0a bf ff f7 	bcs  26e8 <divide+0x4c>
    2710:	01 00 00 00 	nop 
    2714:	02 80 00 02 	be  271c <do_single_div>
    2718:	01 00 00 00 	nop 

0000271c <do_single_div>:
    271c:	84 a0 a0 01 	deccc  %g2
    2720:	06 80 00 76 	bl  28f8 <end_regular_divide>
    2724:	01 00 00 00 	nop 
    2728:	96 22 c0 0d 	sub  %o3, %o5, %o3
    272c:	94 10 20 01 	mov  1, %o2
    2730:	10 80 00 0a 	b  2758 <end_single_divloop>
    2734:	01 00 00 00 	nop 

00002738 <single_divloop>:
    2738:	95 2a a0 01 	sll  %o2, 1, %o2
    273c:	06 80 00 05 	bl  2750 <single_divloop+0x18>
    2740:	9b 33 60 01 	srl  %o5, 1, %o5
    2744:	96 22 c0 0d 	sub  %o3, %o5, %o3
    2748:	10 80 00 04 	b  2758 <end_single_divloop>
    274c:	94 02 a0 01 	inc  %o2
    2750:	96 02 c0 0d 	add  %o3, %o5, %o3
    2754:	94 22 a0 01 	dec  %o2

00002758 <end_single_divloop>:
    2758:	84 a0 a0 01 	deccc  %g2
    275c:	16 bf ff f7 	bge  2738 <single_divloop>
    2760:	80 92 c0 00 	tst  %o3
    2764:	30 80 00 65 	b,a   28f8 <end_regular_divide>

00002768 <not_really_big>:
    2768:	9b 2b 60 04 	sll  %o5, 4, %o5
    276c:	80 a3 40 0b 	cmp  %o5, %o3
    2770:	08 bf ff fe 	bleu  2768 <not_really_big>
    2774:	98 83 20 01 	inccc  %o4
    2778:	02 80 00 65 	be  290c <got_result>
    277c:	98 23 20 01 	dec  %o4
    2780:	80 92 c0 00 	tst  %o3

00002784 <divloop>:
    2784:	95 2a a0 04 	sll  %o2, 4, %o2
    2788:	06 80 00 2f 	bl  2844 <L1.16>
    278c:	9b 33 60 01 	srl  %o5, 1, %o5
    2790:	96 a2 c0 0d 	subcc  %o3, %o5, %o3
    2794:	06 80 00 17 	bl  27f0 <L2.17>
    2798:	9b 33 60 01 	srl  %o5, 1, %o5
    279c:	96 a2 c0 0d 	subcc  %o3, %o5, %o3
    27a0:	06 80 00 0b 	bl  27cc <L3.19>
    27a4:	9b 33 60 01 	srl  %o5, 1, %o5
    27a8:	96 a2 c0 0d 	subcc  %o3, %o5, %o3
    27ac:	06 80 00 05 	bl  27c0 <L4.23>
    27b0:	9b 33 60 01 	srl  %o5, 1, %o5
    27b4:	96 a2 c0 0d 	subcc  %o3, %o5, %o3
    27b8:	10 80 00 50 	b  28f8 <end_regular_divide>
    27bc:	94 02 a0 0f 	add  %o2, 0xf, %o2

000027c0 <L4.23>:
    27c0:	96 82 c0 0d 	addcc  %o3, %o5, %o3
    27c4:	10 80 00 4d 	b  28f8 <end_regular_divide>
    27c8:	94 02 a0 0d 	add  %o2, 0xd, %o2

000027cc <L3.19>:
    27cc:	96 82 c0 0d 	addcc  %o3, %o5, %o3
    27d0:	06 80 00 05 	bl  27e4 <L4.21>
    27d4:	9b 33 60 01 	srl  %o5, 1, %o5
    27d8:	96 a2 c0 0d 	subcc  %o3, %o5, %o3
    27dc:	10 80 00 47 	b  28f8 <end_regular_divide>
    27e0:	94 02 a0 0b 	add  %o2, 0xb, %o2

000027e4 <L4.21>:
    27e4:	96 82 c0 0d 	addcc  %o3, %o5, %o3
    27e8:	10 80 00 44 	b  28f8 <end_regular_divide>
    27ec:	94 02 a0 09 	add  %o2, 9, %o2

000027f0 <L2.17>:
    27f0:	96 82 c0 0d 	addcc  %o3, %o5, %o3
    27f4:	06 80 00 0b 	bl  2820 <L3.17>
    27f8:	9b 33 60 01 	srl  %o5, 1, %o5
    27fc:	96 a2 c0 0d 	subcc  %o3, %o5, %o3
    2800:	06 80 00 05 	bl  2814 <L4.19>
    2804:	9b 33 60 01 	srl  %o5, 1, %o5
    2808:	96 a2 c0 0d 	subcc  %o3, %o5, %o3
    280c:	10 80 00 3b 	b  28f8 <end_regular_divide>
    2810:	94 02 a0 07 	add  %o2, 7, %o2

00002814 <L4.19>:
    2814:	96 82 c0 0d 	addcc  %o3, %o5, %o3
    2818:	10 80 00 38 	b  28f8 <end_regular_divide>
    281c:	94 02 a0 05 	add  %o2, 5, %o2

00002820 <L3.17>:
    2820:	96 82 c0 0d 	addcc  %o3, %o5, %o3
    2824:	06 80 00 05 	bl  2838 <L4.17>
    2828:	9b 33 60 01 	srl  %o5, 1, %o5
    282c:	96 a2 c0 0d 	subcc  %o3, %o5, %o3
    2830:	10 80 00 32 	b  28f8 <end_regular_divide>
    2834:	94 02 a0 03 	add  %o2, 3, %o2

00002838 <L4.17>:
    2838:	96 82 c0 0d 	addcc  %o3, %o5, %o3
    283c:	10 80 00 2f 	b  28f8 <end_regular_divide>
    2840:	94 02 a0 01 	inc  %o2

00002844 <L1.16>:
    2844:	96 82 c0 0d 	addcc  %o3, %o5, %o3
    2848:	06 80 00 17 	bl  28a4 <L2.15>
    284c:	9b 33 60 01 	srl  %o5, 1, %o5
    2850:	96 a2 c0 0d 	subcc  %o3, %o5, %o3
    2854:	06 80 00 0b 	bl  2880 <L3.15>
    2858:	9b 33 60 01 	srl  %o5, 1, %o5
    285c:	96 a2 c0 0d 	subcc  %o3, %o5, %o3
    2860:	06 80 00 05 	bl  2874 <L4.15>
    2864:	9b 33 60 01 	srl  %o5, 1, %o5
    2868:	96 a2 c0 0d 	subcc  %o3, %o5, %o3
    286c:	10 80 00 23 	b  28f8 <end_regular_divide>
    2870:	94 02 bf ff 	add  %o2, -1, %o2

00002874 <L4.15>:
    2874:	96 82 c0 0d 	addcc  %o3, %o5, %o3
    2878:	10 80 00 20 	b  28f8 <end_regular_divide>
    287c:	94 02 bf fd 	add  %o2, -3, %o2

00002880 <L3.15>:
    2880:	96 82 c0 0d 	addcc  %o3, %o5, %o3
    2884:	06 80 00 05 	bl  2898 <L4.13>
    2888:	9b 33 60 01 	srl  %o5, 1, %o5
    288c:	96 a2 c0 0d 	subcc  %o3, %o5, %o3
    2890:	10 80 00 1a 	b  28f8 <end_regular_divide>
    2894:	94 02 bf fb 	add  %o2, -5, %o2

00002898 <L4.13>:
    2898:	96 82 c0 0d 	addcc  %o3, %o5, %o3
    289c:	10 80 00 17 	b  28f8 <end_regular_divide>
    28a0:	94 02 bf f9 	add  %o2, -7, %o2

000028a4 <L2.15>:
    28a4:	96 82 c0 0d 	addcc  %o3, %o5, %o3
    28a8:	06 80 00 0b 	bl  28d4 <L3.13>
    28ac:	9b 33 60 01 	srl  %o5, 1, %o5
    28b0:	96 a2 c0 0d 	subcc  %o3, %o5, %o3
    28b4:	06 80 00 05 	bl  28c8 <L4.11>
    28b8:	9b 33 60 01 	srl  %o5, 1, %o5
    28bc:	96 a2 c0 0d 	subcc  %o3, %o5, %o3
    28c0:	10 80 00 0e 	b  28f8 <end_regular_divide>
    28c4:	94 02 bf f7 	add  %o2, -9, %o2

000028c8 <L4.11>:
    28c8:	96 82 c0 0d 	addcc  %o3, %o5, %o3
    28cc:	10 80 00 0b 	b  28f8 <end_regular_divide>
    28d0:	94 02 bf f5 	add  %o2, -11, %o2

000028d4 <L3.13>:
    28d4:	96 82 c0 0d 	addcc  %o3, %o5, %o3
    28d8:	06 80 00 05 	bl  28ec <L4.9>
    28dc:	9b 33 60 01 	srl  %o5, 1, %o5
    28e0:	96 a2 c0 0d 	subcc  %o3, %o5, %o3
    28e4:	10 80 00 05 	b  28f8 <end_regular_divide>
    28e8:	94 02 bf f3 	add  %o2, -13, %o2

000028ec <L4.9>:
    28ec:	96 82 c0 0d 	addcc  %o3, %o5, %o3
    28f0:	10 80 00 02 	b  28f8 <end_regular_divide>
    28f4:	94 02 bf f1 	add  %o2, -15, %o2

000028f8 <end_regular_divide>:
    28f8:	98 a3 20 01 	deccc  %o4
    28fc:	16 bf ff a2 	bge  2784 <divloop>
    2900:	80 92 c0 00 	tst  %o3
    2904:	26 80 00 02 	bl,a   290c <got_result>
    2908:	96 02 c0 09 	add  %o3, %o1, %o3

0000290c <got_result>:
    290c:	80 90 c0 00 	tst  %g3
    2910:	26 80 00 02 	bl,a   2918 <got_result+0xc>
    2914:	96 20 00 0b 	neg  %o3
    2918:	81 c3 e0 08 	retl 
    291c:	90 10 00 0b 	mov  %o3, %o0

00002920 <calloc>:
    2920:	03 00 00 3c 	sethi  %hi(0xf000), %g1
    2924:	da 00 60 98 	ld  [ %g1 + 0x98 ], %o5	! f098 <_impure_ptr>
    2928:	98 10 00 08 	mov  %o0, %o4
    292c:	94 10 00 09 	mov  %o1, %o2
    2930:	90 10 00 0d 	mov  %o5, %o0
    2934:	92 10 00 0c 	mov  %o4, %o1
    2938:	82 13 c0 00 	mov  %o7, %g1
    293c:	40 00 00 03 	call  2948 <_calloc_r>
    2940:	9e 10 40 00 	mov  %g1, %o7
    2944:	01 00 00 00 	nop 

00002948 <_calloc_r>:
    2948:	9d e3 bf 98 	save  %sp, -104, %sp
    294c:	92 10 00 1a 	mov  %i2, %o1
    2950:	7f ff fe 62 	call  22d8 <.umul>
    2954:	90 10 00 19 	mov  %i1, %o0
    2958:	92 10 00 08 	mov  %o0, %o1
    295c:	90 10 00 18 	mov  %i0, %o0
    2960:	40 00 04 d2 	call  3ca8 <_malloc_r>
    2964:	b0 10 20 00 	clr  %i0
    2968:	b4 92 20 00 	orcc  %o0, 0, %i2
    296c:	02 80 00 21 	be  29f0 <_calloc_r+0xa8>
    2970:	9a 10 00 1a 	mov  %i2, %o5
    2974:	c2 06 bf fc 	ld  [ %i2 + -4 ], %g1
    2978:	82 08 7f fc 	and  %g1, -4, %g1
    297c:	92 10 20 00 	clr  %o1
    2980:	82 00 7f fc 	add  %g1, -4, %g1
    2984:	80 a0 60 24 	cmp  %g1, 0x24
    2988:	18 80 00 18 	bgu  29e8 <_calloc_r+0xa0>
    298c:	94 10 00 01 	mov  %g1, %o2
    2990:	80 a0 60 13 	cmp  %g1, 0x13
    2994:	28 80 00 10 	bleu,a   29d4 <_calloc_r+0x8c>
    2998:	c0 23 40 00 	clr  [ %o5 ]
    299c:	c0 26 80 00 	clr  [ %i2 ]
    29a0:	c0 26 a0 04 	clr  [ %i2 + 4 ]
    29a4:	80 a0 60 1b 	cmp  %g1, 0x1b
    29a8:	08 80 00 0a 	bleu  29d0 <_calloc_r+0x88>
    29ac:	9a 06 a0 08 	add  %i2, 8, %o5
    29b0:	80 a0 60 23 	cmp  %g1, 0x23
    29b4:	c0 26 a0 08 	clr  [ %i2 + 8 ]
    29b8:	c0 26 a0 0c 	clr  [ %i2 + 0xc ]
    29bc:	08 80 00 05 	bleu  29d0 <_calloc_r+0x88>
    29c0:	9a 06 a0 10 	add  %i2, 0x10, %o5
    29c4:	c0 26 a0 10 	clr  [ %i2 + 0x10 ]
    29c8:	c0 26 a0 14 	clr  [ %i2 + 0x14 ]
    29cc:	9a 06 a0 18 	add  %i2, 0x18, %o5
    29d0:	c0 23 40 00 	clr  [ %o5 ]
    29d4:	9a 03 60 04 	add  %o5, 4, %o5
    29d8:	c0 23 60 04 	clr  [ %o5 + 4 ]
    29dc:	c0 23 40 00 	clr  [ %o5 ]
    29e0:	10 80 00 04 	b  29f0 <_calloc_r+0xa8>
    29e4:	b0 10 00 1a 	mov  %i2, %i0
    29e8:	40 00 06 03 	call  41f4 <memset>
    29ec:	b0 10 00 1a 	mov  %i2, %i0
    29f0:	81 c7 e0 08 	ret 
    29f4:	81 e8 00 00 	restore 

000029f8 <exit>:
    29f8:	9d e3 bf 98 	save  %sp, -104, %sp
    29fc:	29 00 00 3c 	sethi  %hi(0xf000), %l4
    2a00:	c2 05 20 98 	ld  [ %l4 + 0x98 ], %g1	! f098 <_impure_ptr>
    2a04:	e6 00 61 48 	ld  [ %g1 + 0x148 ], %l3
    2a08:	80 a4 e0 00 	cmp  %l3, 0
    2a0c:	02 80 00 1b 	be  2a78 <exit+0x80>
    2a10:	d0 05 20 98 	ld  [ %l4 + 0x98 ], %o0
    2a14:	c2 04 e0 04 	ld  [ %l3 + 4 ], %g1
    2a18:	a4 80 7f ff 	addcc  %g1, -1, %l2
    2a1c:	0c 80 00 24 	bneg  2aac <exit+0xb4>
    2a20:	82 10 20 01 	mov  1, %g1
    2a24:	a3 28 40 12 	sll  %g1, %l2, %l1
    2a28:	80 a4 a0 00 	cmp  %l2, 0
    2a2c:	06 80 00 0e 	bl  2a64 <exit+0x6c>
    2a30:	83 2c a0 02 	sll  %l2, 2, %g1
    2a34:	a0 00 40 13 	add  %g1, %l3, %l0
    2a38:	c2 04 e1 08 	ld  [ %l3 + 0x108 ], %g1
    2a3c:	80 88 40 11 	btst  %g1, %l1
    2a40:	02 80 00 16 	be  2a98 <exit+0xa0>
    2a44:	90 10 00 18 	mov  %i0, %o0
    2a48:	c2 04 20 08 	ld  [ %l0 + 8 ], %g1
    2a4c:	9f c0 40 00 	call  %g1
    2a50:	d2 04 20 88 	ld  [ %l0 + 0x88 ], %o1
    2a54:	a0 04 3f fc 	add  %l0, -4, %l0
    2a58:	a4 84 bf ff 	addcc  %l2, -1, %l2
    2a5c:	1c bf ff f7 	bpos  2a38 <exit+0x40>
    2a60:	a3 3c 60 01 	sra  %l1, 1, %l1
    2a64:	e6 04 c0 00 	ld  [ %l3 ], %l3
    2a68:	80 a4 e0 00 	cmp  %l3, 0
    2a6c:	32 bf ff eb 	bne,a   2a18 <exit+0x20>
    2a70:	c2 04 e0 04 	ld  [ %l3 + 4 ], %g1
    2a74:	d0 05 20 98 	ld  [ %l4 + 0x98 ], %o0
    2a78:	c2 02 20 3c 	ld  [ %o0 + 0x3c ], %g1
    2a7c:	80 a0 60 00 	cmp  %g1, 0
    2a80:	12 80 00 04 	bne  2a90 <exit+0x98>
    2a84:	01 00 00 00 	nop 
    2a88:	40 00 27 28 	call  c728 <_exit>
    2a8c:	90 10 00 18 	mov  %i0, %o0
    2a90:	9f c0 40 00 	call  %g1
    2a94:	9e 03 ff f0 	add  %o7, -16, %o7
    2a98:	c2 04 20 08 	ld  [ %l0 + 8 ], %g1
    2a9c:	9f c0 40 00 	call  %g1
    2aa0:	a0 04 3f fc 	add  %l0, -4, %l0
    2aa4:	10 bf ff ee 	b  2a5c <exit+0x64>
    2aa8:	a4 84 bf ff 	addcc  %l2, -1, %l2
    2aac:	10 bf ff df 	b  2a28 <exit+0x30>
    2ab0:	a2 10 20 00 	clr  %l1

00002ab4 <fclose>:
    2ab4:	9d e3 bf 98 	save  %sp, -104, %sp
    2ab8:	80 a6 20 00 	cmp  %i0, 0
    2abc:	02 80 00 48 	be  2bdc <fclose+0x128>
    2ac0:	90 10 20 00 	clr  %o0
    2ac4:	d0 06 20 54 	ld  [ %i0 + 0x54 ], %o0
    2ac8:	80 a2 20 00 	cmp  %o0, 0
    2acc:	32 80 00 07 	bne,a   2ae8 <fclose+0x34>
    2ad0:	c2 02 20 38 	ld  [ %o0 + 0x38 ], %g1
    2ad4:	03 00 00 3c 	sethi  %hi(0xf000), %g1
    2ad8:	da 00 60 98 	ld  [ %g1 + 0x98 ], %o5	! f098 <_impure_ptr>
    2adc:	da 26 20 54 	st  %o5, [ %i0 + 0x54 ]
    2ae0:	90 10 00 0d 	mov  %o5, %o0
    2ae4:	c2 02 20 38 	ld  [ %o0 + 0x38 ], %g1
    2ae8:	80 a0 60 00 	cmp  %g1, 0
    2aec:	02 80 00 38 	be  2bcc <fclose+0x118>
    2af0:	01 00 00 00 	nop 
    2af4:	c2 16 20 0c 	lduh  [ %i0 + 0xc ], %g1
    2af8:	83 28 60 10 	sll  %g1, 0x10, %g1
    2afc:	80 a0 60 00 	cmp  %g1, 0
    2b00:	02 80 00 37 	be  2bdc <fclose+0x128>
    2b04:	90 10 20 00 	clr  %o0
    2b08:	83 30 60 10 	srl  %g1, 0x10, %g1
    2b0c:	80 88 60 08 	btst  8, %g1
    2b10:	12 80 00 2b 	bne  2bbc <fclose+0x108>
    2b14:	a0 10 20 00 	clr  %l0
    2b18:	c2 06 20 2c 	ld  [ %i0 + 0x2c ], %g1
    2b1c:	80 a0 60 00 	cmp  %g1, 0
    2b20:	12 80 00 20 	bne  2ba0 <fclose+0xec>
    2b24:	01 00 00 00 	nop 
    2b28:	c2 16 20 0c 	lduh  [ %i0 + 0xc ], %g1
    2b2c:	80 88 60 80 	btst  0x80, %g1
    2b30:	32 80 00 18 	bne,a   2b90 <fclose+0xdc>
    2b34:	d0 06 20 54 	ld  [ %i0 + 0x54 ], %o0
    2b38:	d2 06 20 30 	ld  [ %i0 + 0x30 ], %o1
    2b3c:	80 a2 60 00 	cmp  %o1, 0
    2b40:	22 80 00 0a 	be,a   2b68 <fclose+0xb4>
    2b44:	d2 06 20 44 	ld  [ %i0 + 0x44 ], %o1
    2b48:	82 06 20 40 	add  %i0, 0x40, %g1
    2b4c:	80 a2 40 01 	cmp  %o1, %g1
    2b50:	22 80 00 05 	be,a   2b64 <fclose+0xb0>
    2b54:	c0 26 20 30 	clr  [ %i0 + 0x30 ]
    2b58:	40 00 01 31 	call  301c <_free_r>
    2b5c:	d0 06 20 54 	ld  [ %i0 + 0x54 ], %o0
    2b60:	c0 26 20 30 	clr  [ %i0 + 0x30 ]
    2b64:	d2 06 20 44 	ld  [ %i0 + 0x44 ], %o1
    2b68:	80 a2 60 00 	cmp  %o1, 0
    2b6c:	12 80 00 05 	bne  2b80 <fclose+0xcc>
    2b70:	01 00 00 00 	nop 
    2b74:	c0 36 20 0c 	clrh  [ %i0 + 0xc ]
    2b78:	10 80 00 19 	b  2bdc <fclose+0x128>
    2b7c:	90 10 00 10 	mov  %l0, %o0
    2b80:	40 00 01 27 	call  301c <_free_r>
    2b84:	d0 06 20 54 	ld  [ %i0 + 0x54 ], %o0
    2b88:	10 bf ff fb 	b  2b74 <fclose+0xc0>
    2b8c:	c0 26 20 44 	clr  [ %i0 + 0x44 ]
    2b90:	40 00 01 23 	call  301c <_free_r>
    2b94:	d2 06 20 10 	ld  [ %i0 + 0x10 ], %o1
    2b98:	10 bf ff e9 	b  2b3c <fclose+0x88>
    2b9c:	d2 06 20 30 	ld  [ %i0 + 0x30 ], %o1
    2ba0:	9f c0 40 00 	call  %g1
    2ba4:	d0 06 20 1c 	ld  [ %i0 + 0x1c ], %o0
    2ba8:	80 a2 20 00 	cmp  %o0, 0
    2bac:	26 bf ff df 	bl,a   2b28 <fclose+0x74>
    2bb0:	a0 10 3f ff 	mov  -1, %l0
    2bb4:	10 bf ff de 	b  2b2c <fclose+0x78>
    2bb8:	c2 16 20 0c 	lduh  [ %i0 + 0xc ], %g1
    2bbc:	40 00 00 0a 	call  2be4 <fflush>
    2bc0:	90 10 00 18 	mov  %i0, %o0
    2bc4:	10 bf ff d5 	b  2b18 <fclose+0x64>
    2bc8:	a0 10 00 08 	mov  %o0, %l0
    2bcc:	40 00 00 b3 	call  2e98 <__sinit>
    2bd0:	01 00 00 00 	nop 
    2bd4:	10 bf ff c9 	b  2af8 <fclose+0x44>
    2bd8:	c2 16 20 0c 	lduh  [ %i0 + 0xc ], %g1
    2bdc:	81 c7 e0 08 	ret 
    2be0:	91 e8 00 08 	restore  %g0, %o0, %o0

00002be4 <fflush>:
    2be4:	9d e3 bf 98 	save  %sp, -104, %sp
    2be8:	80 a6 20 00 	cmp  %i0, 0
    2bec:	02 80 00 35 	be  2cc0 <fflush+0xdc>
    2bf0:	03 00 00 3c 	sethi  %hi(0xf000), %g1
    2bf4:	d0 06 20 54 	ld  [ %i0 + 0x54 ], %o0
    2bf8:	80 a2 20 00 	cmp  %o0, 0
    2bfc:	32 80 00 07 	bne,a   2c18 <fflush+0x34>
    2c00:	c2 02 20 38 	ld  [ %o0 + 0x38 ], %g1
    2c04:	03 00 00 3c 	sethi  %hi(0xf000), %g1
    2c08:	da 00 60 98 	ld  [ %g1 + 0x98 ], %o5	! f098 <_impure_ptr>
    2c0c:	da 26 20 54 	st  %o5, [ %i0 + 0x54 ]
    2c10:	90 10 00 0d 	mov  %o5, %o0
    2c14:	c2 02 20 38 	ld  [ %o0 + 0x38 ], %g1
    2c18:	80 a0 60 00 	cmp  %g1, 0
    2c1c:	02 80 00 25 	be  2cb0 <fflush+0xcc>
    2c20:	01 00 00 00 	nop 
    2c24:	d0 56 20 0c 	ldsh  [ %i0 + 0xc ], %o0
    2c28:	80 8a 20 08 	btst  8, %o0
    2c2c:	02 80 00 29 	be  2cd0 <fflush+0xec>
    2c30:	9a 10 20 00 	clr  %o5
    2c34:	e0 06 20 10 	ld  [ %i0 + 0x10 ], %l0
    2c38:	80 a4 20 00 	cmp  %l0, 0
    2c3c:	02 80 00 25 	be  2cd0 <fflush+0xec>
    2c40:	80 8a 20 03 	btst  3, %o0
    2c44:	c2 06 00 00 	ld  [ %i0 ], %g1
    2c48:	b2 20 40 10 	sub  %g1, %l0, %i1
    2c4c:	e0 26 00 00 	st  %l0, [ %i0 ]
    2c50:	12 80 00 03 	bne  2c5c <fflush+0x78>
    2c54:	82 10 20 00 	clr  %g1
    2c58:	c2 06 20 14 	ld  [ %i0 + 0x14 ], %g1
    2c5c:	80 a6 60 00 	cmp  %i1, 0
    2c60:	04 80 00 0d 	ble  2c94 <fflush+0xb0>
    2c64:	c2 26 20 08 	st  %g1, [ %i0 + 8 ]
    2c68:	d0 06 20 1c 	ld  [ %i0 + 0x1c ], %o0
    2c6c:	c2 06 20 24 	ld  [ %i0 + 0x24 ], %g1
    2c70:	92 10 00 10 	mov  %l0, %o1
    2c74:	9f c0 40 00 	call  %g1
    2c78:	94 10 00 19 	mov  %i1, %o2
    2c7c:	80 a2 20 00 	cmp  %o0, 0
    2c80:	04 80 00 07 	ble  2c9c <fflush+0xb8>
    2c84:	b2 26 40 08 	sub  %i1, %o0, %i1
    2c88:	80 a6 60 00 	cmp  %i1, 0
    2c8c:	14 bf ff f7 	bg  2c68 <fflush+0x84>
    2c90:	a0 04 00 08 	add  %l0, %o0, %l0
    2c94:	10 80 00 0f 	b  2cd0 <fflush+0xec>
    2c98:	9a 10 20 00 	clr  %o5
    2c9c:	c2 16 20 0c 	lduh  [ %i0 + 0xc ], %g1
    2ca0:	9a 10 3f ff 	mov  -1, %o5
    2ca4:	82 10 60 40 	or  %g1, 0x40, %g1
    2ca8:	10 80 00 0a 	b  2cd0 <fflush+0xec>
    2cac:	c2 36 20 0c 	sth  %g1, [ %i0 + 0xc ]
    2cb0:	40 00 00 7a 	call  2e98 <__sinit>
    2cb4:	01 00 00 00 	nop 
    2cb8:	10 bf ff dc 	b  2c28 <fflush+0x44>
    2cbc:	d0 56 20 0c 	ldsh  [ %i0 + 0xc ], %o0
    2cc0:	f0 00 60 98 	ld  [ %g1 + 0x98 ], %i0
    2cc4:	33 00 00 0a 	sethi  %hi(0x2800), %i1
    2cc8:	40 00 03 05 	call  38dc <_fwalk>
    2ccc:	93 ee 63 e4 	restore  %i1, 0x3e4, %o1
    2cd0:	81 c7 e0 08 	ret 
    2cd4:	91 e8 00 0d 	restore  %g0, %o5, %o0

00002cd8 <std>:
    2cd8:	03 00 00 13 	sethi  %hi(0x4c00), %g1
    2cdc:	1b 00 00 13 	sethi  %hi(0x4c00), %o5
    2ce0:	82 10 60 3c 	or  %g1, 0x3c, %g1
    2ce4:	9a 13 60 84 	or  %o5, 0x84, %o5
    2ce8:	c2 22 20 20 	st  %g1, [ %o0 + 0x20 ]
    2cec:	da 22 20 24 	st  %o5, [ %o0 + 0x24 ]
    2cf0:	03 00 00 13 	sethi  %hi(0x4c00), %g1
    2cf4:	1b 00 00 13 	sethi  %hi(0x4c00), %o5
    2cf8:	82 10 60 dc 	or  %g1, 0xdc, %g1
    2cfc:	9a 13 61 28 	or  %o5, 0x128, %o5
    2d00:	d2 32 20 0c 	sth  %o1, [ %o0 + 0xc ]
    2d04:	d4 32 20 0e 	sth  %o2, [ %o0 + 0xe ]
    2d08:	d6 22 20 54 	st  %o3, [ %o0 + 0x54 ]
    2d0c:	c0 22 00 00 	clr  [ %o0 ]
    2d10:	c0 22 20 04 	clr  [ %o0 + 4 ]
    2d14:	c0 22 20 08 	clr  [ %o0 + 8 ]
    2d18:	c0 22 20 10 	clr  [ %o0 + 0x10 ]
    2d1c:	c0 22 20 14 	clr  [ %o0 + 0x14 ]
    2d20:	c0 22 20 18 	clr  [ %o0 + 0x18 ]
    2d24:	d0 22 20 1c 	st  %o0, [ %o0 + 0x1c ]
    2d28:	c2 22 20 28 	st  %g1, [ %o0 + 0x28 ]
    2d2c:	81 c3 e0 08 	retl 
    2d30:	da 22 20 2c 	st  %o5, [ %o0 + 0x2c ]

00002d34 <__sfmoreglue>:
    2d34:	9d e3 bf 98 	save  %sp, -104, %sp
    2d38:	90 10 00 18 	mov  %i0, %o0
    2d3c:	a0 06 40 19 	add  %i1, %i1, %l0
    2d40:	a0 04 00 19 	add  %l0, %i1, %l0
    2d44:	a1 2c 20 03 	sll  %l0, 3, %l0
    2d48:	a0 24 00 19 	sub  %l0, %i1, %l0
    2d4c:	a1 2c 20 02 	sll  %l0, 2, %l0
    2d50:	40 00 03 d6 	call  3ca8 <_malloc_r>
    2d54:	92 04 20 0c 	add  %l0, 0xc, %o1
    2d58:	94 10 00 10 	mov  %l0, %o2
    2d5c:	a2 92 20 00 	orcc  %o0, 0, %l1
    2d60:	02 80 00 0a 	be  2d88 <__sfmoreglue+0x54>
    2d64:	b0 10 20 00 	clr  %i0
    2d68:	82 04 60 0c 	add  %l1, 0xc, %g1
    2d6c:	f2 24 60 04 	st  %i1, [ %l1 + 4 ]
    2d70:	c0 24 40 00 	clr  [ %l1 ]
    2d74:	92 10 20 00 	clr  %o1
    2d78:	90 10 00 01 	mov  %g1, %o0
    2d7c:	c2 24 60 08 	st  %g1, [ %l1 + 8 ]
    2d80:	40 00 05 1d 	call  41f4 <memset>
    2d84:	b0 10 00 11 	mov  %l1, %i0
    2d88:	81 c7 e0 08 	ret 
    2d8c:	81 e8 00 00 	restore 

00002d90 <__sfp>:
    2d90:	9d e3 bf 98 	save  %sp, -104, %sp
    2d94:	c2 06 20 38 	ld  [ %i0 + 0x38 ], %g1
    2d98:	80 a0 60 00 	cmp  %g1, 0
    2d9c:	02 80 00 2d 	be  2e50 <__sfp+0xc0>
    2da0:	01 00 00 00 	nop 
    2da4:	a0 06 22 5c 	add  %i0, 0x25c, %l0
    2da8:	da 04 20 04 	ld  [ %l0 + 4 ], %o5
    2dac:	9a 83 7f ff 	addcc  %o5, -1, %o5
    2db0:	0c 80 00 08 	bneg  2dd0 <__sfp+0x40>
    2db4:	d8 04 20 08 	ld  [ %l0 + 8 ], %o4
    2db8:	c2 53 20 0c 	ldsh  [ %o4 + 0xc ], %g1
    2dbc:	80 a0 60 00 	cmp  %g1, 0
    2dc0:	02 80 00 13 	be  2e0c <__sfp+0x7c>
    2dc4:	9a 83 7f ff 	addcc  %o5, -1, %o5
    2dc8:	1c bf ff fc 	bpos  2db8 <__sfp+0x28>
    2dcc:	98 03 20 5c 	add  %o4, 0x5c, %o4
    2dd0:	d0 04 00 00 	ld  [ %l0 ], %o0
    2dd4:	80 a2 20 00 	cmp  %o0, 0
    2dd8:	22 80 00 04 	be,a   2de8 <__sfp+0x58>
    2ddc:	90 10 00 18 	mov  %i0, %o0
    2de0:	10 bf ff f2 	b  2da8 <__sfp+0x18>
    2de4:	a0 10 00 08 	mov  %o0, %l0
    2de8:	7f ff ff d3 	call  2d34 <__sfmoreglue>
    2dec:	92 10 20 04 	mov  4, %o1
    2df0:	80 a2 20 00 	cmp  %o0, 0
    2df4:	12 bf ff fb 	bne  2de0 <__sfp+0x50>
    2df8:	d0 24 00 00 	st  %o0, [ %l0 ]
    2dfc:	82 10 20 0c 	mov  0xc, %g1
    2e00:	c2 26 00 00 	st  %g1, [ %i0 ]
    2e04:	10 80 00 17 	b  2e60 <__sfp+0xd0>
    2e08:	b0 10 20 00 	clr  %i0
    2e0c:	f0 23 20 54 	st  %i0, [ %o4 + 0x54 ]
    2e10:	82 10 20 01 	mov  1, %g1
    2e14:	9a 10 3f ff 	mov  -1, %o5
    2e18:	c0 23 00 00 	clr  [ %o4 ]
    2e1c:	c0 23 20 08 	clr  [ %o4 + 8 ]
    2e20:	c0 23 20 04 	clr  [ %o4 + 4 ]
    2e24:	c0 23 20 10 	clr  [ %o4 + 0x10 ]
    2e28:	c0 23 20 14 	clr  [ %o4 + 0x14 ]
    2e2c:	c0 23 20 18 	clr  [ %o4 + 0x18 ]
    2e30:	c0 23 20 30 	clr  [ %o4 + 0x30 ]
    2e34:	c0 23 20 34 	clr  [ %o4 + 0x34 ]
    2e38:	c0 23 20 44 	clr  [ %o4 + 0x44 ]
    2e3c:	c0 23 20 48 	clr  [ %o4 + 0x48 ]
    2e40:	b0 10 00 0c 	mov  %o4, %i0
    2e44:	c2 33 20 0c 	sth  %g1, [ %o4 + 0xc ]
    2e48:	10 80 00 06 	b  2e60 <__sfp+0xd0>
    2e4c:	da 33 20 0e 	sth  %o5, [ %o4 + 0xe ]
    2e50:	40 00 00 12 	call  2e98 <__sinit>
    2e54:	90 10 00 18 	mov  %i0, %o0
    2e58:	10 bf ff d4 	b  2da8 <__sfp+0x18>
    2e5c:	a0 06 22 5c 	add  %i0, 0x25c, %l0
    2e60:	81 c7 e0 08 	ret 
    2e64:	81 e8 00 00 	restore 

00002e68 <_cleanup_r>:
    2e68:	13 00 00 0a 	sethi  %hi(0x2800), %o1
    2e6c:	92 12 63 e4 	or  %o1, 0x3e4, %o1	! 2be4 <fflush>
    2e70:	82 13 c0 00 	mov  %o7, %g1
    2e74:	40 00 02 9a 	call  38dc <_fwalk>
    2e78:	9e 10 40 00 	mov  %g1, %o7
    2e7c:	01 00 00 00 	nop 

00002e80 <_cleanup>:
    2e80:	03 00 00 3c 	sethi  %hi(0xf000), %g1
    2e84:	d0 00 60 98 	ld  [ %g1 + 0x98 ], %o0	! f098 <_impure_ptr>
    2e88:	82 13 c0 00 	mov  %o7, %g1
    2e8c:	7f ff ff f7 	call  2e68 <_cleanup_r>
    2e90:	9e 10 40 00 	mov  %g1, %o7
    2e94:	01 00 00 00 	nop 

00002e98 <__sinit>:
    2e98:	9d e3 bf 98 	save  %sp, -104, %sp
    2e9c:	d0 06 20 04 	ld  [ %i0 + 4 ], %o0
    2ea0:	9a 10 20 01 	mov  1, %o5
    2ea4:	03 00 00 0b 	sethi  %hi(0x2c00), %g1
    2ea8:	82 10 62 68 	or  %g1, 0x268, %g1	! 2e68 <_cleanup_r>
    2eac:	da 26 20 38 	st  %o5, [ %i0 + 0x38 ]
    2eb0:	c2 26 20 3c 	st  %g1, [ %i0 + 0x3c ]
    2eb4:	9a 06 22 68 	add  %i0, 0x268, %o5
    2eb8:	82 10 20 03 	mov  3, %g1
    2ebc:	96 10 00 18 	mov  %i0, %o3
    2ec0:	c2 26 22 60 	st  %g1, [ %i0 + 0x260 ]
    2ec4:	da 26 22 64 	st  %o5, [ %i0 + 0x264 ]
    2ec8:	c0 26 22 5c 	clr  [ %i0 + 0x25c ]
    2ecc:	92 10 20 04 	mov  4, %o1
    2ed0:	7f ff ff 82 	call  2cd8 <std>
    2ed4:	94 10 20 00 	clr  %o2
    2ed8:	d0 06 20 08 	ld  [ %i0 + 8 ], %o0
    2edc:	96 10 00 18 	mov  %i0, %o3
    2ee0:	b6 10 00 18 	mov  %i0, %i3
    2ee4:	92 10 20 09 	mov  9, %o1
    2ee8:	7f ff ff 7c 	call  2cd8 <std>
    2eec:	94 10 20 01 	mov  1, %o2
    2ef0:	f0 06 20 0c 	ld  [ %i0 + 0xc ], %i0
    2ef4:	b2 10 20 0a 	mov  0xa, %i1
    2ef8:	7f ff ff 78 	call  2cd8 <std>
    2efc:	95 e8 20 02 	restore  %g0, 2, %o2
    2f00:	01 00 00 00 	nop 

00002f04 <_fopen_r>:
    2f04:	9d e3 bf 90 	save  %sp, -112, %sp
    2f08:	90 10 00 18 	mov  %i0, %o0
    2f0c:	92 10 00 1a 	mov  %i2, %o1
    2f10:	40 00 18 a2 	call  9198 <__sflags>
    2f14:	94 07 bf f4 	add  %fp, -12, %o2
    2f18:	a0 92 20 00 	orcc  %o0, 0, %l0
    2f1c:	90 10 00 18 	mov  %i0, %o0
    2f20:	02 80 00 28 	be  2fc0 <_fopen_r+0xbc>
    2f24:	b0 10 20 00 	clr  %i0
    2f28:	7f ff ff 9a 	call  2d90 <__sfp>
    2f2c:	01 00 00 00 	nop 
    2f30:	92 10 00 19 	mov  %i1, %o1
    2f34:	b4 10 00 08 	mov  %o0, %i2
    2f38:	80 a2 20 00 	cmp  %o0, 0
    2f3c:	02 80 00 21 	be  2fc0 <_fopen_r+0xbc>
    2f40:	96 10 21 b6 	mov  0x1b6, %o3
    2f44:	d0 02 20 54 	ld  [ %o0 + 0x54 ], %o0
    2f48:	40 00 04 dc 	call  42b8 <_open_r>
    2f4c:	d4 07 bf f4 	ld  [ %fp + -12 ], %o2
    2f50:	80 a2 20 00 	cmp  %o0, 0
    2f54:	06 80 00 1a 	bl  2fbc <_fopen_r+0xb8>
    2f58:	03 00 00 13 	sethi  %hi(0x4c00), %g1
    2f5c:	1b 00 00 13 	sethi  %hi(0x4c00), %o5
    2f60:	82 10 60 3c 	or  %g1, 0x3c, %g1
    2f64:	9a 13 60 84 	or  %o5, 0x84, %o5
    2f68:	d0 36 a0 0e 	sth  %o0, [ %i2 + 0xe ]
    2f6c:	c2 26 a0 20 	st  %g1, [ %i2 + 0x20 ]
    2f70:	da 26 a0 24 	st  %o5, [ %i2 + 0x24 ]
    2f74:	03 00 00 13 	sethi  %hi(0x4c00), %g1
    2f78:	1b 00 00 13 	sethi  %hi(0x4c00), %o5
    2f7c:	82 10 60 dc 	or  %g1, 0xdc, %g1
    2f80:	9a 13 61 28 	or  %o5, 0x128, %o5
    2f84:	80 8c 21 00 	btst  0x100, %l0
    2f88:	e0 36 a0 0c 	sth  %l0, [ %i2 + 0xc ]
    2f8c:	f4 26 a0 1c 	st  %i2, [ %i2 + 0x1c ]
    2f90:	90 10 00 1a 	mov  %i2, %o0
    2f94:	92 10 20 00 	clr  %o1
    2f98:	94 10 20 02 	mov  2, %o2
    2f9c:	c2 26 a0 28 	st  %g1, [ %i2 + 0x28 ]
    2fa0:	12 80 00 04 	bne  2fb0 <_fopen_r+0xac>
    2fa4:	da 26 a0 2c 	st  %o5, [ %i2 + 0x2c ]
    2fa8:	10 80 00 06 	b  2fc0 <_fopen_r+0xbc>
    2fac:	b0 10 00 1a 	mov  %i2, %i0
    2fb0:	40 00 01 18 	call  3410 <fseek>
    2fb4:	b0 10 00 1a 	mov  %i2, %i0
    2fb8:	30 80 00 02 	b,a   2fc0 <_fopen_r+0xbc>
    2fbc:	c0 36 a0 0c 	clrh  [ %i2 + 0xc ]
    2fc0:	81 c7 e0 08 	ret 
    2fc4:	81 e8 00 00 	restore 

00002fc8 <fopen>:
    2fc8:	03 00 00 3c 	sethi  %hi(0xf000), %g1
    2fcc:	da 00 60 98 	ld  [ %g1 + 0x98 ], %o5	! f098 <_impure_ptr>
    2fd0:	98 10 00 08 	mov  %o0, %o4
    2fd4:	94 10 00 09 	mov  %o1, %o2
    2fd8:	90 10 00 0d 	mov  %o5, %o0
    2fdc:	92 10 00 0c 	mov  %o4, %o1
    2fe0:	82 13 c0 00 	mov  %o7, %g1
    2fe4:	7f ff ff c8 	call  2f04 <_fopen_r>
    2fe8:	9e 10 40 00 	mov  %g1, %o7
    2fec:	01 00 00 00 	nop 

00002ff0 <fprintf>:
    2ff0:	9d e3 bf 98 	save  %sp, -104, %sp
    2ff4:	90 10 00 18 	mov  %i0, %o0
    2ff8:	f4 27 a0 4c 	st  %i2, [ %fp + 0x4c ]
    2ffc:	f6 27 a0 50 	st  %i3, [ %fp + 0x50 ]
    3000:	f8 27 a0 54 	st  %i4, [ %fp + 0x54 ]
    3004:	fa 27 a0 58 	st  %i5, [ %fp + 0x58 ]
    3008:	92 10 00 19 	mov  %i1, %o1
    300c:	40 00 07 de 	call  4f84 <vfprintf>
    3010:	94 07 a0 4c 	add  %fp, 0x4c, %o2
    3014:	81 c7 e0 08 	ret 
    3018:	91 e8 00 08 	restore  %g0, %o0, %o0

0000301c <_free_r>:
    301c:	9d e3 bf 98 	save  %sp, -104, %sp
    3020:	80 a6 60 00 	cmp  %i1, 0
    3024:	02 80 00 a0 	be  32a4 <_free_r+0x288>
    3028:	a4 10 00 18 	mov  %i0, %l2
    302c:	a0 06 7f f8 	add  %i1, -8, %l0
    3030:	40 00 04 9e 	call  42a8 <__malloc_lock>
    3034:	90 10 00 18 	mov  %i0, %o0
    3038:	d8 04 20 04 	ld  [ %l0 + 4 ], %o4
    303c:	27 00 00 3c 	sethi  %hi(0xf000), %l3
    3040:	9e 0b 3f fe 	and  %o4, -2, %o7
    3044:	a2 14 e0 a0 	or  %l3, 0xa0, %l1
    3048:	92 04 00 0f 	add  %l0, %o7, %o1
    304c:	c2 04 60 08 	ld  [ %l1 + 8 ], %g1
    3050:	da 02 60 04 	ld  [ %o1 + 4 ], %o5
    3054:	80 a2 40 01 	cmp  %o1, %g1
    3058:	02 80 00 7d 	be  324c <_free_r+0x230>
    305c:	96 0b 7f fc 	and  %o5, -4, %o3
    3060:	80 8b 20 01 	btst  1, %o4
    3064:	d6 22 60 04 	st  %o3, [ %o1 + 4 ]
    3068:	12 80 00 0c 	bne  3098 <_free_r+0x7c>
    306c:	98 10 20 00 	clr  %o4
    3070:	f2 06 7f f8 	ld  [ %i1 + -8 ], %i1
    3074:	82 04 60 08 	add  %l1, 8, %g1
    3078:	a0 24 00 19 	sub  %l0, %i1, %l0
    307c:	da 04 20 08 	ld  [ %l0 + 8 ], %o5
    3080:	80 a3 40 01 	cmp  %o5, %g1
    3084:	02 80 00 70 	be  3244 <_free_r+0x228>
    3088:	9e 03 c0 19 	add  %o7, %i1, %o7
    308c:	d0 04 20 0c 	ld  [ %l0 + 0xc ], %o0
    3090:	da 22 20 08 	st  %o5, [ %o0 + 8 ]
    3094:	d0 23 60 0c 	st  %o0, [ %o5 + 0xc ]
    3098:	82 02 40 0b 	add  %o1, %o3, %g1
    309c:	da 00 60 04 	ld  [ %g1 + 4 ], %o5
    30a0:	80 8b 60 01 	btst  1, %o5
    30a4:	12 80 00 0f 	bne  30e0 <_free_r+0xc4>
    30a8:	82 13 e0 01 	or  %o7, 1, %g1
    30ac:	80 a3 20 00 	cmp  %o4, 0
    30b0:	12 80 00 63 	bne  323c <_free_r+0x220>
    30b4:	9e 03 c0 0b 	add  %o7, %o3, %o7
    30b8:	da 02 60 08 	ld  [ %o1 + 8 ], %o5
    30bc:	03 00 00 3c 	sethi  %hi(0xf000), %g1
    30c0:	82 10 60 a8 	or  %g1, 0xa8, %g1	! f0a8 <__malloc_av_+0x8>
    30c4:	80 a3 40 01 	cmp  %o5, %g1
    30c8:	22 80 00 58 	be,a   3228 <_free_r+0x20c>
    30cc:	e0 23 60 0c 	st  %l0, [ %o5 + 0xc ]
    30d0:	d0 02 60 0c 	ld  [ %o1 + 0xc ], %o0
    30d4:	da 22 20 08 	st  %o5, [ %o0 + 8 ]
    30d8:	d0 23 60 0c 	st  %o0, [ %o5 + 0xc ]
    30dc:	82 13 e0 01 	or  %o7, 1, %g1
    30e0:	80 a3 20 00 	cmp  %o4, 0
    30e4:	de 24 00 0f 	st  %o7, [ %l0 + %o7 ]
    30e8:	02 80 00 05 	be  30fc <_free_r+0xe0>
    30ec:	c2 24 20 04 	st  %g1, [ %l0 + 4 ]
    30f0:	b0 10 00 12 	mov  %l2, %i0
    30f4:	40 00 04 6f 	call  42b0 <__malloc_unlock>
    30f8:	81 e8 00 00 	restore 
    30fc:	80 a3 e1 ff 	cmp  %o7, 0x1ff
    3100:	18 80 00 12 	bgu  3148 <_free_r+0x12c>
    3104:	95 33 e0 09 	srl  %o7, 9, %o2
    3108:	96 14 e0 a0 	or  %l3, 0xa0, %o3
    310c:	9b 33 e0 03 	srl  %o7, 3, %o5
    3110:	83 2b 60 03 	sll  %o5, 3, %g1
    3114:	90 00 40 0b 	add  %g1, %o3, %o0
    3118:	d4 02 20 08 	ld  [ %o0 + 8 ], %o2
    311c:	d8 02 e0 04 	ld  [ %o3 + 4 ], %o4
    3120:	d0 24 20 0c 	st  %o0, [ %l0 + 0xc ]
    3124:	d4 24 20 08 	st  %o2, [ %l0 + 8 ]
    3128:	9b 33 60 02 	srl  %o5, 2, %o5
    312c:	82 10 20 01 	mov  1, %g1
    3130:	e0 22 a0 0c 	st  %l0, [ %o2 + 0xc ]
    3134:	83 28 40 0d 	sll  %g1, %o5, %g1
    3138:	e0 22 20 08 	st  %l0, [ %o0 + 8 ]
    313c:	98 13 00 01 	or  %o4, %g1, %o4
    3140:	10 bf ff ec 	b  30f0 <_free_r+0xd4>
    3144:	d8 22 e0 04 	st  %o4, [ %o3 + 4 ]
    3148:	80 a2 a0 00 	cmp  %o2, 0
    314c:	02 80 00 16 	be  31a4 <_free_r+0x188>
    3150:	9b 33 e0 03 	srl  %o7, 3, %o5
    3154:	83 33 e0 06 	srl  %o7, 6, %g1
    3158:	80 a2 a0 04 	cmp  %o2, 4
    315c:	08 80 00 12 	bleu  31a4 <_free_r+0x188>
    3160:	9a 00 60 38 	add  %g1, 0x38, %o5
    3164:	80 a2 a0 14 	cmp  %o2, 0x14
    3168:	08 80 00 0f 	bleu  31a4 <_free_r+0x188>
    316c:	9a 02 a0 5b 	add  %o2, 0x5b, %o5
    3170:	83 33 e0 0c 	srl  %o7, 0xc, %g1
    3174:	80 a2 a0 54 	cmp  %o2, 0x54
    3178:	08 80 00 0b 	bleu  31a4 <_free_r+0x188>
    317c:	9a 00 60 6e 	add  %g1, 0x6e, %o5
    3180:	83 33 e0 0f 	srl  %o7, 0xf, %g1
    3184:	80 a2 a1 54 	cmp  %o2, 0x154
    3188:	08 80 00 07 	bleu  31a4 <_free_r+0x188>
    318c:	9a 00 60 77 	add  %g1, 0x77, %o5
    3190:	83 33 e0 12 	srl  %o7, 0x12, %g1
    3194:	80 a2 a5 54 	cmp  %o2, 0x554
    3198:	08 80 00 03 	bleu  31a4 <_free_r+0x188>
    319c:	9a 00 60 7c 	add  %g1, 0x7c, %o5
    31a0:	9a 10 20 7e 	mov  0x7e, %o5
    31a4:	96 14 e0 a0 	or  %l3, 0xa0, %o3
    31a8:	83 2b 60 03 	sll  %o5, 3, %g1
    31ac:	90 00 40 0b 	add  %g1, %o3, %o0
    31b0:	d4 02 20 08 	ld  [ %o0 + 8 ], %o2
    31b4:	80 a2 80 08 	cmp  %o2, %o0
    31b8:	22 80 00 16 	be,a   3210 <_free_r+0x1f4>
    31bc:	c2 02 e0 04 	ld  [ %o3 + 4 ], %g1
    31c0:	c2 02 a0 04 	ld  [ %o2 + 4 ], %g1
    31c4:	82 08 7f fc 	and  %g1, -4, %g1
    31c8:	80 a3 c0 01 	cmp  %o7, %g1
    31cc:	3a 80 00 0c 	bcc,a   31fc <_free_r+0x1e0>
    31d0:	d0 02 a0 0c 	ld  [ %o2 + 0xc ], %o0
    31d4:	d4 02 a0 08 	ld  [ %o2 + 8 ], %o2
    31d8:	80 a2 80 08 	cmp  %o2, %o0
    31dc:	22 80 00 08 	be,a   31fc <_free_r+0x1e0>
    31e0:	d0 02 a0 0c 	ld  [ %o2 + 0xc ], %o0
    31e4:	c2 02 a0 04 	ld  [ %o2 + 4 ], %g1
    31e8:	82 08 7f fc 	and  %g1, -4, %g1
    31ec:	80 a3 c0 01 	cmp  %o7, %g1
    31f0:	2a bf ff fa 	bcs,a   31d8 <_free_r+0x1bc>
    31f4:	d4 02 a0 08 	ld  [ %o2 + 8 ], %o2
    31f8:	d0 02 a0 0c 	ld  [ %o2 + 0xc ], %o0
    31fc:	d0 24 20 0c 	st  %o0, [ %l0 + 0xc ]
    3200:	d4 24 20 08 	st  %o2, [ %l0 + 8 ]
    3204:	e0 22 a0 0c 	st  %l0, [ %o2 + 0xc ]
    3208:	10 bf ff ba 	b  30f0 <_free_r+0xd4>
    320c:	e0 22 20 08 	st  %l0, [ %o0 + 8 ]
    3210:	99 33 60 02 	srl  %o5, 2, %o4
    3214:	9a 10 20 01 	mov  1, %o5
    3218:	9b 2b 40 0c 	sll  %o5, %o4, %o5
    321c:	82 10 40 0d 	or  %g1, %o5, %g1
    3220:	10 bf ff f7 	b  31fc <_free_r+0x1e0>
    3224:	c2 22 e0 04 	st  %g1, [ %o3 + 4 ]
    3228:	e0 23 60 08 	st  %l0, [ %o5 + 8 ]
    322c:	da 24 20 08 	st  %o5, [ %l0 + 8 ]
    3230:	da 24 20 0c 	st  %o5, [ %l0 + 0xc ]
    3234:	10 bf ff aa 	b  30dc <_free_r+0xc0>
    3238:	98 10 20 01 	mov  1, %o4
    323c:	10 bf ff a5 	b  30d0 <_free_r+0xb4>
    3240:	da 02 60 08 	ld  [ %o1 + 8 ], %o5
    3244:	10 bf ff 95 	b  3098 <_free_r+0x7c>
    3248:	98 10 20 01 	mov  1, %o4
    324c:	80 8b 20 01 	btst  1, %o4
    3250:	12 80 00 09 	bne  3274 <_free_r+0x258>
    3254:	9e 03 c0 0b 	add  %o7, %o3, %o7
    3258:	f2 06 7f f8 	ld  [ %i1 + -8 ], %i1
    325c:	a0 24 00 19 	sub  %l0, %i1, %l0
    3260:	d0 04 20 0c 	ld  [ %l0 + 0xc ], %o0
    3264:	d4 04 20 08 	ld  [ %l0 + 8 ], %o2
    3268:	9e 03 c0 19 	add  %o7, %i1, %o7
    326c:	d4 22 20 08 	st  %o2, [ %o0 + 8 ]
    3270:	d0 22 a0 0c 	st  %o0, [ %o2 + 0xc ]
    3274:	03 00 00 3d 	sethi  %hi(0xf400), %g1
    3278:	da 00 60 a8 	ld  [ %g1 + 0xa8 ], %o5	! f4a8 <__malloc_trim_threshold>
    327c:	e0 24 60 08 	st  %l0, [ %l1 + 8 ]
    3280:	82 13 e0 01 	or  %o7, 1, %g1
    3284:	80 a3 c0 0d 	cmp  %o7, %o5
    3288:	0a bf ff 9b 	bcs  30f4 <_free_r+0xd8>
    328c:	c2 24 20 04 	st  %g1, [ %l0 + 4 ]
    3290:	03 00 00 3d 	sethi  %hi(0xf400), %g1
    3294:	d2 00 60 ec 	ld  [ %g1 + 0xec ], %o1	! f4ec <__malloc_top_pad>
    3298:	40 00 00 05 	call  32ac <_malloc_trim_r>
    329c:	90 10 00 12 	mov  %l2, %o0
    32a0:	30 bf ff 95 	b,a   30f4 <_free_r+0xd8>
    32a4:	81 c7 e0 08 	ret 
    32a8:	81 e8 00 00 	restore 

000032ac <_malloc_trim_r>:
    32ac:	9d e3 bf 98 	save  %sp, -104, %sp
    32b0:	40 00 03 fe 	call  42a8 <__malloc_lock>
    32b4:	90 10 00 18 	mov  %i0, %o0
    32b8:	03 00 00 3c 	sethi  %hi(0xf000), %g1
    32bc:	a2 10 60 a0 	or  %g1, 0xa0, %l1	! f0a0 <__malloc_av_>
    32c0:	da 04 60 08 	ld  [ %l1 + 8 ], %o5
    32c4:	92 10 20 00 	clr  %o1
    32c8:	c2 03 60 04 	ld  [ %o5 + 4 ], %g1
    32cc:	a0 08 7f fc 	and  %g1, -4, %l0
    32d0:	b2 24 00 19 	sub  %l0, %i1, %i1
    32d4:	b2 06 6f ef 	add  %i1, 0xfef, %i1
    32d8:	b2 0e 70 00 	and  %i1, -4096, %i1
    32dc:	b2 06 70 00 	add  %i1, -4096, %i1
    32e0:	80 a6 6f ff 	cmp  %i1, 0xfff
    32e4:	04 80 00 0b 	ble  3310 <_malloc_trim_r+0x64>
    32e8:	90 10 00 18 	mov  %i0, %o0
    32ec:	40 00 06 46 	call  4c04 <_sbrk_r>
    32f0:	01 00 00 00 	nop 
    32f4:	c2 04 60 08 	ld  [ %l1 + 8 ], %g1
    32f8:	98 10 00 08 	mov  %o0, %o4
    32fc:	82 00 40 10 	add  %g1, %l0, %g1
    3300:	90 10 00 18 	mov  %i0, %o0
    3304:	80 a3 00 01 	cmp  %o4, %g1
    3308:	02 80 00 05 	be  331c <_malloc_trim_r+0x70>
    330c:	92 20 00 19 	neg  %i1, %o1
    3310:	40 00 03 e8 	call  42b0 <__malloc_unlock>
    3314:	b0 10 20 00 	clr  %i0
    3318:	30 80 00 24 	b,a   33a8 <_malloc_trim_r+0xfc>
    331c:	40 00 06 3a 	call  4c04 <_sbrk_r>
    3320:	90 10 00 18 	mov  %i0, %o0
    3324:	82 24 00 19 	sub  %l0, %i1, %g1
    3328:	9a 10 00 08 	mov  %o0, %o5
    332c:	82 10 60 01 	or  %g1, 1, %g1
    3330:	92 10 20 00 	clr  %o1
    3334:	90 10 00 18 	mov  %i0, %o0
    3338:	80 a3 7f ff 	cmp  %o5, -1
    333c:	02 80 00 0b 	be  3368 <_malloc_trim_r+0xbc>
    3340:	19 00 00 3d 	sethi  %hi(0xf400), %o4
    3344:	da 04 60 08 	ld  [ %l1 + 8 ], %o5
    3348:	90 10 00 18 	mov  %i0, %o0
    334c:	c2 23 60 04 	st  %g1, [ %o5 + 4 ]
    3350:	c2 03 20 f8 	ld  [ %o4 + 0xf8 ], %g1
    3354:	b0 10 20 01 	mov  1, %i0
    3358:	82 20 40 19 	sub  %g1, %i1, %g1
    335c:	40 00 03 d5 	call  42b0 <__malloc_unlock>
    3360:	c2 23 20 f8 	st  %g1, [ %o4 + 0xf8 ]
    3364:	30 80 00 11 	b,a   33a8 <_malloc_trim_r+0xfc>
    3368:	40 00 06 27 	call  4c04 <_sbrk_r>
    336c:	01 00 00 00 	nop 
    3370:	d6 04 60 08 	ld  [ %l1 + 8 ], %o3
    3374:	98 10 00 08 	mov  %o0, %o4
    3378:	90 10 00 18 	mov  %i0, %o0
    337c:	a0 23 00 0b 	sub  %o4, %o3, %l0
    3380:	80 a4 20 0f 	cmp  %l0, 0xf
    3384:	04 bf ff e3 	ble  3310 <_malloc_trim_r+0x64>
    3388:	94 14 20 01 	or  %l0, 1, %o2
    338c:	03 00 00 3d 	sethi  %hi(0xf400), %g1
    3390:	da 00 60 ac 	ld  [ %g1 + 0xac ], %o5	! f4ac <__malloc_sbrk_base>
    3394:	03 00 00 3d 	sethi  %hi(0xf400), %g1
    3398:	9a 23 00 0d 	sub  %o4, %o5, %o5
    339c:	da 20 60 f8 	st  %o5, [ %g1 + 0xf8 ]
    33a0:	10 bf ff dc 	b  3310 <_malloc_trim_r+0x64>
    33a4:	d4 22 e0 04 	st  %o2, [ %o3 + 4 ]
    33a8:	81 c7 e0 08 	ret 
    33ac:	81 e8 00 00 	restore 

000033b0 <fscanf>:
    33b0:	9d e3 bf 98 	save  %sp, -104, %sp
    33b4:	03 00 00 3c 	sethi  %hi(0xf000), %g1
    33b8:	d0 00 60 98 	ld  [ %g1 + 0x98 ], %o0	! f098 <_impure_ptr>
    33bc:	92 10 00 18 	mov  %i0, %o1
    33c0:	f4 27 a0 4c 	st  %i2, [ %fp + 0x4c ]
    33c4:	f6 27 a0 50 	st  %i3, [ %fp + 0x50 ]
    33c8:	f8 27 a0 54 	st  %i4, [ %fp + 0x54 ]
    33cc:	fa 27 a0 58 	st  %i5, [ %fp + 0x58 ]
    33d0:	94 10 00 19 	mov  %i1, %o2
    33d4:	40 00 0e 90 	call  6e14 <__svfscanf_r>
    33d8:	96 07 a0 4c 	add  %fp, 0x4c, %o3
    33dc:	81 c7 e0 08 	ret 
    33e0:	91 e8 00 08 	restore  %g0, %o0, %o0

000033e4 <_fscanf_r>:
    33e4:	9d e3 bf 98 	save  %sp, -104, %sp
    33e8:	90 10 00 18 	mov  %i0, %o0
    33ec:	f6 27 a0 50 	st  %i3, [ %fp + 0x50 ]
    33f0:	f8 27 a0 54 	st  %i4, [ %fp + 0x54 ]
    33f4:	fa 27 a0 58 	st  %i5, [ %fp + 0x58 ]
    33f8:	92 10 00 19 	mov  %i1, %o1
    33fc:	94 10 00 1a 	mov  %i2, %o2
    3400:	40 00 0e 85 	call  6e14 <__svfscanf_r>
    3404:	96 07 a0 50 	add  %fp, 0x50, %o3
    3408:	81 c7 e0 08 	ret 
    340c:	91 e8 00 08 	restore  %g0, %o0, %o0

00003410 <fseek>:
    3410:	9d e3 bf 58 	save  %sp, -168, %sp
    3414:	e0 06 20 54 	ld  [ %i0 + 0x54 ], %l0
    3418:	80 a4 20 00 	cmp  %l0, 0
    341c:	32 80 00 07 	bne,a   3438 <fseek+0x28>
    3420:	c2 04 20 38 	ld  [ %l0 + 0x38 ], %g1
    3424:	03 00 00 3c 	sethi  %hi(0xf000), %g1
    3428:	da 00 60 98 	ld  [ %g1 + 0x98 ], %o5	! f098 <_impure_ptr>
    342c:	da 26 20 54 	st  %o5, [ %i0 + 0x54 ]
    3430:	a0 10 00 0d 	mov  %o5, %l0
    3434:	c2 04 20 38 	ld  [ %l0 + 0x38 ], %g1
    3438:	80 a0 60 00 	cmp  %g1, 0
    343c:	02 80 01 13 	be  3888 <fseek+0x478>
    3440:	01 00 00 00 	nop 
    3444:	c2 16 20 0c 	lduh  [ %i0 + 0xc ], %g1
    3448:	82 08 61 08 	and  %g1, 0x108, %g1
    344c:	80 a0 61 08 	cmp  %g1, 0x108
    3450:	02 80 01 0a 	be  3878 <fseek+0x468>
    3454:	01 00 00 00 	nop 
    3458:	e6 06 20 28 	ld  [ %i0 + 0x28 ], %l3
    345c:	80 a4 e0 00 	cmp  %l3, 0
    3460:	02 80 00 0a 	be  3488 <fseek+0x78>
    3464:	82 10 20 1d 	mov  0x1d, %g1
    3468:	80 a6 a0 01 	cmp  %i2, 1
    346c:	02 80 00 d5 	be  37c0 <fseek+0x3b0>
    3470:	01 00 00 00 	nop 
    3474:	04 80 00 03 	ble  3480 <fseek+0x70>
    3478:	80 a6 a0 00 	cmp  %i2, 0
    347c:	80 a6 a0 02 	cmp  %i2, 2
    3480:	02 80 00 05 	be  3494 <fseek+0x84>
    3484:	82 10 20 16 	mov  0x16, %g1
    3488:	c2 24 00 00 	st  %g1, [ %l0 ]
    348c:	10 80 01 03 	b  3898 <fseek+0x488>
    3490:	82 10 3f ff 	mov  -1, %g1
    3494:	d8 06 20 10 	ld  [ %i0 + 0x10 ], %o4
    3498:	a8 10 20 00 	clr  %l4
    349c:	80 a3 20 00 	cmp  %o4, 0
    34a0:	02 80 00 c4 	be  37b0 <fseek+0x3a0>
    34a4:	01 00 00 00 	nop 
    34a8:	c2 16 20 0c 	lduh  [ %i0 + 0xc ], %g1
    34ac:	80 88 68 1a 	btst  0x81a, %g1
    34b0:	12 80 00 0c 	bne  34e0 <fseek+0xd0>
    34b4:	d6 16 20 0c 	lduh  [ %i0 + 0xc ], %o3
    34b8:	80 88 64 00 	btst  0x400, %g1
    34bc:	12 80 00 3d 	bne  35b0 <fseek+0x1a0>
    34c0:	80 a6 a0 00 	cmp  %i2, 0
    34c4:	03 00 00 13 	sethi  %hi(0x4c00), %g1
    34c8:	82 10 60 dc 	or  %g1, 0xdc, %g1	! 4cdc <__sseek>
    34cc:	80 a4 c0 01 	cmp  %l3, %g1
    34d0:	22 80 00 22 	be,a   3558 <fseek+0x148>
    34d4:	d2 56 20 0e 	ldsh  [ %i0 + 0xe ], %o1
    34d8:	82 12 e8 00 	or  %o3, 0x800, %g1
    34dc:	c2 36 20 0c 	sth  %g1, [ %i0 + 0xc ]
    34e0:	7f ff fd c1 	call  2be4 <fflush>
    34e4:	90 10 00 18 	mov  %i0, %o0
    34e8:	80 a2 20 00 	cmp  %o0, 0
    34ec:	12 bf ff e8 	bne  348c <fseek+0x7c>
    34f0:	92 10 00 19 	mov  %i1, %o1
    34f4:	d0 06 20 1c 	ld  [ %i0 + 0x1c ], %o0
    34f8:	9f c4 c0 00 	call  %l3
    34fc:	94 10 00 1a 	mov  %i2, %o2
    3500:	80 a2 3f ff 	cmp  %o0, -1
    3504:	02 80 00 e5 	be  3898 <fseek+0x488>
    3508:	82 10 3f ff 	mov  -1, %g1
    350c:	d2 06 20 30 	ld  [ %i0 + 0x30 ], %o1
    3510:	80 a2 60 00 	cmp  %o1, 0
    3514:	22 80 00 0a 	be,a   353c <fseek+0x12c>
    3518:	c2 16 20 0c 	lduh  [ %i0 + 0xc ], %g1
    351c:	82 06 20 40 	add  %i0, 0x40, %g1
    3520:	80 a2 40 01 	cmp  %o1, %g1
    3524:	22 80 00 05 	be,a   3538 <fseek+0x128>
    3528:	c0 26 20 30 	clr  [ %i0 + 0x30 ]
    352c:	7f ff fe bc 	call  301c <_free_r>
    3530:	d0 06 20 54 	ld  [ %i0 + 0x54 ], %o0
    3534:	c0 26 20 30 	clr  [ %i0 + 0x30 ]
    3538:	c2 16 20 0c 	lduh  [ %i0 + 0xc ], %g1
    353c:	da 06 20 10 	ld  [ %i0 + 0x10 ], %o5
    3540:	82 08 7f df 	and  %g1, -33, %g1
    3544:	da 26 00 00 	st  %o5, [ %i0 ]
    3548:	c2 36 20 0c 	sth  %g1, [ %i0 + 0xc ]
    354c:	c0 26 20 04 	clr  [ %i0 + 4 ]
    3550:	10 80 00 d2 	b  3898 <fseek+0x488>
    3554:	82 10 20 00 	clr  %g1
    3558:	80 a2 60 00 	cmp  %o1, 0
    355c:	06 bf ff df 	bl  34d8 <fseek+0xc8>
    3560:	94 07 bf b8 	add  %fp, -72, %o2
    3564:	40 00 00 cf 	call  38a0 <_fstat_r>
    3568:	90 10 00 10 	mov  %l0, %o0
    356c:	80 a2 20 00 	cmp  %o0, 0
    3570:	32 bf ff da 	bne,a   34d8 <fseek+0xc8>
    3574:	d6 16 20 0c 	lduh  [ %i0 + 0xc ], %o3
    3578:	c2 07 bf c0 	ld  [ %fp + -64 ], %g1
    357c:	1b 00 00 3c 	sethi  %hi(0xf000), %o5
    3580:	19 00 00 20 	sethi  %hi(0x8000), %o4
    3584:	82 08 40 0d 	and  %g1, %o5, %g1
    3588:	80 a0 40 0c 	cmp  %g1, %o4
    358c:	22 80 00 04 	be,a   359c <fseek+0x18c>
    3590:	c2 16 20 0c 	lduh  [ %i0 + 0xc ], %g1
    3594:	10 bf ff d1 	b  34d8 <fseek+0xc8>
    3598:	d6 16 20 0c 	lduh  [ %i0 + 0xc ], %o3
    359c:	9a 10 24 00 	mov  0x400, %o5
    35a0:	82 10 64 00 	or  %g1, 0x400, %g1
    35a4:	da 26 20 4c 	st  %o5, [ %i0 + 0x4c ]
    35a8:	c2 36 20 0c 	sth  %g1, [ %i0 + 0xc ]
    35ac:	80 a6 a0 00 	cmp  %i2, 0
    35b0:	12 80 00 77 	bne  378c <fseek+0x37c>
    35b4:	a4 10 00 19 	mov  %i1, %l2
    35b8:	80 a5 20 00 	cmp  %l4, 0
    35bc:	12 80 00 71 	bne  3780 <fseek+0x370>
    35c0:	d6 16 20 0c 	lduh  [ %i0 + 0xc ], %o3
    35c4:	da 16 20 0c 	lduh  [ %i0 + 0xc ], %o5
    35c8:	03 00 00 04 	sethi  %hi(0x1000), %g1
    35cc:	80 8b 40 01 	btst  %o5, %g1
    35d0:	22 80 00 64 	be,a   3760 <fseek+0x350>
    35d4:	d0 06 20 1c 	ld  [ %i0 + 0x1c ], %o0
    35d8:	e2 06 20 50 	ld  [ %i0 + 0x50 ], %l1
    35dc:	d4 06 20 04 	ld  [ %i0 + 4 ], %o2
    35e0:	d2 06 20 30 	ld  [ %i0 + 0x30 ], %o1
    35e4:	80 a2 60 00 	cmp  %o1, 0
    35e8:	02 80 00 58 	be  3748 <fseek+0x338>
    35ec:	a2 24 40 0a 	sub  %l1, %o2, %l1
    35f0:	c2 06 20 3c 	ld  [ %i0 + 0x3c ], %g1
    35f4:	a2 24 40 01 	sub  %l1, %g1, %l1
    35f8:	80 a2 60 00 	cmp  %o1, 0
    35fc:	22 80 00 54 	be,a   374c <fseek+0x33c>
    3600:	c2 06 00 00 	ld  [ %i0 ], %g1
    3604:	c2 06 20 38 	ld  [ %i0 + 0x38 ], %g1
    3608:	d8 06 20 10 	ld  [ %i0 + 0x10 ], %o4
    360c:	da 06 20 3c 	ld  [ %i0 + 0x3c ], %o5
    3610:	a0 20 40 0c 	sub  %g1, %o4, %l0
    3614:	a2 04 40 0a 	add  %l1, %o2, %l1
    3618:	a2 24 40 10 	sub  %l1, %l0, %l1
    361c:	a0 04 00 0d 	add  %l0, %o5, %l0
    3620:	83 2a e0 10 	sll  %o3, 0x10, %g1
    3624:	80 a4 80 11 	cmp  %l2, %l1
    3628:	83 30 60 1d 	srl  %g1, 0x1d, %g1
    362c:	9a 10 20 01 	mov  1, %o5
    3630:	82 18 60 01 	xor  %g1, 1, %g1
    3634:	16 80 00 03 	bge  3640 <fseek+0x230>
    3638:	82 08 60 01 	and  %g1, 1, %g1
    363c:	9a 10 20 00 	clr  %o5
    3640:	80 88 40 0d 	btst  %g1, %o5
    3644:	02 80 00 17 	be  36a0 <fseek+0x290>
    3648:	82 04 40 10 	add  %l1, %l0, %g1
    364c:	80 a4 80 01 	cmp  %l2, %g1
    3650:	3a 80 00 15 	bcc,a   36a4 <fseek+0x294>
    3654:	c2 06 20 4c 	ld  [ %i0 + 0x4c ], %g1
    3658:	82 24 80 11 	sub  %l2, %l1, %g1
    365c:	80 a2 60 00 	cmp  %o1, 0
    3660:	9a 24 00 01 	sub  %l0, %g1, %o5
    3664:	82 03 00 01 	add  %o4, %g1, %g1
    3668:	da 26 20 04 	st  %o5, [ %i0 + 4 ]
    366c:	02 80 00 0a 	be  3694 <fseek+0x284>
    3670:	c2 26 00 00 	st  %g1, [ %i0 ]
    3674:	82 06 20 40 	add  %i0, 0x40, %g1
    3678:	80 a2 40 01 	cmp  %o1, %g1
    367c:	22 80 00 06 	be,a   3694 <fseek+0x284>
    3680:	c0 26 20 30 	clr  [ %i0 + 0x30 ]
    3684:	7f ff fe 66 	call  301c <_free_r>
    3688:	d0 06 20 54 	ld  [ %i0 + 0x54 ], %o0
    368c:	d6 16 20 0c 	lduh  [ %i0 + 0xc ], %o3
    3690:	c0 26 20 30 	clr  [ %i0 + 0x30 ]
    3694:	82 0a ff df 	and  %o3, -33, %g1
    3698:	10 bf ff ae 	b  3550 <fseek+0x140>
    369c:	c2 36 20 0c 	sth  %g1, [ %i0 + 0xc ]
    36a0:	c2 06 20 4c 	ld  [ %i0 + 0x4c ], %g1
    36a4:	d0 06 20 1c 	ld  [ %i0 + 0x1c ], %o0
    36a8:	82 20 00 01 	neg  %g1
    36ac:	94 10 20 00 	clr  %o2
    36b0:	a2 0c 80 01 	and  %l2, %g1, %l1
    36b4:	9f c4 c0 00 	call  %l3
    36b8:	92 10 00 11 	mov  %l1, %o1
    36bc:	80 a2 3f ff 	cmp  %o0, -1
    36c0:	02 bf ff 88 	be  34e0 <fseek+0xd0>
    36c4:	01 00 00 00 	nop 
    36c8:	c2 06 20 10 	ld  [ %i0 + 0x10 ], %g1
    36cc:	d2 06 20 30 	ld  [ %i0 + 0x30 ], %o1
    36d0:	c2 26 00 00 	st  %g1, [ %i0 ]
    36d4:	80 a2 60 00 	cmp  %o1, 0
    36d8:	02 80 00 09 	be  36fc <fseek+0x2ec>
    36dc:	c0 26 20 04 	clr  [ %i0 + 4 ]
    36e0:	82 06 20 40 	add  %i0, 0x40, %g1
    36e4:	80 a2 40 01 	cmp  %o1, %g1
    36e8:	22 80 00 05 	be,a   36fc <fseek+0x2ec>
    36ec:	c0 26 20 30 	clr  [ %i0 + 0x30 ]
    36f0:	7f ff fe 4b 	call  301c <_free_r>
    36f4:	d0 06 20 54 	ld  [ %i0 + 0x54 ], %o0
    36f8:	c0 26 20 30 	clr  [ %i0 + 0x30 ]
    36fc:	c2 16 20 0c 	lduh  [ %i0 + 0xc ], %g1
    3700:	a0 a4 80 11 	subcc  %l2, %l1, %l0
    3704:	82 08 7f df 	and  %g1, -33, %g1
    3708:	02 bf ff 92 	be  3550 <fseek+0x140>
    370c:	c2 36 20 0c 	sth  %g1, [ %i0 + 0xc ]
    3710:	40 00 04 d5 	call  4a64 <__srefill>
    3714:	90 10 00 18 	mov  %i0, %o0
    3718:	80 a2 20 00 	cmp  %o0, 0
    371c:	12 bf ff 71 	bne  34e0 <fseek+0xd0>
    3720:	01 00 00 00 	nop 
    3724:	da 06 20 04 	ld  [ %i0 + 4 ], %o5
    3728:	80 a3 40 10 	cmp  %o5, %l0
    372c:	0a bf ff 6d 	bcs  34e0 <fseek+0xd0>
    3730:	9a 23 40 10 	sub  %o5, %l0, %o5
    3734:	c2 06 00 00 	ld  [ %i0 ], %g1
    3738:	82 00 40 10 	add  %g1, %l0, %g1
    373c:	da 26 20 04 	st  %o5, [ %i0 + 4 ]
    3740:	10 bf ff 84 	b  3550 <fseek+0x140>
    3744:	c2 26 00 00 	st  %g1, [ %i0 ]
    3748:	c2 06 00 00 	ld  [ %i0 ], %g1
    374c:	d8 06 20 10 	ld  [ %i0 + 0x10 ], %o4
    3750:	a0 20 40 0c 	sub  %g1, %o4, %l0
    3754:	a2 24 40 10 	sub  %l1, %l0, %l1
    3758:	10 bf ff b2 	b  3620 <fseek+0x210>
    375c:	a0 04 00 0a 	add  %l0, %o2, %l0
    3760:	92 10 20 00 	clr  %o1
    3764:	9f c4 c0 00 	call  %l3
    3768:	94 10 20 01 	mov  1, %o2
    376c:	80 a2 3f ff 	cmp  %o0, -1
    3770:	02 bf ff 5c 	be  34e0 <fseek+0xd0>
    3774:	a2 10 00 08 	mov  %o0, %l1
    3778:	10 bf ff 99 	b  35dc <fseek+0x1cc>
    377c:	d6 16 20 0c 	lduh  [ %i0 + 0xc ], %o3
    3780:	d4 06 20 04 	ld  [ %i0 + 4 ], %o2
    3784:	10 bf ff 9d 	b  35f8 <fseek+0x1e8>
    3788:	d2 06 20 30 	ld  [ %i0 + 0x30 ], %o1
    378c:	d2 56 20 0e 	ldsh  [ %i0 + 0xe ], %o1
    3790:	90 10 00 10 	mov  %l0, %o0
    3794:	40 00 00 43 	call  38a0 <_fstat_r>
    3798:	94 07 bf b8 	add  %fp, -72, %o2
    379c:	80 a2 20 00 	cmp  %o0, 0
    37a0:	12 bf ff 50 	bne  34e0 <fseek+0xd0>
    37a4:	c2 07 bf cc 	ld  [ %fp + -52 ], %g1
    37a8:	10 bf ff 84 	b  35b8 <fseek+0x1a8>
    37ac:	a4 00 40 19 	add  %g1, %i1, %l2
    37b0:	40 00 00 66 	call  3948 <__smakebuf>
    37b4:	90 10 00 18 	mov  %i0, %o0
    37b8:	10 bf ff 3d 	b  34ac <fseek+0x9c>
    37bc:	c2 16 20 0c 	lduh  [ %i0 + 0xc ], %g1
    37c0:	7f ff fd 09 	call  2be4 <fflush>
    37c4:	90 10 00 18 	mov  %i0, %o0
    37c8:	da 16 20 0c 	lduh  [ %i0 + 0xc ], %o5
    37cc:	03 00 00 04 	sethi  %hi(0x1000), %g1
    37d0:	80 8b 40 01 	btst  %o5, %g1
    37d4:	02 80 00 1f 	be  3850 <fseek+0x440>
    37d8:	d6 16 20 0c 	lduh  [ %i0 + 0xc ], %o3
    37dc:	e2 06 20 50 	ld  [ %i0 + 0x50 ], %l1
    37e0:	83 2a e0 10 	sll  %o3, 0x10, %g1
    37e4:	83 30 60 10 	srl  %g1, 0x10, %g1
    37e8:	80 88 60 04 	btst  4, %g1
    37ec:	02 80 00 10 	be  382c <fseek+0x41c>
    37f0:	80 88 60 08 	btst  8, %g1
    37f4:	d4 06 20 04 	ld  [ %i0 + 4 ], %o2
    37f8:	d2 06 20 30 	ld  [ %i0 + 0x30 ], %o1
    37fc:	80 a2 60 00 	cmp  %o1, 0
    3800:	02 80 00 09 	be  3824 <fseek+0x414>
    3804:	a2 24 40 0a 	sub  %l1, %o2, %l1
    3808:	c2 06 20 3c 	ld  [ %i0 + 0x3c ], %g1
    380c:	d8 06 20 10 	ld  [ %i0 + 0x10 ], %o4
    3810:	a2 24 40 01 	sub  %l1, %g1, %l1
    3814:	b2 06 40 11 	add  %i1, %l1, %i1
    3818:	b4 10 20 00 	clr  %i2
    381c:	10 bf ff 20 	b  349c <fseek+0x8c>
    3820:	a8 10 20 01 	mov  1, %l4
    3824:	10 bf ff fc 	b  3814 <fseek+0x404>
    3828:	d8 06 20 10 	ld  [ %i0 + 0x10 ], %o4
    382c:	02 bf ff fa 	be  3814 <fseek+0x404>
    3830:	d8 06 20 10 	ld  [ %i0 + 0x10 ], %o4
    3834:	c2 06 00 00 	ld  [ %i0 ], %g1
    3838:	80 a0 60 00 	cmp  %g1, 0
    383c:	02 bf ff f6 	be  3814 <fseek+0x404>
    3840:	01 00 00 00 	nop 
    3844:	82 20 40 0c 	sub  %g1, %o4, %g1
    3848:	10 bf ff f3 	b  3814 <fseek+0x404>
    384c:	a2 04 40 01 	add  %l1, %g1, %l1
    3850:	d0 06 20 1c 	ld  [ %i0 + 0x1c ], %o0
    3854:	92 10 20 00 	clr  %o1
    3858:	9f c4 c0 00 	call  %l3
    385c:	94 10 20 01 	mov  1, %o2
    3860:	82 10 3f ff 	mov  -1, %g1
    3864:	80 a2 3f ff 	cmp  %o0, -1
    3868:	02 80 00 0c 	be  3898 <fseek+0x488>
    386c:	a2 10 00 08 	mov  %o0, %l1
    3870:	10 bf ff dc 	b  37e0 <fseek+0x3d0>
    3874:	d6 16 20 0c 	lduh  [ %i0 + 0xc ], %o3
    3878:	7f ff fc db 	call  2be4 <fflush>
    387c:	90 10 00 18 	mov  %i0, %o0
    3880:	10 bf fe f7 	b  345c <fseek+0x4c>
    3884:	e6 06 20 28 	ld  [ %i0 + 0x28 ], %l3
    3888:	7f ff fd 84 	call  2e98 <__sinit>
    388c:	90 10 00 10 	mov  %l0, %o0
    3890:	10 bf fe ed 	b  3444 <fseek+0x34>
    3894:	e0 06 20 54 	ld  [ %i0 + 0x54 ], %l0
    3898:	81 c7 e0 08 	ret 
    389c:	91 e8 00 01 	restore  %g0, %g1, %o0

000038a0 <_fstat_r>:
    38a0:	9d e3 bf 98 	save  %sp, -104, %sp
    38a4:	92 10 00 1a 	mov  %i2, %o1
    38a8:	90 10 00 19 	mov  %i1, %o0
    38ac:	35 00 00 4e 	sethi  %hi(0x13800), %i2
    38b0:	40 00 23 9c 	call  c720 <fstat>
    38b4:	c0 26 a1 54 	clr  [ %i2 + 0x154 ]	! 13954 <errno>
    38b8:	80 a2 3f ff 	cmp  %o0, -1
    38bc:	12 80 00 06 	bne  38d4 <_fstat_r+0x34>
    38c0:	c2 06 a1 54 	ld  [ %i2 + 0x154 ], %g1
    38c4:	80 a0 60 00 	cmp  %g1, 0
    38c8:	02 80 00 03 	be  38d4 <_fstat_r+0x34>
    38cc:	01 00 00 00 	nop 
    38d0:	c2 26 00 00 	st  %g1, [ %i0 ]
    38d4:	81 c7 e0 08 	ret 
    38d8:	91 e8 00 08 	restore  %g0, %o0, %o0

000038dc <_fwalk>:
    38dc:	9d e3 bf 98 	save  %sp, -104, %sp
    38e0:	b0 86 22 5c 	addcc  %i0, 0x25c, %i0
    38e4:	02 80 00 17 	be  3940 <_fwalk+0x64>
    38e8:	a4 10 20 00 	clr  %l2
    38ec:	e2 06 20 04 	ld  [ %i0 + 4 ], %l1
    38f0:	a2 84 7f ff 	addcc  %l1, -1, %l1
    38f4:	0c 80 00 0a 	bneg  391c <_fwalk+0x40>
    38f8:	e0 06 20 08 	ld  [ %i0 + 8 ], %l0
    38fc:	c2 54 20 0c 	ldsh  [ %l0 + 0xc ], %g1
    3900:	80 a0 60 00 	cmp  %g1, 0
    3904:	12 80 00 0b 	bne  3930 <_fwalk+0x54>
    3908:	90 10 00 10 	mov  %l0, %o0
    390c:	a0 04 20 5c 	add  %l0, 0x5c, %l0
    3910:	a2 84 7f ff 	addcc  %l1, -1, %l1
    3914:	3c bf ff fb 	bpos,a   3900 <_fwalk+0x24>
    3918:	c2 54 20 0c 	ldsh  [ %l0 + 0xc ], %g1
    391c:	f0 06 00 00 	ld  [ %i0 ], %i0
    3920:	80 a6 20 00 	cmp  %i0, 0
    3924:	32 bf ff f3 	bne,a   38f0 <_fwalk+0x14>
    3928:	e2 06 20 04 	ld  [ %i0 + 4 ], %l1
    392c:	30 80 00 05 	b,a   3940 <_fwalk+0x64>
    3930:	9f c6 40 00 	call  %i1
    3934:	a0 04 20 5c 	add  %l0, 0x5c, %l0
    3938:	10 bf ff f6 	b  3910 <_fwalk+0x34>
    393c:	a4 14 80 08 	or  %l2, %o0, %l2
    3940:	81 c7 e0 08 	ret 
    3944:	91 e8 00 12 	restore  %g0, %l2, %o0

00003948 <__smakebuf>:
    3948:	9d e3 bf 58 	save  %sp, -168, %sp
    394c:	c2 16 20 0c 	lduh  [ %i0 + 0xc ], %g1
    3950:	80 88 60 02 	btst  2, %g1
    3954:	02 80 00 08 	be  3974 <__smakebuf+0x2c>
    3958:	da 16 20 0c 	lduh  [ %i0 + 0xc ], %o5
    395c:	9a 06 20 43 	add  %i0, 0x43, %o5
    3960:	da 26 20 10 	st  %o5, [ %i0 + 0x10 ]
    3964:	82 10 20 01 	mov  1, %g1
    3968:	da 26 00 00 	st  %o5, [ %i0 ]
    396c:	10 80 00 48 	b  3a8c <__smakebuf+0x144>
    3970:	c2 26 20 14 	st  %g1, [ %i0 + 0x14 ]
    3974:	d2 56 20 0e 	ldsh  [ %i0 + 0xe ], %o1
    3978:	80 a2 60 00 	cmp  %o1, 0
    397c:	06 80 00 40 	bl  3a7c <__smakebuf+0x134>
    3980:	82 13 68 00 	or  %o5, 0x800, %g1
    3984:	d0 06 20 54 	ld  [ %i0 + 0x54 ], %o0
    3988:	7f ff ff c6 	call  38a0 <_fstat_r>
    398c:	94 07 bf b8 	add  %fp, -72, %o2
    3990:	80 a2 20 00 	cmp  %o0, 0
    3994:	06 80 00 38 	bl  3a74 <__smakebuf+0x12c>
    3998:	d8 07 bf c0 	ld  [ %fp + -64 ], %o4
    399c:	1b 00 00 3c 	sethi  %hi(0xf000), %o5
    39a0:	03 00 00 08 	sethi  %hi(0x2000), %g1
    39a4:	98 0b 00 0d 	and  %o4, %o5, %o4
    39a8:	82 1b 00 01 	xor  %o4, %g1, %g1
    39ac:	80 a0 00 01 	cmp  %g0, %g1
    39b0:	a2 60 3f ff 	subx  %g0, -1, %l1
    39b4:	03 00 00 20 	sethi  %hi(0x8000), %g1
    39b8:	80 a3 00 01 	cmp  %o4, %g1
    39bc:	02 80 00 25 	be  3a50 <__smakebuf+0x108>
    39c0:	a0 10 24 00 	mov  0x400, %l0
    39c4:	c2 16 20 0c 	lduh  [ %i0 + 0xc ], %g1
    39c8:	82 10 68 00 	or  %g1, 0x800, %g1
    39cc:	c2 36 20 0c 	sth  %g1, [ %i0 + 0xc ]
    39d0:	d0 06 20 54 	ld  [ %i0 + 0x54 ], %o0
    39d4:	40 00 00 b5 	call  3ca8 <_malloc_r>
    39d8:	92 10 24 00 	mov  0x400, %o1
    39dc:	80 a2 20 00 	cmp  %o0, 0
    39e0:	02 80 00 16 	be  3a38 <__smakebuf+0xf0>
    39e4:	80 a4 60 00 	cmp  %l1, 0
    39e8:	c2 16 20 0c 	lduh  [ %i0 + 0xc ], %g1
    39ec:	da 06 20 54 	ld  [ %i0 + 0x54 ], %o5
    39f0:	82 10 60 80 	or  %g1, 0x80, %g1
    39f4:	d0 26 20 10 	st  %o0, [ %i0 + 0x10 ]
    39f8:	c2 36 20 0c 	sth  %g1, [ %i0 + 0xc ]
    39fc:	e0 26 20 14 	st  %l0, [ %i0 + 0x14 ]
    3a00:	03 00 00 0b 	sethi  %hi(0x2c00), %g1
    3a04:	82 10 62 68 	or  %g1, 0x268, %g1	! 2e68 <_cleanup_r>
    3a08:	d0 26 00 00 	st  %o0, [ %i0 ]
    3a0c:	02 80 00 20 	be  3a8c <__smakebuf+0x144>
    3a10:	c2 23 60 3c 	st  %g1, [ %o5 + 0x3c ]
    3a14:	40 00 23 3d 	call  c708 <isatty>
    3a18:	d0 56 20 0e 	ldsh  [ %i0 + 0xe ], %o0
    3a1c:	80 a2 20 00 	cmp  %o0, 0
    3a20:	02 80 00 1b 	be  3a8c <__smakebuf+0x144>
    3a24:	01 00 00 00 	nop 
    3a28:	c2 16 20 0c 	lduh  [ %i0 + 0xc ], %g1
    3a2c:	82 10 60 01 	or  %g1, 1, %g1
    3a30:	10 80 00 17 	b  3a8c <__smakebuf+0x144>
    3a34:	c2 36 20 0c 	sth  %g1, [ %i0 + 0xc ]
    3a38:	c2 16 20 0c 	lduh  [ %i0 + 0xc ], %g1
    3a3c:	9a 06 20 43 	add  %i0, 0x43, %o5
    3a40:	82 10 60 02 	or  %g1, 2, %g1
    3a44:	da 26 20 10 	st  %o5, [ %i0 + 0x10 ]
    3a48:	10 bf ff c7 	b  3964 <__smakebuf+0x1c>
    3a4c:	c2 36 20 0c 	sth  %g1, [ %i0 + 0xc ]
    3a50:	da 06 20 28 	ld  [ %i0 + 0x28 ], %o5
    3a54:	03 00 00 13 	sethi  %hi(0x4c00), %g1
    3a58:	82 10 60 dc 	or  %g1, 0xdc, %g1	! 4cdc <__sseek>
    3a5c:	80 a3 40 01 	cmp  %o5, %g1
    3a60:	12 bf ff da 	bne  39c8 <__smakebuf+0x80>
    3a64:	c2 16 20 0c 	lduh  [ %i0 + 0xc ], %g1
    3a68:	e0 26 20 4c 	st  %l0, [ %i0 + 0x4c ]
    3a6c:	10 bf ff d8 	b  39cc <__smakebuf+0x84>
    3a70:	82 10 64 00 	or  %g1, 0x400, %g1
    3a74:	da 16 20 0c 	lduh  [ %i0 + 0xc ], %o5
    3a78:	82 13 68 00 	or  %o5, 0x800, %g1
    3a7c:	a2 10 20 00 	clr  %l1
    3a80:	c2 36 20 0c 	sth  %g1, [ %i0 + 0xc ]
    3a84:	10 bf ff d3 	b  39d0 <__smakebuf+0x88>
    3a88:	a0 10 24 00 	mov  0x400, %l0
    3a8c:	81 c7 e0 08 	ret 
    3a90:	81 e8 00 00 	restore 

00003a94 <malloc>:
    3a94:	03 00 00 3c 	sethi  %hi(0xf000), %g1
    3a98:	da 00 60 98 	ld  [ %g1 + 0x98 ], %o5	! f098 <_impure_ptr>
    3a9c:	92 10 00 08 	mov  %o0, %o1
    3aa0:	90 10 00 0d 	mov  %o5, %o0
    3aa4:	82 13 c0 00 	mov  %o7, %g1
    3aa8:	40 00 00 80 	call  3ca8 <_malloc_r>
    3aac:	9e 10 40 00 	mov  %g1, %o7
    3ab0:	01 00 00 00 	nop 

00003ab4 <free>:
    3ab4:	03 00 00 3c 	sethi  %hi(0xf000), %g1
    3ab8:	da 00 60 98 	ld  [ %g1 + 0x98 ], %o5	! f098 <_impure_ptr>
    3abc:	92 10 00 08 	mov  %o0, %o1
    3ac0:	90 10 00 0d 	mov  %o5, %o0
    3ac4:	82 13 c0 00 	mov  %o7, %g1
    3ac8:	7f ff fd 55 	call  301c <_free_r>
    3acc:	9e 10 40 00 	mov  %g1, %o7
    3ad0:	01 00 00 00 	nop 

00003ad4 <malloc_extend_top>:
    3ad4:	9d e3 bf 98 	save  %sp, -104, %sp
    3ad8:	2f 00 00 3c 	sethi  %hi(0xf000), %l7
    3adc:	ac 15 e0 a0 	or  %l7, 0xa0, %l6	! f0a0 <__malloc_av_>
    3ae0:	e4 05 a0 08 	ld  [ %l6 + 8 ], %l2
    3ae4:	03 00 00 3d 	sethi  %hi(0xf400), %g1
    3ae8:	d8 04 a0 04 	ld  [ %l2 + 4 ], %o4
    3aec:	da 00 60 ec 	ld  [ %g1 + 0xec ], %o5
    3af0:	29 00 00 3d 	sethi  %hi(0xf400), %l4
    3af4:	c2 05 20 ac 	ld  [ %l4 + 0xac ], %g1	! f4ac <__malloc_sbrk_base>
    3af8:	b2 06 40 0d 	add  %i1, %o5, %i1
    3afc:	a6 0b 3f fc 	and  %o4, -4, %l3
    3b00:	80 a0 7f ff 	cmp  %g1, -1
    3b04:	b2 06 60 10 	add  %i1, 0x10, %i1
    3b08:	02 80 00 04 	be  3b18 <malloc_extend_top+0x44>
    3b0c:	a2 04 80 13 	add  %l2, %l3, %l1
    3b10:	82 06 6f ff 	add  %i1, 0xfff, %g1
    3b14:	b2 08 70 00 	and  %g1, -4096, %i1
    3b18:	90 10 00 18 	mov  %i0, %o0
    3b1c:	40 00 04 3a 	call  4c04 <_sbrk_r>
    3b20:	92 10 00 19 	mov  %i1, %o1
    3b24:	80 a2 3f ff 	cmp  %o0, -1
    3b28:	02 80 00 5e 	be  3ca0 <malloc_extend_top+0x1cc>
    3b2c:	a0 10 00 08 	mov  %o0, %l0
    3b30:	80 a2 00 11 	cmp  %o0, %l1
    3b34:	1a 80 00 05 	bcc  3b48 <malloc_extend_top+0x74>
    3b38:	2b 00 00 3d 	sethi  %hi(0xf400), %l5
    3b3c:	80 a4 80 16 	cmp  %l2, %l6
    3b40:	12 80 00 58 	bne  3ca0 <malloc_extend_top+0x1cc>
    3b44:	01 00 00 00 	nop 
    3b48:	c2 05 60 f8 	ld  [ %l5 + 0xf8 ], %g1
    3b4c:	80 a4 00 11 	cmp  %l0, %l1
    3b50:	82 00 40 19 	add  %g1, %i1, %g1
    3b54:	02 80 00 4b 	be  3c80 <malloc_extend_top+0x1ac>
    3b58:	c2 25 60 f8 	st  %g1, [ %l5 + 0xf8 ]
    3b5c:	c2 05 20 ac 	ld  [ %l4 + 0xac ], %g1
    3b60:	80 a0 7f ff 	cmp  %g1, -1
    3b64:	02 80 00 45 	be  3c78 <malloc_extend_top+0x1a4>
    3b68:	c2 05 60 f8 	ld  [ %l5 + 0xf8 ], %g1
    3b6c:	9a 24 00 11 	sub  %l0, %l1, %o5
    3b70:	82 00 40 0d 	add  %g1, %o5, %g1
    3b74:	c2 25 60 f8 	st  %g1, [ %l5 + 0xf8 ]
    3b78:	9a 8c 20 07 	andcc  %l0, 7, %o5
    3b7c:	02 80 00 05 	be  3b90 <malloc_extend_top+0xbc>
    3b80:	a2 10 20 00 	clr  %l1
    3b84:	82 10 20 08 	mov  8, %g1
    3b88:	a2 20 40 0d 	sub  %g1, %o5, %l1
    3b8c:	a0 04 00 11 	add  %l0, %l1, %l0
    3b90:	9a 04 00 19 	add  %l0, %i1, %o5
    3b94:	9a 0b 6f ff 	and  %o5, 0xfff, %o5
    3b98:	03 00 00 04 	sethi  %hi(0x1000), %g1
    3b9c:	90 10 00 18 	mov  %i0, %o0
    3ba0:	82 20 40 0d 	sub  %g1, %o5, %g1
    3ba4:	a2 04 40 01 	add  %l1, %g1, %l1
    3ba8:	40 00 04 17 	call  4c04 <_sbrk_r>
    3bac:	92 10 00 11 	mov  %l1, %o1
    3bb0:	80 a2 3f ff 	cmp  %o0, -1
    3bb4:	22 80 00 2f 	be,a   3c70 <malloc_extend_top+0x19c>
    3bb8:	a2 10 20 00 	clr  %l1
    3bbc:	c2 05 60 f8 	ld  [ %l5 + 0xf8 ], %g1
    3bc0:	9a 15 e0 a0 	or  %l7, 0xa0, %o5
    3bc4:	82 00 40 11 	add  %g1, %l1, %g1
    3bc8:	c2 25 60 f8 	st  %g1, [ %l5 + 0xf8 ]
    3bcc:	80 a4 80 0d 	cmp  %l2, %o5
    3bd0:	82 22 00 10 	sub  %o0, %l0, %g1
    3bd4:	e0 23 60 08 	st  %l0, [ %o5 + 8 ]
    3bd8:	82 00 40 11 	add  %g1, %l1, %g1
    3bdc:	82 10 60 01 	or  %g1, 1, %g1
    3be0:	02 80 00 13 	be  3c2c <malloc_extend_top+0x158>
    3be4:	c2 24 20 04 	st  %g1, [ %l0 + 4 ]
    3be8:	80 a4 e0 0f 	cmp  %l3, 0xf
    3bec:	38 80 00 05 	bgu,a   3c00 <malloc_extend_top+0x12c>
    3bf0:	c2 04 a0 04 	ld  [ %l2 + 4 ], %g1
    3bf4:	82 10 20 01 	mov  1, %g1
    3bf8:	10 80 00 2a 	b  3ca0 <malloc_extend_top+0x1cc>
    3bfc:	c2 24 20 04 	st  %g1, [ %l0 + 4 ]
    3c00:	9a 04 ff f4 	add  %l3, -12, %o5
    3c04:	82 08 60 01 	and  %g1, 1, %g1
    3c08:	a6 0b 7f f8 	and  %o5, -8, %l3
    3c0c:	82 10 40 13 	or  %g1, %l3, %g1
    3c10:	c2 24 a0 04 	st  %g1, [ %l2 + 4 ]
    3c14:	9a 04 80 13 	add  %l2, %l3, %o5
    3c18:	82 10 20 05 	mov  5, %g1
    3c1c:	80 a4 e0 0f 	cmp  %l3, 0xf
    3c20:	c2 23 60 08 	st  %g1, [ %o5 + 8 ]
    3c24:	18 80 00 0e 	bgu  3c5c <malloc_extend_top+0x188>
    3c28:	c2 23 60 04 	st  %g1, [ %o5 + 4 ]
    3c2c:	da 05 60 f8 	ld  [ %l5 + 0xf8 ], %o5
    3c30:	19 00 00 3d 	sethi  %hi(0xf400), %o4
    3c34:	c2 03 20 f0 	ld  [ %o4 + 0xf0 ], %g1	! f4f0 <__malloc_max_sbrked_mem>
    3c38:	80 a3 40 01 	cmp  %o5, %g1
    3c3c:	38 80 00 02 	bgu,a   3c44 <malloc_extend_top+0x170>
    3c40:	da 23 20 f0 	st  %o5, [ %o4 + 0xf0 ]
    3c44:	19 00 00 3d 	sethi  %hi(0xf400), %o4
    3c48:	c2 03 20 f4 	ld  [ %o4 + 0xf4 ], %g1	! f4f4 <__malloc_max_total_mem>
    3c4c:	80 a3 40 01 	cmp  %o5, %g1
    3c50:	38 80 00 14 	bgu,a   3ca0 <malloc_extend_top+0x1cc>
    3c54:	da 23 20 f4 	st  %o5, [ %o4 + 0xf4 ]
    3c58:	30 80 00 12 	b,a   3ca0 <malloc_extend_top+0x1cc>
    3c5c:	92 04 a0 08 	add  %l2, 8, %o1
    3c60:	7f ff fc ef 	call  301c <_free_r>
    3c64:	90 10 00 18 	mov  %i0, %o0
    3c68:	10 bf ff f2 	b  3c30 <malloc_extend_top+0x15c>
    3c6c:	da 05 60 f8 	ld  [ %l5 + 0xf8 ], %o5
    3c70:	10 bf ff d3 	b  3bbc <malloc_extend_top+0xe8>
    3c74:	90 10 00 10 	mov  %l0, %o0
    3c78:	10 bf ff c0 	b  3b78 <malloc_extend_top+0xa4>
    3c7c:	e0 25 20 ac 	st  %l0, [ %l4 + 0xac ]
    3c80:	80 8c 2f ff 	btst  0xfff, %l0
    3c84:	12 bf ff b7 	bne  3b60 <malloc_extend_top+0x8c>
    3c88:	c2 05 20 ac 	ld  [ %l4 + 0xac ], %g1
    3c8c:	da 05 a0 08 	ld  [ %l6 + 8 ], %o5
    3c90:	82 06 40 13 	add  %i1, %l3, %g1
    3c94:	82 10 60 01 	or  %g1, 1, %g1
    3c98:	10 bf ff e5 	b  3c2c <malloc_extend_top+0x158>
    3c9c:	c2 23 60 04 	st  %g1, [ %o5 + 4 ]
    3ca0:	81 c7 e0 08 	ret 
    3ca4:	81 e8 00 00 	restore 

00003ca8 <_malloc_r>:
    3ca8:	9d e3 bf 98 	save  %sp, -104, %sp
    3cac:	b2 06 60 0b 	add  %i1, 0xb, %i1
    3cb0:	a2 10 00 18 	mov  %i0, %l1
    3cb4:	80 a6 60 16 	cmp  %i1, 0x16
    3cb8:	18 80 00 03 	bgu  3cc4 <_malloc_r+0x1c>
    3cbc:	b2 0e 7f f8 	and  %i1, -8, %i1
    3cc0:	b2 10 20 10 	mov  0x10, %i1
    3cc4:	80 a6 60 00 	cmp  %i1, 0
    3cc8:	06 80 01 49 	bl  41ec <_malloc_r+0x544>
    3ccc:	b0 10 20 00 	clr  %i0
    3cd0:	40 00 01 76 	call  42a8 <__malloc_lock>
    3cd4:	90 10 00 11 	mov  %l1, %o0
    3cd8:	80 a6 61 f7 	cmp  %i1, 0x1f7
    3cdc:	18 80 01 15 	bgu  4130 <_malloc_r+0x488>
    3ce0:	99 36 60 09 	srl  %i1, 9, %o4
    3ce4:	25 00 00 3c 	sethi  %hi(0xf000), %l2
    3ce8:	82 14 a0 a0 	or  %l2, 0xa0, %g1	! f0a0 <__malloc_av_>
    3cec:	98 06 40 01 	add  %i1, %g1, %o4
    3cf0:	f0 03 20 0c 	ld  [ %o4 + 0xc ], %i0
    3cf4:	80 a6 00 0c 	cmp  %i0, %o4
    3cf8:	02 80 00 10 	be  3d38 <_malloc_r+0x90>
    3cfc:	a1 36 60 03 	srl  %i1, 3, %l0
    3d00:	c2 06 20 04 	ld  [ %i0 + 4 ], %g1
    3d04:	de 06 20 0c 	ld  [ %i0 + 0xc ], %o7
    3d08:	92 08 7f fc 	and  %g1, -4, %o1
    3d0c:	9a 06 00 09 	add  %i0, %o1, %o5
    3d10:	d0 06 20 08 	ld  [ %i0 + 8 ], %o0
    3d14:	c2 03 60 04 	ld  [ %o5 + 4 ], %g1
    3d18:	d0 23 e0 08 	st  %o0, [ %o7 + 8 ]
    3d1c:	82 10 60 01 	or  %g1, 1, %g1
    3d20:	c2 23 60 04 	st  %g1, [ %o5 + 4 ]
    3d24:	de 22 20 0c 	st  %o7, [ %o0 + 0xc ]
    3d28:	90 10 00 11 	mov  %l1, %o0
    3d2c:	40 00 01 61 	call  42b0 <__malloc_unlock>
    3d30:	b0 06 20 08 	add  %i0, 8, %i0
    3d34:	30 80 01 2e 	b,a   41ec <_malloc_r+0x544>
    3d38:	98 06 20 08 	add  %i0, 8, %o4
    3d3c:	f0 03 20 0c 	ld  [ %o4 + 0xc ], %i0
    3d40:	80 a6 00 0c 	cmp  %i0, %o4
    3d44:	32 bf ff f0 	bne,a   3d04 <_malloc_r+0x5c>
    3d48:	c2 06 20 04 	ld  [ %i0 + 4 ], %g1
    3d4c:	a0 04 20 02 	add  %l0, 2, %l0
    3d50:	27 00 00 3c 	sethi  %hi(0xf000), %l3
    3d54:	96 14 e0 a8 	or  %l3, 0xa8, %o3	! f0a8 <__malloc_av_+0x8>
    3d58:	f0 02 e0 08 	ld  [ %o3 + 8 ], %i0
    3d5c:	80 a6 00 0b 	cmp  %i0, %o3
    3d60:	22 80 00 24 	be,a   3df0 <_malloc_r+0x148>
    3d64:	25 00 00 3c 	sethi  %hi(0xf000), %l2
    3d68:	c2 06 20 04 	ld  [ %i0 + 4 ], %g1
    3d6c:	92 08 7f fc 	and  %g1, -4, %o1
    3d70:	94 22 40 19 	sub  %o1, %i1, %o2
    3d74:	80 a2 a0 0f 	cmp  %o2, 0xf
    3d78:	14 80 00 e5 	bg  410c <_malloc_r+0x464>
    3d7c:	80 a2 a0 00 	cmp  %o2, 0
    3d80:	d6 22 e0 0c 	st  %o3, [ %o3 + 0xc ]
    3d84:	06 80 00 08 	bl  3da4 <_malloc_r+0xfc>
    3d88:	d6 22 e0 08 	st  %o3, [ %o3 + 8 ]
    3d8c:	9a 06 00 09 	add  %i0, %o1, %o5
    3d90:	c2 03 60 04 	ld  [ %o5 + 4 ], %g1
    3d94:	90 10 00 11 	mov  %l1, %o0
    3d98:	82 10 60 01 	or  %g1, 1, %g1
    3d9c:	10 bf ff e4 	b  3d2c <_malloc_r+0x84>
    3da0:	c2 23 60 04 	st  %g1, [ %o5 + 4 ]
    3da4:	80 a2 61 ff 	cmp  %o1, 0x1ff
    3da8:	38 80 00 a1 	bgu,a   402c <_malloc_r+0x384>
    3dac:	97 32 60 09 	srl  %o1, 9, %o3
    3db0:	96 02 ff f8 	add  %o3, -8, %o3
    3db4:	9b 32 60 03 	srl  %o1, 3, %o5
    3db8:	83 2b 60 03 	sll  %o5, 3, %g1
    3dbc:	9e 00 40 0b 	add  %g1, %o3, %o7
    3dc0:	d0 03 e0 08 	ld  [ %o7 + 8 ], %o0
    3dc4:	d8 02 e0 04 	ld  [ %o3 + 4 ], %o4
    3dc8:	de 26 20 0c 	st  %o7, [ %i0 + 0xc ]
    3dcc:	d0 26 20 08 	st  %o0, [ %i0 + 8 ]
    3dd0:	9b 33 60 02 	srl  %o5, 2, %o5
    3dd4:	82 10 20 01 	mov  1, %g1
    3dd8:	f0 22 20 0c 	st  %i0, [ %o0 + 0xc ]
    3ddc:	83 28 40 0d 	sll  %g1, %o5, %g1
    3de0:	f0 23 e0 08 	st  %i0, [ %o7 + 8 ]
    3de4:	98 13 00 01 	or  %o4, %g1, %o4
    3de8:	d8 22 e0 04 	st  %o4, [ %o3 + 4 ]
    3dec:	25 00 00 3c 	sethi  %hi(0xf000), %l2
    3df0:	82 14 a0 a0 	or  %l2, 0xa0, %g1	! f0a0 <__malloc_av_>
    3df4:	d8 00 60 04 	ld  [ %g1 + 4 ], %o4
    3df8:	9b 3c 20 1f 	sra  %l0, 0x1f, %o5
    3dfc:	82 10 20 01 	mov  1, %g1
    3e00:	9b 33 60 1e 	srl  %o5, 0x1e, %o5
    3e04:	9a 04 00 0d 	add  %l0, %o5, %o5
    3e08:	9b 3b 60 02 	sra  %o5, 2, %o5
    3e0c:	97 28 40 0d 	sll  %g1, %o5, %o3
    3e10:	80 a2 c0 0c 	cmp  %o3, %o4
    3e14:	38 80 00 42 	bgu,a   3f1c <_malloc_r+0x274>
    3e18:	a0 14 a0 a0 	or  %l2, 0xa0, %l0
    3e1c:	80 8a c0 0c 	btst  %o3, %o4
    3e20:	12 80 00 0d 	bne  3e54 <_malloc_r+0x1ac>
    3e24:	03 00 00 3c 	sethi  %hi(0xf000), %g1
    3e28:	82 0c 3f fc 	and  %l0, -4, %g1
    3e2c:	96 02 c0 0b 	add  %o3, %o3, %o3
    3e30:	80 8a c0 0c 	btst  %o3, %o4
    3e34:	12 80 00 07 	bne  3e50 <_malloc_r+0x1a8>
    3e38:	a0 00 60 04 	add  %g1, 4, %l0
    3e3c:	82 10 00 0c 	mov  %o4, %g1
    3e40:	96 02 c0 0b 	add  %o3, %o3, %o3
    3e44:	80 8a c0 01 	btst  %o3, %g1
    3e48:	02 bf ff fe 	be  3e40 <_malloc_r+0x198>
    3e4c:	a0 04 20 04 	add  %l0, 4, %l0
    3e50:	03 00 00 3c 	sethi  %hi(0xf000), %g1
    3e54:	9e 10 60 a0 	or  %g1, 0xa0, %o7	! f0a0 <__malloc_av_>
    3e58:	83 2c 20 03 	sll  %l0, 3, %g1
    3e5c:	90 10 00 10 	mov  %l0, %o0
    3e60:	98 00 40 0f 	add  %g1, %o7, %o4
    3e64:	9a 10 00 0c 	mov  %o4, %o5
    3e68:	f0 03 60 0c 	ld  [ %o5 + 0xc ], %i0
    3e6c:	80 a6 00 0d 	cmp  %i0, %o5
    3e70:	22 80 00 0f 	be,a   3eac <_malloc_r+0x204>
    3e74:	a0 04 20 01 	inc  %l0
    3e78:	c2 06 20 04 	ld  [ %i0 + 4 ], %g1
    3e7c:	92 08 7f fc 	and  %g1, -4, %o1
    3e80:	94 22 40 19 	sub  %o1, %i1, %o2
    3e84:	80 a2 a0 0f 	cmp  %o2, 0xf
    3e88:	14 80 00 58 	bg  3fe8 <_malloc_r+0x340>
    3e8c:	80 a2 a0 00 	cmp  %o2, 0
    3e90:	36 80 00 50 	bge,a   3fd0 <_malloc_r+0x328>
    3e94:	9a 06 00 09 	add  %i0, %o1, %o5
    3e98:	f0 06 20 0c 	ld  [ %i0 + 0xc ], %i0
    3e9c:	80 a6 00 0d 	cmp  %i0, %o5
    3ea0:	32 bf ff f7 	bne,a   3e7c <_malloc_r+0x1d4>
    3ea4:	c2 06 20 04 	ld  [ %i0 + 4 ], %g1
    3ea8:	a0 04 20 01 	inc  %l0
    3eac:	80 8c 20 03 	btst  3, %l0
    3eb0:	12 bf ff ee 	bne  3e68 <_malloc_r+0x1c0>
    3eb4:	9a 03 60 08 	add  %o5, 8, %o5
    3eb8:	80 8a 20 03 	btst  3, %o0
    3ebc:	02 80 00 41 	be  3fc0 <_malloc_r+0x318>
    3ec0:	98 03 3f f8 	add  %o4, -8, %o4
    3ec4:	c2 03 20 08 	ld  [ %o4 + 8 ], %g1
    3ec8:	80 a0 40 0c 	cmp  %g1, %o4
    3ecc:	02 bf ff fb 	be  3eb8 <_malloc_r+0x210>
    3ed0:	90 02 3f ff 	add  %o0, -1, %o0
    3ed4:	25 00 00 3c 	sethi  %hi(0xf000), %l2
    3ed8:	82 14 a0 a0 	or  %l2, 0xa0, %g1	! f0a0 <__malloc_av_>
    3edc:	c2 00 60 04 	ld  [ %g1 + 4 ], %g1
    3ee0:	96 02 c0 0b 	add  %o3, %o3, %o3
    3ee4:	80 a2 c0 01 	cmp  %o3, %g1
    3ee8:	18 80 00 0c 	bgu  3f18 <_malloc_r+0x270>
    3eec:	80 a2 e0 00 	cmp  %o3, 0
    3ef0:	02 80 00 0a 	be  3f18 <_malloc_r+0x270>
    3ef4:	80 8a c0 01 	btst  %o3, %g1
    3ef8:	32 bf ff d9 	bne,a   3e5c <_malloc_r+0x1b4>
    3efc:	83 2c 20 03 	sll  %l0, 3, %g1
    3f00:	96 02 c0 0b 	add  %o3, %o3, %o3
    3f04:	80 8a c0 01 	btst  %o3, %g1
    3f08:	02 bf ff fe 	be  3f00 <_malloc_r+0x258>
    3f0c:	a0 04 20 04 	add  %l0, 4, %l0
    3f10:	10 bf ff d3 	b  3e5c <_malloc_r+0x1b4>
    3f14:	83 2c 20 03 	sll  %l0, 3, %g1
    3f18:	a0 14 a0 a0 	or  %l2, 0xa0, %l0
    3f1c:	da 04 20 08 	ld  [ %l0 + 8 ], %o5
    3f20:	c2 03 60 04 	ld  [ %o5 + 4 ], %g1
    3f24:	82 08 7f fc 	and  %g1, -4, %g1
    3f28:	80 a0 40 19 	cmp  %g1, %i1
    3f2c:	94 20 40 19 	sub  %g1, %i1, %o2
    3f30:	9a 40 20 00 	addx  %g0, 0, %o5
    3f34:	80 a2 a0 0f 	cmp  %o2, 0xf
    3f38:	04 80 00 03 	ble  3f44 <_malloc_r+0x29c>
    3f3c:	98 10 20 01 	mov  1, %o4
    3f40:	98 10 20 00 	clr  %o4
    3f44:	80 93 40 0c 	orcc  %o5, %o4, %g0
    3f48:	02 80 00 12 	be  3f90 <_malloc_r+0x2e8>
    3f4c:	98 14 a0 a0 	or  %l2, 0xa0, %o4
    3f50:	90 10 00 11 	mov  %l1, %o0
    3f54:	7f ff fe e0 	call  3ad4 <malloc_extend_top>
    3f58:	92 10 00 19 	mov  %i1, %o1
    3f5c:	da 04 20 08 	ld  [ %l0 + 8 ], %o5
    3f60:	c2 03 60 04 	ld  [ %o5 + 4 ], %g1
    3f64:	82 08 7f fc 	and  %g1, -4, %g1
    3f68:	80 a0 40 19 	cmp  %g1, %i1
    3f6c:	94 20 40 19 	sub  %g1, %i1, %o2
    3f70:	9a 40 20 00 	addx  %g0, 0, %o5
    3f74:	80 a2 a0 0f 	cmp  %o2, 0xf
    3f78:	04 80 00 03 	ble  3f84 <_malloc_r+0x2dc>
    3f7c:	98 10 20 01 	mov  1, %o4
    3f80:	98 10 20 00 	clr  %o4
    3f84:	80 93 40 0c 	orcc  %o5, %o4, %g0
    3f88:	12 80 00 0a 	bne  3fb0 <_malloc_r+0x308>
    3f8c:	98 14 a0 a0 	or  %l2, 0xa0, %o4
    3f90:	f0 03 20 08 	ld  [ %o4 + 8 ], %i0
    3f94:	82 16 60 01 	or  %i1, 1, %g1
    3f98:	c2 26 20 04 	st  %g1, [ %i0 + 4 ]
    3f9c:	9a 06 00 19 	add  %i0, %i1, %o5
    3fa0:	82 12 a0 01 	or  %o2, 1, %g1
    3fa4:	da 23 20 08 	st  %o5, [ %o4 + 8 ]
    3fa8:	10 bf ff 60 	b  3d28 <_malloc_r+0x80>
    3fac:	c2 23 60 04 	st  %g1, [ %o5 + 4 ]
    3fb0:	90 10 00 11 	mov  %l1, %o0
    3fb4:	40 00 00 bf 	call  42b0 <__malloc_unlock>
    3fb8:	b0 10 20 00 	clr  %i0
    3fbc:	30 80 00 8c 	b,a   41ec <_malloc_r+0x544>
    3fc0:	c2 03 e0 04 	ld  [ %o7 + 4 ], %g1
    3fc4:	82 28 40 0b 	andn  %g1, %o3, %g1
    3fc8:	10 bf ff c3 	b  3ed4 <_malloc_r+0x22c>
    3fcc:	c2 23 e0 04 	st  %g1, [ %o7 + 4 ]
    3fd0:	de 06 20 0c 	ld  [ %i0 + 0xc ], %o7
    3fd4:	c2 03 60 04 	ld  [ %o5 + 4 ], %g1
    3fd8:	d0 06 20 08 	ld  [ %i0 + 8 ], %o0
    3fdc:	82 10 60 01 	or  %g1, 1, %g1
    3fe0:	10 bf ff 50 	b  3d20 <_malloc_r+0x78>
    3fe4:	d0 23 e0 08 	st  %o0, [ %o7 + 8 ]
    3fe8:	de 06 20 0c 	ld  [ %i0 + 0xc ], %o7
    3fec:	d0 06 20 08 	ld  [ %i0 + 8 ], %o0
    3ff0:	92 06 00 19 	add  %i0, %i1, %o1
    3ff4:	d0 23 e0 08 	st  %o0, [ %o7 + 8 ]
    3ff8:	de 22 20 0c 	st  %o7, [ %o0 + 0xc ]
    3ffc:	82 14 e0 a8 	or  %l3, 0xa8, %g1
    4000:	d2 20 60 0c 	st  %o1, [ %g1 + 0xc ]
    4004:	d2 20 60 08 	st  %o1, [ %g1 + 8 ]
    4008:	9a 16 60 01 	or  %i1, 1, %o5
    400c:	d4 22 40 0a 	st  %o2, [ %o1 + %o2 ]
    4010:	da 26 20 04 	st  %o5, [ %i0 + 4 ]
    4014:	c2 22 60 08 	st  %g1, [ %o1 + 8 ]
    4018:	c2 22 60 0c 	st  %g1, [ %o1 + 0xc ]
    401c:	82 12 a0 01 	or  %o2, 1, %g1
    4020:	90 10 00 11 	mov  %l1, %o0
    4024:	10 bf ff 42 	b  3d2c <_malloc_r+0x84>
    4028:	c2 22 60 04 	st  %g1, [ %o1 + 4 ]
    402c:	80 a2 e0 00 	cmp  %o3, 0
    4030:	02 80 00 16 	be  4088 <_malloc_r+0x3e0>
    4034:	9b 32 60 03 	srl  %o1, 3, %o5
    4038:	83 32 60 06 	srl  %o1, 6, %g1
    403c:	80 a2 e0 04 	cmp  %o3, 4
    4040:	08 80 00 12 	bleu  4088 <_malloc_r+0x3e0>
    4044:	9a 00 60 38 	add  %g1, 0x38, %o5
    4048:	80 a2 e0 14 	cmp  %o3, 0x14
    404c:	08 80 00 0f 	bleu  4088 <_malloc_r+0x3e0>
    4050:	9a 02 e0 5b 	add  %o3, 0x5b, %o5
    4054:	83 32 60 0c 	srl  %o1, 0xc, %g1
    4058:	80 a2 e0 54 	cmp  %o3, 0x54
    405c:	08 80 00 0b 	bleu  4088 <_malloc_r+0x3e0>
    4060:	9a 00 60 6e 	add  %g1, 0x6e, %o5
    4064:	83 32 60 0f 	srl  %o1, 0xf, %g1
    4068:	80 a2 e1 54 	cmp  %o3, 0x154
    406c:	08 80 00 07 	bleu  4088 <_malloc_r+0x3e0>
    4070:	9a 00 60 77 	add  %g1, 0x77, %o5
    4074:	83 32 60 12 	srl  %o1, 0x12, %g1
    4078:	80 a2 e5 54 	cmp  %o3, 0x554
    407c:	08 80 00 03 	bleu  4088 <_malloc_r+0x3e0>
    4080:	9a 00 60 7c 	add  %g1, 0x7c, %o5
    4084:	9a 10 20 7e 	mov  0x7e, %o5
    4088:	96 14 a0 a0 	or  %l2, 0xa0, %o3
    408c:	83 2b 60 03 	sll  %o5, 3, %g1
    4090:	9e 00 40 0b 	add  %g1, %o3, %o7
    4094:	d0 03 e0 08 	ld  [ %o7 + 8 ], %o0
    4098:	80 a2 00 0f 	cmp  %o0, %o7
    409c:	22 80 00 16 	be,a   40f4 <_malloc_r+0x44c>
    40a0:	c2 02 e0 04 	ld  [ %o3 + 4 ], %g1
    40a4:	c2 02 20 04 	ld  [ %o0 + 4 ], %g1
    40a8:	82 08 7f fc 	and  %g1, -4, %g1
    40ac:	80 a2 40 01 	cmp  %o1, %g1
    40b0:	3a 80 00 0c 	bcc,a   40e0 <_malloc_r+0x438>
    40b4:	de 02 20 0c 	ld  [ %o0 + 0xc ], %o7
    40b8:	d0 02 20 08 	ld  [ %o0 + 8 ], %o0
    40bc:	80 a2 00 0f 	cmp  %o0, %o7
    40c0:	22 80 00 08 	be,a   40e0 <_malloc_r+0x438>
    40c4:	de 02 20 0c 	ld  [ %o0 + 0xc ], %o7
    40c8:	c2 02 20 04 	ld  [ %o0 + 4 ], %g1
    40cc:	82 08 7f fc 	and  %g1, -4, %g1
    40d0:	80 a2 40 01 	cmp  %o1, %g1
    40d4:	2a bf ff fa 	bcs,a   40bc <_malloc_r+0x414>
    40d8:	d0 02 20 08 	ld  [ %o0 + 8 ], %o0
    40dc:	de 02 20 0c 	ld  [ %o0 + 0xc ], %o7
    40e0:	de 26 20 0c 	st  %o7, [ %i0 + 0xc ]
    40e4:	d0 26 20 08 	st  %o0, [ %i0 + 8 ]
    40e8:	f0 22 20 0c 	st  %i0, [ %o0 + 0xc ]
    40ec:	10 bf ff 40 	b  3dec <_malloc_r+0x144>
    40f0:	f0 23 e0 08 	st  %i0, [ %o7 + 8 ]
    40f4:	99 33 60 02 	srl  %o5, 2, %o4
    40f8:	9a 10 20 01 	mov  1, %o5
    40fc:	9b 2b 40 0c 	sll  %o5, %o4, %o5
    4100:	82 10 40 0d 	or  %g1, %o5, %g1
    4104:	10 bf ff f7 	b  40e0 <_malloc_r+0x438>
    4108:	c2 22 e0 04 	st  %g1, [ %o3 + 4 ]
    410c:	92 06 00 19 	add  %i0, %i1, %o1
    4110:	d2 22 e0 0c 	st  %o1, [ %o3 + 0xc ]
    4114:	d2 22 e0 08 	st  %o1, [ %o3 + 8 ]
    4118:	82 16 60 01 	or  %i1, 1, %g1
    411c:	d4 22 40 0a 	st  %o2, [ %o1 + %o2 ]
    4120:	c2 26 20 04 	st  %g1, [ %i0 + 4 ]
    4124:	d6 22 60 08 	st  %o3, [ %o1 + 8 ]
    4128:	10 bf ff bd 	b  401c <_malloc_r+0x374>
    412c:	d6 22 60 0c 	st  %o3, [ %o1 + 0xc ]
    4130:	80 a3 20 00 	cmp  %o4, 0
    4134:	02 80 00 16 	be  418c <_malloc_r+0x4e4>
    4138:	a1 36 60 03 	srl  %i1, 3, %l0
    413c:	83 36 60 06 	srl  %i1, 6, %g1
    4140:	80 a3 20 04 	cmp  %o4, 4
    4144:	08 80 00 12 	bleu  418c <_malloc_r+0x4e4>
    4148:	a0 00 60 38 	add  %g1, 0x38, %l0
    414c:	80 a3 20 14 	cmp  %o4, 0x14
    4150:	08 80 00 0f 	bleu  418c <_malloc_r+0x4e4>
    4154:	a0 03 20 5b 	add  %o4, 0x5b, %l0
    4158:	83 36 60 0c 	srl  %i1, 0xc, %g1
    415c:	80 a3 20 54 	cmp  %o4, 0x54
    4160:	08 80 00 0b 	bleu  418c <_malloc_r+0x4e4>
    4164:	a0 00 60 6e 	add  %g1, 0x6e, %l0
    4168:	83 36 60 0f 	srl  %i1, 0xf, %g1
    416c:	80 a3 21 54 	cmp  %o4, 0x154
    4170:	08 80 00 07 	bleu  418c <_malloc_r+0x4e4>
    4174:	a0 00 60 77 	add  %g1, 0x77, %l0
    4178:	83 36 60 12 	srl  %i1, 0x12, %g1
    417c:	80 a3 25 54 	cmp  %o4, 0x554
    4180:	08 80 00 03 	bleu  418c <_malloc_r+0x4e4>
    4184:	a0 00 60 7c 	add  %g1, 0x7c, %l0
    4188:	a0 10 20 7e 	mov  0x7e, %l0
    418c:	9b 2c 20 03 	sll  %l0, 3, %o5
    4190:	25 00 00 3c 	sethi  %hi(0xf000), %l2
    4194:	82 14 a0 a0 	or  %l2, 0xa0, %g1	! f0a0 <__malloc_av_>
    4198:	9a 03 40 01 	add  %o5, %g1, %o5
    419c:	f0 03 60 0c 	ld  [ %o5 + 0xc ], %i0
    41a0:	80 a6 00 0d 	cmp  %i0, %o5
    41a4:	22 bf fe eb 	be,a   3d50 <_malloc_r+0xa8>
    41a8:	a0 04 20 01 	inc  %l0
    41ac:	c2 06 20 04 	ld  [ %i0 + 4 ], %g1
    41b0:	92 08 7f fc 	and  %g1, -4, %o1
    41b4:	94 22 40 19 	sub  %o1, %i1, %o2
    41b8:	80 a2 a0 0f 	cmp  %o2, 0xf
    41bc:	14 80 00 0a 	bg  41e4 <_malloc_r+0x53c>
    41c0:	80 a2 a0 00 	cmp  %o2, 0
    41c4:	36 bf fe d2 	bge,a   3d0c <_malloc_r+0x64>
    41c8:	de 06 20 0c 	ld  [ %i0 + 0xc ], %o7
    41cc:	f0 06 20 0c 	ld  [ %i0 + 0xc ], %i0
    41d0:	80 a6 00 0d 	cmp  %i0, %o5
    41d4:	32 bf ff f7 	bne,a   41b0 <_malloc_r+0x508>
    41d8:	c2 06 20 04 	ld  [ %i0 + 4 ], %g1
    41dc:	10 bf fe dd 	b  3d50 <_malloc_r+0xa8>
    41e0:	a0 04 20 01 	inc  %l0
    41e4:	10 bf ff fe 	b  41dc <_malloc_r+0x534>
    41e8:	a0 04 3f ff 	add  %l0, -1, %l0
    41ec:	81 c7 e0 08 	ret 
    41f0:	81 e8 00 00 	restore 

000041f4 <memset>:
    41f4:	92 0a 60 ff 	and  %o1, 0xff, %o1
    41f8:	80 a2 a0 03 	cmp  %o2, 3
    41fc:	08 80 00 20 	bleu  427c <memset+0x88>
    4200:	82 10 00 08 	mov  %o0, %g1
    4204:	80 8a 20 03 	btst  3, %o0
    4208:	32 80 00 1e 	bne,a   4280 <memset+0x8c>
    420c:	94 02 bf ff 	add  %o2, -1, %o2
    4210:	83 2a 60 08 	sll  %o1, 8, %g1
    4214:	9a 10 00 08 	mov  %o0, %o5
    4218:	98 10 40 09 	or  %g1, %o1, %o4
    421c:	83 2b 20 10 	sll  %o4, 0x10, %g1
    4220:	80 a2 a0 0f 	cmp  %o2, 0xf
    4224:	08 80 00 0d 	bleu  4258 <memset+0x64>
    4228:	98 13 00 01 	or  %o4, %g1, %o4
    422c:	d8 23 40 00 	st  %o4, [ %o5 ]
    4230:	9a 03 60 04 	add  %o5, 4, %o5
    4234:	d8 23 40 00 	st  %o4, [ %o5 ]
    4238:	9a 03 60 04 	add  %o5, 4, %o5
    423c:	d8 23 40 00 	st  %o4, [ %o5 ]
    4240:	94 02 bf f0 	add  %o2, -16, %o2
    4244:	9a 03 60 04 	add  %o5, 4, %o5
    4248:	80 a2 a0 0f 	cmp  %o2, 0xf
    424c:	d8 23 40 00 	st  %o4, [ %o5 ]
    4250:	18 bf ff f7 	bgu  422c <memset+0x38>
    4254:	9a 03 60 04 	add  %o5, 4, %o5
    4258:	80 a2 a0 03 	cmp  %o2, 3
    425c:	28 80 00 08 	bleu,a   427c <memset+0x88>
    4260:	82 10 00 0d 	mov  %o5, %g1
    4264:	d8 23 40 00 	st  %o4, [ %o5 ]
    4268:	94 02 bf fc 	add  %o2, -4, %o2
    426c:	80 a2 a0 03 	cmp  %o2, 3
    4270:	18 bf ff fd 	bgu  4264 <memset+0x70>
    4274:	9a 03 60 04 	add  %o5, 4, %o5
    4278:	82 10 00 0d 	mov  %o5, %g1
    427c:	94 02 bf ff 	add  %o2, -1, %o2
    4280:	80 a2 bf ff 	cmp  %o2, -1
    4284:	02 80 00 07 	be  42a0 <memset+0xac>
    4288:	01 00 00 00 	nop 
    428c:	d2 28 40 00 	stb  %o1, [ %g1 ]
    4290:	94 02 bf ff 	add  %o2, -1, %o2
    4294:	80 a2 bf ff 	cmp  %o2, -1
    4298:	12 bf ff fd 	bne  428c <memset+0x98>
    429c:	82 00 60 01 	inc  %g1
    42a0:	81 c3 e0 08 	retl 
    42a4:	01 00 00 00 	nop 

000042a8 <__malloc_lock>:
    42a8:	81 c3 e0 08 	retl 
    42ac:	01 00 00 00 	nop 

000042b0 <__malloc_unlock>:
    42b0:	81 c3 e0 08 	retl 
    42b4:	01 00 00 00 	nop 

000042b8 <_open_r>:
    42b8:	9d e3 bf 98 	save  %sp, -104, %sp
    42bc:	94 10 00 1b 	mov  %i3, %o2
    42c0:	90 10 00 19 	mov  %i1, %o0
    42c4:	92 10 00 1a 	mov  %i2, %o1
    42c8:	37 00 00 4e 	sethi  %hi(0x13800), %i3
    42cc:	40 00 21 05 	call  c6e0 <open>
    42d0:	c0 26 e1 54 	clr  [ %i3 + 0x154 ]	! 13954 <errno>
    42d4:	80 a2 3f ff 	cmp  %o0, -1
    42d8:	12 80 00 06 	bne  42f0 <_open_r+0x38>
    42dc:	c2 06 e1 54 	ld  [ %i3 + 0x154 ], %g1
    42e0:	80 a0 60 00 	cmp  %g1, 0
    42e4:	02 80 00 03 	be  42f0 <_open_r+0x38>
    42e8:	01 00 00 00 	nop 
    42ec:	c2 26 00 00 	st  %g1, [ %i0 ]
    42f0:	81 c7 e0 08 	ret 
    42f4:	91 e8 00 08 	restore  %g0, %o0, %o0

000042f8 <_printf_r>:
    42f8:	9d e3 bf 98 	save  %sp, -104, %sp
    42fc:	d2 06 20 08 	ld  [ %i0 + 8 ], %o1
    4300:	90 10 00 18 	mov  %i0, %o0
    4304:	f4 27 a0 4c 	st  %i2, [ %fp + 0x4c ]
    4308:	f6 27 a0 50 	st  %i3, [ %fp + 0x50 ]
    430c:	f8 27 a0 54 	st  %i4, [ %fp + 0x54 ]
    4310:	fa 27 a0 58 	st  %i5, [ %fp + 0x58 ]
    4314:	94 10 00 19 	mov  %i1, %o2
    4318:	40 00 03 32 	call  4fe0 <_vfprintf_r>
    431c:	96 07 a0 4c 	add  %fp, 0x4c, %o3
    4320:	81 c7 e0 08 	ret 
    4324:	91 e8 00 08 	restore  %g0, %o0, %o0

00004328 <printf>:
    4328:	9d e3 bf 98 	save  %sp, -104, %sp
    432c:	03 00 00 3c 	sethi  %hi(0xf000), %g1
    4330:	da 00 60 98 	ld  [ %g1 + 0x98 ], %o5	! f098 <_impure_ptr>
    4334:	f2 27 a0 48 	st  %i1, [ %fp + 0x48 ]
    4338:	f4 27 a0 4c 	st  %i2, [ %fp + 0x4c ]
    433c:	f6 27 a0 50 	st  %i3, [ %fp + 0x50 ]
    4340:	f8 27 a0 54 	st  %i4, [ %fp + 0x54 ]
    4344:	fa 27 a0 58 	st  %i5, [ %fp + 0x58 ]
    4348:	d0 03 60 08 	ld  [ %o5 + 8 ], %o0
    434c:	92 10 00 18 	mov  %i0, %o1
    4350:	da 22 20 54 	st  %o5, [ %o0 + 0x54 ]
    4354:	40 00 03 0c 	call  4f84 <vfprintf>
    4358:	94 07 a0 48 	add  %fp, 0x48, %o2
    435c:	81 c7 e0 08 	ret 
    4360:	91 e8 00 08 	restore  %g0, %o0, %o0

00004364 <realloc>:
    4364:	03 00 00 3c 	sethi  %hi(0xf000), %g1
    4368:	da 00 60 98 	ld  [ %g1 + 0x98 ], %o5	! f098 <_impure_ptr>
    436c:	98 10 00 08 	mov  %o0, %o4
    4370:	94 10 00 09 	mov  %o1, %o2
    4374:	90 10 00 0d 	mov  %o5, %o0
    4378:	92 10 00 0c 	mov  %o4, %o1
    437c:	82 13 c0 00 	mov  %o7, %g1
    4380:	40 00 00 03 	call  438c <_realloc_r>
    4384:	9e 10 40 00 	mov  %g1, %o7
    4388:	01 00 00 00 	nop 

0000438c <_realloc_r>:
    438c:	9d e3 bf 98 	save  %sp, -104, %sp
    4390:	80 a6 60 00 	cmp  %i1, 0
    4394:	02 80 01 34 	be  4864 <_realloc_r+0x4d8>
    4398:	aa 10 00 18 	mov  %i0, %l5
    439c:	a0 06 7f f8 	add  %i1, -8, %l0
    43a0:	7f ff ff c2 	call  42a8 <__malloc_lock>
    43a4:	90 10 00 18 	mov  %i0, %o0
    43a8:	d2 04 20 04 	ld  [ %l0 + 4 ], %o1
    43ac:	82 06 a0 0b 	add  %i2, 0xb, %g1
    43b0:	a4 0a 7f fc 	and  %o1, -4, %l2
    43b4:	80 a0 60 16 	cmp  %g1, 0x16
    43b8:	a6 10 00 10 	mov  %l0, %l3
    43bc:	a2 10 00 12 	mov  %l2, %l1
    43c0:	18 80 00 03 	bgu  43cc <_realloc_r+0x40>
    43c4:	a8 08 7f f8 	and  %g1, -8, %l4
    43c8:	a8 10 20 10 	mov  0x10, %l4
    43cc:	80 a5 20 00 	cmp  %l4, 0
    43d0:	06 80 01 27 	bl  486c <_realloc_r+0x4e0>
    43d4:	90 10 20 00 	clr  %o0
    43d8:	80 a4 40 14 	cmp  %l1, %l4
    43dc:	16 80 00 6d 	bge  4590 <_realloc_r+0x204>
    43e0:	9a 24 80 14 	sub  %l2, %l4, %o5
    43e4:	2d 00 00 3c 	sethi  %hi(0xf000), %l6
    43e8:	90 15 a0 a0 	or  %l6, 0xa0, %o0	! f0a0 <__malloc_av_>
    43ec:	d4 02 20 08 	ld  [ %o0 + 8 ], %o2
    43f0:	96 04 c0 11 	add  %l3, %l1, %o3
    43f4:	80 a2 c0 0a 	cmp  %o3, %o2
    43f8:	02 80 00 09 	be  441c <_realloc_r+0x90>
    43fc:	d8 02 e0 04 	ld  [ %o3 + 4 ], %o4
    4400:	82 0b 3f fe 	and  %o4, -2, %g1
    4404:	82 02 c0 01 	add  %o3, %g1, %g1
    4408:	da 00 60 04 	ld  [ %g1 + 4 ], %o5
    440c:	80 8b 60 01 	btst  1, %o5
    4410:	32 80 01 13 	bne,a   485c <_realloc_r+0x4d0>
    4414:	96 10 20 00 	clr  %o3
    4418:	80 a2 c0 0a 	cmp  %o3, %o2
    441c:	02 80 00 fe 	be  4814 <_realloc_r+0x488>
    4420:	94 0b 3f fc 	and  %o4, -4, %o2
    4424:	98 02 80 11 	add  %o2, %l1, %o4
    4428:	80 a3 00 14 	cmp  %o4, %l4
    442c:	36 80 00 f5 	bge,a   4800 <_realloc_r+0x474>
    4430:	da 02 e0 08 	ld  [ %o3 + 8 ], %o5
    4434:	80 8a 60 01 	btst  1, %o1
    4438:	12 80 00 16 	bne  4490 <_realloc_r+0x104>
    443c:	80 a2 e0 00 	cmp  %o3, 0
    4440:	da 04 c0 00 	ld  [ %l3 ], %o5
    4444:	a4 24 c0 0d 	sub  %l3, %o5, %l2
    4448:	c2 04 a0 04 	ld  [ %l2 + 4 ], %g1
    444c:	02 80 00 0b 	be  4478 <_realloc_r+0xec>
    4450:	98 08 7f fc 	and  %g1, -4, %o4
    4454:	82 15 a0 a0 	or  %l6, 0xa0, %g1
    4458:	da 00 60 08 	ld  [ %g1 + 8 ], %o5
    445c:	80 a2 c0 0d 	cmp  %o3, %o5
    4460:	02 80 00 a9 	be  4704 <_realloc_r+0x378>
    4464:	82 02 80 0c 	add  %o2, %o4, %g1
    4468:	92 00 40 11 	add  %g1, %l1, %o1
    446c:	80 a2 40 14 	cmp  %o1, %l4
    4470:	36 80 00 9a 	bge,a   46d8 <_realloc_r+0x34c>
    4474:	da 02 e0 08 	ld  [ %o3 + 8 ], %o5
    4478:	80 a4 a0 00 	cmp  %l2, 0
    447c:	02 80 00 05 	be  4490 <_realloc_r+0x104>
    4480:	98 03 00 11 	add  %o4, %l1, %o4
    4484:	80 a3 00 14 	cmp  %o4, %l4
    4488:	36 80 00 63 	bge,a   4614 <_realloc_r+0x288>
    448c:	c2 04 a0 0c 	ld  [ %l2 + 0xc ], %g1
    4490:	92 10 00 1a 	mov  %i2, %o1
    4494:	7f ff fe 05 	call  3ca8 <_malloc_r>
    4498:	90 10 00 15 	mov  %l5, %o0
    449c:	b0 92 20 00 	orcc  %o0, 0, %i0
    44a0:	02 80 00 59 	be  4604 <_realloc_r+0x278>
    44a4:	a0 06 3f f8 	add  %i0, -8, %l0
    44a8:	c2 04 e0 04 	ld  [ %l3 + 4 ], %g1
    44ac:	82 08 7f fe 	and  %g1, -2, %g1
    44b0:	82 04 c0 01 	add  %l3, %g1, %g1
    44b4:	80 a4 00 01 	cmp  %l0, %g1
    44b8:	02 80 00 31 	be  457c <_realloc_r+0x1f0>
    44bc:	94 04 7f fc 	add  %l1, -4, %o2
    44c0:	80 a2 a0 24 	cmp  %o2, 0x24
    44c4:	18 80 00 2a 	bgu  456c <_realloc_r+0x1e0>
    44c8:	80 a2 a0 13 	cmp  %o2, 0x13
    44cc:	96 10 00 19 	mov  %i1, %o3
    44d0:	08 80 00 18 	bleu  4530 <_realloc_r+0x1a4>
    44d4:	98 10 00 18 	mov  %i0, %o4
    44d8:	c2 06 40 00 	ld  [ %i1 ], %g1
    44dc:	80 a2 a0 1b 	cmp  %o2, 0x1b
    44e0:	c2 26 00 00 	st  %g1, [ %i0 ]
    44e4:	da 06 60 04 	ld  [ %i1 + 4 ], %o5
    44e8:	96 06 60 08 	add  %i1, 8, %o3
    44ec:	da 26 20 04 	st  %o5, [ %i0 + 4 ]
    44f0:	08 80 00 10 	bleu  4530 <_realloc_r+0x1a4>
    44f4:	98 06 20 08 	add  %i0, 8, %o4
    44f8:	c2 06 60 08 	ld  [ %i1 + 8 ], %g1
    44fc:	80 a2 a0 23 	cmp  %o2, 0x23
    4500:	c2 26 20 08 	st  %g1, [ %i0 + 8 ]
    4504:	da 06 60 0c 	ld  [ %i1 + 0xc ], %o5
    4508:	96 06 60 10 	add  %i1, 0x10, %o3
    450c:	da 26 20 0c 	st  %o5, [ %i0 + 0xc ]
    4510:	08 80 00 08 	bleu  4530 <_realloc_r+0x1a4>
    4514:	98 06 20 10 	add  %i0, 0x10, %o4
    4518:	c2 06 60 10 	ld  [ %i1 + 0x10 ], %g1
    451c:	96 06 60 18 	add  %i1, 0x18, %o3
    4520:	c2 26 20 10 	st  %g1, [ %i0 + 0x10 ]
    4524:	da 06 60 14 	ld  [ %i1 + 0x14 ], %o5
    4528:	98 06 20 18 	add  %i0, 0x18, %o4
    452c:	da 26 20 14 	st  %o5, [ %i0 + 0x14 ]
    4530:	c2 02 c0 00 	ld  [ %o3 ], %g1
    4534:	96 02 e0 04 	add  %o3, 4, %o3
    4538:	c2 23 00 00 	st  %g1, [ %o4 ]
    453c:	da 02 c0 00 	ld  [ %o3 ], %o5
    4540:	98 03 20 04 	add  %o4, 4, %o4
    4544:	da 23 00 00 	st  %o5, [ %o4 ]
    4548:	c2 02 e0 04 	ld  [ %o3 + 4 ], %g1
    454c:	c2 23 20 04 	st  %g1, [ %o4 + 4 ]
    4550:	92 10 00 19 	mov  %i1, %o1
    4554:	7f ff fa b2 	call  301c <_free_r>
    4558:	90 10 00 15 	mov  %l5, %o0
    455c:	7f ff ff 55 	call  42b0 <__malloc_unlock>
    4560:	90 10 00 15 	mov  %l5, %o0
    4564:	10 80 00 c2 	b  486c <_realloc_r+0x4e0>
    4568:	90 10 00 18 	mov  %i0, %o0
    456c:	40 00 14 f9 	call  9950 <memcpy>
    4570:	92 10 00 19 	mov  %i1, %o1
    4574:	10 bf ff f8 	b  4554 <_realloc_r+0x1c8>
    4578:	92 10 00 19 	mov  %i1, %o1
    457c:	c2 04 20 04 	ld  [ %l0 + 4 ], %g1
    4580:	a0 10 00 13 	mov  %l3, %l0
    4584:	82 08 7f fc 	and  %g1, -4, %g1
    4588:	a4 04 40 01 	add  %l1, %g1, %l2
    458c:	9a 24 80 14 	sub  %l2, %l4, %o5
    4590:	80 a3 60 0f 	cmp  %o5, 0xf
    4594:	18 80 00 0d 	bgu  45c8 <_realloc_r+0x23c>
    4598:	98 04 00 12 	add  %l0, %l2, %o4
    459c:	c2 04 20 04 	ld  [ %l0 + 4 ], %g1
    45a0:	82 08 60 01 	and  %g1, 1, %g1
    45a4:	82 10 40 12 	or  %g1, %l2, %g1
    45a8:	c2 24 20 04 	st  %g1, [ %l0 + 4 ]
    45ac:	da 03 20 04 	ld  [ %o4 + 4 ], %o5
    45b0:	9a 13 60 01 	or  %o5, 1, %o5
    45b4:	da 23 20 04 	st  %o5, [ %o4 + 4 ]
    45b8:	7f ff ff 3e 	call  42b0 <__malloc_unlock>
    45bc:	90 10 00 15 	mov  %l5, %o0
    45c0:	10 80 00 ab 	b  486c <_realloc_r+0x4e0>
    45c4:	90 04 20 08 	add  %l0, 8, %o0
    45c8:	c2 04 20 04 	ld  [ %l0 + 4 ], %g1
    45cc:	92 04 00 14 	add  %l0, %l4, %o1
    45d0:	82 08 60 01 	and  %g1, 1, %g1
    45d4:	82 10 40 14 	or  %g1, %l4, %g1
    45d8:	c2 24 20 04 	st  %g1, [ %l0 + 4 ]
    45dc:	98 02 40 0d 	add  %o1, %o5, %o4
    45e0:	9a 13 60 01 	or  %o5, 1, %o5
    45e4:	da 22 60 04 	st  %o5, [ %o1 + 4 ]
    45e8:	c2 03 20 04 	ld  [ %o4 + 4 ], %g1
    45ec:	92 02 60 08 	add  %o1, 8, %o1
    45f0:	82 10 60 01 	or  %g1, 1, %g1
    45f4:	90 10 00 15 	mov  %l5, %o0
    45f8:	7f ff fa 89 	call  301c <_free_r>
    45fc:	c2 23 20 04 	st  %g1, [ %o4 + 4 ]
    4600:	30 bf ff ee 	b,a   45b8 <_realloc_r+0x22c>
    4604:	7f ff ff 2b 	call  42b0 <__malloc_unlock>
    4608:	90 10 00 15 	mov  %l5, %o0
    460c:	10 80 00 98 	b  486c <_realloc_r+0x4e0>
    4610:	90 10 20 00 	clr  %o0
    4614:	da 04 a0 08 	ld  [ %l2 + 8 ], %o5
    4618:	a0 10 00 12 	mov  %l2, %l0
    461c:	da 20 60 08 	st  %o5, [ %g1 + 8 ]
    4620:	94 04 7f fc 	add  %l1, -4, %o2
    4624:	c2 23 60 0c 	st  %g1, [ %o5 + 0xc ]
    4628:	a4 10 00 0c 	mov  %o4, %l2
    462c:	80 a2 a0 24 	cmp  %o2, 0x24
    4630:	18 80 00 25 	bgu  46c4 <_realloc_r+0x338>
    4634:	b0 04 20 08 	add  %l0, 8, %i0
    4638:	90 10 00 18 	mov  %i0, %o0
    463c:	80 a2 a0 13 	cmp  %o2, 0x13
    4640:	08 80 00 18 	bleu  46a0 <_realloc_r+0x314>
    4644:	98 10 00 19 	mov  %i1, %o4
    4648:	c2 06 40 00 	ld  [ %i1 ], %g1
    464c:	80 a2 a0 1b 	cmp  %o2, 0x1b
    4650:	c2 24 20 08 	st  %g1, [ %l0 + 8 ]
    4654:	da 06 60 04 	ld  [ %i1 + 4 ], %o5
    4658:	98 06 60 08 	add  %i1, 8, %o4
    465c:	da 24 20 0c 	st  %o5, [ %l0 + 0xc ]
    4660:	08 80 00 10 	bleu  46a0 <_realloc_r+0x314>
    4664:	90 04 20 10 	add  %l0, 0x10, %o0
    4668:	c2 06 60 08 	ld  [ %i1 + 8 ], %g1
    466c:	80 a2 a0 23 	cmp  %o2, 0x23
    4670:	c2 24 20 10 	st  %g1, [ %l0 + 0x10 ]
    4674:	da 06 60 0c 	ld  [ %i1 + 0xc ], %o5
    4678:	98 06 60 10 	add  %i1, 0x10, %o4
    467c:	da 24 20 14 	st  %o5, [ %l0 + 0x14 ]
    4680:	08 80 00 08 	bleu  46a0 <_realloc_r+0x314>
    4684:	90 04 20 18 	add  %l0, 0x18, %o0
    4688:	c2 06 60 10 	ld  [ %i1 + 0x10 ], %g1
    468c:	98 06 60 18 	add  %i1, 0x18, %o4
    4690:	c2 24 20 18 	st  %g1, [ %l0 + 0x18 ]
    4694:	da 06 60 14 	ld  [ %i1 + 0x14 ], %o5
    4698:	90 04 20 20 	add  %l0, 0x20, %o0
    469c:	da 24 20 1c 	st  %o5, [ %l0 + 0x1c ]
    46a0:	c2 03 00 00 	ld  [ %o4 ], %g1
    46a4:	98 03 20 04 	add  %o4, 4, %o4
    46a8:	c2 22 00 00 	st  %g1, [ %o0 ]
    46ac:	da 03 00 00 	ld  [ %o4 ], %o5
    46b0:	90 02 20 04 	add  %o0, 4, %o0
    46b4:	da 22 00 00 	st  %o5, [ %o0 ]
    46b8:	c2 03 20 04 	ld  [ %o4 + 4 ], %g1
    46bc:	10 bf ff b4 	b  458c <_realloc_r+0x200>
    46c0:	c2 22 20 04 	st  %g1, [ %o0 + 4 ]
    46c4:	90 10 00 18 	mov  %i0, %o0
    46c8:	40 00 14 a2 	call  9950 <memcpy>
    46cc:	92 10 00 19 	mov  %i1, %o1
    46d0:	10 bf ff b0 	b  4590 <_realloc_r+0x204>
    46d4:	9a 24 80 14 	sub  %l2, %l4, %o5
    46d8:	c2 02 e0 0c 	ld  [ %o3 + 0xc ], %g1
    46dc:	a0 10 00 12 	mov  %l2, %l0
    46e0:	da 20 60 08 	st  %o5, [ %g1 + 8 ]
    46e4:	c2 23 60 0c 	st  %g1, [ %o5 + 0xc ]
    46e8:	da 04 a0 08 	ld  [ %l2 + 8 ], %o5
    46ec:	c2 04 a0 0c 	ld  [ %l2 + 0xc ], %g1
    46f0:	94 04 7f fc 	add  %l1, -4, %o2
    46f4:	da 20 60 08 	st  %o5, [ %g1 + 8 ]
    46f8:	c2 23 60 0c 	st  %g1, [ %o5 + 0xc ]
    46fc:	10 bf ff cc 	b  462c <_realloc_r+0x2a0>
    4700:	a4 10 00 09 	mov  %o1, %l2
    4704:	9a 05 20 10 	add  %l4, 0x10, %o5
    4708:	ae 00 40 11 	add  %g1, %l1, %l7
    470c:	80 a5 c0 0d 	cmp  %l7, %o5
    4710:	06 bf ff 5b 	bl  447c <_realloc_r+0xf0>
    4714:	80 a4 a0 00 	cmp  %l2, 0
    4718:	c2 04 a0 0c 	ld  [ %l2 + 0xc ], %g1
    471c:	da 04 a0 08 	ld  [ %l2 + 8 ], %o5
    4720:	94 04 7f fc 	add  %l1, -4, %o2
    4724:	da 20 60 08 	st  %o5, [ %g1 + 8 ]
    4728:	c2 23 60 0c 	st  %g1, [ %o5 + 0xc ]
    472c:	80 a2 a0 24 	cmp  %o2, 0x24
    4730:	18 80 00 2f 	bgu  47ec <_realloc_r+0x460>
    4734:	b0 04 a0 08 	add  %l2, 8, %i0
    4738:	80 a2 a0 13 	cmp  %o2, 0x13
    473c:	96 10 00 19 	mov  %i1, %o3
    4740:	08 80 00 18 	bleu  47a0 <_realloc_r+0x414>
    4744:	98 10 00 18 	mov  %i0, %o4
    4748:	c2 06 40 00 	ld  [ %i1 ], %g1
    474c:	80 a2 a0 1b 	cmp  %o2, 0x1b
    4750:	c2 24 a0 08 	st  %g1, [ %l2 + 8 ]
    4754:	da 06 60 04 	ld  [ %i1 + 4 ], %o5
    4758:	96 06 60 08 	add  %i1, 8, %o3
    475c:	da 24 a0 0c 	st  %o5, [ %l2 + 0xc ]
    4760:	08 80 00 10 	bleu  47a0 <_realloc_r+0x414>
    4764:	98 04 a0 10 	add  %l2, 0x10, %o4
    4768:	c2 06 60 08 	ld  [ %i1 + 8 ], %g1
    476c:	80 a2 a0 23 	cmp  %o2, 0x23
    4770:	c2 24 a0 10 	st  %g1, [ %l2 + 0x10 ]
    4774:	da 06 60 0c 	ld  [ %i1 + 0xc ], %o5
    4778:	96 06 60 10 	add  %i1, 0x10, %o3
    477c:	da 24 a0 14 	st  %o5, [ %l2 + 0x14 ]
    4780:	08 80 00 08 	bleu  47a0 <_realloc_r+0x414>
    4784:	98 04 a0 18 	add  %l2, 0x18, %o4
    4788:	c2 06 60 10 	ld  [ %i1 + 0x10 ], %g1
    478c:	96 06 60 18 	add  %i1, 0x18, %o3
    4790:	c2 24 a0 18 	st  %g1, [ %l2 + 0x18 ]
    4794:	da 06 60 14 	ld  [ %i1 + 0x14 ], %o5
    4798:	98 04 a0 20 	add  %l2, 0x20, %o4
    479c:	da 24 a0 1c 	st  %o5, [ %l2 + 0x1c ]
    47a0:	c2 02 c0 00 	ld  [ %o3 ], %g1
    47a4:	96 02 e0 04 	add  %o3, 4, %o3
    47a8:	c2 23 00 00 	st  %g1, [ %o4 ]
    47ac:	da 02 c0 00 	ld  [ %o3 ], %o5
    47b0:	98 03 20 04 	add  %o4, 4, %o4
    47b4:	da 23 00 00 	st  %o5, [ %o4 ]
    47b8:	c2 02 e0 04 	ld  [ %o3 + 4 ], %g1
    47bc:	c2 23 20 04 	st  %g1, [ %o4 + 4 ]
    47c0:	98 04 80 14 	add  %l2, %l4, %o4
    47c4:	82 25 c0 14 	sub  %l7, %l4, %g1
    47c8:	82 10 60 01 	or  %g1, 1, %g1
    47cc:	c2 23 20 04 	st  %g1, [ %o4 + 4 ]
    47d0:	da 04 a0 04 	ld  [ %l2 + 4 ], %o5
    47d4:	82 15 a0 a0 	or  %l6, 0xa0, %g1
    47d8:	9a 0b 60 01 	and  %o5, 1, %o5
    47dc:	d8 20 60 08 	st  %o4, [ %g1 + 8 ]
    47e0:	9a 13 40 14 	or  %o5, %l4, %o5
    47e4:	10 bf ff 5e 	b  455c <_realloc_r+0x1d0>
    47e8:	da 24 a0 04 	st  %o5, [ %l2 + 4 ]
    47ec:	92 10 00 19 	mov  %i1, %o1
    47f0:	40 00 14 58 	call  9950 <memcpy>
    47f4:	90 10 00 18 	mov  %i0, %o0
    47f8:	10 bf ff f3 	b  47c4 <_realloc_r+0x438>
    47fc:	98 04 80 14 	add  %l2, %l4, %o4
    4800:	c2 02 e0 0c 	ld  [ %o3 + 0xc ], %g1
    4804:	a4 10 00 0c 	mov  %o4, %l2
    4808:	da 20 60 08 	st  %o5, [ %g1 + 8 ]
    480c:	10 bf ff 60 	b  458c <_realloc_r+0x200>
    4810:	c2 23 60 0c 	st  %g1, [ %o5 + 0xc ]
    4814:	9a 02 80 11 	add  %o2, %l1, %o5
    4818:	82 05 20 10 	add  %l4, 0x10, %g1
    481c:	80 a3 40 01 	cmp  %o5, %g1
    4820:	06 bf ff 06 	bl  4438 <_realloc_r+0xac>
    4824:	80 8a 60 01 	btst  1, %o1
    4828:	98 04 c0 14 	add  %l3, %l4, %o4
    482c:	82 23 40 14 	sub  %o5, %l4, %g1
    4830:	82 10 60 01 	or  %g1, 1, %g1
    4834:	c2 23 20 04 	st  %g1, [ %o4 + 4 ]
    4838:	da 04 e0 04 	ld  [ %l3 + 4 ], %o5
    483c:	d8 22 20 08 	st  %o4, [ %o0 + 8 ]
    4840:	9a 0b 60 01 	and  %o5, 1, %o5
    4844:	90 10 00 15 	mov  %l5, %o0
    4848:	9a 13 40 14 	or  %o5, %l4, %o5
    484c:	7f ff fe 99 	call  42b0 <__malloc_unlock>
    4850:	da 24 e0 04 	st  %o5, [ %l3 + 4 ]
    4854:	10 80 00 06 	b  486c <_realloc_r+0x4e0>
    4858:	90 04 e0 08 	add  %l3, 8, %o0
    485c:	10 bf fe f6 	b  4434 <_realloc_r+0xa8>
    4860:	94 10 20 00 	clr  %o2
    4864:	7f ff fd 11 	call  3ca8 <_malloc_r>
    4868:	93 e8 00 1a 	restore  %g0, %i2, %o1
    486c:	81 c7 e0 08 	ret 
    4870:	91 e8 00 08 	restore  %g0, %o0, %o0

00004874 <cleanup_glue>:
    4874:	9d e3 bf 98 	save  %sp, -104, %sp
    4878:	d2 06 40 00 	ld  [ %i1 ], %o1
    487c:	80 a2 60 00 	cmp  %o1, 0
    4880:	12 80 00 04 	bne  4890 <cleanup_glue+0x1c>
    4884:	90 10 00 18 	mov  %i0, %o0
    4888:	7f ff f9 e5 	call  301c <_free_r>
    488c:	81 e8 00 00 	restore 
    4890:	7f ff ff f9 	call  4874 <cleanup_glue>
    4894:	9e 03 ff f0 	add  %o7, -16, %o7
    4898:	01 00 00 00 	nop 

0000489c <_reclaim_reent>:
    489c:	9d e3 bf 98 	save  %sp, -104, %sp
    48a0:	03 00 00 3c 	sethi  %hi(0xf000), %g1
    48a4:	da 00 60 98 	ld  [ %g1 + 0x98 ], %o5	! f098 <_impure_ptr>
    48a8:	80 a6 00 0d 	cmp  %i0, %o5
    48ac:	02 80 00 3f 	be  49a8 <_reclaim_reent+0x10c>
    48b0:	01 00 00 00 	nop 
    48b4:	d2 06 20 4c 	ld  [ %i0 + 0x4c ], %o1
    48b8:	80 a2 60 00 	cmp  %o1, 0
    48bc:	22 80 00 17 	be,a   4918 <_reclaim_reent+0x7c>
    48c0:	d2 06 21 48 	ld  [ %i0 + 0x148 ], %o1
    48c4:	a0 10 20 00 	clr  %l0
    48c8:	83 2c 20 02 	sll  %l0, 2, %g1
    48cc:	f2 02 40 01 	ld  [ %o1 + %g1 ], %i1
    48d0:	80 a6 60 00 	cmp  %i1, 0
    48d4:	22 80 00 0b 	be,a   4900 <_reclaim_reent+0x64>
    48d8:	a0 04 20 01 	inc  %l0
    48dc:	92 10 00 19 	mov  %i1, %o1
    48e0:	f2 06 40 00 	ld  [ %i1 ], %i1
    48e4:	7f ff f9 ce 	call  301c <_free_r>
    48e8:	90 10 00 18 	mov  %i0, %o0
    48ec:	80 a6 60 00 	cmp  %i1, 0
    48f0:	12 bf ff fc 	bne  48e0 <_reclaim_reent+0x44>
    48f4:	92 10 00 19 	mov  %i1, %o1
    48f8:	d2 06 20 4c 	ld  [ %i0 + 0x4c ], %o1
    48fc:	a0 04 20 01 	inc  %l0
    4900:	80 a4 20 0e 	cmp  %l0, 0xe
    4904:	04 bf ff f2 	ble  48cc <_reclaim_reent+0x30>
    4908:	83 2c 20 02 	sll  %l0, 2, %g1
    490c:	7f ff f9 c4 	call  301c <_free_r>
    4910:	90 10 00 18 	mov  %i0, %o0
    4914:	d2 06 21 48 	ld  [ %i0 + 0x148 ], %o1
    4918:	80 a2 60 00 	cmp  %o1, 0
    491c:	22 80 00 0f 	be,a   4958 <_reclaim_reent+0xbc>
    4920:	d2 06 20 54 	ld  [ %i0 + 0x54 ], %o1
    4924:	a0 06 21 4c 	add  %i0, 0x14c, %l0
    4928:	80 a2 40 10 	cmp  %o1, %l0
    492c:	22 80 00 0b 	be,a   4958 <_reclaim_reent+0xbc>
    4930:	d2 06 20 54 	ld  [ %i0 + 0x54 ], %o1
    4934:	b2 10 00 09 	mov  %o1, %i1
    4938:	92 10 00 19 	mov  %i1, %o1
    493c:	f2 06 40 00 	ld  [ %i1 ], %i1
    4940:	7f ff f9 b7 	call  301c <_free_r>
    4944:	90 10 00 18 	mov  %i0, %o0
    4948:	80 a6 40 10 	cmp  %i1, %l0
    494c:	12 bf ff fc 	bne  493c <_reclaim_reent+0xa0>
    4950:	92 10 00 19 	mov  %i1, %o1
    4954:	d2 06 20 54 	ld  [ %i0 + 0x54 ], %o1
    4958:	80 a2 60 00 	cmp  %o1, 0
    495c:	12 80 00 0f 	bne  4998 <_reclaim_reent+0xfc>
    4960:	01 00 00 00 	nop 
    4964:	c2 06 20 38 	ld  [ %i0 + 0x38 ], %g1
    4968:	80 a0 60 00 	cmp  %g1, 0
    496c:	02 80 00 0f 	be  49a8 <_reclaim_reent+0x10c>
    4970:	01 00 00 00 	nop 
    4974:	c2 06 20 3c 	ld  [ %i0 + 0x3c ], %g1
    4978:	9f c0 40 00 	call  %g1
    497c:	90 10 00 18 	mov  %i0, %o0
    4980:	f2 06 22 5c 	ld  [ %i0 + 0x25c ], %i1
    4984:	80 a6 60 00 	cmp  %i1, 0
    4988:	02 80 00 08 	be  49a8 <_reclaim_reent+0x10c>
    498c:	01 00 00 00 	nop 
    4990:	7f ff ff b9 	call  4874 <cleanup_glue>
    4994:	81 e8 00 00 	restore 
    4998:	7f ff f9 a1 	call  301c <_free_r>
    499c:	90 10 00 18 	mov  %i0, %o0
    49a0:	10 bf ff f2 	b  4968 <_reclaim_reent+0xcc>
    49a4:	c2 06 20 38 	ld  [ %i0 + 0x38 ], %g1
    49a8:	81 c7 e0 08 	ret 
    49ac:	81 e8 00 00 	restore 

000049b0 <_wrapup_reent>:
    49b0:	9d e3 bf 98 	save  %sp, -104, %sp
    49b4:	80 a6 20 00 	cmp  %i0, 0
    49b8:	02 80 00 1d 	be  4a2c <_wrapup_reent+0x7c>
    49bc:	03 00 00 3c 	sethi  %hi(0xf000), %g1
    49c0:	e4 06 21 48 	ld  [ %i0 + 0x148 ], %l2
    49c4:	80 a4 a0 00 	cmp  %l2, 0
    49c8:	22 80 00 13 	be,a   4a14 <_wrapup_reent+0x64>
    49cc:	c2 06 20 3c 	ld  [ %i0 + 0x3c ], %g1
    49d0:	e2 04 a0 04 	ld  [ %l2 + 4 ], %l1
    49d4:	a2 84 7f ff 	addcc  %l1, -1, %l1
    49d8:	0c 80 00 0a 	bneg  4a00 <_wrapup_reent+0x50>
    49dc:	83 2c 60 02 	sll  %l1, 2, %g1
    49e0:	82 00 40 12 	add  %g1, %l2, %g1
    49e4:	a0 00 60 08 	add  %g1, 8, %l0
    49e8:	c2 04 00 00 	ld  [ %l0 ], %g1
    49ec:	9f c0 40 00 	call  %g1
    49f0:	a0 04 3f fc 	add  %l0, -4, %l0
    49f4:	a2 84 7f ff 	addcc  %l1, -1, %l1
    49f8:	3c bf ff fd 	bpos,a   49ec <_wrapup_reent+0x3c>
    49fc:	c2 04 00 00 	ld  [ %l0 ], %g1
    4a00:	e4 04 80 00 	ld  [ %l2 ], %l2
    4a04:	80 a4 a0 00 	cmp  %l2, 0
    4a08:	32 bf ff f3 	bne,a   49d4 <_wrapup_reent+0x24>
    4a0c:	e2 04 a0 04 	ld  [ %l2 + 4 ], %l1
    4a10:	c2 06 20 3c 	ld  [ %i0 + 0x3c ], %g1
    4a14:	80 a0 60 00 	cmp  %g1, 0
    4a18:	02 80 00 07 	be  4a34 <_wrapup_reent+0x84>
    4a1c:	01 00 00 00 	nop 
    4a20:	9f c0 40 00 	call  %g1
    4a24:	90 10 00 18 	mov  %i0, %o0
    4a28:	30 80 00 03 	b,a   4a34 <_wrapup_reent+0x84>
    4a2c:	10 bf ff e5 	b  49c0 <_wrapup_reent+0x10>
    4a30:	f0 00 60 98 	ld  [ %g1 + 0x98 ], %i0
    4a34:	81 c7 e0 08 	ret 
    4a38:	81 e8 00 00 	restore 

00004a3c <lflush>:
    4a3c:	c2 12 20 0c 	lduh  [ %o0 + 0xc ], %g1
    4a40:	82 08 60 09 	and  %g1, 9, %g1
    4a44:	80 a0 60 09 	cmp  %g1, 9
    4a48:	12 80 00 05 	bne  4a5c <lflush+0x20>
    4a4c:	01 00 00 00 	nop 
    4a50:	82 13 c0 00 	mov  %o7, %g1
    4a54:	7f ff f8 64 	call  2be4 <fflush>
    4a58:	9e 10 40 00 	mov  %g1, %o7
    4a5c:	81 c3 e0 08 	retl 
    4a60:	90 10 20 00 	clr  %o0

00004a64 <__srefill>:
    4a64:	9d e3 bf 98 	save  %sp, -104, %sp
    4a68:	d0 06 20 54 	ld  [ %i0 + 0x54 ], %o0
    4a6c:	80 a2 20 00 	cmp  %o0, 0
    4a70:	32 80 00 07 	bne,a   4a8c <__srefill+0x28>
    4a74:	c2 02 20 38 	ld  [ %o0 + 0x38 ], %g1
    4a78:	03 00 00 3c 	sethi  %hi(0xf000), %g1
    4a7c:	da 00 60 98 	ld  [ %g1 + 0x98 ], %o5	! f098 <_impure_ptr>
    4a80:	da 26 20 54 	st  %o5, [ %i0 + 0x54 ]
    4a84:	90 10 00 0d 	mov  %o5, %o0
    4a88:	c2 02 20 38 	ld  [ %o0 + 0x38 ], %g1
    4a8c:	80 a0 60 00 	cmp  %g1, 0
    4a90:	02 80 00 57 	be  4bec <__srefill+0x188>
    4a94:	01 00 00 00 	nop 
    4a98:	da 16 20 0c 	lduh  [ %i0 + 0xc ], %o5
    4a9c:	c0 26 20 04 	clr  [ %i0 + 4 ]
    4aa0:	80 8b 60 20 	btst  0x20, %o5
    4aa4:	c2 16 20 0c 	lduh  [ %i0 + 0xc ], %g1
    4aa8:	12 80 00 55 	bne  4bfc <__srefill+0x198>
    4aac:	98 10 3f ff 	mov  -1, %o4
    4ab0:	80 8b 60 04 	btst  4, %o5
    4ab4:	32 80 00 3c 	bne,a   4ba4 <__srefill+0x140>
    4ab8:	d2 06 20 30 	ld  [ %i0 + 0x30 ], %o1
    4abc:	80 8b 60 10 	btst  0x10, %o5
    4ac0:	02 80 00 4f 	be  4bfc <__srefill+0x198>
    4ac4:	80 8b 60 08 	btst  8, %o5
    4ac8:	12 80 00 2c 	bne  4b78 <__srefill+0x114>
    4acc:	01 00 00 00 	nop 
    4ad0:	82 10 60 04 	or  %g1, 4, %g1
    4ad4:	c2 36 20 0c 	sth  %g1, [ %i0 + 0xc ]
    4ad8:	c2 06 20 10 	ld  [ %i0 + 0x10 ], %g1
    4adc:	80 a0 60 00 	cmp  %g1, 0
    4ae0:	02 80 00 22 	be  4b68 <__srefill+0x104>
    4ae4:	01 00 00 00 	nop 
    4ae8:	c2 16 20 0c 	lduh  [ %i0 + 0xc ], %g1
    4aec:	80 88 60 03 	btst  3, %g1
    4af0:	32 80 00 19 	bne,a   4b54 <__srefill+0xf0>
    4af4:	d0 06 20 54 	ld  [ %i0 + 0x54 ], %o0
    4af8:	d2 06 20 10 	ld  [ %i0 + 0x10 ], %o1
    4afc:	c2 06 20 20 	ld  [ %i0 + 0x20 ], %g1
    4b00:	d0 06 20 1c 	ld  [ %i0 + 0x1c ], %o0
    4b04:	d4 06 20 14 	ld  [ %i0 + 0x14 ], %o2
    4b08:	9f c0 40 00 	call  %g1
    4b0c:	d2 26 00 00 	st  %o1, [ %i0 ]
    4b10:	da 16 20 0c 	lduh  [ %i0 + 0xc ], %o5
    4b14:	03 00 00 08 	sethi  %hi(0x2000), %g1
    4b18:	d0 26 20 04 	st  %o0, [ %i0 + 4 ]
    4b1c:	82 2b 40 01 	andn  %o5, %g1, %g1
    4b20:	80 a2 20 00 	cmp  %o0, 0
    4b24:	c2 36 20 0c 	sth  %g1, [ %i0 + 0xc ]
    4b28:	14 80 00 35 	bg  4bfc <__srefill+0x198>
    4b2c:	98 10 20 00 	clr  %o4
    4b30:	80 a2 20 00 	cmp  %o0, 0
    4b34:	32 80 00 06 	bne,a   4b4c <__srefill+0xe8>
    4b38:	82 10 60 40 	or  %g1, 0x40, %g1
    4b3c:	82 10 60 20 	or  %g1, 0x20, %g1
    4b40:	c2 36 20 0c 	sth  %g1, [ %i0 + 0xc ]
    4b44:	10 80 00 2e 	b  4bfc <__srefill+0x198>
    4b48:	98 10 3f ff 	mov  -1, %o4
    4b4c:	10 bf ff fd 	b  4b40 <__srefill+0xdc>
    4b50:	c0 26 20 04 	clr  [ %i0 + 4 ]
    4b54:	13 00 00 12 	sethi  %hi(0x4800), %o1
    4b58:	7f ff fb 61 	call  38dc <_fwalk>
    4b5c:	92 12 62 3c 	or  %o1, 0x23c, %o1	! 4a3c <lflush>
    4b60:	10 bf ff e7 	b  4afc <__srefill+0x98>
    4b64:	d2 06 20 10 	ld  [ %i0 + 0x10 ], %o1
    4b68:	7f ff fb 78 	call  3948 <__smakebuf>
    4b6c:	90 10 00 18 	mov  %i0, %o0
    4b70:	10 bf ff df 	b  4aec <__srefill+0x88>
    4b74:	c2 16 20 0c 	lduh  [ %i0 + 0xc ], %g1
    4b78:	7f ff f8 1b 	call  2be4 <fflush>
    4b7c:	90 10 00 18 	mov  %i0, %o0
    4b80:	80 a2 20 00 	cmp  %o0, 0
    4b84:	12 80 00 1e 	bne  4bfc <__srefill+0x198>
    4b88:	98 10 3f ff 	mov  -1, %o4
    4b8c:	c2 16 20 0c 	lduh  [ %i0 + 0xc ], %g1
    4b90:	c0 26 20 08 	clr  [ %i0 + 8 ]
    4b94:	82 08 7f f7 	and  %g1, -9, %g1
    4b98:	c0 26 20 18 	clr  [ %i0 + 0x18 ]
    4b9c:	10 bf ff cd 	b  4ad0 <__srefill+0x6c>
    4ba0:	c2 36 20 0c 	sth  %g1, [ %i0 + 0xc ]
    4ba4:	80 a2 60 00 	cmp  %o1, 0
    4ba8:	22 bf ff cd 	be,a   4adc <__srefill+0x78>
    4bac:	c2 06 20 10 	ld  [ %i0 + 0x10 ], %g1
    4bb0:	82 06 20 40 	add  %i0, 0x40, %g1
    4bb4:	80 a2 40 01 	cmp  %o1, %g1
    4bb8:	22 80 00 05 	be,a   4bcc <__srefill+0x168>
    4bbc:	c2 06 20 3c 	ld  [ %i0 + 0x3c ], %g1
    4bc0:	7f ff f9 17 	call  301c <_free_r>
    4bc4:	d0 06 20 54 	ld  [ %i0 + 0x54 ], %o0
    4bc8:	c2 06 20 3c 	ld  [ %i0 + 0x3c ], %g1
    4bcc:	c0 26 20 30 	clr  [ %i0 + 0x30 ]
    4bd0:	80 a0 60 00 	cmp  %g1, 0
    4bd4:	02 bf ff c1 	be  4ad8 <__srefill+0x74>
    4bd8:	c2 26 20 04 	st  %g1, [ %i0 + 4 ]
    4bdc:	c2 06 20 38 	ld  [ %i0 + 0x38 ], %g1
    4be0:	98 10 20 00 	clr  %o4
    4be4:	10 80 00 06 	b  4bfc <__srefill+0x198>
    4be8:	c2 26 00 00 	st  %g1, [ %i0 ]
    4bec:	7f ff f8 ab 	call  2e98 <__sinit>
    4bf0:	01 00 00 00 	nop 
    4bf4:	10 bf ff aa 	b  4a9c <__srefill+0x38>
    4bf8:	da 16 20 0c 	lduh  [ %i0 + 0xc ], %o5
    4bfc:	81 c7 e0 08 	ret 
    4c00:	91 e8 00 0c 	restore  %g0, %o4, %o0

00004c04 <_sbrk_r>:
    4c04:	9d e3 bf 98 	save  %sp, -104, %sp
    4c08:	90 10 00 19 	mov  %i1, %o0
    4c0c:	33 00 00 4e 	sethi  %hi(0x13800), %i1
    4c10:	40 00 1e c0 	call  c710 <sbrk>
    4c14:	c0 26 61 54 	clr  [ %i1 + 0x154 ]	! 13954 <errno>
    4c18:	80 a2 3f ff 	cmp  %o0, -1
    4c1c:	12 80 00 06 	bne  4c34 <_sbrk_r+0x30>
    4c20:	c2 06 61 54 	ld  [ %i1 + 0x154 ], %g1
    4c24:	80 a0 60 00 	cmp  %g1, 0
    4c28:	02 80 00 03 	be  4c34 <_sbrk_r+0x30>
    4c2c:	01 00 00 00 	nop 
    4c30:	c2 26 00 00 	st  %g1, [ %i0 ]
    4c34:	81 c7 e0 08 	ret 
    4c38:	91 e8 00 08 	restore  %g0, %o0, %o0

00004c3c <__sread>:
    4c3c:	9d e3 bf 98 	save  %sp, -104, %sp
    4c40:	d0 06 20 54 	ld  [ %i0 + 0x54 ], %o0
    4c44:	d2 56 20 0e 	ldsh  [ %i0 + 0xe ], %o1
    4c48:	94 10 00 19 	mov  %i1, %o2
    4c4c:	40 00 17 06 	call  a864 <_read_r>
    4c50:	96 10 00 1a 	mov  %i2, %o3
    4c54:	80 a2 20 00 	cmp  %o0, 0
    4c58:	26 80 00 06 	bl,a   4c70 <__sread+0x34>
    4c5c:	da 16 20 0c 	lduh  [ %i0 + 0xc ], %o5
    4c60:	c2 06 20 50 	ld  [ %i0 + 0x50 ], %g1
    4c64:	82 00 40 08 	add  %g1, %o0, %g1
    4c68:	10 80 00 05 	b  4c7c <__sread+0x40>
    4c6c:	c2 26 20 50 	st  %g1, [ %i0 + 0x50 ]
    4c70:	03 00 00 04 	sethi  %hi(0x1000), %g1
    4c74:	82 2b 40 01 	andn  %o5, %g1, %g1
    4c78:	c2 36 20 0c 	sth  %g1, [ %i0 + 0xc ]
    4c7c:	81 c7 e0 08 	ret 
    4c80:	91 e8 00 08 	restore  %g0, %o0, %o0

00004c84 <__swrite>:
    4c84:	9d e3 bf 98 	save  %sp, -104, %sp
    4c88:	c2 16 20 0c 	lduh  [ %i0 + 0xc ], %g1
    4c8c:	b6 10 00 1a 	mov  %i2, %i3
    4c90:	a0 10 00 18 	mov  %i0, %l0
    4c94:	80 88 61 00 	btst  0x100, %g1
    4c98:	b4 10 00 19 	mov  %i1, %i2
    4c9c:	12 80 00 09 	bne  4cc0 <__swrite+0x3c>
    4ca0:	da 16 20 0c 	lduh  [ %i0 + 0xc ], %o5
    4ca4:	f2 54 20 0e 	ldsh  [ %l0 + 0xe ], %i1
    4ca8:	f0 04 20 54 	ld  [ %l0 + 0x54 ], %i0
    4cac:	03 00 00 04 	sethi  %hi(0x1000), %g1
    4cb0:	82 2b 40 01 	andn  %o5, %g1, %g1
    4cb4:	c2 34 20 0c 	sth  %g1, [ %l0 + 0xc ]
    4cb8:	40 00 0b 98 	call  7b18 <_write_r>
    4cbc:	81 e8 00 00 	restore 
    4cc0:	d0 06 20 54 	ld  [ %i0 + 0x54 ], %o0
    4cc4:	d2 56 20 0e 	ldsh  [ %i0 + 0xe ], %o1
    4cc8:	94 10 20 00 	clr  %o2
    4ccc:	40 00 12 c2 	call  97d4 <_lseek_r>
    4cd0:	96 10 20 02 	mov  2, %o3
    4cd4:	10 bf ff f4 	b  4ca4 <__swrite+0x20>
    4cd8:	da 16 20 0c 	lduh  [ %i0 + 0xc ], %o5

00004cdc <__sseek>:
    4cdc:	9d e3 bf 98 	save  %sp, -104, %sp
    4ce0:	d0 06 20 54 	ld  [ %i0 + 0x54 ], %o0
    4ce4:	d2 56 20 0e 	ldsh  [ %i0 + 0xe ], %o1
    4ce8:	94 10 00 19 	mov  %i1, %o2
    4cec:	40 00 12 ba 	call  97d4 <_lseek_r>
    4cf0:	96 10 00 1a 	mov  %i2, %o3
    4cf4:	80 a2 3f ff 	cmp  %o0, -1
    4cf8:	02 80 00 06 	be  4d10 <__sseek+0x34>
    4cfc:	1b 00 00 04 	sethi  %hi(0x1000), %o5
    4d00:	c2 16 20 0c 	lduh  [ %i0 + 0xc ], %g1
    4d04:	d0 26 20 50 	st  %o0, [ %i0 + 0x50 ]
    4d08:	10 80 00 05 	b  4d1c <__sseek+0x40>
    4d0c:	82 10 40 0d 	or  %g1, %o5, %g1
    4d10:	da 16 20 0c 	lduh  [ %i0 + 0xc ], %o5
    4d14:	03 00 00 04 	sethi  %hi(0x1000), %g1
    4d18:	82 2b 40 01 	andn  %o5, %g1, %g1
    4d1c:	c2 36 20 0c 	sth  %g1, [ %i0 + 0xc ]
    4d20:	81 c7 e0 08 	ret 
    4d24:	91 e8 00 08 	restore  %g0, %o0, %o0

00004d28 <__sclose>:
    4d28:	d2 52 20 0e 	ldsh  [ %o0 + 0xe ], %o1
    4d2c:	d0 02 20 54 	ld  [ %o0 + 0x54 ], %o0
    4d30:	82 13 c0 00 	mov  %o7, %g1
    4d34:	40 00 0b d2 	call  7c7c <_close_r>
    4d38:	9e 10 40 00 	mov  %g1, %o7
    4d3c:	01 00 00 00 	nop 
    4d40:	00 00 51 50 	unimp  0x5150
    4d44:	00 00 66 70 	unimp  0x6670
    4d48:	00 00 66 70 	unimp  0x6670
    4d4c:	00 00 51 70 	unimp  0x5170
    4d50:	00 00 66 70 	unimp  0x6670
    4d54:	00 00 66 70 	unimp  0x6670
    4d58:	00 00 66 70 	unimp  0x6670
    4d5c:	00 00 66 70 	unimp  0x6670
    4d60:	00 00 66 70 	unimp  0x6670
    4d64:	00 00 66 70 	unimp  0x6670
    4d68:	00 00 51 7c 	unimp  0x517c
    4d6c:	00 00 51 a4 	unimp  0x51a4
    4d70:	00 00 66 70 	unimp  0x6670
    4d74:	00 00 51 98 	unimp  0x5198
    4d78:	00 00 51 ac 	unimp  0x51ac
    4d7c:	00 00 66 70 	unimp  0x6670
    4d80:	00 00 52 20 	unimp  0x5220
    4d84:	00 00 52 2c 	unimp  0x522c
    4d88:	00 00 52 2c 	unimp  0x522c
    4d8c:	00 00 52 2c 	unimp  0x522c
    4d90:	00 00 52 2c 	unimp  0x522c
    4d94:	00 00 52 2c 	unimp  0x522c
    4d98:	00 00 52 2c 	unimp  0x522c
    4d9c:	00 00 52 2c 	unimp  0x522c
    4da0:	00 00 52 2c 	unimp  0x522c
    4da4:	00 00 52 2c 	unimp  0x522c
    4da8:	00 00 66 70 	unimp  0x6670
    4dac:	00 00 66 70 	unimp  0x6670
    4db0:	00 00 66 70 	unimp  0x6670
    4db4:	00 00 66 70 	unimp  0x6670
    4db8:	00 00 66 70 	unimp  0x6670
    4dbc:	00 00 66 70 	unimp  0x6670
    4dc0:	00 00 66 70 	unimp  0x6670
    4dc4:	00 00 66 70 	unimp  0x6670
    4dc8:	00 00 66 70 	unimp  0x6670
    4dcc:	00 00 66 70 	unimp  0x6670
    4dd0:	00 00 52 64 	unimp  0x5264
    4dd4:	00 00 63 1c 	unimp  0x631c
    4dd8:	00 00 66 70 	unimp  0x6670
    4ddc:	00 00 63 1c 	unimp  0x631c
    4de0:	00 00 66 70 	unimp  0x6670
    4de4:	00 00 66 70 	unimp  0x6670
    4de8:	00 00 66 70 	unimp  0x6670
    4dec:	00 00 66 70 	unimp  0x6670
    4df0:	00 00 61 98 	unimp  0x6198
    4df4:	00 00 66 70 	unimp  0x6670
    4df8:	00 00 66 70 	unimp  0x6670
    4dfc:	00 00 61 a4 	unimp  0x61a4
    4e00:	00 00 66 70 	unimp  0x6670
    4e04:	00 00 66 70 	unimp  0x6670
    4e08:	00 00 66 70 	unimp  0x6670
    4e0c:	00 00 66 70 	unimp  0x6670
    4e10:	00 00 66 70 	unimp  0x6670
    4e14:	00 00 62 0c 	unimp  0x620c
    4e18:	00 00 66 70 	unimp  0x6670
    4e1c:	00 00 66 70 	unimp  0x6670
    4e20:	00 00 62 70 	unimp  0x6270
    4e24:	00 00 66 70 	unimp  0x6670
    4e28:	00 00 66 70 	unimp  0x6670
    4e2c:	00 00 66 70 	unimp  0x6670
    4e30:	00 00 66 70 	unimp  0x6670
    4e34:	00 00 66 70 	unimp  0x6670
    4e38:	00 00 66 70 	unimp  0x6670
    4e3c:	00 00 66 70 	unimp  0x6670
    4e40:	00 00 66 70 	unimp  0x6670
    4e44:	00 00 66 70 	unimp  0x6670
    4e48:	00 00 66 70 	unimp  0x6670
    4e4c:	00 00 63 00 	unimp  0x6300
    4e50:	00 00 52 68 	unimp  0x5268
    4e54:	00 00 63 1c 	unimp  0x631c
    4e58:	00 00 63 1c 	unimp  0x631c
    4e5c:	00 00 63 1c 	unimp  0x631c
    4e60:	00 00 65 50 	unimp  0x6550
    4e64:	00 00 52 68 	unimp  0x5268
    4e68:	00 00 66 70 	unimp  0x6670
    4e6c:	00 00 66 70 	unimp  0x6670
    4e70:	00 00 65 5c 	unimp  0x655c
    4e74:	00 00 66 70 	unimp  0x6670
    4e78:	00 00 65 84 	unimp  0x6584
    4e7c:	00 00 61 a8 	unimp  0x61a8
    4e80:	00 00 65 d8 	unimp  0x65d8
    4e84:	00 00 65 78 	unimp  0x6578
    4e88:	00 00 66 70 	unimp  0x6670
    4e8c:	00 00 66 04 	unimp  0x6604
    4e90:	00 00 66 70 	unimp  0x6670
    4e94:	00 00 62 10 	unimp  0x6210
    4e98:	00 00 66 70 	unimp  0x6670
    4e9c:	00 00 66 70 	unimp  0x6670
    4ea0:	00 00 66 bc 	unimp  0x66bc

00004ea4 <__sprint>:
    4ea4:	9d e3 bf 98 	save  %sp, -104, %sp
    4ea8:	c2 06 60 08 	ld  [ %i1 + 8 ], %g1
    4eac:	80 a0 60 00 	cmp  %g1, 0
    4eb0:	12 80 00 05 	bne  4ec4 <__sprint+0x20>
    4eb4:	90 10 00 18 	mov  %i0, %o0
    4eb8:	c0 26 60 04 	clr  [ %i1 + 4 ]
    4ebc:	10 80 00 06 	b  4ed4 <__sprint+0x30>
    4ec0:	90 10 20 00 	clr  %o0
    4ec4:	40 00 11 13 	call  9310 <__sfvwrite>
    4ec8:	92 10 00 19 	mov  %i1, %o1
    4ecc:	c0 26 60 04 	clr  [ %i1 + 4 ]
    4ed0:	c0 26 60 08 	clr  [ %i1 + 8 ]
    4ed4:	81 c7 e0 08 	ret 
    4ed8:	91 e8 00 08 	restore  %g0, %o0, %o0

00004edc <__sbprintf>:
    4edc:	9d e3 bb 38 	save  %sp, -1224, %sp
    4ee0:	c2 16 20 0c 	lduh  [ %i0 + 0xc ], %g1
    4ee4:	da 16 20 0e 	lduh  [ %i0 + 0xe ], %o5
    4ee8:	d4 06 20 54 	ld  [ %i0 + 0x54 ], %o2
    4eec:	d8 06 20 1c 	ld  [ %i0 + 0x1c ], %o4
    4ef0:	d6 06 20 24 	ld  [ %i0 + 0x24 ], %o3
    4ef4:	82 08 7f fd 	and  %g1, -3, %g1
    4ef8:	da 37 bf a6 	sth  %o5, [ %fp + -90 ]
    4efc:	c2 37 bf a4 	sth  %g1, [ %fp + -92 ]
    4f00:	9a 10 24 00 	mov  0x400, %o5
    4f04:	82 07 bb 98 	add  %fp, -1128, %g1
    4f08:	d4 27 bf ec 	st  %o2, [ %fp + -20 ]
    4f0c:	a0 10 00 18 	mov  %i0, %l0
    4f10:	94 10 00 1a 	mov  %i2, %o2
    4f14:	d8 27 bf b4 	st  %o4, [ %fp + -76 ]
    4f18:	d6 27 bf bc 	st  %o3, [ %fp + -68 ]
    4f1c:	92 10 00 19 	mov  %i1, %o1
    4f20:	c0 27 bf b0 	clr  [ %fp + -80 ]
    4f24:	c2 27 bf a8 	st  %g1, [ %fp + -88 ]
    4f28:	c2 27 bf 98 	st  %g1, [ %fp + -104 ]
    4f2c:	da 27 bf ac 	st  %o5, [ %fp + -84 ]
    4f30:	da 27 bf a0 	st  %o5, [ %fp + -96 ]
    4f34:	b4 07 bf 98 	add  %fp, -104, %i2
    4f38:	40 00 00 13 	call  4f84 <vfprintf>
    4f3c:	90 10 00 1a 	mov  %i2, %o0
    4f40:	b0 92 20 00 	orcc  %o0, 0, %i0
    4f44:	06 80 00 08 	bl  4f64 <__sbprintf+0x88>
    4f48:	c2 17 bf a4 	lduh  [ %fp + -92 ], %g1
    4f4c:	7f ff f7 26 	call  2be4 <fflush>
    4f50:	90 10 00 1a 	mov  %i2, %o0
    4f54:	80 a2 20 00 	cmp  %o0, 0
    4f58:	32 80 00 02 	bne,a   4f60 <__sbprintf+0x84>
    4f5c:	b0 10 3f ff 	mov  -1, %i0
    4f60:	c2 17 bf a4 	lduh  [ %fp + -92 ], %g1
    4f64:	80 88 60 40 	btst  0x40, %g1
    4f68:	02 80 00 05 	be  4f7c <__sbprintf+0xa0>
    4f6c:	01 00 00 00 	nop 
    4f70:	c2 14 20 0c 	lduh  [ %l0 + 0xc ], %g1
    4f74:	82 10 60 40 	or  %g1, 0x40, %g1
    4f78:	c2 34 20 0c 	sth  %g1, [ %l0 + 0xc ]
    4f7c:	81 c7 e0 08 	ret 
    4f80:	81 e8 00 00 	restore 

00004f84 <vfprintf>:
    4f84:	9d e3 bf 98 	save  %sp, -104, %sp
    4f88:	a0 10 00 18 	mov  %i0, %l0
    4f8c:	f0 06 20 54 	ld  [ %i0 + 0x54 ], %i0
    4f90:	98 10 00 19 	mov  %i1, %o4
    4f94:	80 a6 20 00 	cmp  %i0, 0
    4f98:	12 80 00 06 	bne  4fb0 <vfprintf+0x2c>
    4f9c:	b6 10 00 1a 	mov  %i2, %i3
    4fa0:	03 00 00 3c 	sethi  %hi(0xf000), %g1
    4fa4:	da 00 60 98 	ld  [ %g1 + 0x98 ], %o5	! f098 <_impure_ptr>
    4fa8:	b0 10 00 0d 	mov  %o5, %i0
    4fac:	da 24 20 54 	st  %o5, [ %l0 + 0x54 ]
    4fb0:	c2 06 20 38 	ld  [ %i0 + 0x38 ], %g1
    4fb4:	b2 10 00 10 	mov  %l0, %i1
    4fb8:	b4 10 00 0c 	mov  %o4, %i2
    4fbc:	80 a0 60 00 	cmp  %g1, 0
    4fc0:	02 80 00 04 	be  4fd0 <vfprintf+0x4c>
    4fc4:	90 10 00 18 	mov  %i0, %o0
    4fc8:	40 00 00 06 	call  4fe0 <_vfprintf_r>
    4fcc:	81 e8 00 00 	restore 
    4fd0:	7f ff f7 b2 	call  2e98 <__sinit>
    4fd4:	01 00 00 00 	nop 
    4fd8:	10 bf ff fc 	b  4fc8 <vfprintf+0x44>
    4fdc:	f0 04 20 54 	ld  [ %l0 + 0x54 ], %i0

00004fe0 <_vfprintf_r>:
    4fe0:	9d e3 bd 78 	save  %sp, -648, %sp
    4fe4:	40 00 11 f6 	call  97bc <localeconv>
    4fe8:	01 00 00 00 	nop 
    4fec:	d0 02 00 00 	ld  [ %o0 ], %o0
    4ff0:	92 10 20 00 	clr  %o1
    4ff4:	d0 27 bd fc 	st  %o0, [ %fp + -516 ]
    4ff8:	94 10 20 08 	mov  8, %o2
    4ffc:	7f ff fc 7e 	call  41f4 <memset>
    5000:	90 07 be 30 	add  %fp, -464, %o0
    5004:	c2 16 60 0c 	lduh  [ %i1 + 0xc ], %g1
    5008:	f0 27 a0 44 	st  %i0, [ %fp + 0x44 ]
    500c:	80 88 60 08 	btst  8, %g1
    5010:	c0 27 bd f0 	clr  [ %fp + -528 ]
    5014:	c0 27 bd f4 	clr  [ %fp + -524 ]
    5018:	c0 27 bd ec 	clr  [ %fp + -532 ]
    501c:	c0 27 bd e8 	clr  [ %fp + -536 ]
    5020:	02 80 00 06 	be  5038 <_vfprintf_r+0x58>
    5024:	da 16 60 0c 	lduh  [ %i1 + 0xc ], %o5
    5028:	c2 06 60 10 	ld  [ %i1 + 0x10 ], %g1
    502c:	80 a0 60 00 	cmp  %g1, 0
    5030:	12 80 00 09 	bne  5054 <_vfprintf_r+0x74>
    5034:	82 0b 60 1a 	and  %o5, 0x1a, %g1
    5038:	40 00 0a c8 	call  7b58 <__swsetup>
    503c:	90 10 00 19 	mov  %i1, %o0
    5040:	80 a2 20 00 	cmp  %o0, 0
    5044:	12 80 05 af 	bne  6700 <_vfprintf_r+0x1720>
    5048:	90 10 3f ff 	mov  -1, %o0
    504c:	da 16 60 0c 	lduh  [ %i1 + 0xc ], %o5
    5050:	82 0b 60 1a 	and  %o5, 0x1a, %g1
    5054:	80 a0 60 0a 	cmp  %g1, 0xa
    5058:	22 80 05 a4 	be,a   66e8 <_vfprintf_r+0x1708>
    505c:	c2 56 60 0e 	ldsh  [ %i1 + 0xe ], %g1
    5060:	a4 07 bf a0 	add  %fp, -96, %l2
    5064:	c0 27 bf e8 	clr  [ %fp + -24 ]
    5068:	c0 27 bf e4 	clr  [ %fp + -28 ]
    506c:	e4 27 bf e0 	st  %l2, [ %fp + -32 ]
    5070:	b0 10 00 12 	mov  %l2, %i0
    5074:	c0 27 be 04 	clr  [ %fp + -508 ]
    5078:	a6 10 00 1a 	mov  %i2, %l3
    507c:	03 00 00 3c 	sethi  %hi(0xf000), %g1
    5080:	19 00 00 3d 	sethi  %hi(0xf400), %o4
    5084:	d0 00 60 98 	ld  [ %g1 + 0x98 ], %o0
    5088:	d6 03 20 b8 	ld  [ %o4 + 0xb8 ], %o3
    508c:	92 07 be 14 	add  %fp, -492, %o1
    5090:	94 10 00 1a 	mov  %i2, %o2
    5094:	40 00 11 e0 	call  9814 <_mbtowc_r>
    5098:	98 07 be 30 	add  %fp, -464, %o4
    509c:	a0 92 20 00 	orcc  %o0, 0, %l0
    50a0:	04 80 00 06 	ble  50b8 <_vfprintf_r+0xd8>
    50a4:	c2 07 be 14 	ld  [ %fp + -492 ], %g1
    50a8:	80 a0 60 25 	cmp  %g1, 0x25
    50ac:	12 bf ff f4 	bne  507c <_vfprintf_r+0x9c>
    50b0:	b4 06 80 10 	add  %i2, %l0, %i2
    50b4:	b4 06 bf ff 	add  %i2, -1, %i2
    50b8:	a2 a6 80 13 	subcc  %i2, %l3, %l1
    50bc:	02 80 00 11 	be  5100 <_vfprintf_r+0x120>
    50c0:	80 a4 20 00 	cmp  %l0, 0
    50c4:	e2 24 a0 04 	st  %l1, [ %l2 + 4 ]
    50c8:	da 07 bf e4 	ld  [ %fp + -28 ], %o5
    50cc:	c2 07 bf e8 	ld  [ %fp + -24 ], %g1
    50d0:	9a 03 60 01 	inc  %o5
    50d4:	e6 24 80 00 	st  %l3, [ %l2 ]
    50d8:	82 00 40 11 	add  %g1, %l1, %g1
    50dc:	80 a3 60 07 	cmp  %o5, 7
    50e0:	c2 27 bf e8 	st  %g1, [ %fp + -24 ]
    50e4:	da 27 bf e4 	st  %o5, [ %fp + -28 ]
    50e8:	14 80 05 78 	bg  66c8 <_vfprintf_r+0x16e8>
    50ec:	a4 04 a0 08 	add  %l2, 8, %l2
    50f0:	da 07 be 04 	ld  [ %fp + -508 ], %o5
    50f4:	9a 03 40 11 	add  %o5, %l1, %o5
    50f8:	da 27 be 04 	st  %o5, [ %fp + -508 ]
    50fc:	80 a4 20 00 	cmp  %l0, 0
    5100:	04 80 05 62 	ble  6688 <_vfprintf_r+0x16a8>
    5104:	b4 06 a0 01 	inc  %i2
    5108:	c0 2f be 0a 	clrb  [ %fp + -502 ]
    510c:	da 0e 80 00 	ldub  [ %i2 ], %o5
    5110:	ba 10 20 00 	clr  %i5
    5114:	b8 10 20 00 	clr  %i4
    5118:	c0 27 be 00 	clr  [ %fp + -512 ]
    511c:	ac 10 3f ff 	mov  -1, %l6
    5120:	83 2b 60 18 	sll  %o5, 0x18, %g1
    5124:	b4 06 a0 01 	inc  %i2
    5128:	a9 38 60 18 	sra  %g1, 0x18, %l4
    512c:	82 05 3f e0 	add  %l4, -32, %g1
    5130:	80 a0 60 58 	cmp  %g1, 0x58
    5134:	18 80 05 4f 	bgu  6670 <_vfprintf_r+0x1690>
    5138:	83 28 60 02 	sll  %g1, 2, %g1
    513c:	1b 00 00 13 	sethi  %hi(0x4c00), %o5
    5140:	9a 13 61 40 	or  %o5, 0x140, %o5	! 4d40 <__sclose+0x18>
    5144:	d8 03 40 01 	ld  [ %o5 + %g1 ], %o4
    5148:	81 c3 00 00 	jmp  %o4
    514c:	01 00 00 00 	nop 
    5150:	c2 4f be 0a 	ldsb  [ %fp + -502 ], %g1
    5154:	80 a0 60 00 	cmp  %g1, 0
    5158:	02 80 00 04 	be  5168 <_vfprintf_r+0x188>
    515c:	9a 10 20 20 	mov  0x20, %o5
    5160:	10 bf ff f0 	b  5120 <_vfprintf_r+0x140>
    5164:	da 0e 80 00 	ldub  [ %i2 ], %o5
    5168:	10 bf ff fe 	b  5160 <_vfprintf_r+0x180>
    516c:	da 2f be 0a 	stb  %o5, [ %fp + -502 ]
    5170:	da 0e 80 00 	ldub  [ %i2 ], %o5
    5174:	10 bf ff eb 	b  5120 <_vfprintf_r+0x140>
    5178:	ba 17 60 01 	or  %i5, 1, %i5
    517c:	c2 06 c0 00 	ld  [ %i3 ], %g1
    5180:	b6 06 e0 04 	add  %i3, 4, %i3
    5184:	80 a0 60 00 	cmp  %g1, 0
    5188:	16 bf ff f6 	bge  5160 <_vfprintf_r+0x180>
    518c:	c2 27 be 00 	st  %g1, [ %fp + -512 ]
    5190:	82 20 00 01 	neg  %g1
    5194:	c2 27 be 00 	st  %g1, [ %fp + -512 ]
    5198:	da 0e 80 00 	ldub  [ %i2 ], %o5
    519c:	10 bf ff e1 	b  5120 <_vfprintf_r+0x140>
    51a0:	ba 17 60 04 	or  %i5, 4, %i5
    51a4:	10 bf ff f1 	b  5168 <_vfprintf_r+0x188>
    51a8:	9a 10 20 2b 	mov  0x2b, %o5
    51ac:	e8 4e 80 00 	ldsb  [ %i2 ], %l4
    51b0:	80 a5 20 2a 	cmp  %l4, 0x2a
    51b4:	02 80 00 15 	be  5208 <_vfprintf_r+0x228>
    51b8:	b4 06 a0 01 	inc  %i2
    51bc:	82 05 3f d0 	add  %l4, -48, %g1
    51c0:	80 a0 60 09 	cmp  %g1, 9
    51c4:	18 80 00 0c 	bgu  51f4 <_vfprintf_r+0x214>
    51c8:	a0 10 20 00 	clr  %l0
    51cc:	83 2c 20 02 	sll  %l0, 2, %g1
    51d0:	82 00 40 10 	add  %g1, %l0, %g1
    51d4:	82 00 40 01 	add  %g1, %g1, %g1
    51d8:	82 00 40 14 	add  %g1, %l4, %g1
    51dc:	e8 4e 80 00 	ldsb  [ %i2 ], %l4
    51e0:	a0 00 7f d0 	add  %g1, -48, %l0
    51e4:	9a 05 3f d0 	add  %l4, -48, %o5
    51e8:	80 a3 60 09 	cmp  %o5, 9
    51ec:	08 bf ff f8 	bleu  51cc <_vfprintf_r+0x1ec>
    51f0:	b4 06 a0 01 	inc  %i2
    51f4:	80 a4 3f ff 	cmp  %l0, -1
    51f8:	16 bf ff cd 	bge  512c <_vfprintf_r+0x14c>
    51fc:	ac 10 00 10 	mov  %l0, %l6
    5200:	10 bf ff cb 	b  512c <_vfprintf_r+0x14c>
    5204:	ac 10 3f ff 	mov  -1, %l6
    5208:	ec 06 c0 00 	ld  [ %i3 ], %l6
    520c:	80 a5 a0 00 	cmp  %l6, 0
    5210:	16 bf ff d4 	bge  5160 <_vfprintf_r+0x180>
    5214:	b6 06 e0 04 	add  %i3, 4, %i3
    5218:	10 bf ff c1 	b  511c <_vfprintf_r+0x13c>
    521c:	da 0e 80 00 	ldub  [ %i2 ], %o5
    5220:	da 0e 80 00 	ldub  [ %i2 ], %o5
    5224:	10 bf ff bf 	b  5120 <_vfprintf_r+0x140>
    5228:	ba 17 60 80 	or  %i5, 0x80, %i5
    522c:	a0 10 20 00 	clr  %l0
    5230:	83 2c 20 02 	sll  %l0, 2, %g1
    5234:	82 00 40 10 	add  %g1, %l0, %g1
    5238:	82 00 40 01 	add  %g1, %g1, %g1
    523c:	82 00 40 14 	add  %g1, %l4, %g1
    5240:	e8 4e 80 00 	ldsb  [ %i2 ], %l4
    5244:	a0 00 7f d0 	add  %g1, -48, %l0
    5248:	9a 05 3f d0 	add  %l4, -48, %o5
    524c:	b4 06 a0 01 	inc  %i2
    5250:	80 a3 60 09 	cmp  %o5, 9
    5254:	08 bf ff f7 	bleu  5230 <_vfprintf_r+0x250>
    5258:	e0 27 be 00 	st  %l0, [ %fp + -512 ]
    525c:	10 bf ff b5 	b  5130 <_vfprintf_r+0x150>
    5260:	82 05 3f e0 	add  %l4, -32, %g1
    5264:	ba 17 60 10 	or  %i5, 0x10, %i5
    5268:	80 8f 60 20 	btst  0x20, %i5
    526c:	02 80 03 bd 	be  6160 <_vfprintf_r+0x1180>
    5270:	80 8f 60 10 	btst  0x10, %i5
    5274:	da 06 e0 04 	ld  [ %i3 + 4 ], %o5
    5278:	d8 06 c0 00 	ld  [ %i3 ], %o4
    527c:	b6 06 e0 08 	add  %i3, 8, %i3
    5280:	d8 3f be 28 	std  %o4, [ %fp + -472 ]
    5284:	e0 1f be 28 	ldd  [ %fp + -472 ], %l0
    5288:	80 a4 20 00 	cmp  %l0, 0
    528c:	26 80 03 b1 	bl,a   6150 <_vfprintf_r+0x1170>
    5290:	a2 a0 00 11 	subcc  %g0, %l1, %l1
    5294:	98 10 20 01 	mov  1, %o4
    5298:	b8 95 a0 00 	orcc  %l6, 0, %i4
    529c:	36 80 00 02 	bge,a   52a4 <_vfprintf_r+0x2c4>
    52a0:	ba 0f 7f 7f 	and  %i5, -129, %i5
    52a4:	80 94 00 11 	orcc  %l0, %l1, %g0
    52a8:	a6 07 bf 9c 	add  %fp, -100, %l3
    52ac:	02 80 00 03 	be  52b8 <_vfprintf_r+0x2d8>
    52b0:	9a 10 20 00 	clr  %o5
    52b4:	9a 10 20 01 	mov  1, %o5
    52b8:	80 a0 00 1c 	cmp  %g0, %i4
    52bc:	82 40 20 00 	addx  %g0, 0, %g1
    52c0:	80 93 40 01 	orcc  %o5, %g1, %g0
    52c4:	02 80 03 9a 	be  612c <_vfprintf_r+0x114c>
    52c8:	80 8b 20 ff 	btst  0xff, %o4
    52cc:	82 0b 20 ff 	and  %o4, 0xff, %g1
    52d0:	80 a0 60 01 	cmp  %g1, 1
    52d4:	22 80 03 74 	be,a   60a4 <_vfprintf_r+0x10c4>
    52d8:	80 a4 20 00 	cmp  %l0, 0
    52dc:	04 80 03 5a 	ble  6044 <_vfprintf_r+0x1064>
    52e0:	80 a0 60 02 	cmp  %g1, 2
    52e4:	02 80 03 49 	be  6008 <_vfprintf_r+0x1028>
    52e8:	da 07 bd e8 	ld  [ %fp + -536 ], %o5
    52ec:	03 00 00 39 	sethi  %hi(0xe400), %g1
    52f0:	a6 10 63 b0 	or  %g1, 0x3b0, %l3	! e7b0 <zeroes.1+0x10>
    52f4:	40 00 15 e8 	call  aa94 <strlen>
    52f8:	90 10 00 13 	mov  %l3, %o0
    52fc:	aa 10 00 08 	mov  %o0, %l5
    5300:	80 a5 40 1c 	cmp  %l5, %i4
    5304:	16 80 00 03 	bge  5310 <_vfprintf_r+0x330>
    5308:	ae 10 00 15 	mov  %l5, %l7
    530c:	ae 10 00 1c 	mov  %i4, %l7
    5310:	c2 4f be 0a 	ldsb  [ %fp + -502 ], %g1
    5314:	80 a0 60 00 	cmp  %g1, 0
    5318:	02 80 03 36 	be  5ff0 <_vfprintf_r+0x1010>
    531c:	da 0f be 0a 	ldub  [ %fp + -502 ], %o5
    5320:	ae 05 e0 01 	inc  %l7
    5324:	ac 8f 60 84 	andcc  %i5, 0x84, %l6
    5328:	12 80 00 29 	bne  53cc <_vfprintf_r+0x3ec>
    532c:	83 2b 60 18 	sll  %o5, 0x18, %g1
    5330:	c2 07 be 00 	ld  [ %fp + -512 ], %g1
    5334:	a0 20 40 17 	sub  %g1, %l7, %l0
    5338:	80 a4 20 00 	cmp  %l0, 0
    533c:	04 80 00 23 	ble  53c8 <_vfprintf_r+0x3e8>
    5340:	80 a4 20 10 	cmp  %l0, 0x10
    5344:	04 80 00 13 	ble  5390 <_vfprintf_r+0x3b0>
    5348:	19 00 00 39 	sethi  %hi(0xe400), %o4
    534c:	a2 13 23 90 	or  %o4, 0x390, %l1	! e790 <blanks.0>
    5350:	82 10 20 10 	mov  0x10, %g1
    5354:	c2 24 a0 04 	st  %g1, [ %l2 + 4 ]
    5358:	da 07 bf e4 	ld  [ %fp + -28 ], %o5
    535c:	c2 07 bf e8 	ld  [ %fp + -24 ], %g1
    5360:	9a 03 60 01 	inc  %o5
    5364:	e2 24 80 00 	st  %l1, [ %l2 ]
    5368:	82 00 60 10 	add  %g1, 0x10, %g1
    536c:	80 a3 60 07 	cmp  %o5, 7
    5370:	c2 27 bf e8 	st  %g1, [ %fp + -24 ]
    5374:	da 27 bf e4 	st  %o5, [ %fp + -28 ]
    5378:	14 80 03 16 	bg  5fd0 <_vfprintf_r+0xff0>
    537c:	a4 04 a0 08 	add  %l2, 8, %l2
    5380:	a0 04 3f f0 	add  %l0, -16, %l0
    5384:	80 a4 20 10 	cmp  %l0, 0x10
    5388:	14 bf ff f3 	bg  5354 <_vfprintf_r+0x374>
    538c:	82 10 20 10 	mov  0x10, %g1
    5390:	e0 24 a0 04 	st  %l0, [ %l2 + 4 ]
    5394:	c2 07 bf e8 	ld  [ %fp + -24 ], %g1
    5398:	da 07 bf e4 	ld  [ %fp + -28 ], %o5
    539c:	82 00 40 10 	add  %g1, %l0, %g1
    53a0:	9a 03 60 01 	inc  %o5
    53a4:	c2 27 bf e8 	st  %g1, [ %fp + -24 ]
    53a8:	19 00 00 39 	sethi  %hi(0xe400), %o4
    53ac:	80 a3 60 07 	cmp  %o5, 7
    53b0:	82 13 23 90 	or  %o4, 0x390, %g1
    53b4:	da 27 bf e4 	st  %o5, [ %fp + -28 ]
    53b8:	c2 24 80 00 	st  %g1, [ %l2 ]
    53bc:	14 80 02 fd 	bg  5fb0 <_vfprintf_r+0xfd0>
    53c0:	a4 04 a0 08 	add  %l2, 8, %l2
    53c4:	da 0f be 0a 	ldub  [ %fp + -502 ], %o5
    53c8:	83 2b 60 18 	sll  %o5, 0x18, %g1
    53cc:	80 a0 60 00 	cmp  %g1, 0
    53d0:	02 80 02 de 	be  5f48 <_vfprintf_r+0xf68>
    53d4:	80 8f 60 02 	btst  2, %i5
    53d8:	9a 10 20 01 	mov  1, %o5
    53dc:	da 24 a0 04 	st  %o5, [ %l2 + 4 ]
    53e0:	c2 07 bf e8 	ld  [ %fp + -24 ], %g1
    53e4:	da 07 bf e4 	ld  [ %fp + -28 ], %o5
    53e8:	82 00 60 01 	inc  %g1
    53ec:	9a 03 60 01 	inc  %o5
    53f0:	c2 27 bf e8 	st  %g1, [ %fp + -24 ]
    53f4:	80 a3 60 07 	cmp  %o5, 7
    53f8:	82 07 be 0a 	add  %fp, -502, %g1
    53fc:	da 27 bf e4 	st  %o5, [ %fp + -28 ]
    5400:	c2 24 80 00 	st  %g1, [ %l2 ]
    5404:	14 80 02 c8 	bg  5f24 <_vfprintf_r+0xf44>
    5408:	a4 04 a0 08 	add  %l2, 8, %l2
    540c:	80 a5 a0 80 	cmp  %l6, 0x80
    5410:	02 80 02 92 	be  5e58 <_vfprintf_r+0xe78>
    5414:	da 07 be 00 	ld  [ %fp + -512 ], %o5
    5418:	a0 27 00 15 	sub  %i4, %l5, %l0
    541c:	80 a4 20 00 	cmp  %l0, 0
    5420:	04 80 00 21 	ble  54a4 <_vfprintf_r+0x4c4>
    5424:	80 a4 20 10 	cmp  %l0, 0x10
    5428:	04 80 00 13 	ble  5474 <_vfprintf_r+0x494>
    542c:	2d 00 00 39 	sethi  %hi(0xe400), %l6
    5430:	a2 15 a3 a0 	or  %l6, 0x3a0, %l1	! e7a0 <zeroes.1>
    5434:	82 10 20 10 	mov  0x10, %g1
    5438:	c2 24 a0 04 	st  %g1, [ %l2 + 4 ]
    543c:	da 07 bf e4 	ld  [ %fp + -28 ], %o5
    5440:	c2 07 bf e8 	ld  [ %fp + -24 ], %g1
    5444:	9a 03 60 01 	inc  %o5
    5448:	e2 24 80 00 	st  %l1, [ %l2 ]
    544c:	82 00 60 10 	add  %g1, 0x10, %g1
    5450:	80 a3 60 07 	cmp  %o5, 7
    5454:	c2 27 bf e8 	st  %g1, [ %fp + -24 ]
    5458:	da 27 bf e4 	st  %o5, [ %fp + -28 ]
    545c:	14 80 02 77 	bg  5e38 <_vfprintf_r+0xe58>
    5460:	a4 04 a0 08 	add  %l2, 8, %l2
    5464:	a0 04 3f f0 	add  %l0, -16, %l0
    5468:	80 a4 20 10 	cmp  %l0, 0x10
    546c:	14 bf ff f3 	bg  5438 <_vfprintf_r+0x458>
    5470:	82 10 20 10 	mov  0x10, %g1
    5474:	e0 24 a0 04 	st  %l0, [ %l2 + 4 ]
    5478:	c2 07 bf e8 	ld  [ %fp + -24 ], %g1
    547c:	da 07 bf e4 	ld  [ %fp + -28 ], %o5
    5480:	82 00 40 10 	add  %g1, %l0, %g1
    5484:	9a 03 60 01 	inc  %o5
    5488:	c2 27 bf e8 	st  %g1, [ %fp + -24 ]
    548c:	80 a3 60 07 	cmp  %o5, 7
    5490:	82 15 a3 a0 	or  %l6, 0x3a0, %g1
    5494:	da 27 bf e4 	st  %o5, [ %fp + -28 ]
    5498:	c2 24 80 00 	st  %g1, [ %l2 ]
    549c:	14 80 02 5f 	bg  5e18 <_vfprintf_r+0xe38>
    54a0:	a4 04 a0 08 	add  %l2, 8, %l2
    54a4:	80 8f 61 00 	btst  0x100, %i5
    54a8:	12 80 00 66 	bne  5640 <_vfprintf_r+0x660>
    54ac:	80 a5 20 65 	cmp  %l4, 0x65
    54b0:	ea 24 a0 04 	st  %l5, [ %l2 + 4 ]
    54b4:	c2 07 bf e8 	ld  [ %fp + -24 ], %g1
    54b8:	e6 24 80 00 	st  %l3, [ %l2 ]
    54bc:	82 00 40 15 	add  %g1, %l5, %g1
    54c0:	da 07 bf e4 	ld  [ %fp + -28 ], %o5
    54c4:	c2 27 bf e8 	st  %g1, [ %fp + -24 ]
    54c8:	9a 03 60 01 	inc  %o5
    54cc:	80 a3 60 07 	cmp  %o5, 7
    54d0:	da 27 bf e4 	st  %o5, [ %fp + -28 ]
    54d4:	14 80 00 52 	bg  561c <_vfprintf_r+0x63c>
    54d8:	a4 04 a0 08 	add  %l2, 8, %l2
    54dc:	80 8f 60 04 	btst  4, %i5
    54e0:	02 80 00 26 	be  5578 <_vfprintf_r+0x598>
    54e4:	da 07 be 00 	ld  [ %fp + -512 ], %o5
    54e8:	a0 23 40 17 	sub  %o5, %l7, %l0
    54ec:	80 a4 20 00 	cmp  %l0, 0
    54f0:	04 80 00 22 	ble  5578 <_vfprintf_r+0x598>
    54f4:	80 a4 20 10 	cmp  %l0, 0x10
    54f8:	04 80 00 13 	ble  5544 <_vfprintf_r+0x564>
    54fc:	03 00 00 39 	sethi  %hi(0xe400), %g1
    5500:	a2 10 63 90 	or  %g1, 0x390, %l1	! e790 <blanks.0>
    5504:	82 10 20 10 	mov  0x10, %g1
    5508:	c2 24 a0 04 	st  %g1, [ %l2 + 4 ]
    550c:	da 07 bf e4 	ld  [ %fp + -28 ], %o5
    5510:	c2 07 bf e8 	ld  [ %fp + -24 ], %g1
    5514:	9a 03 60 01 	inc  %o5
    5518:	e2 24 80 00 	st  %l1, [ %l2 ]
    551c:	82 00 60 10 	add  %g1, 0x10, %g1
    5520:	80 a3 60 07 	cmp  %o5, 7
    5524:	c2 27 bf e8 	st  %g1, [ %fp + -24 ]
    5528:	da 27 bf e4 	st  %o5, [ %fp + -28 ]
    552c:	14 80 00 34 	bg  55fc <_vfprintf_r+0x61c>
    5530:	a4 04 a0 08 	add  %l2, 8, %l2
    5534:	a0 04 3f f0 	add  %l0, -16, %l0
    5538:	80 a4 20 10 	cmp  %l0, 0x10
    553c:	14 bf ff f3 	bg  5508 <_vfprintf_r+0x528>
    5540:	82 10 20 10 	mov  0x10, %g1
    5544:	e0 24 a0 04 	st  %l0, [ %l2 + 4 ]
    5548:	c2 07 bf e8 	ld  [ %fp + -24 ], %g1
    554c:	da 07 bf e4 	ld  [ %fp + -28 ], %o5
    5550:	82 00 40 10 	add  %g1, %l0, %g1
    5554:	9a 03 60 01 	inc  %o5
    5558:	c2 27 bf e8 	st  %g1, [ %fp + -24 ]
    555c:	19 00 00 39 	sethi  %hi(0xe400), %o4
    5560:	80 a3 60 07 	cmp  %o5, 7
    5564:	82 13 23 90 	or  %o4, 0x390, %g1
    5568:	da 27 bf e4 	st  %o5, [ %fp + -28 ]
    556c:	14 80 00 1c 	bg  55dc <_vfprintf_r+0x5fc>
    5570:	c2 24 80 00 	st  %g1, [ %l2 ]
    5574:	da 07 be 00 	ld  [ %fp + -512 ], %o5
    5578:	80 a5 c0 0d 	cmp  %l7, %o5
    557c:	16 80 00 03 	bge  5588 <_vfprintf_r+0x5a8>
    5580:	82 10 00 17 	mov  %l7, %g1
    5584:	82 10 00 0d 	mov  %o5, %g1
    5588:	d8 07 be 04 	ld  [ %fp + -508 ], %o4
    558c:	98 03 00 01 	add  %o4, %g1, %o4
    5590:	c2 07 bf e8 	ld  [ %fp + -24 ], %g1
    5594:	80 a0 60 00 	cmp  %g1, 0
    5598:	12 80 00 05 	bne  55ac <_vfprintf_r+0x5cc>
    559c:	d8 27 be 04 	st  %o4, [ %fp + -508 ]
    55a0:	c0 27 bf e4 	clr  [ %fp + -28 ]
    55a4:	10 bf fe b5 	b  5078 <_vfprintf_r+0x98>
    55a8:	a4 10 00 18 	mov  %i0, %l2
    55ac:	92 07 bf e0 	add  %fp, -32, %o1
    55b0:	7f ff fe 3d 	call  4ea4 <__sprint>
    55b4:	90 10 00 19 	mov  %i1, %o0
    55b8:	80 a2 20 00 	cmp  %o0, 0
    55bc:	22 bf ff fa 	be,a   55a4 <_vfprintf_r+0x5c4>
    55c0:	c0 27 bf e4 	clr  [ %fp + -28 ]
    55c4:	c2 16 60 0c 	lduh  [ %i1 + 0xc ], %g1
    55c8:	80 88 60 40 	btst  0x40, %g1
    55cc:	02 80 04 4d 	be  6700 <_vfprintf_r+0x1720>
    55d0:	d0 07 be 04 	ld  [ %fp + -508 ], %o0
    55d4:	10 80 04 4b 	b  6700 <_vfprintf_r+0x1720>
    55d8:	90 10 3f ff 	mov  -1, %o0
    55dc:	92 07 bf e0 	add  %fp, -32, %o1
    55e0:	7f ff fe 31 	call  4ea4 <__sprint>
    55e4:	90 10 00 19 	mov  %i1, %o0
    55e8:	80 a2 20 00 	cmp  %o0, 0
    55ec:	02 bf ff e3 	be  5578 <_vfprintf_r+0x598>
    55f0:	da 07 be 00 	ld  [ %fp + -512 ], %o5
    55f4:	10 bf ff f5 	b  55c8 <_vfprintf_r+0x5e8>
    55f8:	c2 16 60 0c 	lduh  [ %i1 + 0xc ], %g1
    55fc:	90 10 00 19 	mov  %i1, %o0
    5600:	7f ff fe 29 	call  4ea4 <__sprint>
    5604:	92 07 bf e0 	add  %fp, -32, %o1
    5608:	80 a2 20 00 	cmp  %o0, 0
    560c:	12 bf ff ee 	bne  55c4 <_vfprintf_r+0x5e4>
    5610:	a4 10 00 18 	mov  %i0, %l2
    5614:	10 bf ff c9 	b  5538 <_vfprintf_r+0x558>
    5618:	a0 04 3f f0 	add  %l0, -16, %l0
    561c:	92 07 bf e0 	add  %fp, -32, %o1
    5620:	90 10 00 19 	mov  %i1, %o0
    5624:	7f ff fe 20 	call  4ea4 <__sprint>
    5628:	a4 10 00 18 	mov  %i0, %l2
    562c:	80 a2 20 00 	cmp  %o0, 0
    5630:	02 bf ff ac 	be  54e0 <_vfprintf_r+0x500>
    5634:	80 8f 60 04 	btst  4, %i5
    5638:	10 bf ff e4 	b  55c8 <_vfprintf_r+0x5e8>
    563c:	c2 16 60 0c 	lduh  [ %i1 + 0xc ], %g1
    5640:	04 80 01 66 	ble  5bd8 <_vfprintf_r+0xbf8>
    5644:	c2 07 be 0c 	ld  [ %fp + -500 ], %g1
    5648:	03 00 00 3a 	sethi  %hi(0xe800), %g1
    564c:	d0 1f bd f0 	ldd  [ %fp + -528 ], %o0
    5650:	40 00 20 63 	call  d7dc <__eqdf2>
    5654:	d4 18 60 28 	ldd  [ %g1 + 0x28 ], %o2
    5658:	80 a2 20 00 	cmp  %o0, 0
    565c:	12 80 00 5e 	bne  57d4 <_vfprintf_r+0x7f4>
    5660:	d2 07 be 10 	ld  [ %fp + -496 ], %o1
    5664:	a0 10 20 01 	mov  1, %l0
    5668:	e0 24 a0 04 	st  %l0, [ %l2 + 4 ]
    566c:	c2 07 bf e8 	ld  [ %fp + -24 ], %g1
    5670:	da 07 bf e4 	ld  [ %fp + -28 ], %o5
    5674:	82 00 60 01 	inc  %g1
    5678:	9a 03 60 01 	inc  %o5
    567c:	c2 27 bf e8 	st  %g1, [ %fp + -24 ]
    5680:	80 a3 60 07 	cmp  %o5, 7
    5684:	03 00 00 39 	sethi  %hi(0xe400), %g1
    5688:	da 27 bf e4 	st  %o5, [ %fp + -28 ]
    568c:	82 10 63 d0 	or  %g1, 0x3d0, %g1
    5690:	c2 24 80 00 	st  %g1, [ %l2 ]
    5694:	14 80 00 48 	bg  57b4 <_vfprintf_r+0x7d4>
    5698:	a4 04 a0 08 	add  %l2, 8, %l2
    569c:	da 07 be 10 	ld  [ %fp + -496 ], %o5
    56a0:	c2 07 be 0c 	ld  [ %fp + -500 ], %g1
    56a4:	80 a3 40 01 	cmp  %o5, %g1
    56a8:	26 80 00 06 	bl,a   56c0 <_vfprintf_r+0x6e0>
    56ac:	e0 24 a0 04 	st  %l0, [ %l2 + 4 ]
    56b0:	80 8f 60 01 	btst  1, %i5
    56b4:	02 bf ff 8b 	be  54e0 <_vfprintf_r+0x500>
    56b8:	80 8f 60 04 	btst  4, %i5
    56bc:	e0 24 a0 04 	st  %l0, [ %l2 + 4 ]
    56c0:	d8 07 bd fc 	ld  [ %fp + -516 ], %o4
    56c4:	da 07 bf e4 	ld  [ %fp + -28 ], %o5
    56c8:	c2 07 bf e8 	ld  [ %fp + -24 ], %g1
    56cc:	9a 03 60 01 	inc  %o5
    56d0:	d8 24 80 00 	st  %o4, [ %l2 ]
    56d4:	82 00 60 01 	inc  %g1
    56d8:	80 a3 60 07 	cmp  %o5, 7
    56dc:	c2 27 bf e8 	st  %g1, [ %fp + -24 ]
    56e0:	da 27 bf e4 	st  %o5, [ %fp + -28 ]
    56e4:	14 80 00 2c 	bg  5794 <_vfprintf_r+0x7b4>
    56e8:	a4 04 a0 08 	add  %l2, 8, %l2
    56ec:	c2 07 be 0c 	ld  [ %fp + -500 ], %g1
    56f0:	a0 00 7f ff 	add  %g1, -1, %l0
    56f4:	80 a4 20 00 	cmp  %l0, 0
    56f8:	04 bf ff 79 	ble  54dc <_vfprintf_r+0x4fc>
    56fc:	80 a4 20 10 	cmp  %l0, 0x10
    5700:	04 80 00 13 	ble  574c <_vfprintf_r+0x76c>
    5704:	2d 00 00 39 	sethi  %hi(0xe400), %l6
    5708:	a2 15 a3 a0 	or  %l6, 0x3a0, %l1	! e7a0 <zeroes.1>
    570c:	82 10 20 10 	mov  0x10, %g1
    5710:	c2 24 a0 04 	st  %g1, [ %l2 + 4 ]
    5714:	da 07 bf e4 	ld  [ %fp + -28 ], %o5
    5718:	c2 07 bf e8 	ld  [ %fp + -24 ], %g1
    571c:	9a 03 60 01 	inc  %o5
    5720:	e2 24 80 00 	st  %l1, [ %l2 ]
    5724:	82 00 60 10 	add  %g1, 0x10, %g1
    5728:	80 a3 60 07 	cmp  %o5, 7
    572c:	c2 27 bf e8 	st  %g1, [ %fp + -24 ]
    5730:	da 27 bf e4 	st  %o5, [ %fp + -28 ]
    5734:	14 80 00 10 	bg  5774 <_vfprintf_r+0x794>
    5738:	a4 04 a0 08 	add  %l2, 8, %l2
    573c:	a0 04 3f f0 	add  %l0, -16, %l0
    5740:	80 a4 20 10 	cmp  %l0, 0x10
    5744:	14 bf ff f3 	bg  5710 <_vfprintf_r+0x730>
    5748:	82 10 20 10 	mov  0x10, %g1
    574c:	e0 24 a0 04 	st  %l0, [ %l2 + 4 ]
    5750:	c2 07 bf e8 	ld  [ %fp + -24 ], %g1
    5754:	da 07 bf e4 	ld  [ %fp + -28 ], %o5
    5758:	82 00 40 10 	add  %g1, %l0, %g1
    575c:	9a 03 60 01 	inc  %o5
    5760:	c2 27 bf e8 	st  %g1, [ %fp + -24 ]
    5764:	80 a3 60 07 	cmp  %o5, 7
    5768:	82 15 a3 a0 	or  %l6, 0x3a0, %g1
    576c:	10 bf ff 59 	b  54d0 <_vfprintf_r+0x4f0>
    5770:	c2 24 80 00 	st  %g1, [ %l2 ]
    5774:	90 10 00 19 	mov  %i1, %o0
    5778:	7f ff fd cb 	call  4ea4 <__sprint>
    577c:	92 07 bf e0 	add  %fp, -32, %o1
    5780:	80 a2 20 00 	cmp  %o0, 0
    5784:	12 bf ff 90 	bne  55c4 <_vfprintf_r+0x5e4>
    5788:	a4 10 00 18 	mov  %i0, %l2
    578c:	10 bf ff ed 	b  5740 <_vfprintf_r+0x760>
    5790:	a0 04 3f f0 	add  %l0, -16, %l0
    5794:	92 07 bf e0 	add  %fp, -32, %o1
    5798:	7f ff fd c3 	call  4ea4 <__sprint>
    579c:	90 10 00 19 	mov  %i1, %o0
    57a0:	80 a2 20 00 	cmp  %o0, 0
    57a4:	12 bf ff 88 	bne  55c4 <_vfprintf_r+0x5e4>
    57a8:	a4 10 00 18 	mov  %i0, %l2
    57ac:	10 bf ff d1 	b  56f0 <_vfprintf_r+0x710>
    57b0:	c2 07 be 0c 	ld  [ %fp + -500 ], %g1
    57b4:	92 07 bf e0 	add  %fp, -32, %o1
    57b8:	7f ff fd bb 	call  4ea4 <__sprint>
    57bc:	90 10 00 19 	mov  %i1, %o0
    57c0:	80 a2 20 00 	cmp  %o0, 0
    57c4:	12 bf ff 80 	bne  55c4 <_vfprintf_r+0x5e4>
    57c8:	a4 10 00 18 	mov  %i0, %l2
    57cc:	10 bf ff b5 	b  56a0 <_vfprintf_r+0x6c0>
    57d0:	da 07 be 10 	ld  [ %fp + -496 ], %o5
    57d4:	80 a2 60 00 	cmp  %o1, 0
    57d8:	04 80 00 8e 	ble  5a10 <_vfprintf_r+0xa30>
    57dc:	c2 07 be 0c 	ld  [ %fp + -500 ], %g1
    57e0:	80 a2 40 01 	cmp  %o1, %g1
    57e4:	26 80 00 5a 	bl,a   594c <_vfprintf_r+0x96c>
    57e8:	d2 24 a0 04 	st  %o1, [ %l2 + 4 ]
    57ec:	c2 24 a0 04 	st  %g1, [ %l2 + 4 ]
    57f0:	90 10 00 01 	mov  %g1, %o0
    57f4:	da 07 bf e4 	ld  [ %fp + -28 ], %o5
    57f8:	c2 07 bf e8 	ld  [ %fp + -24 ], %g1
    57fc:	9a 03 60 01 	inc  %o5
    5800:	e6 24 80 00 	st  %l3, [ %l2 ]
    5804:	82 00 40 08 	add  %g1, %o0, %g1
    5808:	80 a3 60 07 	cmp  %o5, 7
    580c:	da 27 bf e4 	st  %o5, [ %fp + -28 ]
    5810:	c2 27 bf e8 	st  %g1, [ %fp + -24 ]
    5814:	14 80 00 46 	bg  592c <_vfprintf_r+0x94c>
    5818:	a4 04 a0 08 	add  %l2, 8, %l2
    581c:	c2 07 be 10 	ld  [ %fp + -496 ], %g1
    5820:	a0 20 40 08 	sub  %g1, %o0, %l0
    5824:	80 a4 20 00 	cmp  %l0, 0
    5828:	04 80 00 21 	ble  58ac <_vfprintf_r+0x8cc>
    582c:	80 a4 20 10 	cmp  %l0, 0x10
    5830:	04 80 00 13 	ble  587c <_vfprintf_r+0x89c>
    5834:	2d 00 00 39 	sethi  %hi(0xe400), %l6
    5838:	a2 15 a3 a0 	or  %l6, 0x3a0, %l1	! e7a0 <zeroes.1>
    583c:	82 10 20 10 	mov  0x10, %g1
    5840:	c2 24 a0 04 	st  %g1, [ %l2 + 4 ]
    5844:	da 07 bf e4 	ld  [ %fp + -28 ], %o5
    5848:	c2 07 bf e8 	ld  [ %fp + -24 ], %g1
    584c:	9a 03 60 01 	inc  %o5
    5850:	e2 24 80 00 	st  %l1, [ %l2 ]
    5854:	82 00 60 10 	add  %g1, 0x10, %g1
    5858:	80 a3 60 07 	cmp  %o5, 7
    585c:	c2 27 bf e8 	st  %g1, [ %fp + -24 ]
    5860:	da 27 bf e4 	st  %o5, [ %fp + -28 ]
    5864:	14 80 00 2a 	bg  590c <_vfprintf_r+0x92c>
    5868:	a4 04 a0 08 	add  %l2, 8, %l2
    586c:	a0 04 3f f0 	add  %l0, -16, %l0
    5870:	80 a4 20 10 	cmp  %l0, 0x10
    5874:	14 bf ff f3 	bg  5840 <_vfprintf_r+0x860>
    5878:	82 10 20 10 	mov  0x10, %g1
    587c:	e0 24 a0 04 	st  %l0, [ %l2 + 4 ]
    5880:	c2 07 bf e8 	ld  [ %fp + -24 ], %g1
    5884:	da 07 bf e4 	ld  [ %fp + -28 ], %o5
    5888:	82 00 40 10 	add  %g1, %l0, %g1
    588c:	9a 03 60 01 	inc  %o5
    5890:	c2 27 bf e8 	st  %g1, [ %fp + -24 ]
    5894:	80 a3 60 07 	cmp  %o5, 7
    5898:	82 15 a3 a0 	or  %l6, 0x3a0, %g1
    589c:	da 27 bf e4 	st  %o5, [ %fp + -28 ]
    58a0:	c2 24 80 00 	st  %g1, [ %l2 ]
    58a4:	14 80 00 12 	bg  58ec <_vfprintf_r+0x90c>
    58a8:	a4 04 a0 08 	add  %l2, 8, %l2
    58ac:	80 8f 60 01 	btst  1, %i5
    58b0:	22 bf ff 0c 	be,a   54e0 <_vfprintf_r+0x500>
    58b4:	80 8f 60 04 	btst  4, %i5
    58b8:	9a 10 20 01 	mov  1, %o5
    58bc:	da 24 a0 04 	st  %o5, [ %l2 + 4 ]
    58c0:	c2 07 bf e8 	ld  [ %fp + -24 ], %g1
    58c4:	da 07 bf e4 	ld  [ %fp + -28 ], %o5
    58c8:	82 00 60 01 	inc  %g1
    58cc:	9a 03 60 01 	inc  %o5
    58d0:	c2 27 bf e8 	st  %g1, [ %fp + -24 ]
    58d4:	80 a3 60 07 	cmp  %o5, 7
    58d8:	03 00 00 39 	sethi  %hi(0xe400), %g1
    58dc:	da 27 bf e4 	st  %o5, [ %fp + -28 ]
    58e0:	82 10 63 d8 	or  %g1, 0x3d8, %g1
    58e4:	10 bf fe fc 	b  54d4 <_vfprintf_r+0x4f4>
    58e8:	c2 24 80 00 	st  %g1, [ %l2 ]
    58ec:	92 07 bf e0 	add  %fp, -32, %o1
    58f0:	7f ff fd 6d 	call  4ea4 <__sprint>
    58f4:	90 10 00 19 	mov  %i1, %o0
    58f8:	80 a2 20 00 	cmp  %o0, 0
    58fc:	12 bf ff 32 	bne  55c4 <_vfprintf_r+0x5e4>
    5900:	a4 10 00 18 	mov  %i0, %l2
    5904:	10 bf ff eb 	b  58b0 <_vfprintf_r+0x8d0>
    5908:	80 8f 60 01 	btst  1, %i5
    590c:	90 10 00 19 	mov  %i1, %o0
    5910:	7f ff fd 65 	call  4ea4 <__sprint>
    5914:	92 07 bf e0 	add  %fp, -32, %o1
    5918:	80 a2 20 00 	cmp  %o0, 0
    591c:	12 bf ff 2a 	bne  55c4 <_vfprintf_r+0x5e4>
    5920:	a4 10 00 18 	mov  %i0, %l2
    5924:	10 bf ff d3 	b  5870 <_vfprintf_r+0x890>
    5928:	a0 04 3f f0 	add  %l0, -16, %l0
    592c:	92 07 bf e0 	add  %fp, -32, %o1
    5930:	7f ff fd 5d 	call  4ea4 <__sprint>
    5934:	90 10 00 19 	mov  %i1, %o0
    5938:	80 a2 20 00 	cmp  %o0, 0
    593c:	12 bf ff 22 	bne  55c4 <_vfprintf_r+0x5e4>
    5940:	d0 07 be 0c 	ld  [ %fp + -500 ], %o0
    5944:	10 bf ff b6 	b  581c <_vfprintf_r+0x83c>
    5948:	a4 10 00 18 	mov  %i0, %l2
    594c:	da 07 bf e4 	ld  [ %fp + -28 ], %o5
    5950:	c2 07 bf e8 	ld  [ %fp + -24 ], %g1
    5954:	9a 03 60 01 	inc  %o5
    5958:	e6 24 80 00 	st  %l3, [ %l2 ]
    595c:	82 00 40 09 	add  %g1, %o1, %g1
    5960:	80 a3 60 07 	cmp  %o5, 7
    5964:	da 27 bf e4 	st  %o5, [ %fp + -28 ]
    5968:	c2 27 bf e8 	st  %g1, [ %fp + -24 ]
    596c:	14 80 00 21 	bg  59f0 <_vfprintf_r+0xa10>
    5970:	a4 04 a0 08 	add  %l2, 8, %l2
    5974:	9a 10 20 01 	mov  1, %o5
    5978:	da 24 a0 04 	st  %o5, [ %l2 + 4 ]
    597c:	c2 07 bf e8 	ld  [ %fp + -24 ], %g1
    5980:	da 07 bf e4 	ld  [ %fp + -28 ], %o5
    5984:	82 00 60 01 	inc  %g1
    5988:	9a 03 60 01 	inc  %o5
    598c:	c2 27 bf e8 	st  %g1, [ %fp + -24 ]
    5990:	80 a3 60 07 	cmp  %o5, 7
    5994:	03 00 00 39 	sethi  %hi(0xe400), %g1
    5998:	a6 04 c0 09 	add  %l3, %o1, %l3
    599c:	82 10 63 d8 	or  %g1, 0x3d8, %g1
    59a0:	da 27 bf e4 	st  %o5, [ %fp + -28 ]
    59a4:	c2 24 80 00 	st  %g1, [ %l2 ]
    59a8:	14 80 00 0a 	bg  59d0 <_vfprintf_r+0x9f0>
    59ac:	a4 04 a0 08 	add  %l2, 8, %l2
    59b0:	c2 07 be 10 	ld  [ %fp + -496 ], %g1
    59b4:	da 07 be 0c 	ld  [ %fp + -500 ], %o5
    59b8:	e6 24 80 00 	st  %l3, [ %l2 ]
    59bc:	9a 23 40 01 	sub  %o5, %g1, %o5
    59c0:	da 24 a0 04 	st  %o5, [ %l2 + 4 ]
    59c4:	c2 07 bf e8 	ld  [ %fp + -24 ], %g1
    59c8:	10 bf fe be 	b  54c0 <_vfprintf_r+0x4e0>
    59cc:	82 00 40 0d 	add  %g1, %o5, %g1
    59d0:	92 07 bf e0 	add  %fp, -32, %o1
    59d4:	7f ff fd 34 	call  4ea4 <__sprint>
    59d8:	90 10 00 19 	mov  %i1, %o0
    59dc:	80 a2 20 00 	cmp  %o0, 0
    59e0:	12 bf fe f9 	bne  55c4 <_vfprintf_r+0x5e4>
    59e4:	a4 10 00 18 	mov  %i0, %l2
    59e8:	10 bf ff f3 	b  59b4 <_vfprintf_r+0x9d4>
    59ec:	c2 07 be 10 	ld  [ %fp + -496 ], %g1
    59f0:	92 07 bf e0 	add  %fp, -32, %o1
    59f4:	7f ff fd 2c 	call  4ea4 <__sprint>
    59f8:	90 10 00 19 	mov  %i1, %o0
    59fc:	80 a2 20 00 	cmp  %o0, 0
    5a00:	12 bf fe f1 	bne  55c4 <_vfprintf_r+0x5e4>
    5a04:	d2 07 be 10 	ld  [ %fp + -496 ], %o1
    5a08:	10 bf ff db 	b  5974 <_vfprintf_r+0x994>
    5a0c:	a4 10 00 18 	mov  %i0, %l2
    5a10:	a0 10 20 01 	mov  1, %l0
    5a14:	e0 24 a0 04 	st  %l0, [ %l2 + 4 ]
    5a18:	c2 07 bf e8 	ld  [ %fp + -24 ], %g1
    5a1c:	da 07 bf e4 	ld  [ %fp + -28 ], %o5
    5a20:	82 00 60 01 	inc  %g1
    5a24:	9a 03 60 01 	inc  %o5
    5a28:	c2 27 bf e8 	st  %g1, [ %fp + -24 ]
    5a2c:	80 a3 60 07 	cmp  %o5, 7
    5a30:	03 00 00 39 	sethi  %hi(0xe400), %g1
    5a34:	da 27 bf e4 	st  %o5, [ %fp + -28 ]
    5a38:	82 10 63 d0 	or  %g1, 0x3d0, %g1
    5a3c:	c2 24 80 00 	st  %g1, [ %l2 ]
    5a40:	14 80 00 5e 	bg  5bb8 <_vfprintf_r+0xbd8>
    5a44:	a4 04 a0 08 	add  %l2, 8, %l2
    5a48:	c2 07 be 10 	ld  [ %fp + -496 ], %g1
    5a4c:	80 a0 60 00 	cmp  %g1, 0
    5a50:	12 80 00 07 	bne  5a6c <_vfprintf_r+0xa8c>
    5a54:	da 07 bd fc 	ld  [ %fp + -516 ], %o5
    5a58:	c2 07 be 0c 	ld  [ %fp + -500 ], %g1
    5a5c:	80 a0 60 00 	cmp  %g1, 0
    5a60:	02 bf fe a0 	be  54e0 <_vfprintf_r+0x500>
    5a64:	80 8f 60 04 	btst  4, %i5
    5a68:	da 07 bd fc 	ld  [ %fp + -516 ], %o5
    5a6c:	e0 24 a0 04 	st  %l0, [ %l2 + 4 ]
    5a70:	da 24 80 00 	st  %o5, [ %l2 ]
    5a74:	c2 07 bf e8 	ld  [ %fp + -24 ], %g1
    5a78:	da 07 bf e4 	ld  [ %fp + -28 ], %o5
    5a7c:	82 00 60 01 	inc  %g1
    5a80:	9a 03 60 01 	inc  %o5
    5a84:	c2 27 bf e8 	st  %g1, [ %fp + -24 ]
    5a88:	80 a3 60 07 	cmp  %o5, 7
    5a8c:	da 27 bf e4 	st  %o5, [ %fp + -28 ]
    5a90:	14 80 00 42 	bg  5b98 <_vfprintf_r+0xbb8>
    5a94:	a4 04 a0 08 	add  %l2, 8, %l2
    5a98:	c2 07 be 10 	ld  [ %fp + -496 ], %g1
    5a9c:	a0 20 00 01 	neg  %g1, %l0
    5aa0:	80 a4 20 00 	cmp  %l0, 0
    5aa4:	04 80 00 23 	ble  5b30 <_vfprintf_r+0xb50>
    5aa8:	c2 07 be 0c 	ld  [ %fp + -500 ], %g1
    5aac:	80 a4 20 10 	cmp  %l0, 0x10
    5ab0:	04 80 00 13 	ble  5afc <_vfprintf_r+0xb1c>
    5ab4:	2d 00 00 39 	sethi  %hi(0xe400), %l6
    5ab8:	a2 15 a3 a0 	or  %l6, 0x3a0, %l1	! e7a0 <zeroes.1>
    5abc:	82 10 20 10 	mov  0x10, %g1
    5ac0:	c2 24 a0 04 	st  %g1, [ %l2 + 4 ]
    5ac4:	da 07 bf e4 	ld  [ %fp + -28 ], %o5
    5ac8:	c2 07 bf e8 	ld  [ %fp + -24 ], %g1
    5acc:	9a 03 60 01 	inc  %o5
    5ad0:	e2 24 80 00 	st  %l1, [ %l2 ]
    5ad4:	82 00 60 10 	add  %g1, 0x10, %g1
    5ad8:	80 a3 60 07 	cmp  %o5, 7
    5adc:	c2 27 bf e8 	st  %g1, [ %fp + -24 ]
    5ae0:	da 27 bf e4 	st  %o5, [ %fp + -28 ]
    5ae4:	14 80 00 25 	bg  5b78 <_vfprintf_r+0xb98>
    5ae8:	a4 04 a0 08 	add  %l2, 8, %l2
    5aec:	a0 04 3f f0 	add  %l0, -16, %l0
    5af0:	80 a4 20 10 	cmp  %l0, 0x10
    5af4:	14 bf ff f3 	bg  5ac0 <_vfprintf_r+0xae0>
    5af8:	82 10 20 10 	mov  0x10, %g1
    5afc:	e0 24 a0 04 	st  %l0, [ %l2 + 4 ]
    5b00:	c2 07 bf e8 	ld  [ %fp + -24 ], %g1
    5b04:	da 07 bf e4 	ld  [ %fp + -28 ], %o5
    5b08:	82 00 40 10 	add  %g1, %l0, %g1
    5b0c:	9a 03 60 01 	inc  %o5
    5b10:	c2 27 bf e8 	st  %g1, [ %fp + -24 ]
    5b14:	80 a3 60 07 	cmp  %o5, 7
    5b18:	82 15 a3 a0 	or  %l6, 0x3a0, %g1
    5b1c:	da 27 bf e4 	st  %o5, [ %fp + -28 ]
    5b20:	c2 24 80 00 	st  %g1, [ %l2 ]
    5b24:	14 80 00 0d 	bg  5b58 <_vfprintf_r+0xb78>
    5b28:	a4 04 a0 08 	add  %l2, 8, %l2
    5b2c:	c2 07 be 0c 	ld  [ %fp + -500 ], %g1
    5b30:	e6 24 80 00 	st  %l3, [ %l2 ]
    5b34:	c2 24 a0 04 	st  %g1, [ %l2 + 4 ]
    5b38:	da 07 bf e8 	ld  [ %fp + -24 ], %o5
    5b3c:	9a 03 40 01 	add  %o5, %g1, %o5
    5b40:	c2 07 bf e4 	ld  [ %fp + -28 ], %g1
    5b44:	da 27 bf e8 	st  %o5, [ %fp + -24 ]
    5b48:	82 00 60 01 	inc  %g1
    5b4c:	80 a0 60 07 	cmp  %g1, 7
    5b50:	10 bf fe 61 	b  54d4 <_vfprintf_r+0x4f4>
    5b54:	c2 27 bf e4 	st  %g1, [ %fp + -28 ]
    5b58:	92 07 bf e0 	add  %fp, -32, %o1
    5b5c:	7f ff fc d2 	call  4ea4 <__sprint>
    5b60:	90 10 00 19 	mov  %i1, %o0
    5b64:	80 a2 20 00 	cmp  %o0, 0
    5b68:	12 bf fe 97 	bne  55c4 <_vfprintf_r+0x5e4>
    5b6c:	a4 10 00 18 	mov  %i0, %l2
    5b70:	10 bf ff f0 	b  5b30 <_vfprintf_r+0xb50>
    5b74:	c2 07 be 0c 	ld  [ %fp + -500 ], %g1
    5b78:	90 10 00 19 	mov  %i1, %o0
    5b7c:	7f ff fc ca 	call  4ea4 <__sprint>
    5b80:	92 07 bf e0 	add  %fp, -32, %o1
    5b84:	80 a2 20 00 	cmp  %o0, 0
    5b88:	12 bf fe 8f 	bne  55c4 <_vfprintf_r+0x5e4>
    5b8c:	a4 10 00 18 	mov  %i0, %l2
    5b90:	10 bf ff d8 	b  5af0 <_vfprintf_r+0xb10>
    5b94:	a0 04 3f f0 	add  %l0, -16, %l0
    5b98:	92 07 bf e0 	add  %fp, -32, %o1
    5b9c:	7f ff fc c2 	call  4ea4 <__sprint>
    5ba0:	90 10 00 19 	mov  %i1, %o0
    5ba4:	80 a2 20 00 	cmp  %o0, 0
    5ba8:	12 bf fe 87 	bne  55c4 <_vfprintf_r+0x5e4>
    5bac:	a4 10 00 18 	mov  %i0, %l2
    5bb0:	10 bf ff bb 	b  5a9c <_vfprintf_r+0xabc>
    5bb4:	c2 07 be 10 	ld  [ %fp + -496 ], %g1
    5bb8:	92 07 bf e0 	add  %fp, -32, %o1
    5bbc:	7f ff fc ba 	call  4ea4 <__sprint>
    5bc0:	90 10 00 19 	mov  %i1, %o0
    5bc4:	80 a2 20 00 	cmp  %o0, 0
    5bc8:	12 bf fe 7f 	bne  55c4 <_vfprintf_r+0x5e4>
    5bcc:	a4 10 00 18 	mov  %i0, %l2
    5bd0:	10 bf ff 9f 	b  5a4c <_vfprintf_r+0xa6c>
    5bd4:	c2 07 be 10 	ld  [ %fp + -496 ], %g1
    5bd8:	80 a0 60 01 	cmp  %g1, 1
    5bdc:	04 80 00 79 	ble  5dc0 <_vfprintf_r+0xde0>
    5be0:	80 8f 60 01 	btst  1, %i5
    5be4:	c2 0c c0 00 	ldub  [ %l3 ], %g1
    5be8:	9a 10 20 2e 	mov  0x2e, %o5
    5bec:	c2 2f be 38 	stb  %g1, [ %fp + -456 ]
    5bf0:	da 2f be 39 	stb  %o5, [ %fp + -455 ]
    5bf4:	98 10 20 02 	mov  2, %o4
    5bf8:	d8 24 a0 04 	st  %o4, [ %l2 + 4 ]
    5bfc:	c2 07 bf e8 	ld  [ %fp + -24 ], %g1
    5c00:	da 07 bf e4 	ld  [ %fp + -28 ], %o5
    5c04:	82 00 60 02 	add  %g1, 2, %g1
    5c08:	9a 03 60 01 	inc  %o5
    5c0c:	c2 27 bf e8 	st  %g1, [ %fp + -24 ]
    5c10:	80 a3 60 07 	cmp  %o5, 7
    5c14:	82 07 be 38 	add  %fp, -456, %g1
    5c18:	da 27 bf e4 	st  %o5, [ %fp + -28 ]
    5c1c:	c2 24 80 00 	st  %g1, [ %l2 ]
    5c20:	a6 04 e0 01 	inc  %l3
    5c24:	14 80 00 5f 	bg  5da0 <_vfprintf_r+0xdc0>
    5c28:	a4 04 a0 08 	add  %l2, 8, %l2
    5c2c:	03 00 00 3a 	sethi  %hi(0xe800), %g1
    5c30:	d0 1f bd f0 	ldd  [ %fp + -528 ], %o0
    5c34:	40 00 1f 03 	call  d840 <__nedf2>
    5c38:	d4 18 60 28 	ldd  [ %g1 + 0x28 ], %o2
    5c3c:	80 a2 20 00 	cmp  %o0, 0
    5c40:	02 80 00 2e 	be  5cf8 <_vfprintf_r+0xd18>
    5c44:	c2 07 be 0c 	ld  [ %fp + -500 ], %g1
    5c48:	d8 07 be 0c 	ld  [ %fp + -500 ], %o4
    5c4c:	e6 24 80 00 	st  %l3, [ %l2 ]
    5c50:	82 03 3f ff 	add  %o4, -1, %g1
    5c54:	c2 24 a0 04 	st  %g1, [ %l2 + 4 ]
    5c58:	da 07 bf e8 	ld  [ %fp + -24 ], %o5
    5c5c:	c2 07 bf e4 	ld  [ %fp + -28 ], %g1
    5c60:	9a 03 40 0c 	add  %o5, %o4, %o5
    5c64:	82 00 60 01 	inc  %g1
    5c68:	9a 03 7f ff 	add  %o5, -1, %o5
    5c6c:	80 a0 60 07 	cmp  %g1, 7
    5c70:	da 27 bf e8 	st  %o5, [ %fp + -24 ]
    5c74:	c2 27 bf e4 	st  %g1, [ %fp + -28 ]
    5c78:	14 80 00 17 	bg  5cd4 <_vfprintf_r+0xcf4>
    5c7c:	a4 04 a0 08 	add  %l2, 8, %l2
    5c80:	d8 07 bd ec 	ld  [ %fp + -532 ], %o4
    5c84:	d8 24 a0 04 	st  %o4, [ %l2 + 4 ]
    5c88:	c2 07 bf e8 	ld  [ %fp + -24 ], %g1
    5c8c:	da 07 bf e4 	ld  [ %fp + -28 ], %o5
    5c90:	82 00 40 0c 	add  %g1, %o4, %g1
    5c94:	9a 03 60 01 	inc  %o5
    5c98:	c2 27 bf e8 	st  %g1, [ %fp + -24 ]
    5c9c:	80 a3 60 07 	cmp  %o5, 7
    5ca0:	82 07 bf f0 	add  %fp, -16, %g1
    5ca4:	da 27 bf e4 	st  %o5, [ %fp + -28 ]
    5ca8:	c2 24 80 00 	st  %g1, [ %l2 ]
    5cac:	04 bf fe 0c 	ble  54dc <_vfprintf_r+0x4fc>
    5cb0:	a4 04 a0 08 	add  %l2, 8, %l2
    5cb4:	92 07 bf e0 	add  %fp, -32, %o1
    5cb8:	7f ff fc 7b 	call  4ea4 <__sprint>
    5cbc:	90 10 00 19 	mov  %i1, %o0
    5cc0:	80 a2 20 00 	cmp  %o0, 0
    5cc4:	12 bf fe 40 	bne  55c4 <_vfprintf_r+0x5e4>
    5cc8:	a4 10 00 18 	mov  %i0, %l2
    5ccc:	10 bf fe 05 	b  54e0 <_vfprintf_r+0x500>
    5cd0:	80 8f 60 04 	btst  4, %i5
    5cd4:	92 07 bf e0 	add  %fp, -32, %o1
    5cd8:	90 10 00 19 	mov  %i1, %o0
    5cdc:	7f ff fc 72 	call  4ea4 <__sprint>
    5ce0:	a4 10 00 18 	mov  %i0, %l2
    5ce4:	80 a2 20 00 	cmp  %o0, 0
    5ce8:	02 bf ff e7 	be  5c84 <_vfprintf_r+0xca4>
    5cec:	d8 07 bd ec 	ld  [ %fp + -532 ], %o4
    5cf0:	10 bf fe 36 	b  55c8 <_vfprintf_r+0x5e8>
    5cf4:	c2 16 60 0c 	lduh  [ %i1 + 0xc ], %g1
    5cf8:	a0 00 7f ff 	add  %g1, -1, %l0
    5cfc:	80 a4 20 00 	cmp  %l0, 0
    5d00:	04 bf ff e0 	ble  5c80 <_vfprintf_r+0xca0>
    5d04:	80 a4 20 10 	cmp  %l0, 0x10
    5d08:	04 80 00 13 	ble  5d54 <_vfprintf_r+0xd74>
    5d0c:	2d 00 00 39 	sethi  %hi(0xe400), %l6
    5d10:	a2 15 a3 a0 	or  %l6, 0x3a0, %l1	! e7a0 <zeroes.1>
    5d14:	82 10 20 10 	mov  0x10, %g1
    5d18:	c2 24 a0 04 	st  %g1, [ %l2 + 4 ]
    5d1c:	da 07 bf e4 	ld  [ %fp + -28 ], %o5
    5d20:	c2 07 bf e8 	ld  [ %fp + -24 ], %g1
    5d24:	9a 03 60 01 	inc  %o5
    5d28:	e2 24 80 00 	st  %l1, [ %l2 ]
    5d2c:	82 00 60 10 	add  %g1, 0x10, %g1
    5d30:	80 a3 60 07 	cmp  %o5, 7
    5d34:	c2 27 bf e8 	st  %g1, [ %fp + -24 ]
    5d38:	da 27 bf e4 	st  %o5, [ %fp + -28 ]
    5d3c:	14 80 00 11 	bg  5d80 <_vfprintf_r+0xda0>
    5d40:	a4 04 a0 08 	add  %l2, 8, %l2
    5d44:	a0 04 3f f0 	add  %l0, -16, %l0
    5d48:	80 a4 20 10 	cmp  %l0, 0x10
    5d4c:	14 bf ff f3 	bg  5d18 <_vfprintf_r+0xd38>
    5d50:	82 10 20 10 	mov  0x10, %g1
    5d54:	e0 24 a0 04 	st  %l0, [ %l2 + 4 ]
    5d58:	c2 07 bf e8 	ld  [ %fp + -24 ], %g1
    5d5c:	da 07 bf e4 	ld  [ %fp + -28 ], %o5
    5d60:	82 00 40 10 	add  %g1, %l0, %g1
    5d64:	9a 03 60 01 	inc  %o5
    5d68:	c2 27 bf e8 	st  %g1, [ %fp + -24 ]
    5d6c:	80 a3 60 07 	cmp  %o5, 7
    5d70:	82 15 a3 a0 	or  %l6, 0x3a0, %g1
    5d74:	da 27 bf e4 	st  %o5, [ %fp + -28 ]
    5d78:	10 bf ff c0 	b  5c78 <_vfprintf_r+0xc98>
    5d7c:	c2 24 80 00 	st  %g1, [ %l2 ]
    5d80:	90 10 00 19 	mov  %i1, %o0
    5d84:	7f ff fc 48 	call  4ea4 <__sprint>
    5d88:	92 07 bf e0 	add  %fp, -32, %o1
    5d8c:	80 a2 20 00 	cmp  %o0, 0
    5d90:	12 bf fe 0d 	bne  55c4 <_vfprintf_r+0x5e4>
    5d94:	a4 10 00 18 	mov  %i0, %l2
    5d98:	10 bf ff ec 	b  5d48 <_vfprintf_r+0xd68>
    5d9c:	a0 04 3f f0 	add  %l0, -16, %l0
    5da0:	92 07 bf e0 	add  %fp, -32, %o1
    5da4:	7f ff fc 40 	call  4ea4 <__sprint>
    5da8:	90 10 00 19 	mov  %i1, %o0
    5dac:	80 a2 20 00 	cmp  %o0, 0
    5db0:	12 bf fe 05 	bne  55c4 <_vfprintf_r+0x5e4>
    5db4:	a4 10 00 18 	mov  %i0, %l2
    5db8:	10 bf ff 9e 	b  5c30 <_vfprintf_r+0xc50>
    5dbc:	03 00 00 3a 	sethi  %hi(0xe800), %g1
    5dc0:	32 bf ff 8a 	bne,a   5be8 <_vfprintf_r+0xc08>
    5dc4:	c2 0c c0 00 	ldub  [ %l3 ], %g1
    5dc8:	82 10 20 01 	mov  1, %g1
    5dcc:	c2 24 a0 04 	st  %g1, [ %l2 + 4 ]
    5dd0:	da 07 bf e4 	ld  [ %fp + -28 ], %o5
    5dd4:	c2 07 bf e8 	ld  [ %fp + -24 ], %g1
    5dd8:	9a 03 60 01 	inc  %o5
    5ddc:	e6 24 80 00 	st  %l3, [ %l2 ]
    5de0:	82 00 60 01 	inc  %g1
    5de4:	80 a3 60 07 	cmp  %o5, 7
    5de8:	c2 27 bf e8 	st  %g1, [ %fp + -24 ]
    5dec:	da 27 bf e4 	st  %o5, [ %fp + -28 ]
    5df0:	04 bf ff a4 	ble  5c80 <_vfprintf_r+0xca0>
    5df4:	a4 04 a0 08 	add  %l2, 8, %l2
    5df8:	92 07 bf e0 	add  %fp, -32, %o1
    5dfc:	7f ff fc 2a 	call  4ea4 <__sprint>
    5e00:	90 10 00 19 	mov  %i1, %o0
    5e04:	80 a2 20 00 	cmp  %o0, 0
    5e08:	12 bf fd ef 	bne  55c4 <_vfprintf_r+0x5e4>
    5e0c:	a4 10 00 18 	mov  %i0, %l2
    5e10:	10 bf ff 9d 	b  5c84 <_vfprintf_r+0xca4>
    5e14:	d8 07 bd ec 	ld  [ %fp + -532 ], %o4
    5e18:	92 07 bf e0 	add  %fp, -32, %o1
    5e1c:	7f ff fc 22 	call  4ea4 <__sprint>
    5e20:	90 10 00 19 	mov  %i1, %o0
    5e24:	80 a2 20 00 	cmp  %o0, 0
    5e28:	12 bf fd e7 	bne  55c4 <_vfprintf_r+0x5e4>
    5e2c:	a4 10 00 18 	mov  %i0, %l2
    5e30:	10 bf fd 9e 	b  54a8 <_vfprintf_r+0x4c8>
    5e34:	80 8f 61 00 	btst  0x100, %i5
    5e38:	90 10 00 19 	mov  %i1, %o0
    5e3c:	7f ff fc 1a 	call  4ea4 <__sprint>
    5e40:	92 07 bf e0 	add  %fp, -32, %o1
    5e44:	80 a2 20 00 	cmp  %o0, 0
    5e48:	12 bf fd df 	bne  55c4 <_vfprintf_r+0x5e4>
    5e4c:	a4 10 00 18 	mov  %i0, %l2
    5e50:	10 bf fd 86 	b  5468 <_vfprintf_r+0x488>
    5e54:	a0 04 3f f0 	add  %l0, -16, %l0
    5e58:	a0 23 40 17 	sub  %o5, %l7, %l0
    5e5c:	80 a4 20 00 	cmp  %l0, 0
    5e60:	04 bf fd 6e 	ble  5418 <_vfprintf_r+0x438>
    5e64:	80 a4 20 10 	cmp  %l0, 0x10
    5e68:	04 80 00 13 	ble  5eb4 <_vfprintf_r+0xed4>
    5e6c:	2d 00 00 39 	sethi  %hi(0xe400), %l6
    5e70:	a2 15 a3 a0 	or  %l6, 0x3a0, %l1	! e7a0 <zeroes.1>
    5e74:	82 10 20 10 	mov  0x10, %g1
    5e78:	c2 24 a0 04 	st  %g1, [ %l2 + 4 ]
    5e7c:	da 07 bf e4 	ld  [ %fp + -28 ], %o5
    5e80:	c2 07 bf e8 	ld  [ %fp + -24 ], %g1
    5e84:	9a 03 60 01 	inc  %o5
    5e88:	e2 24 80 00 	st  %l1, [ %l2 ]
    5e8c:	82 00 60 10 	add  %g1, 0x10, %g1
    5e90:	80 a3 60 07 	cmp  %o5, 7
    5e94:	c2 27 bf e8 	st  %g1, [ %fp + -24 ]
    5e98:	da 27 bf e4 	st  %o5, [ %fp + -28 ]
    5e9c:	14 80 00 1a 	bg  5f04 <_vfprintf_r+0xf24>
    5ea0:	a4 04 a0 08 	add  %l2, 8, %l2
    5ea4:	a0 04 3f f0 	add  %l0, -16, %l0
    5ea8:	80 a4 20 10 	cmp  %l0, 0x10
    5eac:	14 bf ff f3 	bg  5e78 <_vfprintf_r+0xe98>
    5eb0:	82 10 20 10 	mov  0x10, %g1
    5eb4:	e0 24 a0 04 	st  %l0, [ %l2 + 4 ]
    5eb8:	c2 07 bf e8 	ld  [ %fp + -24 ], %g1
    5ebc:	da 07 bf e4 	ld  [ %fp + -28 ], %o5
    5ec0:	82 00 40 10 	add  %g1, %l0, %g1
    5ec4:	9a 03 60 01 	inc  %o5
    5ec8:	c2 27 bf e8 	st  %g1, [ %fp + -24 ]
    5ecc:	80 a3 60 07 	cmp  %o5, 7
    5ed0:	82 15 a3 a0 	or  %l6, 0x3a0, %g1
    5ed4:	da 27 bf e4 	st  %o5, [ %fp + -28 ]
    5ed8:	c2 24 80 00 	st  %g1, [ %l2 ]
    5edc:	04 bf fd 4f 	ble  5418 <_vfprintf_r+0x438>
    5ee0:	a4 04 a0 08 	add  %l2, 8, %l2
    5ee4:	92 07 bf e0 	add  %fp, -32, %o1
    5ee8:	7f ff fb ef 	call  4ea4 <__sprint>
    5eec:	90 10 00 19 	mov  %i1, %o0
    5ef0:	80 a2 20 00 	cmp  %o0, 0
    5ef4:	12 bf fd b4 	bne  55c4 <_vfprintf_r+0x5e4>
    5ef8:	a4 10 00 18 	mov  %i0, %l2
    5efc:	10 bf fd 48 	b  541c <_vfprintf_r+0x43c>
    5f00:	a0 27 00 15 	sub  %i4, %l5, %l0
    5f04:	90 10 00 19 	mov  %i1, %o0
    5f08:	7f ff fb e7 	call  4ea4 <__sprint>
    5f0c:	92 07 bf e0 	add  %fp, -32, %o1
    5f10:	80 a2 20 00 	cmp  %o0, 0
    5f14:	12 bf fd ac 	bne  55c4 <_vfprintf_r+0x5e4>
    5f18:	a4 10 00 18 	mov  %i0, %l2
    5f1c:	10 bf ff e3 	b  5ea8 <_vfprintf_r+0xec8>
    5f20:	a0 04 3f f0 	add  %l0, -16, %l0
    5f24:	92 07 bf e0 	add  %fp, -32, %o1
    5f28:	90 10 00 19 	mov  %i1, %o0
    5f2c:	7f ff fb de 	call  4ea4 <__sprint>
    5f30:	a4 10 00 18 	mov  %i0, %l2
    5f34:	80 a2 20 00 	cmp  %o0, 0
    5f38:	02 bf fd 36 	be  5410 <_vfprintf_r+0x430>
    5f3c:	80 a5 a0 80 	cmp  %l6, 0x80
    5f40:	10 bf fd a2 	b  55c8 <_vfprintf_r+0x5e8>
    5f44:	c2 16 60 0c 	lduh  [ %i1 + 0xc ], %g1
    5f48:	02 bf fd 32 	be  5410 <_vfprintf_r+0x430>
    5f4c:	80 a5 a0 80 	cmp  %l6, 0x80
    5f50:	e8 2f be 39 	stb  %l4, [ %fp + -455 ]
    5f54:	82 10 20 30 	mov  0x30, %g1
    5f58:	c2 2f be 38 	stb  %g1, [ %fp + -456 ]
    5f5c:	9a 10 20 02 	mov  2, %o5
    5f60:	da 24 a0 04 	st  %o5, [ %l2 + 4 ]
    5f64:	c2 07 bf e8 	ld  [ %fp + -24 ], %g1
    5f68:	da 07 bf e4 	ld  [ %fp + -28 ], %o5
    5f6c:	82 00 60 02 	add  %g1, 2, %g1
    5f70:	9a 03 60 01 	inc  %o5
    5f74:	c2 27 bf e8 	st  %g1, [ %fp + -24 ]
    5f78:	80 a3 60 07 	cmp  %o5, 7
    5f7c:	82 07 be 38 	add  %fp, -456, %g1
    5f80:	da 27 bf e4 	st  %o5, [ %fp + -28 ]
    5f84:	c2 24 80 00 	st  %g1, [ %l2 ]
    5f88:	04 bf fd 21 	ble  540c <_vfprintf_r+0x42c>
    5f8c:	a4 04 a0 08 	add  %l2, 8, %l2
    5f90:	92 07 bf e0 	add  %fp, -32, %o1
    5f94:	7f ff fb c4 	call  4ea4 <__sprint>
    5f98:	90 10 00 19 	mov  %i1, %o0
    5f9c:	80 a2 20 00 	cmp  %o0, 0
    5fa0:	12 bf fd 89 	bne  55c4 <_vfprintf_r+0x5e4>
    5fa4:	a4 10 00 18 	mov  %i0, %l2
    5fa8:	10 bf fd 1a 	b  5410 <_vfprintf_r+0x430>
    5fac:	80 a5 a0 80 	cmp  %l6, 0x80
    5fb0:	92 07 bf e0 	add  %fp, -32, %o1
    5fb4:	7f ff fb bc 	call  4ea4 <__sprint>
    5fb8:	90 10 00 19 	mov  %i1, %o0
    5fbc:	80 a2 20 00 	cmp  %o0, 0
    5fc0:	12 bf fd 81 	bne  55c4 <_vfprintf_r+0x5e4>
    5fc4:	da 0f be 0a 	ldub  [ %fp + -502 ], %o5
    5fc8:	10 bf fd 00 	b  53c8 <_vfprintf_r+0x3e8>
    5fcc:	a4 10 00 18 	mov  %i0, %l2
    5fd0:	90 10 00 19 	mov  %i1, %o0
    5fd4:	7f ff fb b4 	call  4ea4 <__sprint>
    5fd8:	92 07 bf e0 	add  %fp, -32, %o1
    5fdc:	80 a2 20 00 	cmp  %o0, 0
    5fe0:	12 bf fd 79 	bne  55c4 <_vfprintf_r+0x5e4>
    5fe4:	a4 10 00 18 	mov  %i0, %l2
    5fe8:	10 bf fc e7 	b  5384 <_vfprintf_r+0x3a4>
    5fec:	a0 04 3f f0 	add  %l0, -16, %l0
    5ff0:	80 8f 60 02 	btst  2, %i5
    5ff4:	32 bf fc cc 	bne,a   5324 <_vfprintf_r+0x344>
    5ff8:	ae 05 e0 02 	add  %l7, 2, %l7
    5ffc:	10 bf fc cb 	b  5328 <_vfprintf_r+0x348>
    6000:	ac 8f 60 84 	andcc  %i5, 0x84, %l6
    6004:	da 07 bd e8 	ld  [ %fp + -536 ], %o5
    6008:	82 0c 60 0f 	and  %l1, 0xf, %g1
    600c:	d4 0b 40 01 	ldub  [ %o5 + %g1 ], %o2
    6010:	97 2c 20 1c 	sll  %l0, 0x1c, %o3
    6014:	83 34 60 04 	srl  %l1, 4, %g1
    6018:	99 34 20 04 	srl  %l0, 4, %o4
    601c:	9a 12 c0 01 	or  %o3, %g1, %o5
    6020:	a6 04 ff ff 	add  %l3, -1, %l3
    6024:	a0 10 00 0c 	mov  %o4, %l0
    6028:	d4 2c c0 00 	stb  %o2, [ %l3 ]
    602c:	80 93 00 0d 	orcc  %o4, %o5, %g0
    6030:	12 bf ff f5 	bne  6004 <_vfprintf_r+0x1024>
    6034:	a2 10 00 0d 	mov  %o5, %l1
    6038:	82 27 80 13 	sub  %fp, %l3, %g1
    603c:	10 bf fc b1 	b  5300 <_vfprintf_r+0x320>
    6040:	aa 00 7f 9c 	add  %g1, -100, %l5
    6044:	80 a0 60 00 	cmp  %g1, 0
    6048:	12 bf fc aa 	bne  52f0 <_vfprintf_r+0x310>
    604c:	03 00 00 39 	sethi  %hi(0xe400), %g1
    6050:	95 2c 20 1d 	sll  %l0, 0x1d, %o2
    6054:	97 34 60 03 	srl  %l1, 3, %o3
    6058:	82 0c 60 07 	and  %l1, 7, %g1
    605c:	9a 12 80 0b 	or  %o2, %o3, %o5
    6060:	99 34 20 03 	srl  %l0, 3, %o4
    6064:	82 00 60 30 	add  %g1, 0x30, %g1
    6068:	a6 04 ff ff 	add  %l3, -1, %l3
    606c:	a0 10 00 0c 	mov  %o4, %l0
    6070:	a2 10 00 0d 	mov  %o5, %l1
    6074:	80 93 00 0d 	orcc  %o4, %o5, %g0
    6078:	12 bf ff f6 	bne  6050 <_vfprintf_r+0x1070>
    607c:	c2 2c c0 00 	stb  %g1, [ %l3 ]
    6080:	80 8f 60 01 	btst  1, %i5
    6084:	22 bf ff ee 	be,a   603c <_vfprintf_r+0x105c>
    6088:	82 27 80 13 	sub  %fp, %l3, %g1
    608c:	80 a0 60 30 	cmp  %g1, 0x30
    6090:	02 bf ff ea 	be  6038 <_vfprintf_r+0x1058>
    6094:	82 10 20 30 	mov  0x30, %g1
    6098:	a6 04 ff ff 	add  %l3, -1, %l3
    609c:	10 bf ff e7 	b  6038 <_vfprintf_r+0x1058>
    60a0:	c2 2c c0 00 	stb  %g1, [ %l3 ]
    60a4:	08 80 00 1c 	bleu  6114 <_vfprintf_r+0x1134>
    60a8:	80 a4 20 00 	cmp  %l0, 0
    60ac:	90 10 00 10 	mov  %l0, %o0
    60b0:	92 10 00 11 	mov  %l1, %o1
    60b4:	94 10 20 00 	clr  %o2
    60b8:	40 00 1a a9 	call  cb5c <__umoddi3>
    60bc:	96 10 20 0a 	mov  0xa, %o3
    60c0:	9a 10 00 09 	mov  %o1, %o5
    60c4:	90 10 00 10 	mov  %l0, %o0
    60c8:	92 10 00 11 	mov  %l1, %o1
    60cc:	82 03 60 30 	add  %o5, 0x30, %g1
    60d0:	a6 04 ff ff 	add  %l3, -1, %l3
    60d4:	94 10 20 00 	clr  %o2
    60d8:	c2 2c c0 00 	stb  %g1, [ %l3 ]
    60dc:	40 00 19 cf 	call  c818 <__udivdi3>
    60e0:	96 10 20 0a 	mov  0xa, %o3
    60e4:	a0 10 00 08 	mov  %o0, %l0
    60e8:	80 a4 20 00 	cmp  %l0, 0
    60ec:	18 bf ff f0 	bgu  60ac <_vfprintf_r+0x10cc>
    60f0:	a2 10 00 09 	mov  %o1, %l1
    60f4:	80 a4 20 00 	cmp  %l0, 0
    60f8:	12 80 00 04 	bne  6108 <_vfprintf_r+0x1128>
    60fc:	80 a2 60 09 	cmp  %o1, 9
    6100:	18 bf ff ec 	bgu  60b0 <_vfprintf_r+0x10d0>
    6104:	90 10 00 10 	mov  %l0, %o0
    6108:	82 04 60 30 	add  %l1, 0x30, %g1
    610c:	10 bf ff e4 	b  609c <_vfprintf_r+0x10bc>
    6110:	a6 04 ff ff 	add  %l3, -1, %l3
    6114:	12 bf ff fd 	bne  6108 <_vfprintf_r+0x1128>
    6118:	80 a4 60 09 	cmp  %l1, 9
    611c:	18 bf ff e5 	bgu  60b0 <_vfprintf_r+0x10d0>
    6120:	90 10 00 10 	mov  %l0, %o0
    6124:	10 bf ff fa 	b  610c <_vfprintf_r+0x112c>
    6128:	82 04 60 30 	add  %l1, 0x30, %g1
    612c:	12 bf ff c4 	bne  603c <_vfprintf_r+0x105c>
    6130:	82 27 80 13 	sub  %fp, %l3, %g1
    6134:	80 8f 60 01 	btst  1, %i5
    6138:	22 bf fc 72 	be,a   5300 <_vfprintf_r+0x320>
    613c:	aa 00 7f 9c 	add  %g1, -100, %l5
    6140:	82 10 20 30 	mov  0x30, %g1
    6144:	a6 07 bf 9b 	add  %fp, -101, %l3
    6148:	10 bf ff bc 	b  6038 <_vfprintf_r+0x1058>
    614c:	c2 2f bf 9b 	stb  %g1, [ %fp + -101 ]
    6150:	9a 10 20 2d 	mov  0x2d, %o5
    6154:	a0 60 00 10 	subx  %g0, %l0, %l0
    6158:	10 bf fc 4f 	b  5294 <_vfprintf_r+0x2b4>
    615c:	da 2f be 0a 	stb  %o5, [ %fp + -502 ]
    6160:	32 80 00 0b 	bne,a   618c <_vfprintf_r+0x11ac>
    6164:	da 06 c0 00 	ld  [ %i3 ], %o5
    6168:	80 8f 60 40 	btst  0x40, %i5
    616c:	22 80 00 08 	be,a   618c <_vfprintf_r+0x11ac>
    6170:	da 06 c0 00 	ld  [ %i3 ], %o5
    6174:	da 16 e0 02 	lduh  [ %i3 + 2 ], %o5
    6178:	b6 06 e0 04 	add  %i3, 4, %i3
    617c:	9b 2b 60 10 	sll  %o5, 0x10, %o5
    6180:	a3 3b 60 10 	sra  %o5, 0x10, %l1
    6184:	10 bf fc 41 	b  5288 <_vfprintf_r+0x2a8>
    6188:	a1 3b 60 1f 	sra  %o5, 0x1f, %l0
    618c:	b6 06 e0 04 	add  %i3, 4, %i3
    6190:	10 bf ff fd 	b  6184 <_vfprintf_r+0x11a4>
    6194:	a2 10 00 0d 	mov  %o5, %l1
    6198:	da 0e 80 00 	ldub  [ %i2 ], %o5
    619c:	10 bf fb e1 	b  5120 <_vfprintf_r+0x140>
    61a0:	ba 17 60 08 	or  %i5, 8, %i5
    61a4:	ba 17 60 10 	or  %i5, 0x10, %i5
    61a8:	80 8f 60 20 	btst  0x20, %i5
    61ac:	02 80 00 0a 	be  61d4 <_vfprintf_r+0x11f4>
    61b0:	80 8f 60 10 	btst  0x10, %i5
    61b4:	da 06 e0 04 	ld  [ %i3 + 4 ], %o5
    61b8:	d8 06 c0 00 	ld  [ %i3 ], %o4
    61bc:	b6 06 e0 08 	add  %i3, 8, %i3
    61c0:	d8 3f be 28 	std  %o4, [ %fp + -472 ]
    61c4:	e0 1f be 28 	ldd  [ %fp + -472 ], %l0
    61c8:	98 10 20 00 	clr  %o4
    61cc:	10 bf fc 33 	b  5298 <_vfprintf_r+0x2b8>
    61d0:	c0 2f be 0a 	clrb  [ %fp + -502 ]
    61d4:	32 80 00 0a 	bne,a   61fc <_vfprintf_r+0x121c>
    61d8:	da 06 c0 00 	ld  [ %i3 ], %o5
    61dc:	80 8f 60 40 	btst  0x40, %i5
    61e0:	22 80 00 07 	be,a   61fc <_vfprintf_r+0x121c>
    61e4:	da 06 c0 00 	ld  [ %i3 ], %o5
    61e8:	82 10 00 1b 	mov  %i3, %g1
    61ec:	e2 10 60 02 	lduh  [ %g1 + 2 ], %l1
    61f0:	b6 06 e0 04 	add  %i3, 4, %i3
    61f4:	10 bf ff f5 	b  61c8 <_vfprintf_r+0x11e8>
    61f8:	a0 10 20 00 	clr  %l0
    61fc:	a0 10 20 00 	clr  %l0
    6200:	b6 06 e0 04 	add  %i3, 4, %i3
    6204:	10 bf ff f1 	b  61c8 <_vfprintf_r+0x11e8>
    6208:	a2 10 00 0d 	mov  %o5, %l1
    620c:	ba 17 60 10 	or  %i5, 0x10, %i5
    6210:	80 8f 60 20 	btst  0x20, %i5
    6214:	02 80 00 09 	be  6238 <_vfprintf_r+0x1258>
    6218:	80 8f 60 10 	btst  0x10, %i5
    621c:	da 06 e0 04 	ld  [ %i3 + 4 ], %o5
    6220:	d8 06 c0 00 	ld  [ %i3 ], %o4
    6224:	b6 06 e0 08 	add  %i3, 8, %i3
    6228:	d8 3f be 28 	std  %o4, [ %fp + -472 ]
    622c:	e0 1f be 28 	ldd  [ %fp + -472 ], %l0
    6230:	10 bf ff e7 	b  61cc <_vfprintf_r+0x11ec>
    6234:	98 10 20 01 	mov  1, %o4
    6238:	32 80 00 0a 	bne,a   6260 <_vfprintf_r+0x1280>
    623c:	da 06 c0 00 	ld  [ %i3 ], %o5
    6240:	80 8f 60 40 	btst  0x40, %i5
    6244:	22 80 00 07 	be,a   6260 <_vfprintf_r+0x1280>
    6248:	da 06 c0 00 	ld  [ %i3 ], %o5
    624c:	82 10 00 1b 	mov  %i3, %g1
    6250:	e2 10 60 02 	lduh  [ %g1 + 2 ], %l1
    6254:	b6 06 e0 04 	add  %i3, 4, %i3
    6258:	10 bf ff f6 	b  6230 <_vfprintf_r+0x1250>
    625c:	a0 10 20 00 	clr  %l0
    6260:	a0 10 20 00 	clr  %l0
    6264:	b6 06 e0 04 	add  %i3, 4, %i3
    6268:	10 bf ff f2 	b  6230 <_vfprintf_r+0x1250>
    626c:	a2 10 00 0d 	mov  %o5, %l1
    6270:	03 00 00 39 	sethi  %hi(0xe400), %g1
    6274:	82 10 63 e0 	or  %g1, 0x3e0, %g1	! e7e0 <zeroes.1+0x40>
    6278:	80 8f 60 20 	btst  0x20, %i5
    627c:	02 80 00 12 	be  62c4 <_vfprintf_r+0x12e4>
    6280:	c2 27 bd e8 	st  %g1, [ %fp + -536 ]
    6284:	da 06 e0 04 	ld  [ %i3 + 4 ], %o5
    6288:	d8 06 c0 00 	ld  [ %i3 ], %o4
    628c:	b6 06 e0 08 	add  %i3, 8, %i3
    6290:	d8 3f be 28 	std  %o4, [ %fp + -472 ]
    6294:	e0 1f be 28 	ldd  [ %fp + -472 ], %l0
    6298:	80 94 00 11 	orcc  %l0, %l1, %g0
    629c:	98 10 20 02 	mov  2, %o4
    62a0:	82 0f 60 01 	and  %i5, 1, %g1
    62a4:	02 80 00 03 	be  62b0 <_vfprintf_r+0x12d0>
    62a8:	9a 10 20 00 	clr  %o5
    62ac:	9a 10 20 01 	mov  1, %o5
    62b0:	80 88 40 0d 	btst  %g1, %o5
    62b4:	32 bf ff c6 	bne,a   61cc <_vfprintf_r+0x11ec>
    62b8:	ba 17 60 02 	or  %i5, 2, %i5
    62bc:	10 bf fb f7 	b  5298 <_vfprintf_r+0x2b8>
    62c0:	c0 2f be 0a 	clrb  [ %fp + -502 ]
    62c4:	80 8f 60 10 	btst  0x10, %i5
    62c8:	32 80 00 0a 	bne,a   62f0 <_vfprintf_r+0x1310>
    62cc:	da 06 c0 00 	ld  [ %i3 ], %o5
    62d0:	80 8f 60 40 	btst  0x40, %i5
    62d4:	22 80 00 07 	be,a   62f0 <_vfprintf_r+0x1310>
    62d8:	da 06 c0 00 	ld  [ %i3 ], %o5
    62dc:	82 10 00 1b 	mov  %i3, %g1
    62e0:	e2 10 60 02 	lduh  [ %g1 + 2 ], %l1
    62e4:	b6 06 e0 04 	add  %i3, 4, %i3
    62e8:	10 bf ff ec 	b  6298 <_vfprintf_r+0x12b8>
    62ec:	a0 10 20 00 	clr  %l0
    62f0:	a0 10 20 00 	clr  %l0
    62f4:	b6 06 e0 04 	add  %i3, 4, %i3
    62f8:	10 bf ff e8 	b  6298 <_vfprintf_r+0x12b8>
    62fc:	a2 10 00 0d 	mov  %o5, %l1
    6300:	da 0e e0 03 	ldub  [ %i3 + 3 ], %o5
    6304:	a6 07 be 40 	add  %fp, -448, %l3
    6308:	c0 2f be 0a 	clrb  [ %fp + -502 ]
    630c:	da 2f be 40 	stb  %o5, [ %fp + -448 ]
    6310:	b6 06 e0 04 	add  %i3, 4, %i3
    6314:	10 bf fb fb 	b  5300 <_vfprintf_r+0x320>
    6318:	aa 10 20 01 	mov  1, %l5
    631c:	80 a5 bf ff 	cmp  %l6, -1
    6320:	02 80 00 8a 	be  6548 <_vfprintf_r+0x1568>
    6324:	82 1d 20 67 	xor  %l4, 0x67, %g1
    6328:	80 a0 00 01 	cmp  %g0, %g1
    632c:	82 1d 20 47 	xor  %l4, 0x47, %g1
    6330:	98 60 3f ff 	subx  %g0, -1, %o4
    6334:	80 a0 00 01 	cmp  %g0, %g1
    6338:	9a 60 3f ff 	subx  %g0, -1, %o5
    633c:	80 93 00 0d 	orcc  %o4, %o5, %g0
    6340:	02 80 00 06 	be  6358 <_vfprintf_r+0x1378>
    6344:	80 8f 60 08 	btst  8, %i5
    6348:	80 a5 a0 00 	cmp  %l6, 0
    634c:	22 80 00 02 	be,a   6354 <_vfprintf_r+0x1374>
    6350:	ac 10 20 01 	mov  1, %l6
    6354:	80 8f 60 08 	btst  8, %i5
    6358:	02 80 00 78 	be  6538 <_vfprintf_r+0x1558>
    635c:	da 06 e0 04 	ld  [ %i3 + 4 ], %o5
    6360:	d8 06 c0 00 	ld  [ %i3 ], %o4
    6364:	d8 3f be 20 	std  %o4, [ %fp + -480 ]
    6368:	d8 1f be 20 	ldd  [ %fp + -480 ], %o4
    636c:	d8 3f bd f0 	std  %o4, [ %fp + -528 ]
    6370:	d0 1f bd f0 	ldd  [ %fp + -528 ], %o0
    6374:	40 00 11 4c 	call  a8a4 <isinf>
    6378:	b6 06 e0 08 	add  %i3, 8, %i3
    637c:	80 a2 20 00 	cmp  %o0, 0
    6380:	02 80 00 0e 	be  63b8 <_vfprintf_r+0x13d8>
    6384:	1b 00 00 3a 	sethi  %hi(0xe800), %o5
    6388:	d0 1f bd f0 	ldd  [ %fp + -528 ], %o0
    638c:	40 00 1d 78 	call  d96c <__ltdf2>
    6390:	d4 1b 60 28 	ldd  [ %o5 + 0x28 ], %o2
    6394:	80 a2 20 00 	cmp  %o0, 0
    6398:	06 80 00 06 	bl  63b0 <_vfprintf_r+0x13d0>
    639c:	9a 10 20 2d 	mov  0x2d, %o5
    63a0:	03 00 00 39 	sethi  %hi(0xe400), %g1
    63a4:	aa 10 20 03 	mov  3, %l5
    63a8:	10 bf fb d6 	b  5300 <_vfprintf_r+0x320>
    63ac:	a6 10 63 f8 	or  %g1, 0x3f8, %l3
    63b0:	10 bf ff fc 	b  63a0 <_vfprintf_r+0x13c0>
    63b4:	da 2f be 0a 	stb  %o5, [ %fp + -502 ]
    63b8:	d0 1f bd f0 	ldd  [ %fp + -528 ], %o0
    63bc:	40 00 11 48 	call  a8dc <isnan>
    63c0:	aa 10 20 03 	mov  3, %l5
    63c4:	03 00 00 3a 	sethi  %hi(0xe800), %g1
    63c8:	80 a2 20 00 	cmp  %o0, 0
    63cc:	12 bf fb cd 	bne  5300 <_vfprintf_r+0x320>
    63d0:	a6 10 60 00 	mov  %g1, %l3
    63d4:	9a 07 be 0c 	add  %fp, -500, %o5
    63d8:	d0 07 a0 44 	ld  [ %fp + 0x44 ], %o0
    63dc:	da 23 a0 64 	st  %o5, [ %sp + 0x64 ]
    63e0:	d8 1f bd f0 	ldd  [ %fp + -528 ], %o4
    63e4:	82 07 be 10 	add  %fp, -496, %g1
    63e8:	92 10 00 0c 	mov  %o4, %o1
    63ec:	c2 23 a0 5c 	st  %g1, [ %sp + 0x5c ]
    63f0:	94 10 00 0d 	mov  %o5, %o2
    63f4:	96 10 00 16 	mov  %l6, %o3
    63f8:	9a 07 be 0b 	add  %fp, -501, %o5
    63fc:	e8 23 a0 60 	st  %l4, [ %sp + 0x60 ]
    6400:	ba 17 61 00 	or  %i5, 0x100, %i5
    6404:	40 00 00 c1 	call  6708 <cvt>
    6408:	98 10 00 1d 	mov  %i5, %o4
    640c:	96 1d 20 67 	xor  %l4, 0x67, %o3
    6410:	80 a0 00 0b 	cmp  %g0, %o3
    6414:	82 1d 20 47 	xor  %l4, 0x47, %g1
    6418:	98 60 3f ff 	subx  %g0, -1, %o4
    641c:	80 a0 00 01 	cmp  %g0, %g1
    6420:	9a 60 3f ff 	subx  %g0, -1, %o5
    6424:	80 93 00 0d 	orcc  %o4, %o5, %g0
    6428:	02 80 00 42 	be  6530 <_vfprintf_r+0x1550>
    642c:	a6 10 00 08 	mov  %o0, %l3
    6430:	d2 07 be 10 	ld  [ %fp + -496 ], %o1
    6434:	80 a2 7f fc 	cmp  %o1, -4
    6438:	04 80 00 06 	ble  6450 <_vfprintf_r+0x1470>
    643c:	80 a0 00 0b 	cmp  %g0, %o3
    6440:	80 a2 40 16 	cmp  %o1, %l6
    6444:	04 80 00 0b 	ble  6470 <_vfprintf_r+0x1490>
    6448:	a8 10 20 67 	mov  0x67, %l4
    644c:	80 a0 00 0b 	cmp  %g0, %o3
    6450:	82 60 20 00 	subx  %g0, 0, %g1
    6454:	82 08 7f e0 	and  %g1, -32, %g1
    6458:	a8 00 60 65 	add  %g1, 0x65, %l4
    645c:	80 a5 20 65 	cmp  %l4, 0x65
    6460:	04 80 00 23 	ble  64ec <_vfprintf_r+0x150c>
    6464:	80 a5 20 66 	cmp  %l4, 0x66
    6468:	02 80 00 16 	be  64c0 <_vfprintf_r+0x14e0>
    646c:	80 a2 60 00 	cmp  %o1, 0
    6470:	da 07 be 0c 	ld  [ %fp + -500 ], %o5
    6474:	80 a2 40 0d 	cmp  %o1, %o5
    6478:	06 80 00 0d 	bl  64ac <_vfprintf_r+0x14cc>
    647c:	82 23 40 09 	sub  %o5, %o1, %g1
    6480:	80 8f 60 01 	btst  1, %i5
    6484:	02 80 00 03 	be  6490 <_vfprintf_r+0x14b0>
    6488:	aa 10 00 09 	mov  %o1, %l5
    648c:	aa 02 60 01 	add  %o1, 1, %l5
    6490:	c2 4f be 0b 	ldsb  [ %fp + -501 ], %g1
    6494:	80 a0 60 00 	cmp  %g1, 0
    6498:	02 bf fb 9b 	be  5304 <_vfprintf_r+0x324>
    649c:	80 a5 40 1c 	cmp  %l5, %i4
    64a0:	9a 10 20 2d 	mov  0x2d, %o5
    64a4:	10 bf fb 98 	b  5304 <_vfprintf_r+0x324>
    64a8:	da 2f be 0a 	stb  %o5, [ %fp + -502 ]
    64ac:	80 a2 60 00 	cmp  %o1, 0
    64b0:	04 bf ff f8 	ble  6490 <_vfprintf_r+0x14b0>
    64b4:	aa 00 60 02 	add  %g1, 2, %l5
    64b8:	10 bf ff f6 	b  6490 <_vfprintf_r+0x14b0>
    64bc:	aa 03 60 01 	add  %o5, 1, %l5
    64c0:	04 bf ff f4 	ble  6490 <_vfprintf_r+0x14b0>
    64c4:	aa 05 a0 02 	add  %l6, 2, %l5
    64c8:	80 a5 a0 00 	cmp  %l6, 0
    64cc:	12 80 00 05 	bne  64e0 <_vfprintf_r+0x1500>
    64d0:	aa 10 00 09 	mov  %o1, %l5
    64d4:	80 8f 60 01 	btst  1, %i5
    64d8:	02 bf ff ef 	be  6494 <_vfprintf_r+0x14b4>
    64dc:	c2 4f be 0b 	ldsb  [ %fp + -501 ], %g1
    64e0:	82 02 40 16 	add  %o1, %l6, %g1
    64e4:	10 bf ff eb 	b  6490 <_vfprintf_r+0x14b0>
    64e8:	aa 00 60 01 	add  %g1, 1, %l5
    64ec:	92 02 7f ff 	add  %o1, -1, %o1
    64f0:	90 07 bf f0 	add  %fp, -16, %o0
    64f4:	d2 27 be 10 	st  %o1, [ %fp + -496 ]
    64f8:	40 00 00 e6 	call  6890 <exponent>
    64fc:	94 10 00 14 	mov  %l4, %o2
    6500:	c2 07 be 0c 	ld  [ %fp + -500 ], %g1
    6504:	d0 27 bd ec 	st  %o0, [ %fp + -532 ]
    6508:	80 a0 60 01 	cmp  %g1, 1
    650c:	04 80 00 04 	ble  651c <_vfprintf_r+0x153c>
    6510:	aa 02 00 01 	add  %o0, %g1, %l5
    6514:	10 bf ff df 	b  6490 <_vfprintf_r+0x14b0>
    6518:	aa 05 60 01 	inc  %l5
    651c:	80 8f 60 01 	btst  1, %i5
    6520:	02 bf ff dd 	be  6494 <_vfprintf_r+0x14b4>
    6524:	c2 4f be 0b 	ldsb  [ %fp + -501 ], %g1
    6528:	10 bf ff db 	b  6494 <_vfprintf_r+0x14b4>
    652c:	aa 05 60 01 	inc  %l5
    6530:	10 bf ff cb 	b  645c <_vfprintf_r+0x147c>
    6534:	d2 07 be 10 	ld  [ %fp + -496 ], %o1
    6538:	d8 06 c0 00 	ld  [ %i3 ], %o4
    653c:	d8 3f be 18 	std  %o4, [ %fp + -488 ]
    6540:	10 bf ff 8b 	b  636c <_vfprintf_r+0x138c>
    6544:	d8 1f be 18 	ldd  [ %fp + -488 ], %o4
    6548:	10 bf ff 83 	b  6354 <_vfprintf_r+0x1374>
    654c:	ac 10 20 06 	mov  6, %l6
    6550:	da 0e 80 00 	ldub  [ %i2 ], %o5
    6554:	10 bf fa f3 	b  5120 <_vfprintf_r+0x140>
    6558:	ba 17 60 40 	or  %i5, 0x40, %i5
    655c:	c2 4e 80 00 	ldsb  [ %i2 ], %g1
    6560:	80 a0 60 6c 	cmp  %g1, 0x6c
    6564:	02 80 00 04 	be  6574 <_vfprintf_r+0x1594>
    6568:	da 0e 80 00 	ldub  [ %i2 ], %o5
    656c:	10 bf fa ed 	b  5120 <_vfprintf_r+0x140>
    6570:	ba 17 60 10 	or  %i5, 0x10, %i5
    6574:	b4 06 a0 01 	inc  %i2
    6578:	da 0e 80 00 	ldub  [ %i2 ], %o5
    657c:	10 bf fa e9 	b  5120 <_vfprintf_r+0x140>
    6580:	ba 17 60 20 	or  %i5, 0x20, %i5
    6584:	80 8f 60 20 	btst  0x20, %i5
    6588:	02 80 00 07 	be  65a4 <_vfprintf_r+0x15c4>
    658c:	80 8f 60 10 	btst  0x10, %i5
    6590:	da 06 c0 00 	ld  [ %i3 ], %o5
    6594:	c2 07 be 04 	ld  [ %fp + -508 ], %g1
    6598:	b6 06 e0 04 	add  %i3, 4, %i3
    659c:	10 bf fa b7 	b  5078 <_vfprintf_r+0x98>
    65a0:	c2 23 40 00 	st  %g1, [ %o5 ]
    65a4:	12 80 00 09 	bne  65c8 <_vfprintf_r+0x15e8>
    65a8:	da 06 c0 00 	ld  [ %i3 ], %o5
    65ac:	80 8f 60 40 	btst  0x40, %i5
    65b0:	02 80 00 06 	be  65c8 <_vfprintf_r+0x15e8>
    65b4:	01 00 00 00 	nop 
    65b8:	c2 07 be 04 	ld  [ %fp + -508 ], %g1
    65bc:	b6 06 e0 04 	add  %i3, 4, %i3
    65c0:	10 bf fa ae 	b  5078 <_vfprintf_r+0x98>
    65c4:	c2 33 40 00 	sth  %g1, [ %o5 ]
    65c8:	d8 07 be 04 	ld  [ %fp + -508 ], %o4
    65cc:	b6 06 e0 04 	add  %i3, 4, %i3
    65d0:	10 bf fa aa 	b  5078 <_vfprintf_r+0x98>
    65d4:	d8 23 40 00 	st  %o4, [ %o5 ]
    65d8:	da 06 c0 00 	ld  [ %i3 ], %o5
    65dc:	03 00 00 3a 	sethi  %hi(0xe800), %g1
    65e0:	a0 10 20 00 	clr  %l0
    65e4:	82 10 60 08 	or  %g1, 8, %g1
    65e8:	a2 10 00 0d 	mov  %o5, %l1
    65ec:	c2 27 bd e8 	st  %g1, [ %fp + -536 ]
    65f0:	b6 06 e0 04 	add  %i3, 4, %i3
    65f4:	98 10 20 02 	mov  2, %o4
    65f8:	ba 17 60 02 	or  %i5, 2, %i5
    65fc:	10 bf fe f4 	b  61cc <_vfprintf_r+0x11ec>
    6600:	a8 10 20 78 	mov  0x78, %l4
    6604:	e6 06 c0 00 	ld  [ %i3 ], %l3
    6608:	80 a4 e0 00 	cmp  %l3, 0
    660c:	02 80 00 16 	be  6664 <_vfprintf_r+0x1684>
    6610:	b6 06 e0 04 	add  %i3, 4, %i3
    6614:	80 a5 a0 00 	cmp  %l6, 0
    6618:	06 80 00 0f 	bl  6654 <_vfprintf_r+0x1674>
    661c:	90 10 00 13 	mov  %l3, %o0
    6620:	92 10 20 00 	clr  %o1
    6624:	94 10 00 16 	mov  %l6, %o2
    6628:	40 00 0c 90 	call  9868 <memchr>
    662c:	aa 10 00 16 	mov  %l6, %l5
    6630:	80 a2 20 00 	cmp  %o0, 0
    6634:	22 bf fb 33 	be,a   5300 <_vfprintf_r+0x320>
    6638:	c0 2f be 0a 	clrb  [ %fp + -502 ]
    663c:	aa 22 00 13 	sub  %o0, %l3, %l5
    6640:	80 a5 40 16 	cmp  %l5, %l6
    6644:	34 80 00 02 	bg,a   664c <_vfprintf_r+0x166c>
    6648:	aa 10 00 16 	mov  %l6, %l5
    664c:	10 bf fb 2d 	b  5300 <_vfprintf_r+0x320>
    6650:	c0 2f be 0a 	clrb  [ %fp + -502 ]
    6654:	40 00 11 10 	call  aa94 <strlen>
    6658:	90 10 00 13 	mov  %l3, %o0
    665c:	10 bf ff fc 	b  664c <_vfprintf_r+0x166c>
    6660:	aa 10 00 08 	mov  %o0, %l5
    6664:	03 00 00 3a 	sethi  %hi(0xe800), %g1
    6668:	10 bf ff eb 	b  6614 <_vfprintf_r+0x1634>
    666c:	a6 10 60 20 	or  %g1, 0x20, %l3	! e820 <zeroes.1+0x80>
    6670:	80 a5 20 00 	cmp  %l4, 0
    6674:	02 80 00 05 	be  6688 <_vfprintf_r+0x16a8>
    6678:	a6 07 be 40 	add  %fp, -448, %l3
    667c:	e8 2f be 40 	stb  %l4, [ %fp + -448 ]
    6680:	10 bf ff 25 	b  6314 <_vfprintf_r+0x1334>
    6684:	c0 2f be 0a 	clrb  [ %fp + -502 ]
    6688:	c2 07 bf e8 	ld  [ %fp + -24 ], %g1
    668c:	80 a0 60 00 	cmp  %g1, 0
    6690:	12 80 00 04 	bne  66a0 <_vfprintf_r+0x16c0>
    6694:	92 07 bf e0 	add  %fp, -32, %o1
    6698:	10 bf fb cb 	b  55c4 <_vfprintf_r+0x5e4>
    669c:	c0 27 bf e4 	clr  [ %fp + -28 ]
    66a0:	7f ff fa 01 	call  4ea4 <__sprint>
    66a4:	90 10 00 19 	mov  %i1, %o0
    66a8:	80 a2 20 00 	cmp  %o0, 0
    66ac:	22 bf fb c6 	be,a   55c4 <_vfprintf_r+0x5e4>
    66b0:	c0 27 bf e4 	clr  [ %fp + -28 ]
    66b4:	10 bf fb c5 	b  55c8 <_vfprintf_r+0x5e8>
    66b8:	c2 16 60 0c 	lduh  [ %i1 + 0xc ], %g1
    66bc:	03 00 00 3a 	sethi  %hi(0xe800), %g1
    66c0:	10 bf fe ee 	b  6278 <_vfprintf_r+0x1298>
    66c4:	82 10 60 08 	or  %g1, 8, %g1	! e808 <zeroes.1+0x68>
    66c8:	92 07 bf e0 	add  %fp, -32, %o1
    66cc:	7f ff f9 f6 	call  4ea4 <__sprint>
    66d0:	90 10 00 19 	mov  %i1, %o0
    66d4:	80 a2 20 00 	cmp  %o0, 0
    66d8:	12 bf fb bb 	bne  55c4 <_vfprintf_r+0x5e4>
    66dc:	a4 10 00 18 	mov  %i0, %l2
    66e0:	10 bf fa 85 	b  50f4 <_vfprintf_r+0x114>
    66e4:	da 07 be 04 	ld  [ %fp + -508 ], %o5
    66e8:	80 a0 60 00 	cmp  %g1, 0
    66ec:	06 bf fa 5d 	bl  5060 <_vfprintf_r+0x80>
    66f0:	90 10 00 19 	mov  %i1, %o0
    66f4:	92 10 00 1a 	mov  %i2, %o1
    66f8:	7f ff f9 f9 	call  4edc <__sbprintf>
    66fc:	94 10 00 1b 	mov  %i3, %o2
    6700:	81 c7 e0 08 	ret 
    6704:	91 e8 00 08 	restore  %g0, %o0, %o0

00006708 <cvt>:
    6708:	9d e3 bf 88 	save  %sp, -120, %sp
    670c:	e4 07 a0 60 	ld  [ %fp + 0x60 ], %l2
    6710:	a0 10 00 19 	mov  %i1, %l0
    6714:	a2 10 00 1a 	mov  %i2, %l1
    6718:	80 a4 a0 66 	cmp  %l2, 0x66
    671c:	f2 07 a0 5c 	ld  [ %fp + 0x5c ], %i1
    6720:	02 80 00 0b 	be  674c <cvt+0x44>
    6724:	b4 10 20 03 	mov  3, %i2
    6728:	82 1c a0 65 	xor  %l2, 0x65, %g1
    672c:	80 a0 00 01 	cmp  %g0, %g1
    6730:	b4 10 20 02 	mov  2, %i2
    6734:	98 60 3f ff 	subx  %g0, -1, %o4
    6738:	82 1c a0 45 	xor  %l2, 0x45, %g1
    673c:	80 a0 00 01 	cmp  %g0, %g1
    6740:	9a 60 3f ff 	subx  %g0, -1, %o5
    6744:	98 13 00 0d 	or  %o4, %o5, %o4
    6748:	b6 06 c0 0c 	add  %i3, %o4, %i3
    674c:	80 a4 20 00 	cmp  %l0, 0
    6750:	06 80 00 44 	bl  6860 <cvt+0x158>
    6754:	90 10 00 10 	mov  %l0, %o0
    6758:	c0 2f 40 00 	clrb  [ %i5 ]
    675c:	82 07 bf f4 	add  %fp, -12, %g1
    6760:	9a 07 bf f0 	add  %fp, -16, %o5
    6764:	90 10 00 18 	mov  %i0, %o0
    6768:	c2 23 a0 5c 	st  %g1, [ %sp + 0x5c ]
    676c:	da 23 a0 60 	st  %o5, [ %sp + 0x60 ]
    6770:	98 10 00 1b 	mov  %i3, %o4
    6774:	9a 10 00 19 	mov  %i1, %o5
    6778:	96 10 00 1a 	mov  %i2, %o3
    677c:	92 10 00 10 	mov  %l0, %o1
    6780:	40 00 05 da 	call  7ee8 <_dtoa_r>
    6784:	94 10 00 11 	mov  %l1, %o2
    6788:	82 1c a0 67 	xor  %l2, 0x67, %g1
    678c:	80 a0 00 01 	cmp  %g0, %g1
    6790:	82 1c a0 47 	xor  %l2, 0x47, %g1
    6794:	98 40 20 00 	addx  %g0, 0, %o4
    6798:	80 a0 00 01 	cmp  %g0, %g1
    679c:	9a 40 20 00 	addx  %g0, 0, %o5
    67a0:	80 8b 00 0d 	btst  %o4, %o5
    67a4:	12 80 00 05 	bne  67b8 <cvt+0xb0>
    67a8:	b0 10 00 08 	mov  %o0, %i0
    67ac:	80 8f 20 01 	btst  1, %i4
    67b0:	02 80 00 33 	be  687c <cvt+0x174>
    67b4:	da 07 bf f0 	ld  [ %fp + -16 ], %o5
    67b8:	80 a4 a0 66 	cmp  %l2, 0x66
    67bc:	02 80 00 17 	be  6818 <cvt+0x110>
    67c0:	ba 06 00 1b 	add  %i0, %i3, %i5
    67c4:	03 00 00 3a 	sethi  %hi(0xe800), %g1
    67c8:	d4 18 60 28 	ldd  [ %g1 + 0x28 ], %o2	! e828 <zeroes.1+0x88>
    67cc:	90 10 00 10 	mov  %l0, %o0
    67d0:	40 00 1c 03 	call  d7dc <__eqdf2>
    67d4:	92 10 00 11 	mov  %l1, %o1
    67d8:	80 a2 20 00 	cmp  %o0, 0
    67dc:	22 80 00 02 	be,a   67e4 <cvt+0xdc>
    67e0:	fa 27 bf f0 	st  %i5, [ %fp + -16 ]
    67e4:	da 07 bf f0 	ld  [ %fp + -16 ], %o5
    67e8:	80 a3 40 1d 	cmp  %o5, %i5
    67ec:	1a 80 00 24 	bcc  687c <cvt+0x174>
    67f0:	82 10 00 0d 	mov  %o5, %g1
    67f4:	98 10 20 30 	mov  0x30, %o4
    67f8:	d8 28 40 00 	stb  %o4, [ %g1 ]
    67fc:	9a 00 60 01 	add  %g1, 1, %o5
    6800:	da 27 bf f0 	st  %o5, [ %fp + -16 ]
    6804:	80 a3 40 1d 	cmp  %o5, %i5
    6808:	0a bf ff fc 	bcs  67f8 <cvt+0xf0>
    680c:	82 10 00 0d 	mov  %o5, %g1
    6810:	10 80 00 1c 	b  6880 <cvt+0x178>
    6814:	c2 07 a0 64 	ld  [ %fp + 0x64 ], %g1
    6818:	c2 4e 00 00 	ldsb  [ %i0 ], %g1
    681c:	80 a0 60 30 	cmp  %g1, 0x30
    6820:	02 80 00 05 	be  6834 <cvt+0x12c>
    6824:	03 00 00 3a 	sethi  %hi(0xe800), %g1
    6828:	c2 06 40 00 	ld  [ %i1 ], %g1
    682c:	10 bf ff e6 	b  67c4 <cvt+0xbc>
    6830:	ba 07 40 01 	add  %i5, %g1, %i5
    6834:	d4 18 60 28 	ldd  [ %g1 + 0x28 ], %o2
    6838:	90 10 00 10 	mov  %l0, %o0
    683c:	40 00 1c 01 	call  d840 <__nedf2>
    6840:	92 10 00 11 	mov  %l1, %o1
    6844:	80 a2 20 00 	cmp  %o0, 0
    6848:	22 bf ff f9 	be,a   682c <cvt+0x124>
    684c:	c2 06 40 00 	ld  [ %i1 ], %g1
    6850:	82 10 20 01 	mov  1, %g1
    6854:	82 20 40 1b 	sub  %g1, %i3, %g1
    6858:	10 bf ff f4 	b  6828 <cvt+0x120>
    685c:	c2 26 40 00 	st  %g1, [ %i1 ]
    6860:	40 00 1c d5 	call  dbb4 <__negdf2>
    6864:	92 10 00 11 	mov  %l1, %o1
    6868:	82 10 20 2d 	mov  0x2d, %g1
    686c:	a0 10 00 08 	mov  %o0, %l0
    6870:	a2 10 00 09 	mov  %o1, %l1
    6874:	10 bf ff ba 	b  675c <cvt+0x54>
    6878:	c2 2f 40 00 	stb  %g1, [ %i5 ]
    687c:	c2 07 a0 64 	ld  [ %fp + 0x64 ], %g1
    6880:	9a 23 40 18 	sub  %o5, %i0, %o5
    6884:	da 20 40 00 	st  %o5, [ %g1 ]
    6888:	81 c7 e0 08 	ret 
    688c:	81 e8 00 00 	restore 

00006890 <exponent>:
    6890:	9d e3 bf 70 	save  %sp, -144, %sp
    6894:	a0 10 00 18 	mov  %i0, %l0
    6898:	80 a6 60 00 	cmp  %i1, 0
    689c:	06 80 00 2a 	bl  6944 <exponent+0xb4>
    68a0:	f4 2e 00 00 	stb  %i2, [ %i0 ]
    68a4:	82 10 20 2b 	mov  0x2b, %g1
    68a8:	c2 2e 20 01 	stb  %g1, [ %i0 + 1 ]
    68ac:	b4 07 bf f8 	add  %fp, -8, %i2
    68b0:	b0 04 20 02 	add  %l0, 2, %i0
    68b4:	80 a6 60 09 	cmp  %i1, 9
    68b8:	04 80 00 1c 	ble  6928 <exponent+0x98>
    68bc:	a2 10 00 1a 	mov  %i2, %l1
    68c0:	90 10 00 19 	mov  %i1, %o0
    68c4:	7f ff ef 6d 	call  2678 <.rem>
    68c8:	92 10 20 0a 	mov  0xa, %o1
    68cc:	82 10 00 08 	mov  %o0, %g1
    68d0:	82 00 60 30 	add  %g1, 0x30, %g1
    68d4:	90 10 00 19 	mov  %i1, %o0
    68d8:	b4 06 bf ff 	add  %i2, -1, %i2
    68dc:	92 10 20 0a 	mov  0xa, %o1
    68e0:	7f ff ee ba 	call  23c8 <.div>
    68e4:	c2 2e 80 00 	stb  %g1, [ %i2 ]
    68e8:	80 a2 20 09 	cmp  %o0, 9
    68ec:	14 bf ff f5 	bg  68c0 <exponent+0x30>
    68f0:	b2 10 00 08 	mov  %o0, %i1
    68f4:	b4 06 bf ff 	add  %i2, -1, %i2
    68f8:	82 02 20 30 	add  %o0, 0x30, %g1
    68fc:	80 a6 80 11 	cmp  %i2, %l1
    6900:	1a 80 00 14 	bcc  6950 <exponent+0xc0>
    6904:	c2 2e 80 00 	stb  %g1, [ %i2 ]
    6908:	c2 0e 80 00 	ldub  [ %i2 ], %g1
    690c:	b4 06 a0 01 	inc  %i2
    6910:	c2 2e 00 00 	stb  %g1, [ %i0 ]
    6914:	80 a6 80 11 	cmp  %i2, %l1
    6918:	0a bf ff fc 	bcs  6908 <exponent+0x78>
    691c:	b0 06 20 01 	inc  %i0
    6920:	10 80 00 0d 	b  6954 <exponent+0xc4>
    6924:	b0 26 00 10 	sub  %i0, %l0, %i0
    6928:	82 10 20 30 	mov  0x30, %g1
    692c:	c2 2e 00 00 	stb  %g1, [ %i0 ]
    6930:	9a 06 60 30 	add  %i1, 0x30, %o5
    6934:	b0 06 20 01 	inc  %i0
    6938:	da 2e 00 00 	stb  %o5, [ %i0 ]
    693c:	10 80 00 05 	b  6950 <exponent+0xc0>
    6940:	b0 06 20 01 	inc  %i0
    6944:	82 10 20 2d 	mov  0x2d, %g1
    6948:	10 bf ff d8 	b  68a8 <exponent+0x18>
    694c:	b2 20 00 19 	neg  %i1
    6950:	b0 26 00 10 	sub  %i0, %l0, %i0
    6954:	81 c7 e0 08 	ret 
    6958:	81 e8 00 00 	restore 
    695c:	00 00 78 58 	unimp  0x7858
    6960:	00 00 76 bc 	unimp  0x76bc
    6964:	00 00 78 58 	unimp  0x7858
    6968:	00 00 78 6c 	unimp  0x786c
    696c:	00 00 76 bc 	unimp  0x76bc
    6970:	00 00 76 70 	unimp  0x7670
    6974:	00 00 76 7c 	unimp  0x767c
    6978:	00 00 76 7c 	unimp  0x767c
    697c:	00 00 76 7c 	unimp  0x767c
    6980:	00 00 76 7c 	unimp  0x767c
    6984:	00 00 76 7c 	unimp  0x767c
    6988:	00 00 76 7c 	unimp  0x767c
    698c:	00 00 76 7c 	unimp  0x767c
    6990:	00 00 76 7c 	unimp  0x767c
    6994:	00 00 76 7c 	unimp  0x767c
    6998:	00 00 76 bc 	unimp  0x76bc
    699c:	00 00 76 bc 	unimp  0x76bc
    69a0:	00 00 76 bc 	unimp  0x76bc
    69a4:	00 00 76 bc 	unimp  0x76bc
    69a8:	00 00 76 bc 	unimp  0x76bc
    69ac:	00 00 76 bc 	unimp  0x76bc
    69b0:	00 00 76 bc 	unimp  0x76bc
    69b4:	00 00 76 bc 	unimp  0x76bc
    69b8:	00 00 76 bc 	unimp  0x76bc
    69bc:	00 00 76 bc 	unimp  0x76bc
    69c0:	00 00 76 bc 	unimp  0x76bc
    69c4:	00 00 78 84 	unimp  0x7884
    69c8:	00 00 76 bc 	unimp  0x76bc
    69cc:	00 00 76 bc 	unimp  0x76bc
    69d0:	00 00 76 bc 	unimp  0x76bc
    69d4:	00 00 76 bc 	unimp  0x76bc
    69d8:	00 00 76 bc 	unimp  0x76bc
    69dc:	00 00 76 bc 	unimp  0x76bc
    69e0:	00 00 76 bc 	unimp  0x76bc
    69e4:	00 00 76 bc 	unimp  0x76bc
    69e8:	00 00 76 bc 	unimp  0x76bc
    69ec:	00 00 76 bc 	unimp  0x76bc
    69f0:	00 00 76 bc 	unimp  0x76bc
    69f4:	00 00 76 bc 	unimp  0x76bc
    69f8:	00 00 76 bc 	unimp  0x76bc
    69fc:	00 00 76 bc 	unimp  0x76bc
    6a00:	00 00 76 bc 	unimp  0x76bc
    6a04:	00 00 76 bc 	unimp  0x76bc
    6a08:	00 00 76 bc 	unimp  0x76bc
    6a0c:	00 00 76 bc 	unimp  0x76bc
    6a10:	00 00 76 bc 	unimp  0x76bc
    6a14:	00 00 76 bc 	unimp  0x76bc
    6a18:	00 00 76 bc 	unimp  0x76bc
    6a1c:	00 00 76 bc 	unimp  0x76bc
    6a20:	00 00 76 bc 	unimp  0x76bc
    6a24:	00 00 76 bc 	unimp  0x76bc
    6a28:	00 00 76 bc 	unimp  0x76bc
    6a2c:	00 00 76 bc 	unimp  0x76bc
    6a30:	00 00 76 bc 	unimp  0x76bc
    6a34:	00 00 76 bc 	unimp  0x76bc
    6a38:	00 00 76 bc 	unimp  0x76bc
    6a3c:	00 00 76 bc 	unimp  0x76bc
    6a40:	00 00 76 bc 	unimp  0x76bc
    6a44:	00 00 78 84 	unimp  0x7884
    6a48:	00 00 75 9c 	unimp  0x759c
    6a4c:	00 00 74 34 	unimp  0x7434
    6a50:	00 00 75 9c 	unimp  0x759c
    6a54:	00 00 74 34 	unimp  0x7434
    6a58:	00 00 74 34 	unimp  0x7434
    6a5c:	00 00 73 dc 	unimp  0x73dc
    6a60:	00 00 75 b0 	unimp  0x75b0
    6a64:	00 00 75 b0 	unimp  0x75b0
    6a68:	00 00 75 b0 	unimp  0x75b0
    6a6c:	00 00 75 b0 	unimp  0x75b0
    6a70:	00 00 75 b0 	unimp  0x75b0
    6a74:	00 00 75 b0 	unimp  0x75b0
    6a78:	00 00 75 b0 	unimp  0x75b0
    6a7c:	00 00 75 c4 	unimp  0x75c4
    6a80:	00 00 75 c4 	unimp  0x75c4
    6a84:	00 00 74 34 	unimp  0x7434
    6a88:	00 00 74 34 	unimp  0x7434
    6a8c:	00 00 74 34 	unimp  0x7434
    6a90:	00 00 74 34 	unimp  0x7434
    6a94:	00 00 74 34 	unimp  0x7434
    6a98:	00 00 74 34 	unimp  0x7434
    6a9c:	00 00 74 34 	unimp  0x7434
    6aa0:	00 00 75 e8 	unimp  0x75e8
    6aa4:	00 00 75 e8 	unimp  0x75e8
    6aa8:	00 00 75 e8 	unimp  0x75e8
    6aac:	00 00 75 e8 	unimp  0x75e8
    6ab0:	00 00 75 e8 	unimp  0x75e8
    6ab4:	00 00 75 e8 	unimp  0x75e8
    6ab8:	00 00 74 34 	unimp  0x7434
    6abc:	00 00 74 34 	unimp  0x7434
    6ac0:	00 00 74 34 	unimp  0x7434
    6ac4:	00 00 74 34 	unimp  0x7434
    6ac8:	00 00 74 34 	unimp  0x7434
    6acc:	00 00 74 34 	unimp  0x7434
    6ad0:	00 00 74 34 	unimp  0x7434
    6ad4:	00 00 74 34 	unimp  0x7434
    6ad8:	00 00 74 34 	unimp  0x7434
    6adc:	00 00 74 34 	unimp  0x7434
    6ae0:	00 00 74 34 	unimp  0x7434
    6ae4:	00 00 74 34 	unimp  0x7434
    6ae8:	00 00 74 34 	unimp  0x7434
    6aec:	00 00 74 34 	unimp  0x7434
    6af0:	00 00 74 34 	unimp  0x7434
    6af4:	00 00 74 34 	unimp  0x7434
    6af8:	00 00 74 34 	unimp  0x7434
    6afc:	00 00 75 f0 	unimp  0x75f0
    6b00:	00 00 74 34 	unimp  0x7434
    6b04:	00 00 74 34 	unimp  0x7434
    6b08:	00 00 74 34 	unimp  0x7434
    6b0c:	00 00 74 34 	unimp  0x7434
    6b10:	00 00 74 34 	unimp  0x7434
    6b14:	00 00 74 34 	unimp  0x7434
    6b18:	00 00 74 34 	unimp  0x7434
    6b1c:	00 00 74 34 	unimp  0x7434
    6b20:	00 00 75 e8 	unimp  0x75e8
    6b24:	00 00 75 e8 	unimp  0x75e8
    6b28:	00 00 75 e8 	unimp  0x75e8
    6b2c:	00 00 75 e8 	unimp  0x75e8
    6b30:	00 00 75 e8 	unimp  0x75e8
    6b34:	00 00 75 e8 	unimp  0x75e8
    6b38:	00 00 74 34 	unimp  0x7434
    6b3c:	00 00 74 34 	unimp  0x7434
    6b40:	00 00 74 34 	unimp  0x7434
    6b44:	00 00 74 34 	unimp  0x7434
    6b48:	00 00 74 34 	unimp  0x7434
    6b4c:	00 00 74 34 	unimp  0x7434
    6b50:	00 00 74 34 	unimp  0x7434
    6b54:	00 00 74 34 	unimp  0x7434
    6b58:	00 00 74 34 	unimp  0x7434
    6b5c:	00 00 74 34 	unimp  0x7434
    6b60:	00 00 74 34 	unimp  0x7434
    6b64:	00 00 74 34 	unimp  0x7434
    6b68:	00 00 74 34 	unimp  0x7434
    6b6c:	00 00 74 34 	unimp  0x7434
    6b70:	00 00 74 34 	unimp  0x7434
    6b74:	00 00 74 34 	unimp  0x7434
    6b78:	00 00 74 34 	unimp  0x7434
    6b7c:	00 00 75 f0 	unimp  0x75f0
    6b80:	00 00 70 2c 	unimp  0x702c
    6b84:	00 00 70 d8 	unimp  0x70d8
    6b88:	00 00 72 4c 	unimp  0x724c
    6b8c:	00 00 73 90 	unimp  0x7390
    6b90:	00 00 76 14 	unimp  0x7614
    6b94:	00 00 6f 28 	unimp  0x6f28
    6b98:	00 00 7a 08 	unimp  0x7a08
    6b9c:	00 00 7a 08 	unimp  0x7a08
    6ba0:	00 00 7a 08 	unimp  0x7a08
    6ba4:	00 00 7a 08 	unimp  0x7a08
    6ba8:	00 00 7a 08 	unimp  0x7a08
    6bac:	00 00 7a 08 	unimp  0x7a08
    6bb0:	00 00 7a 08 	unimp  0x7a08
    6bb4:	00 00 7a 08 	unimp  0x7a08
    6bb8:	00 00 7a 08 	unimp  0x7a08
    6bbc:	00 00 7a 08 	unimp  0x7a08
    6bc0:	00 00 7a 08 	unimp  0x7a08
    6bc4:	00 00 7a 08 	unimp  0x7a08
    6bc8:	00 00 7a 08 	unimp  0x7a08
    6bcc:	00 00 7a 08 	unimp  0x7a08
    6bd0:	00 00 7a 08 	unimp  0x7a08
    6bd4:	00 00 7a 08 	unimp  0x7a08
    6bd8:	00 00 7a 08 	unimp  0x7a08
    6bdc:	00 00 7a 08 	unimp  0x7a08
    6be0:	00 00 7a 08 	unimp  0x7a08
    6be4:	00 00 7a 08 	unimp  0x7a08
    6be8:	00 00 7a 08 	unimp  0x7a08
    6bec:	00 00 7a 08 	unimp  0x7a08
    6bf0:	00 00 7a 08 	unimp  0x7a08
    6bf4:	00 00 7a 08 	unimp  0x7a08
    6bf8:	00 00 7a 08 	unimp  0x7a08
    6bfc:	00 00 7a 08 	unimp  0x7a08
    6c00:	00 00 7a 08 	unimp  0x7a08
    6c04:	00 00 7a 08 	unimp  0x7a08
    6c08:	00 00 7a 08 	unimp  0x7a08
    6c0c:	00 00 7a 08 	unimp  0x7a08
    6c10:	00 00 7a 08 	unimp  0x7a08
    6c14:	00 00 7a 08 	unimp  0x7a08
    6c18:	00 00 7a 08 	unimp  0x7a08
    6c1c:	00 00 7a 08 	unimp  0x7a08
    6c20:	00 00 7a 08 	unimp  0x7a08
    6c24:	00 00 7a 08 	unimp  0x7a08
    6c28:	00 00 6e c0 	unimp  0x6ec0
    6c2c:	00 00 7a 08 	unimp  0x7a08
    6c30:	00 00 7a 08 	unimp  0x7a08
    6c34:	00 00 7a 08 	unimp  0x7a08
    6c38:	00 00 7a 08 	unimp  0x7a08
    6c3c:	00 00 6f 5c 	unimp  0x6f5c
    6c40:	00 00 7a 08 	unimp  0x7a08
    6c44:	00 00 7a 08 	unimp  0x7a08
    6c48:	00 00 7a 08 	unimp  0x7a08
    6c4c:	00 00 7a 08 	unimp  0x7a08
    6c50:	00 00 7a 08 	unimp  0x7a08
    6c54:	00 00 6f 64 	unimp  0x6f64
    6c58:	00 00 6f 64 	unimp  0x6f64
    6c5c:	00 00 6f 64 	unimp  0x6f64
    6c60:	00 00 6f 64 	unimp  0x6f64
    6c64:	00 00 6f 64 	unimp  0x6f64
    6c68:	00 00 6f 64 	unimp  0x6f64
    6c6c:	00 00 6f 64 	unimp  0x6f64
    6c70:	00 00 6f 64 	unimp  0x6f64
    6c74:	00 00 6f 64 	unimp  0x6f64
    6c78:	00 00 6f 64 	unimp  0x6f64
    6c7c:	00 00 7a 08 	unimp  0x7a08
    6c80:	00 00 7a 08 	unimp  0x7a08
    6c84:	00 00 7a 08 	unimp  0x7a08
    6c88:	00 00 7a 08 	unimp  0x7a08
    6c8c:	00 00 7a 08 	unimp  0x7a08
    6c90:	00 00 7a 08 	unimp  0x7a08
    6c94:	00 00 7a 08 	unimp  0x7a08
    6c98:	00 00 7a 08 	unimp  0x7a08
    6c9c:	00 00 7a 08 	unimp  0x7a08
    6ca0:	00 00 7a 08 	unimp  0x7a08
    6ca4:	00 00 6f 7c 	unimp  0x6f7c
    6ca8:	00 00 79 50 	unimp  0x7950
    6cac:	00 00 7a 08 	unimp  0x7a08
    6cb0:	00 00 79 50 	unimp  0x7950
    6cb4:	00 00 7a 08 	unimp  0x7a08
    6cb8:	00 00 7a 08 	unimp  0x7a08
    6cbc:	00 00 7a 08 	unimp  0x7a08
    6cc0:	00 00 7a 08 	unimp  0x7a08
    6cc4:	00 00 79 04 	unimp  0x7904
    6cc8:	00 00 7a 08 	unimp  0x7a08
    6ccc:	00 00 7a 08 	unimp  0x7a08
    6cd0:	00 00 79 0c 	unimp  0x790c
    6cd4:	00 00 7a 08 	unimp  0x7a08
    6cd8:	00 00 7a 08 	unimp  0x7a08
    6cdc:	00 00 7a 08 	unimp  0x7a08
    6ce0:	00 00 7a 08 	unimp  0x7a08
    6ce4:	00 00 7a 08 	unimp  0x7a08
    6ce8:	00 00 7a 08 	unimp  0x7a08
    6cec:	00 00 7a 08 	unimp  0x7a08
    6cf0:	00 00 7a 08 	unimp  0x7a08
    6cf4:	00 00 7a 28 	unimp  0x7a28
    6cf8:	00 00 7a 08 	unimp  0x7a08
    6cfc:	00 00 7a 08 	unimp  0x7a08
    6d00:	00 00 79 28 	unimp  0x7928
    6d04:	00 00 7a 08 	unimp  0x7a08
    6d08:	00 00 7a 08 	unimp  0x7a08
    6d0c:	00 00 7a 08 	unimp  0x7a08
    6d10:	00 00 7a 08 	unimp  0x7a08
    6d14:	00 00 7a 08 	unimp  0x7a08
    6d18:	00 00 7a 08 	unimp  0x7a08
    6d1c:	00 00 7a 08 	unimp  0x7a08
    6d20:	00 00 79 44 	unimp  0x7944
    6d24:	00 00 6f 80 	unimp  0x6f80
    6d28:	00 00 79 50 	unimp  0x7950
    6d2c:	00 00 79 50 	unimp  0x7950
    6d30:	00 00 79 50 	unimp  0x7950
    6d34:	00 00 79 58 	unimp  0x7958
    6d38:	00 00 79 60 	unimp  0x7960
    6d3c:	00 00 7a 08 	unimp  0x7a08
    6d40:	00 00 7a 08 	unimp  0x7a08
    6d44:	00 00 79 74 	unimp  0x7974
    6d48:	00 00 7a 08 	unimp  0x7a08
    6d4c:	00 00 79 7c 	unimp  0x797c
    6d50:	00 00 79 10 	unimp  0x7910
    6d54:	00 00 79 d8 	unimp  0x79d8
    6d58:	00 00 7a 08 	unimp  0x7a08
    6d5c:	00 00 7a 08 	unimp  0x7a08
    6d60:	00 00 79 f4 	unimp  0x79f4
    6d64:	00 00 7a 08 	unimp  0x7a08
    6d68:	00 00 79 fc 	unimp  0x79fc
    6d6c:	00 00 7a 08 	unimp  0x7a08
    6d70:	00 00 7a 08 	unimp  0x7a08
    6d74:	00 00 7a 28 	unimp  0x7a28

00006d78 <vfscanf>:
    6d78:	9d e3 bf 98 	save  %sp, -104, %sp
    6d7c:	a0 10 00 18 	mov  %i0, %l0
    6d80:	f0 06 20 54 	ld  [ %i0 + 0x54 ], %i0
    6d84:	98 10 00 19 	mov  %i1, %o4
    6d88:	80 a6 20 00 	cmp  %i0, 0
    6d8c:	12 80 00 06 	bne  6da4 <vfscanf+0x2c>
    6d90:	b6 10 00 1a 	mov  %i2, %i3
    6d94:	03 00 00 3c 	sethi  %hi(0xf000), %g1
    6d98:	da 00 60 98 	ld  [ %g1 + 0x98 ], %o5	! f098 <_impure_ptr>
    6d9c:	b0 10 00 0d 	mov  %o5, %i0
    6da0:	da 24 20 54 	st  %o5, [ %l0 + 0x54 ]
    6da4:	c2 06 20 38 	ld  [ %i0 + 0x38 ], %g1
    6da8:	b2 10 00 10 	mov  %l0, %i1
    6dac:	b4 10 00 0c 	mov  %o4, %i2
    6db0:	80 a0 60 00 	cmp  %g1, 0
    6db4:	02 80 00 04 	be  6dc4 <vfscanf+0x4c>
    6db8:	90 10 00 18 	mov  %i0, %o0
    6dbc:	40 00 00 16 	call  6e14 <__svfscanf_r>
    6dc0:	81 e8 00 00 	restore 
    6dc4:	7f ff f0 35 	call  2e98 <__sinit>
    6dc8:	01 00 00 00 	nop 
    6dcc:	10 bf ff fc 	b  6dbc <vfscanf+0x44>
    6dd0:	f0 04 20 54 	ld  [ %l0 + 0x54 ], %i0

00006dd4 <__svfscanf>:
    6dd4:	03 00 00 3c 	sethi  %hi(0xf000), %g1
    6dd8:	da 00 60 98 	ld  [ %g1 + 0x98 ], %o5	! f098 <_impure_ptr>
    6ddc:	98 10 00 08 	mov  %o0, %o4
    6de0:	82 10 00 09 	mov  %o1, %g1
    6de4:	96 10 00 0a 	mov  %o2, %o3
    6de8:	90 10 00 0d 	mov  %o5, %o0
    6dec:	94 10 00 01 	mov  %g1, %o2
    6df0:	92 10 00 0c 	mov  %o4, %o1
    6df4:	82 13 c0 00 	mov  %o7, %g1
    6df8:	40 00 00 07 	call  6e14 <__svfscanf_r>
    6dfc:	9e 10 40 00 	mov  %g1, %o7
    6e00:	01 00 00 00 	nop 

00006e04 <_vfscanf_r>:
    6e04:	82 13 c0 00 	mov  %o7, %g1
    6e08:	40 00 00 03 	call  6e14 <__svfscanf_r>
    6e0c:	9e 10 40 00 	mov  %g1, %o7
    6e10:	01 00 00 00 	nop 

00006e14 <__svfscanf_r>:
    6e14:	9d e3 bd 30 	save  %sp, -720, %sp
    6e18:	f0 27 a0 44 	st  %i0, [ %fp + 0x44 ]
    6e1c:	ae 10 20 00 	clr  %l7
    6e20:	c0 27 bd 94 	clr  [ %fp + -620 ]
    6e24:	ac 10 20 00 	clr  %l6
    6e28:	a2 10 20 00 	clr  %l1
    6e2c:	d8 4e 80 00 	ldsb  [ %i2 ], %o4
    6e30:	b0 10 00 16 	mov  %l6, %i0
    6e34:	80 a3 20 00 	cmp  %o4, 0
    6e38:	02 80 02 ff 	be  7a34 <__svfscanf_r+0xc20>
    6e3c:	b4 06 a0 01 	inc  %i2
    6e40:	2b 00 00 3a 	sethi  %hi(0xe800), %l5
    6e44:	9a 15 60 e0 	or  %l5, 0xe0, %o5	! e8e0 <_ctype_+0x1>
    6e48:	c2 0b 00 0d 	ldub  [ %o4 + %o5 ], %g1
    6e4c:	80 88 60 08 	btst  8, %g1
    6e50:	02 80 00 19 	be  6eb4 <__svfscanf_r+0xa0>
    6e54:	a0 10 00 0d 	mov  %o5, %l0
    6e58:	c2 06 60 04 	ld  [ %i1 + 4 ], %g1
    6e5c:	80 a0 60 00 	cmp  %g1, 0
    6e60:	04 80 00 0e 	ble  6e98 <__svfscanf_r+0x84>
    6e64:	01 00 00 00 	nop 
    6e68:	d8 06 40 00 	ld  [ %i1 ], %o4
    6e6c:	c2 0b 00 00 	ldub  [ %o4 ], %g1
    6e70:	da 08 40 10 	ldub  [ %g1 + %l0 ], %o5
    6e74:	80 8b 60 08 	btst  8, %o5
    6e78:	02 bf ff ed 	be  6e2c <__svfscanf_r+0x18>
    6e7c:	9a 03 20 01 	add  %o4, 1, %o5
    6e80:	c2 06 60 04 	ld  [ %i1 + 4 ], %g1
    6e84:	82 00 7f ff 	add  %g1, -1, %g1
    6e88:	da 26 40 00 	st  %o5, [ %i1 ]
    6e8c:	c2 26 60 04 	st  %g1, [ %i1 + 4 ]
    6e90:	10 bf ff f2 	b  6e58 <__svfscanf_r+0x44>
    6e94:	a2 04 60 01 	inc  %l1
    6e98:	7f ff f6 f3 	call  4a64 <__srefill>
    6e9c:	90 10 00 19 	mov  %i1, %o0
    6ea0:	80 a2 20 00 	cmp  %o0, 0
    6ea4:	22 bf ff f2 	be,a   6e6c <__svfscanf_r+0x58>
    6ea8:	d8 06 40 00 	ld  [ %i1 ], %o4
    6eac:	10 bf ff e1 	b  6e30 <__svfscanf_r+0x1c>
    6eb0:	d8 4e 80 00 	ldsb  [ %i2 ], %o4
    6eb4:	80 a3 20 25 	cmp  %o4, 0x25
    6eb8:	02 80 00 1e 	be  6f30 <__svfscanf_r+0x11c>
    6ebc:	a8 10 20 00 	clr  %l4
    6ec0:	c2 06 60 04 	ld  [ %i1 + 4 ], %g1
    6ec4:	80 a0 60 00 	cmp  %g1, 0
    6ec8:	04 80 00 10 	ble  6f08 <__svfscanf_r+0xf4>
    6ecc:	a0 06 bf ff 	add  %i2, -1, %l0
    6ed0:	d8 06 40 00 	ld  [ %i1 ], %o4
    6ed4:	da 4c 00 00 	ldsb  [ %l0 ], %o5
    6ed8:	c2 0b 00 00 	ldub  [ %o4 ], %g1
    6edc:	80 a0 40 0d 	cmp  %g1, %o5
    6ee0:	12 80 00 08 	bne  6f00 <__svfscanf_r+0xec>
    6ee4:	9a 03 20 01 	add  %o4, 1, %o5
    6ee8:	c2 06 60 04 	ld  [ %i1 + 4 ], %g1
    6eec:	82 00 7f ff 	add  %g1, -1, %g1
    6ef0:	da 26 40 00 	st  %o5, [ %i1 ]
    6ef4:	c2 26 60 04 	st  %g1, [ %i1 + 4 ]
    6ef8:	10 bf ff cd 	b  6e2c <__svfscanf_r+0x18>
    6efc:	a2 04 60 01 	inc  %l1
    6f00:	10 80 02 cd 	b  7a34 <__svfscanf_r+0xc20>
    6f04:	b0 10 00 16 	mov  %l6, %i0
    6f08:	7f ff f6 d7 	call  4a64 <__srefill>
    6f0c:	90 10 00 19 	mov  %i1, %o0
    6f10:	80 a2 20 00 	cmp  %o0, 0
    6f14:	22 bf ff f0 	be,a   6ed4 <__svfscanf_r+0xc0>
    6f18:	d8 06 40 00 	ld  [ %i1 ], %o4
    6f1c:	b0 95 a0 00 	orcc  %l6, 0, %i0
    6f20:	12 80 02 c5 	bne  7a34 <__svfscanf_r+0xc20>
    6f24:	01 00 00 00 	nop 
    6f28:	10 80 02 c3 	b  7a34 <__svfscanf_r+0xc20>
    6f2c:	b0 10 3f ff 	mov  -1, %i0	! ffffffff <LEON_REG+0x7fffffff>
    6f30:	a6 10 20 00 	clr  %l3
    6f34:	e0 4e 80 00 	ldsb  [ %i2 ], %l0
    6f38:	80 a4 20 78 	cmp  %l0, 0x78
    6f3c:	18 80 02 b3 	bgu  7a08 <__svfscanf_r+0xbf4>
    6f40:	b4 06 a0 01 	inc  %i2
    6f44:	83 2c 20 02 	sll  %l0, 2, %g1
    6f48:	1b 00 00 1a 	sethi  %hi(0x6800), %o5
    6f4c:	9a 13 63 94 	or  %o5, 0x394, %o5	! 6b94 <exponent+0x304>
    6f50:	d8 03 40 01 	ld  [ %o5 + %g1 ], %o4
    6f54:	81 c3 00 00 	jmp  %o4
    6f58:	01 00 00 00 	nop 
    6f5c:	10 bf ff f6 	b  6f34 <__svfscanf_r+0x120>
    6f60:	a6 14 e0 08 	or  %l3, 8, %l3
    6f64:	83 2d 20 02 	sll  %l4, 2, %g1
    6f68:	82 00 40 14 	add  %g1, %l4, %g1
    6f6c:	82 00 40 01 	add  %g1, %g1, %g1
    6f70:	82 00 40 10 	add  %g1, %l0, %g1
    6f74:	10 bf ff f0 	b  6f34 <__svfscanf_r+0x120>
    6f78:	a8 00 7f d0 	add  %g1, -48, %l4
    6f7c:	a6 14 e0 01 	or  %l3, 1, %l3
    6f80:	03 00 00 2f 	sethi  %hi(0xbc00), %g1
    6f84:	82 10 62 00 	or  %g1, 0x200, %g1	! be00 <_strtol_r>
    6f88:	c2 27 bd 94 	st  %g1, [ %fp + -620 ]
    6f8c:	a0 10 20 03 	mov  3, %l0
    6f90:	ae 10 20 0a 	mov  0xa, %l7
    6f94:	c2 06 60 04 	ld  [ %i1 + 4 ], %g1
    6f98:	80 a0 60 00 	cmp  %g1, 0
    6f9c:	04 80 02 53 	ble  78e8 <__svfscanf_r+0xad4>
    6fa0:	80 8c e0 20 	btst  0x20, %l3
    6fa4:	12 80 00 1a 	bne  700c <__svfscanf_r+0x1f8>
    6fa8:	80 a4 20 04 	cmp  %l0, 4
    6fac:	d8 06 40 00 	ld  [ %i1 ], %o4
    6fb0:	2b 00 00 3a 	sethi  %hi(0xe800), %l5
    6fb4:	da 0b 00 00 	ldub  [ %o4 ], %o5
    6fb8:	96 15 60 e0 	or  %l5, 0xe0, %o3
    6fbc:	c2 0b 40 0b 	ldub  [ %o5 + %o3 ], %g1
    6fc0:	80 88 60 08 	btst  8, %g1
    6fc4:	02 80 00 12 	be  700c <__svfscanf_r+0x1f8>
    6fc8:	80 a4 20 04 	cmp  %l0, 4
    6fcc:	a4 10 00 0b 	mov  %o3, %l2
    6fd0:	c2 06 60 04 	ld  [ %i1 + 4 ], %g1
    6fd4:	a2 04 60 01 	inc  %l1
    6fd8:	82 00 7f ff 	add  %g1, -1, %g1
    6fdc:	80 a0 60 00 	cmp  %g1, 0
    6fe0:	04 80 02 3b 	ble  78cc <__svfscanf_r+0xab8>
    6fe4:	c2 26 60 04 	st  %g1, [ %i1 + 4 ]
    6fe8:	82 03 20 01 	add  %o4, 1, %g1
    6fec:	c2 26 40 00 	st  %g1, [ %i1 ]
    6ff0:	d8 06 40 00 	ld  [ %i1 ], %o4
    6ff4:	c2 0b 00 00 	ldub  [ %o4 ], %g1
    6ff8:	da 08 40 12 	ldub  [ %g1 + %l2 ], %o5
    6ffc:	80 8b 60 08 	btst  8, %o5
    7000:	32 bf ff f5 	bne,a   6fd4 <__svfscanf_r+0x1c0>
    7004:	c2 06 60 04 	ld  [ %i1 + 4 ], %g1
    7008:	80 a4 20 04 	cmp  %l0, 4
    700c:	38 bf ff 89 	bgu,a   6e30 <__svfscanf_r+0x1c>
    7010:	d8 4e 80 00 	ldsb  [ %i2 ], %o4
    7014:	83 2c 20 02 	sll  %l0, 2, %g1
    7018:	1b 00 00 1a 	sethi  %hi(0x6800), %o5
    701c:	9a 13 63 80 	or  %o5, 0x380, %o5	! 6b80 <exponent+0x2f0>
    7020:	d8 03 40 01 	ld  [ %o5 + %g1 ], %o4
    7024:	81 c3 00 00 	jmp  %o4
    7028:	01 00 00 00 	nop 
    702c:	80 a5 20 00 	cmp  %l4, 0
    7030:	22 80 00 02 	be,a   7038 <__svfscanf_r+0x224>
    7034:	a8 10 20 01 	mov  1, %l4
    7038:	80 8c e0 08 	btst  8, %l3
    703c:	02 80 00 1b 	be  70a8 <__svfscanf_r+0x294>
    7040:	a4 10 20 00 	clr  %l2
    7044:	e0 06 60 04 	ld  [ %i1 + 4 ], %l0
    7048:	80 a4 00 14 	cmp  %l0, %l4
    704c:	16 80 00 10 	bge  708c <__svfscanf_r+0x278>
    7050:	90 10 00 19 	mov  %i1, %o0
    7054:	c2 06 40 00 	ld  [ %i1 ], %g1
    7058:	82 00 40 10 	add  %g1, %l0, %g1
    705c:	a4 04 80 10 	add  %l2, %l0, %l2
    7060:	c2 26 40 00 	st  %g1, [ %i1 ]
    7064:	7f ff f6 80 	call  4a64 <__srefill>
    7068:	a8 25 00 10 	sub  %l4, %l0, %l4
    706c:	80 a2 20 00 	cmp  %o0, 0
    7070:	22 bf ff f6 	be,a   7048 <__svfscanf_r+0x234>
    7074:	e0 06 60 04 	ld  [ %i1 + 4 ], %l0
    7078:	80 a4 a0 00 	cmp  %l2, 0
    707c:	02 bf ff a9 	be  6f20 <__svfscanf_r+0x10c>
    7080:	b0 95 a0 00 	orcc  %l6, 0, %i0
    7084:	10 bf ff 6a 	b  6e2c <__svfscanf_r+0x18>
    7088:	a2 04 40 12 	add  %l1, %l2, %l1
    708c:	c2 06 40 00 	ld  [ %i1 ], %g1
    7090:	9a 24 00 14 	sub  %l0, %l4, %o5
    7094:	82 00 40 14 	add  %g1, %l4, %g1
    7098:	da 26 60 04 	st  %o5, [ %i1 + 4 ]
    709c:	c2 26 40 00 	st  %g1, [ %i1 ]
    70a0:	10 bf ff f9 	b  7084 <__svfscanf_r+0x270>
    70a4:	a4 04 80 14 	add  %l2, %l4, %l2
    70a8:	d0 06 c0 00 	ld  [ %i3 ], %o0
    70ac:	94 10 00 14 	mov  %l4, %o2
    70b0:	92 10 20 01 	mov  1, %o1
    70b4:	96 10 00 19 	mov  %i1, %o3
    70b8:	40 00 08 62 	call  9240 <fread>
    70bc:	b6 06 e0 04 	add  %i3, 4, %i3
    70c0:	80 a2 20 00 	cmp  %o0, 0
    70c4:	02 bf ff 97 	be  6f20 <__svfscanf_r+0x10c>
    70c8:	b0 95 a0 00 	orcc  %l6, 0, %i0
    70cc:	a2 04 40 08 	add  %l1, %o0, %l1
    70d0:	10 bf ff 57 	b  6e2c <__svfscanf_r+0x18>
    70d4:	ac 05 a0 01 	inc  %l6
    70d8:	80 a5 20 00 	cmp  %l4, 0
    70dc:	22 80 00 02 	be,a   70e4 <__svfscanf_r+0x2d0>
    70e0:	a8 10 3f ff 	mov  -1, %l4
    70e4:	80 8c e0 08 	btst  8, %l3
    70e8:	22 80 00 2b 	be,a   7194 <__svfscanf_r+0x380>
    70ec:	d6 06 40 00 	ld  [ %i1 ], %o3
    70f0:	d8 06 40 00 	ld  [ %i1 ], %o4
    70f4:	a4 07 bf f8 	add  %fp, -8, %l2
    70f8:	c2 0b 00 00 	ldub  [ %o4 ], %g1
    70fc:	82 04 80 01 	add  %l2, %g1, %g1
    7100:	da 48 7f 00 	ldsb  [ %g1 + -256 ], %o5
    7104:	80 a3 60 00 	cmp  %o5, 0
    7108:	02 bf ff 7e 	be  6f00 <__svfscanf_r+0xec>
    710c:	a0 10 20 00 	clr  %l0
    7110:	da 06 60 04 	ld  [ %i1 + 4 ], %o5
    7114:	82 03 20 01 	add  %o4, 1, %g1
    7118:	9a 03 7f ff 	add  %o5, -1, %o5
    711c:	c2 26 40 00 	st  %g1, [ %i1 ]
    7120:	da 26 60 04 	st  %o5, [ %i1 + 4 ]
    7124:	a8 85 3f ff 	addcc  %l4, -1, %l4
    7128:	02 80 00 0c 	be  7158 <__svfscanf_r+0x344>
    712c:	a0 04 20 01 	inc  %l0
    7130:	80 a3 60 00 	cmp  %o5, 0
    7134:	04 80 00 0e 	ble  716c <__svfscanf_r+0x358>
    7138:	01 00 00 00 	nop 
    713c:	d8 06 40 00 	ld  [ %i1 ], %o4
    7140:	c2 0b 00 00 	ldub  [ %o4 ], %g1
    7144:	82 04 80 01 	add  %l2, %g1, %g1
    7148:	da 48 7f 00 	ldsb  [ %g1 + -256 ], %o5
    714c:	80 a3 60 00 	cmp  %o5, 0
    7150:	32 bf ff f1 	bne,a   7114 <__svfscanf_r+0x300>
    7154:	da 06 60 04 	ld  [ %i1 + 4 ], %o5
    7158:	80 a4 20 00 	cmp  %l0, 0
    715c:	02 80 02 36 	be  7a34 <__svfscanf_r+0xc20>
    7160:	b0 10 00 16 	mov  %l6, %i0
    7164:	10 bf ff 32 	b  6e2c <__svfscanf_r+0x18>
    7168:	a2 04 40 10 	add  %l1, %l0, %l1
    716c:	7f ff f6 3e 	call  4a64 <__srefill>
    7170:	90 10 00 19 	mov  %i1, %o0
    7174:	80 a2 20 00 	cmp  %o0, 0
    7178:	22 bf ff f2 	be,a   7140 <__svfscanf_r+0x32c>
    717c:	d8 06 40 00 	ld  [ %i1 ], %o4
    7180:	80 a4 20 00 	cmp  %l0, 0
    7184:	32 bf ff 2a 	bne,a   6e2c <__svfscanf_r+0x18>
    7188:	a2 04 40 10 	add  %l1, %l0, %l1
    718c:	10 bf ff 65 	b  6f20 <__svfscanf_r+0x10c>
    7190:	b0 95 a0 00 	orcc  %l6, 0, %i0
    7194:	e4 06 c0 00 	ld  [ %i3 ], %l2
    7198:	da 0a c0 00 	ldub  [ %o3 ], %o5
    719c:	a6 07 bf f8 	add  %fp, -8, %l3
    71a0:	9a 04 c0 0d 	add  %l3, %o5, %o5
    71a4:	c2 4b 7f 00 	ldsb  [ %o5 + -256 ], %g1
    71a8:	b6 06 e0 04 	add  %i3, 4, %i3
    71ac:	80 a0 60 00 	cmp  %g1, 0
    71b0:	02 80 00 17 	be  720c <__svfscanf_r+0x3f8>
    71b4:	a0 10 00 12 	mov  %l2, %l0
    71b8:	c2 06 60 04 	ld  [ %i1 + 4 ], %g1
    71bc:	98 02 e0 01 	add  %o3, 1, %o4
    71c0:	82 00 7f ff 	add  %g1, -1, %g1
    71c4:	c2 26 60 04 	st  %g1, [ %i1 + 4 ]
    71c8:	da 0a c0 00 	ldub  [ %o3 ], %o5
    71cc:	a8 85 3f ff 	addcc  %l4, -1, %l4
    71d0:	da 2c 80 00 	stb  %o5, [ %l2 ]
    71d4:	d8 26 40 00 	st  %o4, [ %i1 ]
    71d8:	02 80 00 0d 	be  720c <__svfscanf_r+0x3f8>
    71dc:	a4 04 a0 01 	inc  %l2
    71e0:	c2 06 60 04 	ld  [ %i1 + 4 ], %g1
    71e4:	80 a0 60 00 	cmp  %g1, 0
    71e8:	04 80 00 0f 	ble  7224 <__svfscanf_r+0x410>
    71ec:	01 00 00 00 	nop 
    71f0:	d6 06 40 00 	ld  [ %i1 ], %o3
    71f4:	c2 0a c0 00 	ldub  [ %o3 ], %g1
    71f8:	82 04 c0 01 	add  %l3, %g1, %g1
    71fc:	da 48 7f 00 	ldsb  [ %g1 + -256 ], %o5
    7200:	80 a3 60 00 	cmp  %o5, 0
    7204:	32 bf ff ee 	bne,a   71bc <__svfscanf_r+0x3a8>
    7208:	c2 06 60 04 	ld  [ %i1 + 4 ], %g1
    720c:	a0 a4 80 10 	subcc  %l2, %l0, %l0
    7210:	02 80 02 09 	be  7a34 <__svfscanf_r+0xc20>
    7214:	b0 10 00 16 	mov  %l6, %i0
    7218:	c0 2c 80 00 	clrb  [ %l2 ]
    721c:	10 bf ff d2 	b  7164 <__svfscanf_r+0x350>
    7220:	ac 05 a0 01 	inc  %l6
    7224:	7f ff f6 10 	call  4a64 <__srefill>
    7228:	90 10 00 19 	mov  %i1, %o0
    722c:	80 a2 20 00 	cmp  %o0, 0
    7230:	22 bf ff f1 	be,a   71f4 <__svfscanf_r+0x3e0>
    7234:	d6 06 40 00 	ld  [ %i1 ], %o3
    7238:	80 a4 80 10 	cmp  %l2, %l0
    723c:	32 bf ff f5 	bne,a   7210 <__svfscanf_r+0x3fc>
    7240:	a0 a4 80 10 	subcc  %l2, %l0, %l0
    7244:	10 bf ff 37 	b  6f20 <__svfscanf_r+0x10c>
    7248:	b0 95 a0 00 	orcc  %l6, 0, %i0
    724c:	80 a5 20 00 	cmp  %l4, 0
    7250:	22 80 00 02 	be,a   7258 <__svfscanf_r+0x444>
    7254:	a8 10 3f ff 	mov  -1, %l4
    7258:	80 8c e0 08 	btst  8, %l3
    725c:	02 80 00 24 	be  72ec <__svfscanf_r+0x4d8>
    7260:	d6 06 40 00 	ld  [ %i1 ], %o3
    7264:	2b 00 00 3a 	sethi  %hi(0xe800), %l5
    7268:	c2 0a c0 00 	ldub  [ %o3 ], %g1
    726c:	9a 15 60 e0 	or  %l5, 0xe0, %o5
    7270:	d8 08 40 0d 	ldub  [ %g1 + %o5 ], %o4
    7274:	80 8b 20 08 	btst  8, %o4
    7278:	12 bf ff bb 	bne  7164 <__svfscanf_r+0x350>
    727c:	a0 10 20 00 	clr  %l0
    7280:	da 06 60 04 	ld  [ %i1 + 4 ], %o5
    7284:	82 02 e0 01 	add  %o3, 1, %g1
    7288:	9a 03 7f ff 	add  %o5, -1, %o5
    728c:	c2 26 40 00 	st  %g1, [ %i1 ]
    7290:	da 26 60 04 	st  %o5, [ %i1 + 4 ]
    7294:	a8 85 3f ff 	addcc  %l4, -1, %l4
    7298:	02 bf ff b3 	be  7164 <__svfscanf_r+0x350>
    729c:	a0 04 20 01 	inc  %l0
    72a0:	80 a3 60 00 	cmp  %o5, 0
    72a4:	04 80 00 0b 	ble  72d0 <__svfscanf_r+0x4bc>
    72a8:	01 00 00 00 	nop 
    72ac:	d6 06 40 00 	ld  [ %i1 ], %o3
    72b0:	82 15 60 e0 	or  %l5, 0xe0, %g1
    72b4:	da 0a c0 00 	ldub  [ %o3 ], %o5
    72b8:	d8 0b 40 01 	ldub  [ %o5 + %g1 ], %o4
    72bc:	80 8b 20 08 	btst  8, %o4
    72c0:	22 bf ff f1 	be,a   7284 <__svfscanf_r+0x470>
    72c4:	da 06 60 04 	ld  [ %i1 + 4 ], %o5
    72c8:	10 bf fe d9 	b  6e2c <__svfscanf_r+0x18>
    72cc:	a2 04 40 10 	add  %l1, %l0, %l1
    72d0:	7f ff f5 e5 	call  4a64 <__srefill>
    72d4:	90 10 00 19 	mov  %i1, %o0
    72d8:	80 a2 20 00 	cmp  %o0, 0
    72dc:	22 bf ff f5 	be,a   72b0 <__svfscanf_r+0x49c>
    72e0:	d6 06 40 00 	ld  [ %i1 ], %o3
    72e4:	10 bf fe d2 	b  6e2c <__svfscanf_r+0x18>
    72e8:	a2 04 40 10 	add  %l1, %l0, %l1
    72ec:	e4 06 c0 00 	ld  [ %i3 ], %l2
    72f0:	d8 0a c0 00 	ldub  [ %o3 ], %o4
    72f4:	2b 00 00 3a 	sethi  %hi(0xe800), %l5
    72f8:	82 15 60 e0 	or  %l5, 0xe0, %g1	! e8e0 <_ctype_+0x1>
    72fc:	da 0b 00 01 	ldub  [ %o4 + %g1 ], %o5
    7300:	b6 06 e0 04 	add  %i3, 4, %i3
    7304:	80 8b 60 08 	btst  8, %o5
    7308:	12 80 00 17 	bne  7364 <__svfscanf_r+0x550>
    730c:	a0 10 00 12 	mov  %l2, %l0
    7310:	c2 06 60 04 	ld  [ %i1 + 4 ], %g1
    7314:	98 02 e0 01 	add  %o3, 1, %o4
    7318:	82 00 7f ff 	add  %g1, -1, %g1
    731c:	c2 26 60 04 	st  %g1, [ %i1 + 4 ]
    7320:	da 0a c0 00 	ldub  [ %o3 ], %o5
    7324:	a8 85 3f ff 	addcc  %l4, -1, %l4
    7328:	da 2c 80 00 	stb  %o5, [ %l2 ]
    732c:	d8 26 40 00 	st  %o4, [ %i1 ]
    7330:	02 80 00 0d 	be  7364 <__svfscanf_r+0x550>
    7334:	a4 04 a0 01 	inc  %l2
    7338:	c2 06 60 04 	ld  [ %i1 + 4 ], %g1
    733c:	80 a0 60 00 	cmp  %g1, 0
    7340:	04 80 00 0d 	ble  7374 <__svfscanf_r+0x560>
    7344:	01 00 00 00 	nop 
    7348:	d6 06 40 00 	ld  [ %i1 ], %o3
    734c:	82 15 60 e0 	or  %l5, 0xe0, %g1
    7350:	da 0a c0 00 	ldub  [ %o3 ], %o5
    7354:	d8 0b 40 01 	ldub  [ %o5 + %g1 ], %o4
    7358:	80 8b 20 08 	btst  8, %o4
    735c:	22 bf ff ee 	be,a   7314 <__svfscanf_r+0x500>
    7360:	c2 06 60 04 	ld  [ %i1 + 4 ], %g1
    7364:	82 24 80 10 	sub  %l2, %l0, %g1
    7368:	c0 2c 80 00 	clrb  [ %l2 ]
    736c:	10 bf ff 59 	b  70d0 <__svfscanf_r+0x2bc>
    7370:	a2 04 40 01 	add  %l1, %g1, %l1
    7374:	7f ff f5 bc 	call  4a64 <__srefill>
    7378:	90 10 00 19 	mov  %i1, %o0
    737c:	80 a2 20 00 	cmp  %o0, 0
    7380:	22 bf ff f3 	be,a   734c <__svfscanf_r+0x538>
    7384:	d6 06 40 00 	ld  [ %i1 ], %o3
    7388:	10 bf ff f8 	b  7368 <__svfscanf_r+0x554>
    738c:	82 24 80 10 	sub  %l2, %l0, %g1
    7390:	a8 05 3f ff 	add  %l4, -1, %l4
    7394:	80 a5 21 5c 	cmp  %l4, 0x15c
    7398:	38 80 00 02 	bgu,a   73a0 <__svfscanf_r+0x58c>
    739c:	a8 10 21 5c 	mov  0x15c, %l4
    73a0:	a6 14 e2 c0 	or  %l3, 0x2c0, %l3
    73a4:	a8 85 20 01 	inccc  %l4
    73a8:	02 80 00 23 	be  7434 <__svfscanf_r+0x620>
    73ac:	a4 07 bd 98 	add  %fp, -616, %l2
    73b0:	c2 06 40 00 	ld  [ %i1 ], %g1
    73b4:	e0 08 40 00 	ldub  [ %g1 ], %l0
    73b8:	82 04 3f d5 	add  %l0, -43, %g1
    73bc:	80 a0 60 4d 	cmp  %g1, 0x4d
    73c0:	18 80 00 1d 	bgu  7434 <__svfscanf_r+0x620>
    73c4:	83 28 60 02 	sll  %g1, 2, %g1
    73c8:	1b 00 00 1a 	sethi  %hi(0x6800), %o5
    73cc:	9a 13 62 48 	or  %o5, 0x248, %o5	! 6a48 <exponent+0x1b8>
    73d0:	d8 03 40 01 	ld  [ %o5 + %g1 ], %o4
    73d4:	81 c3 00 00 	jmp  %o4
    73d8:	01 00 00 00 	nop 
    73dc:	80 a5 e0 00 	cmp  %l7, 0
    73e0:	12 80 00 05 	bne  73f4 <__svfscanf_r+0x5e0>
    73e4:	80 8c e2 00 	btst  0x200, %l3
    73e8:	ae 10 20 08 	mov  8, %l7
    73ec:	a6 14 e1 00 	or  %l3, 0x100, %l3
    73f0:	80 8c e2 00 	btst  0x200, %l3
    73f4:	22 80 00 03 	be,a   7400 <__svfscanf_r+0x5ec>
    73f8:	a6 0c fe 3f 	and  %l3, -449, %l3
    73fc:	a6 0c fd 3f 	and  %l3, -705, %l3
    7400:	e0 2c 80 00 	stb  %l0, [ %l2 ]
    7404:	c2 06 60 04 	ld  [ %i1 + 4 ], %g1
    7408:	a4 04 a0 01 	inc  %l2
    740c:	82 00 7f ff 	add  %g1, -1, %g1
    7410:	80 a0 60 00 	cmp  %g1, 0
    7414:	04 80 00 59 	ble  7578 <__svfscanf_r+0x764>
    7418:	c2 26 60 04 	st  %g1, [ %i1 + 4 ]
    741c:	c2 06 40 00 	ld  [ %i1 ], %g1
    7420:	82 00 60 01 	inc  %g1
    7424:	c2 26 40 00 	st  %g1, [ %i1 ]
    7428:	a8 85 3f ff 	addcc  %l4, -1, %l4
    742c:	32 bf ff e2 	bne,a   73b4 <__svfscanf_r+0x5a0>
    7430:	c2 06 40 00 	ld  [ %i1 ], %g1
    7434:	80 8c e0 80 	btst  0x80, %l3
    7438:	12 80 00 48 	bne  7558 <__svfscanf_r+0x744>
    743c:	82 07 bd 98 	add  %fp, -616, %g1
    7440:	e0 4c bf ff 	ldsb  [ %l2 + -1 ], %l0
    7444:	82 1c 20 78 	xor  %l0, 0x78, %g1
    7448:	80 a0 00 01 	cmp  %g0, %g1
    744c:	82 1c 20 58 	xor  %l0, 0x58, %g1
    7450:	98 60 3f ff 	subx  %g0, -1, %o4
    7454:	80 a0 00 01 	cmp  %g0, %g1
    7458:	9a 60 3f ff 	subx  %g0, -1, %o5
    745c:	80 93 00 0d 	orcc  %o4, %o5, %g0
    7460:	12 80 00 39 	bne  7544 <__svfscanf_r+0x730>
    7464:	90 10 00 10 	mov  %l0, %o0
    7468:	80 8c e0 08 	btst  8, %l3
    746c:	22 80 00 06 	be,a   7484 <__svfscanf_r+0x670>
    7470:	c0 2c 80 00 	clrb  [ %l2 ]
    7474:	9a 07 bd 98 	add  %fp, -616, %o5
    7478:	82 24 80 0d 	sub  %l2, %o5, %g1
    747c:	10 bf fe 6c 	b  6e2c <__svfscanf_r+0x18>
    7480:	a2 04 40 01 	add  %l1, %g1, %l1
    7484:	d0 07 a0 44 	ld  [ %fp + 0x44 ], %o0
    7488:	da 07 bd 94 	ld  [ %fp + -620 ], %o5
    748c:	92 07 bd 98 	add  %fp, -616, %o1
    7490:	94 10 20 00 	clr  %o2
    7494:	9f c3 40 00 	call  %o5
    7498:	96 10 00 17 	mov  %l7, %o3
    749c:	80 8c e0 10 	btst  0x10, %l3
    74a0:	02 80 00 07 	be  74bc <__svfscanf_r+0x6a8>
    74a4:	80 8c e0 04 	btst  4, %l3
    74a8:	da 06 c0 00 	ld  [ %i3 ], %o5
    74ac:	b6 06 e0 04 	add  %i3, 4, %i3
    74b0:	d0 23 40 00 	st  %o0, [ %o5 ]
    74b4:	10 bf ff f0 	b  7474 <__svfscanf_r+0x660>
    74b8:	ac 05 a0 01 	inc  %l6
    74bc:	02 80 00 06 	be  74d4 <__svfscanf_r+0x6c0>
    74c0:	80 8c e0 01 	btst  1, %l3
    74c4:	c2 06 c0 00 	ld  [ %i3 ], %g1
    74c8:	b6 06 e0 04 	add  %i3, 4, %i3
    74cc:	10 bf ff fa 	b  74b4 <__svfscanf_r+0x6a0>
    74d0:	d0 30 40 00 	sth  %o0, [ %g1 ]
    74d4:	32 80 00 19 	bne,a   7538 <__svfscanf_r+0x724>
    74d8:	c2 06 c0 00 	ld  [ %i3 ], %g1
    74dc:	80 8c e0 02 	btst  2, %l3
    74e0:	22 80 00 16 	be,a   7538 <__svfscanf_r+0x724>
    74e4:	c2 06 c0 00 	ld  [ %i3 ], %g1
    74e8:	da 07 bd 94 	ld  [ %fp + -620 ], %o5
    74ec:	03 00 00 30 	sethi  %hi(0xc000), %g1
    74f0:	82 10 62 7c 	or  %g1, 0x27c, %g1	! c27c <_strtoul_r>
    74f4:	80 a3 40 01 	cmp  %o5, %g1
    74f8:	02 80 00 0a 	be  7520 <__svfscanf_r+0x70c>
    74fc:	94 10 20 00 	clr  %o2
    7500:	d0 07 a0 44 	ld  [ %fp + 0x44 ], %o0
    7504:	92 07 bd 98 	add  %fp, -616, %o1
    7508:	40 00 11 9f 	call  bb84 <_strtoll_r>
    750c:	96 10 00 17 	mov  %l7, %o3
    7510:	c2 06 c0 00 	ld  [ %i3 ], %g1
    7514:	b6 06 e0 04 	add  %i3, 4, %i3
    7518:	10 bf ff e7 	b  74b4 <__svfscanf_r+0x6a0>
    751c:	d0 38 40 00 	std  %o0, [ %g1 ]
    7520:	d0 07 a0 44 	ld  [ %fp + 0x44 ], %o0
    7524:	92 07 bd 98 	add  %fp, -616, %o1
    7528:	40 00 12 c2 	call  c030 <_strtoull_r>
    752c:	96 10 00 17 	mov  %l7, %o3
    7530:	10 bf ff f9 	b  7514 <__svfscanf_r+0x700>
    7534:	c2 06 c0 00 	ld  [ %i3 ], %g1
    7538:	b6 06 e0 04 	add  %i3, 4, %i3
    753c:	10 bf ff de 	b  74b4 <__svfscanf_r+0x6a0>
    7540:	d0 20 40 00 	st  %o0, [ %g1 ]
    7544:	a4 04 bf ff 	add  %l2, -1, %l2
    7548:	40 00 13 fe 	call  c540 <ungetc>
    754c:	92 10 00 19 	mov  %i1, %o1
    7550:	10 bf ff c7 	b  746c <__svfscanf_r+0x658>
    7554:	80 8c e0 08 	btst  8, %l3
    7558:	80 a4 80 01 	cmp  %l2, %g1
    755c:	28 80 01 36 	bleu,a   7a34 <__svfscanf_r+0xc20>
    7560:	b0 10 00 16 	mov  %l6, %i0
    7564:	d0 4c bf ff 	ldsb  [ %l2 + -1 ], %o0
    7568:	40 00 13 f6 	call  c540 <ungetc>
    756c:	92 10 00 19 	mov  %i1, %o1
    7570:	10 80 01 31 	b  7a34 <__svfscanf_r+0xc20>
    7574:	b0 10 00 16 	mov  %l6, %i0
    7578:	7f ff f5 3b 	call  4a64 <__srefill>
    757c:	90 10 00 19 	mov  %i1, %o0
    7580:	80 a2 20 00 	cmp  %o0, 0
    7584:	22 bf ff aa 	be,a   742c <__svfscanf_r+0x618>
    7588:	a8 85 3f ff 	addcc  %l4, -1, %l4
    758c:	10 bf ff ab 	b  7438 <__svfscanf_r+0x624>
    7590:	80 8c e0 80 	btst  0x80, %l3
    7594:	10 bf ff 9b 	b  7400 <__svfscanf_r+0x5ec>
    7598:	a6 0c fe 3f 	and  %l3, -449, %l3
    759c:	80 8c e0 40 	btst  0x40, %l3
    75a0:	02 bf ff a6 	be  7438 <__svfscanf_r+0x624>
    75a4:	80 8c e0 80 	btst  0x80, %l3
    75a8:	10 bf ff 96 	b  7400 <__svfscanf_r+0x5ec>
    75ac:	a6 0c ff bf 	and  %l3, -65, %l3
    75b0:	9a 05 c0 17 	add  %l7, %l7, %o5
    75b4:	03 00 00 3a 	sethi  %hi(0xe800), %g1
    75b8:	82 10 60 30 	or  %g1, 0x30, %g1	! e830 <basefix.0>
    75bc:	10 bf ff f6 	b  7594 <__svfscanf_r+0x780>
    75c0:	ee 50 40 0d 	ldsh  [ %g1 + %o5 ], %l7
    75c4:	9a 05 c0 17 	add  %l7, %l7, %o5
    75c8:	03 00 00 3a 	sethi  %hi(0xe800), %g1
    75cc:	82 10 60 30 	or  %g1, 0x30, %g1	! e830 <basefix.0>
    75d0:	ee 50 40 0d 	ldsh  [ %g1 + %o5 ], %l7
    75d4:	80 a5 e0 08 	cmp  %l7, 8
    75d8:	34 bf ff 8a 	bg,a   7400 <__svfscanf_r+0x5ec>
    75dc:	a6 0c fe 3f 	and  %l3, -449, %l3
    75e0:	10 bf ff 96 	b  7438 <__svfscanf_r+0x624>
    75e4:	80 8c e0 80 	btst  0x80, %l3
    75e8:	10 bf ff fc 	b  75d8 <__svfscanf_r+0x7c4>
    75ec:	80 a5 e0 0a 	cmp  %l7, 0xa
    75f0:	80 8c e1 00 	btst  0x100, %l3
    75f4:	02 bf ff 90 	be  7434 <__svfscanf_r+0x620>
    75f8:	82 07 bd 99 	add  %fp, -615, %g1
    75fc:	80 a4 80 01 	cmp  %l2, %g1
    7600:	12 bf ff 8e 	bne  7438 <__svfscanf_r+0x624>
    7604:	80 8c e0 80 	btst  0x80, %l3
    7608:	ae 10 20 10 	mov  0x10, %l7
    760c:	10 bf ff 7d 	b  7400 <__svfscanf_r+0x5ec>
    7610:	a6 0c fe ff 	and  %l3, -257, %l3
    7614:	a8 05 3f ff 	add  %l4, -1, %l4
    7618:	b0 10 20 00 	clr  %i0
    761c:	80 a5 21 5c 	cmp  %l4, 0x15c
    7620:	08 80 00 03 	bleu  762c <__svfscanf_r+0x818>
    7624:	b8 10 20 00 	clr  %i4
    7628:	a8 10 21 5c 	mov  0x15c, %l4
    762c:	a6 14 e3 c0 	or  %l3, 0x3c0, %l3
    7630:	aa 10 20 00 	clr  %l5
    7634:	ba 10 20 00 	clr  %i5
    7638:	a8 85 20 01 	inccc  %l4
    763c:	02 80 00 23 	be  76c8 <__svfscanf_r+0x8b4>
    7640:	a4 07 bd 98 	add  %fp, -616, %l2
    7644:	c2 06 40 00 	ld  [ %i1 ], %g1
    7648:	e0 08 40 00 	ldub  [ %g1 ], %l0
    764c:	82 04 3f d5 	add  %l0, -43, %g1
    7650:	80 a0 60 3a 	cmp  %g1, 0x3a
    7654:	18 80 00 1a 	bgu  76bc <__svfscanf_r+0x8a8>
    7658:	83 28 60 02 	sll  %g1, 2, %g1
    765c:	1b 00 00 1a 	sethi  %hi(0x6800), %o5
    7660:	9a 13 61 5c 	or  %o5, 0x15c, %o5	! 695c <exponent+0xcc>
    7664:	d8 03 40 01 	ld  [ %o5 + %g1 ], %o4
    7668:	81 c3 00 00 	jmp  %o4
    766c:	01 00 00 00 	nop 
    7670:	80 8c e0 80 	btst  0x80, %l3
    7674:	32 80 00 77 	bne,a   7850 <__svfscanf_r+0xa3c>
    7678:	a6 0c ff bf 	and  %l3, -65, %l3
    767c:	a6 0c ff 3f 	and  %l3, -193, %l3
    7680:	e0 2c 80 00 	stb  %l0, [ %l2 ]
    7684:	a8 05 3f ff 	add  %l4, -1, %l4
    7688:	a4 04 a0 01 	inc  %l2
    768c:	c2 06 60 04 	ld  [ %i1 + 4 ], %g1
    7690:	a2 04 60 01 	inc  %l1
    7694:	82 00 7f ff 	add  %g1, -1, %g1
    7698:	80 a0 60 00 	cmp  %g1, 0
    769c:	04 80 00 66 	ble  7834 <__svfscanf_r+0xa20>
    76a0:	c2 26 60 04 	st  %g1, [ %i1 + 4 ]
    76a4:	c2 06 40 00 	ld  [ %i1 ], %g1
    76a8:	82 00 60 01 	inc  %g1
    76ac:	c2 26 40 00 	st  %g1, [ %i1 ]
    76b0:	80 a5 20 00 	cmp  %l4, 0
    76b4:	32 bf ff e5 	bne,a   7648 <__svfscanf_r+0x834>
    76b8:	c2 06 40 00 	ld  [ %i1 ], %g1
    76bc:	80 a5 60 00 	cmp  %l5, 0
    76c0:	32 80 00 02 	bne,a   76c8 <__svfscanf_r+0x8b4>
    76c4:	a6 0c ff 7f 	and  %l3, -129, %l3
    76c8:	80 8c e0 80 	btst  0x80, %l3
    76cc:	02 80 00 14 	be  771c <__svfscanf_r+0x908>
    76d0:	80 8c e0 08 	btst  8, %l3
    76d4:	80 8c e2 00 	btst  0x200, %l3
    76d8:	12 80 00 4a 	bne  7800 <__svfscanf_r+0x9ec>
    76dc:	82 07 bd 98 	add  %fp, -616, %g1
    76e0:	a4 04 bf ff 	add  %l2, -1, %l2
    76e4:	e0 4c 80 00 	ldsb  [ %l2 ], %l0
    76e8:	82 1c 20 65 	xor  %l0, 0x65, %g1
    76ec:	80 a0 00 01 	cmp  %g0, %g1
    76f0:	82 1c 20 45 	xor  %l0, 0x45, %g1
    76f4:	98 40 20 00 	addx  %g0, 0, %o4
    76f8:	80 a0 00 01 	cmp  %g0, %g1
    76fc:	9a 40 20 00 	addx  %g0, 0, %o5
    7700:	80 8b 00 0d 	btst  %o4, %o5
    7704:	12 80 00 38 	bne  77e4 <__svfscanf_r+0x9d0>
    7708:	a2 04 7f ff 	add  %l1, -1, %l1
    770c:	90 10 00 10 	mov  %l0, %o0
    7710:	40 00 13 8c 	call  c540 <ungetc>
    7714:	92 10 00 19 	mov  %i1, %o1
    7718:	80 8c e0 08 	btst  8, %l3
    771c:	32 bf fd c5 	bne,a   6e30 <__svfscanf_r+0x1c>
    7720:	d8 4e 80 00 	ldsb  [ %i2 ], %o4
    7724:	82 0c e3 00 	and  %l3, 0x300, %g1
    7728:	80 a0 62 00 	cmp  %g1, 0x200
    772c:	02 80 00 2a 	be  77d4 <__svfscanf_r+0x9c0>
    7730:	c0 2c 80 00 	clrb  [ %l2 ]
    7734:	80 a7 60 00 	cmp  %i5, 0
    7738:	12 80 00 15 	bne  778c <__svfscanf_r+0x978>
    773c:	d0 07 a0 44 	ld  [ %fp + 0x44 ], %o0
    7740:	94 10 20 00 	clr  %o2
    7744:	40 00 0d 22 	call  abcc <_strtod_r>
    7748:	92 07 bd 98 	add  %fp, -616, %o1
    774c:	80 8c e0 01 	btst  1, %l3
    7750:	94 10 00 08 	mov  %o0, %o2
    7754:	12 80 00 05 	bne  7768 <__svfscanf_r+0x954>
    7758:	96 10 00 09 	mov  %o1, %o3
    775c:	80 8c e0 02 	btst  2, %l3
    7760:	02 80 00 06 	be  7778 <__svfscanf_r+0x964>
    7764:	01 00 00 00 	nop 
    7768:	da 06 c0 00 	ld  [ %i3 ], %o5
    776c:	b6 06 e0 04 	add  %i3, 4, %i3
    7770:	10 bf fe 58 	b  70d0 <__svfscanf_r+0x2bc>
    7774:	d4 3b 40 00 	std  %o2, [ %o5 ]
    7778:	40 00 19 1e 	call  dbf0 <__truncdfsf2>
    777c:	e0 06 c0 00 	ld  [ %i3 ], %l0
    7780:	b6 06 e0 04 	add  %i3, 4, %i3
    7784:	10 bf fe 53 	b  70d0 <__svfscanf_r+0x2bc>
    7788:	d0 24 00 00 	st  %o0, [ %l0 ]
    778c:	94 10 20 00 	clr  %o2
    7790:	92 07 20 01 	add  %i4, 1, %o1
    7794:	40 00 11 9b 	call  be00 <_strtol_r>
    7798:	96 10 20 0a 	mov  0xa, %o3
    779c:	94 22 00 1d 	sub  %o0, %i5, %o2
    77a0:	80 a7 60 00 	cmp  %i5, 0
    77a4:	02 bf ff e7 	be  7740 <__svfscanf_r+0x92c>
    77a8:	d0 07 a0 44 	ld  [ %fp + 0x44 ], %o0
    77ac:	82 07 be eb 	add  %fp, -277, %g1
    77b0:	80 a7 00 01 	cmp  %i4, %g1
    77b4:	3a 80 00 02 	bcc,a   77bc <__svfscanf_r+0x9a8>
    77b8:	b8 07 be ea 	add  %fp, -278, %i4
    77bc:	13 00 00 3a 	sethi  %hi(0xe800), %o1
    77c0:	90 10 00 1c 	mov  %i4, %o0
    77c4:	40 00 0c 66 	call  a95c <sprintf>
    77c8:	92 12 60 58 	or  %o1, 0x58, %o1
    77cc:	10 bf ff dd 	b  7740 <__svfscanf_r+0x92c>
    77d0:	d0 07 a0 44 	ld  [ %fp + 0x44 ], %o0
    77d4:	ba 25 40 18 	sub  %l5, %i0, %i5
    77d8:	b8 10 00 12 	mov  %l2, %i4
    77dc:	10 bf ff f1 	b  77a0 <__svfscanf_r+0x98c>
    77e0:	94 20 00 1d 	neg  %i5, %o2
    77e4:	90 10 00 10 	mov  %l0, %o0
    77e8:	92 10 00 19 	mov  %i1, %o1
    77ec:	40 00 13 55 	call  c540 <ungetc>
    77f0:	a4 04 bf ff 	add  %l2, -1, %l2
    77f4:	e0 4c 80 00 	ldsb  [ %l2 ], %l0
    77f8:	10 bf ff c5 	b  770c <__svfscanf_r+0x8f8>
    77fc:	a2 04 7f ff 	add  %l1, -1, %l1
    7800:	80 a4 80 01 	cmp  %l2, %g1
    7804:	08 80 00 8c 	bleu  7a34 <__svfscanf_r+0xc20>
    7808:	b0 10 00 16 	mov  %l6, %i0
    780c:	a4 04 bf ff 	add  %l2, -1, %l2
    7810:	d0 4c 80 00 	ldsb  [ %l2 ], %o0
    7814:	40 00 13 4b 	call  c540 <ungetc>
    7818:	92 10 00 19 	mov  %i1, %o1
    781c:	9a 07 bd 98 	add  %fp, -616, %o5
    7820:	80 a4 80 0d 	cmp  %l2, %o5
    7824:	38 bf ff fb 	bgu,a   7810 <__svfscanf_r+0x9fc>
    7828:	a4 04 bf ff 	add  %l2, -1, %l2
    782c:	10 80 00 82 	b  7a34 <__svfscanf_r+0xc20>
    7830:	b0 10 00 16 	mov  %l6, %i0
    7834:	7f ff f4 8c 	call  4a64 <__srefill>
    7838:	90 10 00 19 	mov  %i1, %o0
    783c:	80 a2 20 00 	cmp  %o0, 0
    7840:	22 bf ff 9d 	be,a   76b4 <__svfscanf_r+0x8a0>
    7844:	80 a5 20 00 	cmp  %l4, 0
    7848:	10 bf ff 9e 	b  76c0 <__svfscanf_r+0x8ac>
    784c:	80 a5 60 00 	cmp  %l5, 0
    7850:	10 bf ff 8f 	b  768c <__svfscanf_r+0x878>
    7854:	aa 05 60 01 	inc  %l5
    7858:	80 8c e0 40 	btst  0x40, %l3
    785c:	02 bf ff 99 	be  76c0 <__svfscanf_r+0x8ac>
    7860:	80 a5 60 00 	cmp  %l5, 0
    7864:	10 bf ff 87 	b  7680 <__svfscanf_r+0x86c>
    7868:	a6 0c ff bf 	and  %l3, -65, %l3
    786c:	80 8c e1 00 	btst  0x100, %l3
    7870:	02 bf ff 94 	be  76c0 <__svfscanf_r+0x8ac>
    7874:	80 a5 60 00 	cmp  %l5, 0
    7878:	a6 0c fe bf 	and  %l3, -321, %l3
    787c:	10 bf ff 81 	b  7680 <__svfscanf_r+0x86c>
    7880:	b0 10 00 15 	mov  %l5, %i0
    7884:	82 0c e2 80 	and  %l3, 0x280, %g1
    7888:	80 a0 62 00 	cmp  %g1, 0x200
    788c:	02 80 00 08 	be  78ac <__svfscanf_r+0xa98>
    7890:	80 a0 00 15 	cmp  %g0, %l5
    7894:	83 34 e0 09 	srl  %l3, 9, %g1
    7898:	9a 40 20 00 	addx  %g0, 0, %o5
    789c:	82 08 60 01 	and  %g1, 1, %g1
    78a0:	80 88 40 0d 	btst  %g1, %o5
    78a4:	02 bf ff 87 	be  76c0 <__svfscanf_r+0x8ac>
    78a8:	80 a5 60 00 	cmp  %l5, 0
    78ac:	80 8c e1 00 	btst  0x100, %l3
    78b0:	12 80 00 04 	bne  78c0 <__svfscanf_r+0xaac>
    78b4:	82 0c fc ff 	and  %l3, -769, %g1
    78b8:	ba 25 40 18 	sub  %l5, %i0, %i5
    78bc:	b8 10 00 12 	mov  %l2, %i4
    78c0:	aa 10 20 00 	clr  %l5
    78c4:	10 bf ff 6f 	b  7680 <__svfscanf_r+0x86c>
    78c8:	a6 10 60 c0 	or  %g1, 0xc0, %l3
    78cc:	7f ff f4 66 	call  4a64 <__srefill>
    78d0:	90 10 00 19 	mov  %i1, %o0
    78d4:	80 a2 20 00 	cmp  %o0, 0
    78d8:	22 bf fd c7 	be,a   6ff4 <__svfscanf_r+0x1e0>
    78dc:	d8 06 40 00 	ld  [ %i1 ], %o4
    78e0:	10 bf fd 90 	b  6f20 <__svfscanf_r+0x10c>
    78e4:	b0 95 a0 00 	orcc  %l6, 0, %i0
    78e8:	7f ff f4 5f 	call  4a64 <__srefill>
    78ec:	90 10 00 19 	mov  %i1, %o0
    78f0:	80 a2 20 00 	cmp  %o0, 0
    78f4:	22 bf fd ac 	be,a   6fa4 <__svfscanf_r+0x190>
    78f8:	80 8c e0 20 	btst  0x20, %l3
    78fc:	10 bf fd 89 	b  6f20 <__svfscanf_r+0x10c>
    7900:	b0 95 a0 00 	orcc  %l6, 0, %i0
    7904:	10 bf fd 8c 	b  6f34 <__svfscanf_r+0x120>
    7908:	a6 14 e0 02 	or  %l3, 2, %l3
    790c:	a6 14 e0 01 	or  %l3, 1, %l3
    7910:	03 00 00 30 	sethi  %hi(0xc000), %g1
    7914:	a0 10 20 03 	mov  3, %l0
    7918:	82 10 62 7c 	or  %g1, 0x27c, %g1
    791c:	ae 10 20 08 	mov  8, %l7
    7920:	10 bf fd 9d 	b  6f94 <__svfscanf_r+0x180>
    7924:	c2 27 bd 94 	st  %g1, [ %fp + -620 ]
    7928:	92 10 00 1a 	mov  %i2, %o1
    792c:	90 07 be f8 	add  %fp, -264, %o0
    7930:	40 00 00 43 	call  7a3c <__sccl>
    7934:	a6 14 e0 20 	or  %l3, 0x20, %l3
    7938:	a0 10 20 01 	mov  1, %l0
    793c:	10 bf fd 96 	b  6f94 <__svfscanf_r+0x180>
    7940:	b4 10 00 08 	mov  %o0, %i2
    7944:	a6 14 e0 20 	or  %l3, 0x20, %l3
    7948:	10 bf fd 93 	b  6f94 <__svfscanf_r+0x180>
    794c:	a0 10 20 00 	clr  %l0
    7950:	10 bf fd 91 	b  6f94 <__svfscanf_r+0x180>
    7954:	a0 10 20 04 	mov  4, %l0
    7958:	10 bf fd 77 	b  6f34 <__svfscanf_r+0x120>
    795c:	a6 14 e0 04 	or  %l3, 4, %l3
    7960:	03 00 00 2f 	sethi  %hi(0xbc00), %g1
    7964:	a0 10 20 03 	mov  3, %l0
    7968:	82 10 62 00 	or  %g1, 0x200, %g1
    796c:	10 bf ff ed 	b  7920 <__svfscanf_r+0xb0c>
    7970:	ae 10 20 00 	clr  %l7
    7974:	10 bf fd 70 	b  6f34 <__svfscanf_r+0x120>
    7978:	a6 14 e0 01 	or  %l3, 1, %l3
    797c:	80 8c e0 08 	btst  8, %l3
    7980:	32 bf fd 2c 	bne,a   6e30 <__svfscanf_r+0x1c>
    7984:	d8 4e 80 00 	ldsb  [ %i2 ], %o4
    7988:	80 8c e0 04 	btst  4, %l3
    798c:	02 80 00 06 	be  79a4 <__svfscanf_r+0xb90>
    7990:	80 8c e0 01 	btst  1, %l3
    7994:	c2 06 c0 00 	ld  [ %i3 ], %g1
    7998:	b6 06 e0 04 	add  %i3, 4, %i3
    799c:	10 bf fd 24 	b  6e2c <__svfscanf_r+0x18>
    79a0:	e2 30 40 00 	sth  %l1, [ %g1 ]
    79a4:	12 80 00 0a 	bne  79cc <__svfscanf_r+0xbb8>
    79a8:	c2 06 c0 00 	ld  [ %i3 ], %g1
    79ac:	80 8c e0 02 	btst  2, %l3
    79b0:	02 80 00 07 	be  79cc <__svfscanf_r+0xbb8>
    79b4:	01 00 00 00 	nop 
    79b8:	9a 10 00 11 	mov  %l1, %o5
    79bc:	99 3c 60 1f 	sra  %l1, 0x1f, %o4
    79c0:	b6 06 e0 04 	add  %i3, 4, %i3
    79c4:	10 bf fd 1a 	b  6e2c <__svfscanf_r+0x18>
    79c8:	d8 38 40 00 	std  %o4, [ %g1 ]
    79cc:	b6 06 e0 04 	add  %i3, 4, %i3
    79d0:	10 bf fd 17 	b  6e2c <__svfscanf_r+0x18>
    79d4:	e2 20 40 00 	st  %l1, [ %g1 ]
    79d8:	03 00 00 30 	sethi  %hi(0xc000), %g1
    79dc:	a6 14 e1 10 	or  %l3, 0x110, %l3
    79e0:	82 10 62 7c 	or  %g1, 0x27c, %g1
    79e4:	c2 27 bd 94 	st  %g1, [ %fp + -620 ]
    79e8:	a0 10 20 03 	mov  3, %l0
    79ec:	10 bf fd 6a 	b  6f94 <__svfscanf_r+0x180>
    79f0:	ae 10 20 10 	mov  0x10, %l7
    79f4:	10 bf fd 68 	b  6f94 <__svfscanf_r+0x180>
    79f8:	a0 10 20 02 	mov  2, %l0
    79fc:	03 00 00 30 	sethi  %hi(0xc000), %g1
    7a00:	10 bf fd 62 	b  6f88 <__svfscanf_r+0x174>
    7a04:	82 10 62 7c 	or  %g1, 0x27c, %g1	! c27c <_strtoul_r>
    7a08:	03 00 00 3a 	sethi  %hi(0xe800), %g1
    7a0c:	82 10 60 e0 	or  %g1, 0xe0, %g1	! e8e0 <_ctype_+0x1>
    7a10:	da 0c 00 01 	ldub  [ %l0 + %g1 ], %o5
    7a14:	80 8b 60 01 	btst  1, %o5
    7a18:	02 bf fd 5b 	be  6f84 <__svfscanf_r+0x170>
    7a1c:	03 00 00 2f 	sethi  %hi(0xbc00), %g1
    7a20:	10 bf fd 59 	b  6f84 <__svfscanf_r+0x170>
    7a24:	a6 14 e0 01 	or  %l3, 1, %l3
    7a28:	03 00 00 30 	sethi  %hi(0xc000), %g1
    7a2c:	10 bf ff ed 	b  79e0 <__svfscanf_r+0xbcc>
    7a30:	a6 14 e1 00 	or  %l3, 0x100, %l3
    7a34:	81 c7 e0 08 	ret 
    7a38:	81 e8 00 00 	restore 

00007a3c <__sccl>:
    7a3c:	da 4a 40 00 	ldsb  [ %o1 ], %o5
    7a40:	96 10 20 00 	clr  %o3
    7a44:	80 a3 60 5e 	cmp  %o5, 0x5e
    7a48:	02 80 00 2e 	be  7b00 <__sccl+0xc4>
    7a4c:	92 02 60 01 	inc  %o1
    7a50:	98 10 20 00 	clr  %o4
    7a54:	d6 2a 00 0c 	stb  %o3, [ %o0 + %o4 ]
    7a58:	98 03 20 01 	inc  %o4
    7a5c:	80 a3 20 ff 	cmp  %o4, 0xff
    7a60:	24 bf ff fe 	ble,a   7a58 <__sccl+0x1c>
    7a64:	d6 2a 00 0c 	stb  %o3, [ %o0 + %o4 ]
    7a68:	80 a3 60 00 	cmp  %o5, 0
    7a6c:	02 80 00 29 	be  7b10 <__sccl+0xd4>
    7a70:	82 02 7f ff 	add  %o1, -1, %g1
    7a74:	82 10 20 01 	mov  1, %g1
    7a78:	96 20 40 0b 	sub  %g1, %o3, %o3
    7a7c:	d6 2a 00 0d 	stb  %o3, [ %o0 + %o5 ]
    7a80:	d8 4a 40 00 	ldsb  [ %o1 ], %o4
    7a84:	80 a3 20 2d 	cmp  %o4, 0x2d
    7a88:	12 80 00 14 	bne  7ad8 <__sccl+0x9c>
    7a8c:	92 02 60 01 	inc  %o1
    7a90:	d8 4a 40 00 	ldsb  [ %o1 ], %o4
    7a94:	82 1b 20 5d 	xor  %o4, 0x5d, %g1
    7a98:	80 a0 00 01 	cmp  %g0, %g1
    7a9c:	82 60 3f ff 	subx  %g0, -1, %g1
    7aa0:	80 a3 00 0d 	cmp  %o4, %o5
    7aa4:	06 80 00 03 	bl  7ab0 <__sccl+0x74>
    7aa8:	94 10 20 01 	mov  1, %o2
    7aac:	94 10 20 00 	clr  %o2
    7ab0:	80 90 40 0a 	orcc  %g1, %o2, %g0
    7ab4:	32 bf ff f2 	bne,a   7a7c <__sccl+0x40>
    7ab8:	9a 10 20 2d 	mov  0x2d, %o5
    7abc:	92 02 60 01 	inc  %o1
    7ac0:	9a 03 60 01 	inc  %o5
    7ac4:	80 a3 40 0c 	cmp  %o5, %o4
    7ac8:	06 bf ff fe 	bl  7ac0 <__sccl+0x84>
    7acc:	d6 2a 00 0d 	stb  %o3, [ %o0 + %o5 ]
    7ad0:	10 bf ff ed 	b  7a84 <__sccl+0x48>
    7ad4:	d8 4a 40 00 	ldsb  [ %o1 ], %o4
    7ad8:	14 80 00 08 	bg  7af8 <__sccl+0xbc>
    7adc:	80 a3 20 5d 	cmp  %o4, 0x5d
    7ae0:	80 a3 20 00 	cmp  %o4, 0
    7ae4:	82 02 7f ff 	add  %o1, -1, %g1
    7ae8:	02 80 00 0a 	be  7b10 <__sccl+0xd4>
    7aec:	9a 10 00 0c 	mov  %o4, %o5
    7af0:	10 bf ff e4 	b  7a80 <__sccl+0x44>
    7af4:	d6 2a 00 0d 	stb  %o3, [ %o0 + %o5 ]
    7af8:	10 bf ff fc 	b  7ae8 <__sccl+0xac>
    7afc:	82 10 00 09 	mov  %o1, %g1
    7b00:	da 4a 40 00 	ldsb  [ %o1 ], %o5
    7b04:	96 10 20 01 	mov  1, %o3
    7b08:	10 bf ff d2 	b  7a50 <__sccl+0x14>
    7b0c:	92 02 60 01 	inc  %o1
    7b10:	81 c3 e0 08 	retl 
    7b14:	90 10 00 01 	mov  %g1, %o0

00007b18 <_write_r>:
    7b18:	9d e3 bf 98 	save  %sp, -104, %sp
    7b1c:	94 10 00 1b 	mov  %i3, %o2
    7b20:	90 10 00 19 	mov  %i1, %o0
    7b24:	92 10 00 1a 	mov  %i2, %o1
    7b28:	37 00 00 4e 	sethi  %hi(0x13800), %i3
    7b2c:	40 00 12 f5 	call  c700 <write>
    7b30:	c0 26 e1 54 	clr  [ %i3 + 0x154 ]	! 13954 <errno>
    7b34:	80 a2 3f ff 	cmp  %o0, -1
    7b38:	12 80 00 06 	bne  7b50 <_write_r+0x38>
    7b3c:	c2 06 e1 54 	ld  [ %i3 + 0x154 ], %g1
    7b40:	80 a0 60 00 	cmp  %g1, 0
    7b44:	02 80 00 03 	be  7b50 <_write_r+0x38>
    7b48:	01 00 00 00 	nop 
    7b4c:	c2 26 00 00 	st  %g1, [ %i0 ]
    7b50:	81 c7 e0 08 	ret 
    7b54:	91 e8 00 08 	restore  %g0, %o0, %o0

00007b58 <__swsetup>:
    7b58:	9d e3 bf 98 	save  %sp, -104, %sp
    7b5c:	d0 06 20 54 	ld  [ %i0 + 0x54 ], %o0
    7b60:	80 a2 20 00 	cmp  %o0, 0
    7b64:	32 80 00 07 	bne,a   7b80 <__swsetup+0x28>
    7b68:	c2 02 20 38 	ld  [ %o0 + 0x38 ], %g1
    7b6c:	03 00 00 3c 	sethi  %hi(0xf000), %g1
    7b70:	da 00 60 98 	ld  [ %g1 + 0x98 ], %o5	! f098 <_impure_ptr>
    7b74:	da 26 20 54 	st  %o5, [ %i0 + 0x54 ]
    7b78:	90 10 00 0d 	mov  %o5, %o0
    7b7c:	c2 02 20 38 	ld  [ %o0 + 0x38 ], %g1
    7b80:	80 a0 60 00 	cmp  %g1, 0
    7b84:	02 80 00 38 	be  7c64 <__swsetup+0x10c>
    7b88:	01 00 00 00 	nop 
    7b8c:	c2 16 20 0c 	lduh  [ %i0 + 0xc ], %g1
    7b90:	80 88 60 08 	btst  8, %g1
    7b94:	12 80 00 32 	bne  7c5c <__swsetup+0x104>
    7b98:	d8 16 20 0c 	lduh  [ %i0 + 0xc ], %o4
    7b9c:	80 88 60 10 	btst  0x10, %g1
    7ba0:	02 80 00 35 	be  7c74 <__swsetup+0x11c>
    7ba4:	9a 10 3f ff 	mov  -1, %o5
    7ba8:	80 88 60 04 	btst  4, %g1
    7bac:	22 80 00 14 	be,a   7bfc <__swsetup+0xa4>
    7bb0:	da 06 20 10 	ld  [ %i0 + 0x10 ], %o5
    7bb4:	d2 06 20 30 	ld  [ %i0 + 0x30 ], %o1
    7bb8:	80 a2 60 00 	cmp  %o1, 0
    7bbc:	22 80 00 0b 	be,a   7be8 <__swsetup+0x90>
    7bc0:	da 06 20 10 	ld  [ %i0 + 0x10 ], %o5
    7bc4:	82 06 20 40 	add  %i0, 0x40, %g1
    7bc8:	80 a2 40 01 	cmp  %o1, %g1
    7bcc:	22 80 00 06 	be,a   7be4 <__swsetup+0x8c>
    7bd0:	c0 26 20 30 	clr  [ %i0 + 0x30 ]
    7bd4:	7f ff ed 12 	call  301c <_free_r>
    7bd8:	d0 06 20 54 	ld  [ %i0 + 0x54 ], %o0
    7bdc:	d8 16 20 0c 	lduh  [ %i0 + 0xc ], %o4
    7be0:	c0 26 20 30 	clr  [ %i0 + 0x30 ]
    7be4:	da 06 20 10 	ld  [ %i0 + 0x10 ], %o5
    7be8:	82 0b 3f db 	and  %o4, -37, %g1
    7bec:	c0 26 20 04 	clr  [ %i0 + 4 ]
    7bf0:	c2 36 20 0c 	sth  %g1, [ %i0 + 0xc ]
    7bf4:	da 26 00 00 	st  %o5, [ %i0 ]
    7bf8:	98 10 00 01 	mov  %g1, %o4
    7bfc:	82 13 20 08 	or  %o4, 8, %g1
    7c00:	c2 36 20 0c 	sth  %g1, [ %i0 + 0xc ]
    7c04:	80 a3 60 00 	cmp  %o5, 0
    7c08:	02 80 00 11 	be  7c4c <__swsetup+0xf4>
    7c0c:	01 00 00 00 	nop 
    7c10:	c2 16 20 0c 	lduh  [ %i0 + 0xc ], %g1
    7c14:	80 88 60 01 	btst  1, %g1
    7c18:	02 80 00 08 	be  7c38 <__swsetup+0xe0>
    7c1c:	80 88 60 02 	btst  2, %g1
    7c20:	c2 06 20 14 	ld  [ %i0 + 0x14 ], %g1
    7c24:	c0 26 20 08 	clr  [ %i0 + 8 ]
    7c28:	82 20 00 01 	neg  %g1
    7c2c:	c2 26 20 18 	st  %g1, [ %i0 + 0x18 ]
    7c30:	10 80 00 11 	b  7c74 <__swsetup+0x11c>
    7c34:	9a 10 20 00 	clr  %o5
    7c38:	12 80 00 03 	bne  7c44 <__swsetup+0xec>
    7c3c:	82 10 20 00 	clr  %g1
    7c40:	c2 06 20 14 	ld  [ %i0 + 0x14 ], %g1
    7c44:	10 bf ff fb 	b  7c30 <__swsetup+0xd8>
    7c48:	c2 26 20 08 	st  %g1, [ %i0 + 8 ]
    7c4c:	7f ff ef 3f 	call  3948 <__smakebuf>
    7c50:	90 10 00 18 	mov  %i0, %o0
    7c54:	10 bf ff f0 	b  7c14 <__swsetup+0xbc>
    7c58:	c2 16 20 0c 	lduh  [ %i0 + 0xc ], %g1
    7c5c:	10 bf ff ea 	b  7c04 <__swsetup+0xac>
    7c60:	da 06 20 10 	ld  [ %i0 + 0x10 ], %o5
    7c64:	7f ff ec 8d 	call  2e98 <__sinit>
    7c68:	01 00 00 00 	nop 
    7c6c:	10 bf ff c9 	b  7b90 <__swsetup+0x38>
    7c70:	c2 16 20 0c 	lduh  [ %i0 + 0xc ], %g1
    7c74:	81 c7 e0 08 	ret 
    7c78:	91 e8 00 0d 	restore  %g0, %o5, %o0

00007c7c <_close_r>:
    7c7c:	9d e3 bf 98 	save  %sp, -104, %sp
    7c80:	90 10 00 19 	mov  %i1, %o0
    7c84:	33 00 00 4e 	sethi  %hi(0x13800), %i1
    7c88:	40 00 12 9a 	call  c6f0 <close>
    7c8c:	c0 26 61 54 	clr  [ %i1 + 0x154 ]	! 13954 <errno>
    7c90:	80 a2 3f ff 	cmp  %o0, -1
    7c94:	12 80 00 06 	bne  7cac <_close_r+0x30>
    7c98:	c2 06 61 54 	ld  [ %i1 + 0x154 ], %g1
    7c9c:	80 a0 60 00 	cmp  %g1, 0
    7ca0:	02 80 00 03 	be  7cac <_close_r+0x30>
    7ca4:	01 00 00 00 	nop 
    7ca8:	c2 26 00 00 	st  %g1, [ %i0 ]
    7cac:	81 c7 e0 08 	ret 
    7cb0:	91 e8 00 08 	restore  %g0, %o0, %o0
    7cb4:	00 00 81 20 	unimp  0x8120
    7cb8:	00 00 81 20 	unimp  0x8120
    7cbc:	00 00 8f dc 	unimp  0x8fdc
    7cc0:	00 00 90 08 	unimp  0x9008
    7cc4:	00 00 8f e0 	unimp  0x8fe0
    7cc8:	00 00 90 0c 	unimp  0x900c

00007ccc <quorem>:
    7ccc:	9d e3 bf 98 	save  %sp, -104, %sp
    7cd0:	c2 06 20 10 	ld  [ %i0 + 0x10 ], %g1
    7cd4:	ee 06 60 10 	ld  [ %i1 + 0x10 ], %l7
    7cd8:	b6 10 00 18 	mov  %i0, %i3
    7cdc:	80 a0 40 17 	cmp  %g1, %l7
    7ce0:	06 80 00 80 	bl  7ee0 <quorem+0x214>
    7ce4:	90 10 20 00 	clr  %o0
    7ce8:	ba 06 20 14 	add  %i0, 0x14, %i5
    7cec:	a6 06 60 14 	add  %i1, 0x14, %l3
    7cf0:	ae 05 ff ff 	add  %l7, -1, %l7
    7cf4:	83 2d e0 02 	sll  %l7, 2, %g1
    7cf8:	d2 04 c0 01 	ld  [ %l3 + %g1 ], %o1
    7cfc:	d0 07 40 01 	ld  [ %i5 + %g1 ], %o0
    7d00:	92 02 60 01 	inc  %o1
    7d04:	b8 04 c0 01 	add  %l3, %g1, %i4
    7d08:	aa 07 40 01 	add  %i5, %g1, %l5
    7d0c:	7f ff e9 ad 	call  23c0 <.udiv>
    7d10:	b4 10 00 13 	mov  %l3, %i2
    7d14:	b0 92 20 00 	orcc  %o0, 0, %i0
    7d18:	02 80 00 37 	be  7df4 <quorem+0x128>
    7d1c:	a2 10 00 1d 	mov  %i5, %l1
    7d20:	03 00 00 3f 	sethi  %hi(0xfc00), %g1
    7d24:	a8 10 20 00 	clr  %l4
    7d28:	ac 10 63 ff 	or  %g1, 0x3ff, %l6
    7d2c:	a4 10 20 00 	clr  %l2
    7d30:	e0 04 c0 00 	ld  [ %l3 ], %l0
    7d34:	92 10 00 18 	mov  %i0, %o1
    7d38:	7f ff e9 68 	call  22d8 <.umul>
    7d3c:	90 0c 00 16 	and  %l0, %l6, %o0
    7d40:	92 10 00 18 	mov  %i0, %o1
    7d44:	a4 02 00 12 	add  %o0, %l2, %l2
    7d48:	7f ff e9 64 	call  22d8 <.umul>
    7d4c:	91 34 20 10 	srl  %l0, 0x10, %o0
    7d50:	d8 04 40 00 	ld  [ %l1 ], %o4
    7d54:	9a 0c 80 16 	and  %l2, %l6, %o5
    7d58:	82 0b 00 16 	and  %o4, %l6, %g1
    7d5c:	82 20 40 0d 	sub  %g1, %o5, %g1
    7d60:	82 00 40 14 	add  %g1, %l4, %g1
    7d64:	a9 38 60 10 	sra  %g1, 0x10, %l4
    7d68:	c2 34 60 02 	sth  %g1, [ %l1 + 2 ]
    7d6c:	99 33 20 10 	srl  %o4, 0x10, %o4
    7d70:	83 34 a0 10 	srl  %l2, 0x10, %g1
    7d74:	a6 04 e0 04 	add  %l3, 4, %l3
    7d78:	82 02 00 01 	add  %o0, %g1, %g1
    7d7c:	80 a4 c0 1c 	cmp  %l3, %i4
    7d80:	9a 08 40 16 	and  %g1, %l6, %o5
    7d84:	a5 30 60 10 	srl  %g1, 0x10, %l2
    7d88:	98 23 00 0d 	sub  %o4, %o5, %o4
    7d8c:	98 03 00 14 	add  %o4, %l4, %o4
    7d90:	d8 34 40 00 	sth  %o4, [ %l1 ]
    7d94:	a9 3b 20 10 	sra  %o4, 0x10, %l4
    7d98:	08 bf ff e6 	bleu  7d30 <quorem+0x64>
    7d9c:	a2 04 60 04 	add  %l1, 4, %l1
    7da0:	c2 05 40 00 	ld  [ %l5 ], %g1
    7da4:	80 a0 60 00 	cmp  %g1, 0
    7da8:	12 80 00 14 	bne  7df8 <quorem+0x12c>
    7dac:	92 10 00 19 	mov  %i1, %o1
    7db0:	aa 05 7f fc 	add  %l5, -4, %l5
    7db4:	80 a5 40 1d 	cmp  %l5, %i5
    7db8:	28 80 00 10 	bleu,a   7df8 <quorem+0x12c>
    7dbc:	ee 26 e0 10 	st  %l7, [ %i3 + 0x10 ]
    7dc0:	c2 05 40 00 	ld  [ %l5 ], %g1
    7dc4:	80 a0 60 00 	cmp  %g1, 0
    7dc8:	32 80 00 0c 	bne,a   7df8 <quorem+0x12c>
    7dcc:	ee 26 e0 10 	st  %l7, [ %i3 + 0x10 ]
    7dd0:	aa 05 7f fc 	add  %l5, -4, %l5
    7dd4:	80 a5 40 1d 	cmp  %l5, %i5
    7dd8:	08 80 00 06 	bleu  7df0 <quorem+0x124>
    7ddc:	ae 05 ff ff 	add  %l7, -1, %l7
    7de0:	c2 05 40 00 	ld  [ %l5 ], %g1
    7de4:	80 a0 60 00 	cmp  %g1, 0
    7de8:	22 bf ff fb 	be,a   7dd4 <quorem+0x108>
    7dec:	aa 05 7f fc 	add  %l5, -4, %l5
    7df0:	ee 26 e0 10 	st  %l7, [ %i3 + 0x10 ]
    7df4:	92 10 00 19 	mov  %i1, %o1
    7df8:	40 00 09 51 	call  a33c <__mcmp>
    7dfc:	90 10 00 1b 	mov  %i3, %o0
    7e00:	80 a2 20 00 	cmp  %o0, 0
    7e04:	06 80 00 36 	bl  7edc <quorem+0x210>
    7e08:	03 00 00 3f 	sethi  %hi(0xfc00), %g1
    7e0c:	a6 10 00 1a 	mov  %i2, %l3
    7e10:	94 10 63 ff 	or  %g1, 0x3ff, %o2
    7e14:	b0 06 20 01 	inc  %i0
    7e18:	a8 10 20 00 	clr  %l4
    7e1c:	a4 10 20 00 	clr  %l2
    7e20:	a2 10 00 1d 	mov  %i5, %l1
    7e24:	e0 04 c0 00 	ld  [ %l3 ], %l0
    7e28:	d8 04 40 00 	ld  [ %l1 ], %o4
    7e2c:	82 0c 00 0a 	and  %l0, %o2, %g1
    7e30:	a4 00 40 12 	add  %g1, %l2, %l2
    7e34:	82 0b 00 0a 	and  %o4, %o2, %g1
    7e38:	9a 0c 80 0a 	and  %l2, %o2, %o5
    7e3c:	82 20 40 0d 	sub  %g1, %o5, %g1
    7e40:	82 00 40 14 	add  %g1, %l4, %g1
    7e44:	a9 38 60 10 	sra  %g1, 0x10, %l4
    7e48:	c2 34 60 02 	sth  %g1, [ %l1 + 2 ]
    7e4c:	97 34 20 10 	srl  %l0, 0x10, %o3
    7e50:	83 34 a0 10 	srl  %l2, 0x10, %g1
    7e54:	99 33 20 10 	srl  %o4, 0x10, %o4
    7e58:	82 02 c0 01 	add  %o3, %g1, %g1
    7e5c:	a6 04 e0 04 	add  %l3, 4, %l3
    7e60:	9a 08 40 0a 	and  %g1, %o2, %o5
    7e64:	80 a4 c0 1c 	cmp  %l3, %i4
    7e68:	98 23 00 0d 	sub  %o4, %o5, %o4
    7e6c:	a5 30 60 10 	srl  %g1, 0x10, %l2
    7e70:	98 03 00 14 	add  %o4, %l4, %o4
    7e74:	d8 34 40 00 	sth  %o4, [ %l1 ]
    7e78:	a9 3b 20 10 	sra  %o4, 0x10, %l4
    7e7c:	08 bf ff ea 	bleu  7e24 <quorem+0x158>
    7e80:	a2 04 60 04 	add  %l1, 4, %l1
    7e84:	83 2d e0 02 	sll  %l7, 2, %g1
    7e88:	da 07 40 01 	ld  [ %i5 + %g1 ], %o5
    7e8c:	80 a3 60 00 	cmp  %o5, 0
    7e90:	12 80 00 13 	bne  7edc <quorem+0x210>
    7e94:	aa 07 40 01 	add  %i5, %g1, %l5
    7e98:	aa 05 7f fc 	add  %l5, -4, %l5
    7e9c:	80 a5 40 1d 	cmp  %l5, %i5
    7ea0:	28 80 00 0f 	bleu,a   7edc <quorem+0x210>
    7ea4:	ee 26 e0 10 	st  %l7, [ %i3 + 0x10 ]
    7ea8:	c2 05 40 00 	ld  [ %l5 ], %g1
    7eac:	80 a0 60 00 	cmp  %g1, 0
    7eb0:	32 80 00 0b 	bne,a   7edc <quorem+0x210>
    7eb4:	ee 26 e0 10 	st  %l7, [ %i3 + 0x10 ]
    7eb8:	aa 05 7f fc 	add  %l5, -4, %l5
    7ebc:	80 a5 40 1d 	cmp  %l5, %i5
    7ec0:	08 80 00 06 	bleu  7ed8 <quorem+0x20c>
    7ec4:	ae 05 ff ff 	add  %l7, -1, %l7
    7ec8:	c2 05 40 00 	ld  [ %l5 ], %g1
    7ecc:	80 a0 60 00 	cmp  %g1, 0
    7ed0:	22 bf ff fb 	be,a   7ebc <quorem+0x1f0>
    7ed4:	aa 05 7f fc 	add  %l5, -4, %l5
    7ed8:	ee 26 e0 10 	st  %l7, [ %i3 + 0x10 ]
    7edc:	90 10 00 18 	mov  %i0, %o0
    7ee0:	81 c7 e0 08 	ret 
    7ee4:	91 e8 00 08 	restore  %g0, %o0, %o0

00007ee8 <_dtoa_r>:
    7ee8:	9d e3 bf 58 	save  %sp, -168, %sp
    7eec:	d6 06 20 40 	ld  [ %i0 + 0x40 ], %o3
    7ef0:	f0 27 a0 44 	st  %i0, [ %fp + 0x44 ]
    7ef4:	f8 27 a0 54 	st  %i4, [ %fp + 0x54 ]
    7ef8:	fa 27 a0 58 	st  %i5, [ %fp + 0x58 ]
    7efc:	a8 10 00 19 	mov  %i1, %l4
    7f00:	aa 10 00 1a 	mov  %i2, %l5
    7f04:	80 a2 e0 00 	cmp  %o3, 0
    7f08:	e0 07 a0 5c 	ld  [ %fp + 0x5c ], %l0
    7f0c:	12 80 04 95 	bne  9160 <_dtoa_r+0x1278>
    7f10:	c0 27 bf c0 	clr  [ %fp + -64 ]
    7f14:	80 a5 20 00 	cmp  %l4, 0
    7f18:	06 80 04 8e 	bl  9150 <_dtoa_r+0x1268>
    7f1c:	82 10 20 01 	mov  1, %g1
    7f20:	c0 24 00 00 	clr  [ %l0 ]
    7f24:	1b 1f fc 00 	sethi  %hi(0x7ff00000), %o5
    7f28:	82 0d 00 0d 	and  %l4, %o5, %g1
    7f2c:	80 a0 40 0d 	cmp  %g1, %o5
    7f30:	02 80 04 6f 	be  90ec <_dtoa_r+0x1204>
    7f34:	19 00 00 3a 	sethi  %hi(0xe800), %o4
    7f38:	d4 1b 20 28 	ldd  [ %o4 + 0x28 ], %o2	! e828 <zeroes.1+0x88>
    7f3c:	90 10 00 14 	mov  %l4, %o0
    7f40:	40 00 16 27 	call  d7dc <__eqdf2>
    7f44:	92 10 00 15 	mov  %l5, %o1
    7f48:	80 a2 20 00 	cmp  %o0, 0
    7f4c:	12 80 00 0e 	bne  7f84 <_dtoa_r+0x9c>
    7f50:	da 07 a0 60 	ld  [ %fp + 0x60 ], %o5
    7f54:	d6 07 a0 58 	ld  [ %fp + 0x58 ], %o3
    7f58:	80 a3 60 00 	cmp  %o5, 0
    7f5c:	82 10 20 01 	mov  1, %g1
    7f60:	1b 00 00 39 	sethi  %hi(0xe400), %o5
    7f64:	c2 22 c0 00 	st  %g1, [ %o3 ]
    7f68:	02 80 00 05 	be  7f7c <_dtoa_r+0x94>
    7f6c:	b0 13 63 d0 	or  %o5, 0x3d0, %i0
    7f70:	d8 07 a0 60 	ld  [ %fp + 0x60 ], %o4
    7f74:	82 06 20 01 	add  %i0, 1, %g1
    7f78:	c2 23 00 00 	st  %g1, [ %o4 ]
    7f7c:	10 80 04 85 	b  9190 <_dtoa_r+0x12a8>
    7f80:	82 10 00 18 	mov  %i0, %g1
    7f84:	d0 07 a0 44 	ld  [ %fp + 0x44 ], %o0
    7f88:	92 10 00 14 	mov  %l4, %o1
    7f8c:	94 10 00 15 	mov  %l5, %o2
    7f90:	96 07 bf f4 	add  %fp, -12, %o3
    7f94:	40 00 09 b2 	call  a65c <_d2b>
    7f98:	98 07 bf f0 	add  %fp, -16, %o4
    7f9c:	83 35 20 14 	srl  %l4, 0x14, %g1
    7fa0:	b2 88 67 ff 	andcc  %g1, 0x7ff, %i1
    7fa4:	02 80 04 36 	be  907c <_dtoa_r+0x1194>
    7fa8:	d0 27 bf c4 	st  %o0, [ %fp + -60 ]
    7fac:	f4 07 bf f0 	ld  [ %fp + -16 ], %i2
    7fb0:	03 3f fc 00 	sethi  %hi(0xfff00000), %g1
    7fb4:	1b 0f fc 00 	sethi  %hi(0x3ff00000), %o5
    7fb8:	ac 2d 00 01 	andn  %l4, %g1, %l6
    7fbc:	ae 10 00 15 	mov  %l5, %l7
    7fc0:	ac 13 40 16 	or  %o5, %l6, %l6
    7fc4:	b2 06 7c 01 	add  %i1, -1023, %i1
    7fc8:	c0 27 bf c8 	clr  [ %fp + -56 ]
    7fcc:	19 00 00 3a 	sethi  %hi(0xe800), %o4
    7fd0:	d4 1b 21 f8 	ldd  [ %o4 + 0x1f8 ], %o2	! e9f8 <_ctype_+0x119>
    7fd4:	90 10 00 16 	mov  %l6, %o0
    7fd8:	40 00 14 90 	call  d218 <__subdf3>
    7fdc:	92 10 00 17 	mov  %l7, %o1
    7fe0:	1b 00 00 3a 	sethi  %hi(0xe800), %o5
    7fe4:	40 00 14 a4 	call  d274 <__muldf3>
    7fe8:	d4 1b 62 00 	ldd  [ %o5 + 0x200 ], %o2	! ea00 <_ctype_+0x121>
    7fec:	03 00 00 3a 	sethi  %hi(0xe800), %g1
    7ff0:	40 00 14 76 	call  d1c8 <__adddf3>
    7ff4:	d4 18 62 08 	ldd  [ %g1 + 0x208 ], %o2	! ea08 <_ctype_+0x129>
    7ff8:	a0 10 00 08 	mov  %o0, %l0
    7ffc:	a2 10 00 09 	mov  %o1, %l1
    8000:	40 00 16 8d 	call  da34 <__floatsidf>
    8004:	90 10 00 19 	mov  %i1, %o0
    8008:	19 00 00 3a 	sethi  %hi(0xe800), %o4
    800c:	40 00 14 9a 	call  d274 <__muldf3>
    8010:	d4 1b 22 10 	ldd  [ %o4 + 0x210 ], %o2	! ea10 <_ctype_+0x131>
    8014:	94 10 00 08 	mov  %o0, %o2
    8018:	96 10 00 09 	mov  %o1, %o3
    801c:	90 10 00 10 	mov  %l0, %o0
    8020:	40 00 14 6a 	call  d1c8 <__adddf3>
    8024:	92 10 00 11 	mov  %l1, %o1
    8028:	a4 10 00 08 	mov  %o0, %l2
    802c:	40 00 16 b7 	call  db08 <__fixdfsi>
    8030:	a6 10 00 09 	mov  %o1, %l3
    8034:	1b 00 00 3a 	sethi  %hi(0xe800), %o5
    8038:	d4 1b 60 28 	ldd  [ %o5 + 0x28 ], %o2	! e828 <zeroes.1+0x88>
    803c:	ba 10 00 08 	mov  %o0, %i5
    8040:	92 10 00 13 	mov  %l3, %o1
    8044:	40 00 16 4a 	call  d96c <__ltdf2>
    8048:	90 10 00 12 	mov  %l2, %o0
    804c:	80 a2 20 00 	cmp  %o0, 0
    8050:	06 80 04 01 	bl  9054 <_dtoa_r+0x116c>
    8054:	01 00 00 00 	nop 
    8058:	82 10 20 01 	mov  1, %g1	! 1 <__DYNAMIC+0x1>
    805c:	80 a7 60 16 	cmp  %i5, 0x16
    8060:	18 80 00 0f 	bgu  809c <_dtoa_r+0x1b4>
    8064:	c2 27 bf d4 	st  %g1, [ %fp + -44 ]
    8068:	9b 2f 60 03 	sll  %i5, 3, %o5
    806c:	03 00 00 3a 	sethi  %hi(0xe800), %g1
    8070:	82 10 62 98 	or  %g1, 0x298, %g1	! ea98 <__mprec_tens>
    8074:	96 00 40 0d 	add  %g1, %o5, %o3
    8078:	d0 1a c0 00 	ldd  [ %o3 ], %o0
    807c:	94 10 00 14 	mov  %l4, %o2
    8080:	40 00 16 09 	call  d8a4 <__gtdf2>
    8084:	96 10 00 15 	mov  %l5, %o3
    8088:	c0 27 bf d4 	clr  [ %fp + -44 ]
    808c:	83 3a 20 1f 	sra  %o0, 0x1f, %g1
    8090:	82 20 40 08 	sub  %g1, %o0, %g1
    8094:	83 30 60 1f 	srl  %g1, 0x1f, %g1
    8098:	ba 27 40 01 	sub  %i5, %g1, %i5
    809c:	82 26 80 19 	sub  %i2, %i1, %g1
    80a0:	a0 80 7f ff 	addcc  %g1, -1, %l0
    80a4:	2c 80 03 e9 	bneg,a   9048 <_dtoa_r+0x1160>
    80a8:	a0 20 00 10 	neg  %l0
    80ac:	b8 10 00 10 	mov  %l0, %i4
    80b0:	c0 27 bf ec 	clr  [ %fp + -20 ]
    80b4:	80 a7 60 00 	cmp  %i5, 0
    80b8:	06 80 03 de 	bl  9030 <_dtoa_r+0x1148>
    80bc:	d8 07 bf ec 	ld  [ %fp + -20 ], %o4
    80c0:	c0 27 bf e8 	clr  [ %fp + -24 ]
    80c4:	fa 27 bf cc 	st  %i5, [ %fp + -52 ]
    80c8:	b8 07 00 1d 	add  %i4, %i5, %i4
    80cc:	80 a6 e0 0a 	cmp  %i3, 0xa
    80d0:	82 60 20 00 	subx  %g0, 0, %g1
    80d4:	b6 0e c0 01 	and  %i3, %g1, %i3
    80d8:	80 a6 e0 05 	cmp  %i3, 5
    80dc:	04 80 00 04 	ble  80ec <_dtoa_r+0x204>
    80e0:	a2 10 20 01 	mov  1, %l1
    80e4:	b6 06 ff fc 	add  %i3, -4, %i3
    80e8:	a2 10 20 00 	clr  %l1
    80ec:	96 10 3f ff 	mov  -1, %o3
    80f0:	82 10 20 01 	mov  1, %g1
    80f4:	80 a6 e0 05 	cmp  %i3, 5
    80f8:	c2 27 bf d0 	st  %g1, [ %fp + -48 ]
    80fc:	d6 27 bf dc 	st  %o3, [ %fp + -36 ]
    8100:	18 80 00 0a 	bgu  8128 <_dtoa_r+0x240>
    8104:	d6 27 bf e4 	st  %o3, [ %fp + -28 ]
    8108:	83 2e e0 02 	sll  %i3, 2, %g1
    810c:	1b 00 00 1f 	sethi  %hi(0x7c00), %o5
    8110:	9a 13 60 b4 	or  %o5, 0xb4, %o5	! 7cb4 <_close_r+0x38>
    8114:	d8 03 40 01 	ld  [ %o5 + %g1 ], %o4
    8118:	81 c3 00 00 	jmp  %o4
    811c:	01 00 00 00 	nop 
    8120:	b2 10 20 12 	mov  0x12, %i1	! 12 <__DYNAMIC+0x12>
    8124:	c0 27 a0 54 	clr  [ %fp + 0x54 ]
    8128:	d8 07 a0 44 	ld  [ %fp + 0x44 ], %o4
    812c:	80 a6 60 17 	cmp  %i1, 0x17
    8130:	c0 23 20 44 	clr  [ %o4 + 0x44 ]
    8134:	08 80 00 0a 	bleu  815c <_dtoa_r+0x274>
    8138:	a0 10 20 04 	mov  4, %l0
    813c:	9a 10 20 00 	clr  %o5
    8140:	a0 04 00 10 	add  %l0, %l0, %l0
    8144:	82 04 20 14 	add  %l0, 0x14, %g1
    8148:	80 a0 40 19 	cmp  %g1, %i1
    814c:	08 bf ff fd 	bleu  8140 <_dtoa_r+0x258>
    8150:	9a 03 60 01 	inc  %o5
    8154:	c2 07 a0 44 	ld  [ %fp + 0x44 ], %g1
    8158:	da 20 60 44 	st  %o5, [ %g1 + 0x44 ]
    815c:	d6 07 a0 44 	ld  [ %fp + 0x44 ], %o3
    8160:	d2 02 e0 44 	ld  [ %o3 + 0x44 ], %o1
    8164:	40 00 06 75 	call  9b38 <_Balloc>
    8168:	90 10 00 0b 	mov  %o3, %o0
    816c:	d8 07 bf e4 	ld  [ %fp + -28 ], %o4
    8170:	da 07 a0 44 	ld  [ %fp + 0x44 ], %o5
    8174:	80 a3 20 0f 	cmp  %o4, 0xf
    8178:	d0 27 bf b8 	st  %o0, [ %fp + -72 ]
    817c:	82 40 20 00 	addx  %g0, 0, %g1
    8180:	d0 23 60 40 	st  %o0, [ %o5 + 0x40 ]
    8184:	80 88 40 11 	btst  %g1, %l1
    8188:	02 80 00 ae 	be  8440 <_dtoa_r+0x558>
    818c:	b0 10 00 08 	mov  %o0, %i0
    8190:	80 a7 60 00 	cmp  %i5, 0
    8194:	b2 10 20 00 	clr  %i1
    8198:	ac 10 00 14 	mov  %l4, %l6
    819c:	ae 10 00 15 	mov  %l5, %l7
    81a0:	fa 27 bf d8 	st  %i5, [ %fp + -40 ]
    81a4:	d8 27 bf e0 	st  %o4, [ %fp + -32 ]
    81a8:	04 80 03 68 	ble  8f48 <_dtoa_r+0x1060>
    81ac:	a2 10 20 02 	mov  2, %l1
    81b0:	9a 0f 60 0f 	and  %i5, 0xf, %o5
    81b4:	03 00 00 3a 	sethi  %hi(0xe800), %g1
    81b8:	9b 2b 60 03 	sll  %o5, 3, %o5
    81bc:	82 10 62 98 	or  %g1, 0x298, %g1
    81c0:	a1 3f 60 04 	sra  %i5, 4, %l0
    81c4:	96 00 40 0d 	add  %g1, %o5, %o3
    81c8:	80 8c 20 10 	btst  0x10, %l0
    81cc:	02 80 00 0b 	be  81f8 <_dtoa_r+0x310>
    81d0:	e4 1a c0 00 	ldd  [ %o3 ], %l2
    81d4:	03 00 00 3a 	sethi  %hi(0xe800), %g1
    81d8:	d4 18 63 80 	ldd  [ %g1 + 0x380 ], %o2	! eb80 <__mprec_bigtens+0x20>
    81dc:	90 10 00 14 	mov  %l4, %o0
    81e0:	92 10 00 15 	mov  %l5, %o1
    81e4:	40 00 15 02 	call  d5ec <__divdf3>
    81e8:	a0 0c 20 0f 	and  %l0, 0xf, %l0
    81ec:	a2 10 20 03 	mov  3, %l1
    81f0:	a8 10 00 08 	mov  %o0, %l4
    81f4:	aa 10 00 09 	mov  %o1, %l5
    81f8:	80 a4 20 00 	cmp  %l0, 0
    81fc:	02 80 00 13 	be  8248 <_dtoa_r+0x360>
    8200:	03 00 00 3a 	sethi  %hi(0xe800), %g1
    8204:	b4 10 63 60 	or  %g1, 0x360, %i2	! eb60 <__mprec_bigtens>
    8208:	80 8c 20 01 	btst  1, %l0
    820c:	22 80 00 0c 	be,a   823c <_dtoa_r+0x354>
    8210:	a1 3c 20 01 	sra  %l0, 1, %l0
    8214:	83 2e 60 03 	sll  %i1, 3, %g1
    8218:	98 06 80 01 	add  %i2, %g1, %o4
    821c:	d4 1b 00 00 	ldd  [ %o4 ], %o2
    8220:	90 10 00 12 	mov  %l2, %o0
    8224:	92 10 00 13 	mov  %l3, %o1
    8228:	40 00 14 13 	call  d274 <__muldf3>
    822c:	a2 04 60 01 	inc  %l1
    8230:	a4 10 00 08 	mov  %o0, %l2
    8234:	a6 10 00 09 	mov  %o1, %l3
    8238:	a1 3c 20 01 	sra  %l0, 1, %l0
    823c:	80 a4 20 00 	cmp  %l0, 0
    8240:	12 bf ff f2 	bne  8208 <_dtoa_r+0x320>
    8244:	b2 06 60 01 	inc  %i1
    8248:	90 10 00 14 	mov  %l4, %o0
    824c:	92 10 00 15 	mov  %l5, %o1
    8250:	94 10 00 12 	mov  %l2, %o2
    8254:	40 00 14 e6 	call  d5ec <__divdf3>
    8258:	96 10 00 13 	mov  %l3, %o3
    825c:	a8 10 00 08 	mov  %o0, %l4
    8260:	aa 10 00 09 	mov  %o1, %l5
    8264:	c2 07 bf d4 	ld  [ %fp + -44 ], %g1
    8268:	80 a0 60 00 	cmp  %g1, 0
    826c:	02 80 00 1d 	be  82e0 <_dtoa_r+0x3f8>
    8270:	19 00 00 3a 	sethi  %hi(0xe800), %o4
    8274:	d4 1b 22 18 	ldd  [ %o4 + 0x218 ], %o2	! ea18 <_ctype_+0x139>
    8278:	90 10 00 14 	mov  %l4, %o0
    827c:	40 00 15 bc 	call  d96c <__ltdf2>
    8280:	92 10 00 15 	mov  %l5, %o1
    8284:	80 a2 20 00 	cmp  %o0, 0
    8288:	06 80 03 2e 	bl  8f40 <_dtoa_r+0x1058>
    828c:	9a 10 20 00 	clr  %o5
    8290:	d6 07 bf e4 	ld  [ %fp + -28 ], %o3
    8294:	83 3a e0 1f 	sra  %o3, 0x1f, %g1
    8298:	82 20 40 0b 	sub  %g1, %o3, %g1
    829c:	83 30 60 1f 	srl  %g1, 0x1f, %g1
    82a0:	80 8b 40 01 	btst  %o5, %g1
    82a4:	02 80 00 0f 	be  82e0 <_dtoa_r+0x3f8>
    82a8:	d8 07 bf dc 	ld  [ %fp + -36 ], %o4
    82ac:	80 a3 20 00 	cmp  %o4, 0
    82b0:	04 80 00 5e 	ble  8428 <_dtoa_r+0x540>
    82b4:	1b 00 00 3a 	sethi  %hi(0xe800), %o5
    82b8:	d0 1b 62 20 	ldd  [ %o5 + 0x220 ], %o0	! ea20 <_ctype_+0x141>
    82bc:	94 10 00 14 	mov  %l4, %o2
    82c0:	40 00 13 ed 	call  d274 <__muldf3>
    82c4:	96 10 00 15 	mov  %l5, %o3
    82c8:	c2 07 bf dc 	ld  [ %fp + -36 ], %g1
    82cc:	a8 10 00 08 	mov  %o0, %l4
    82d0:	aa 10 00 09 	mov  %o1, %l5
    82d4:	c2 27 bf e4 	st  %g1, [ %fp + -28 ]
    82d8:	ba 07 7f ff 	add  %i5, -1, %i5
    82dc:	a2 04 60 01 	inc  %l1
    82e0:	40 00 15 d5 	call  da34 <__floatsidf>
    82e4:	90 10 00 11 	mov  %l1, %o0
    82e8:	94 10 00 14 	mov  %l4, %o2
    82ec:	40 00 13 e2 	call  d274 <__muldf3>
    82f0:	96 10 00 15 	mov  %l5, %o3
    82f4:	19 00 00 3a 	sethi  %hi(0xe800), %o4
    82f8:	40 00 13 b4 	call  d1c8 <__adddf3>
    82fc:	d4 1b 22 28 	ldd  [ %o4 + 0x228 ], %o2	! ea28 <_ctype_+0x149>
    8300:	da 07 bf e4 	ld  [ %fp + -28 ], %o5
    8304:	a4 10 00 08 	mov  %o0, %l2
    8308:	03 3f 30 00 	sethi  %hi(0xfcc00000), %g1
    830c:	80 a3 60 00 	cmp  %o5, 0
    8310:	a6 10 00 09 	mov  %o1, %l3
    8314:	12 80 02 85 	bne  8d28 <_dtoa_r+0xe40>
    8318:	a4 00 40 12 	add  %g1, %l2, %l2
    831c:	03 00 00 3a 	sethi  %hi(0xe800), %g1
    8320:	d4 18 62 30 	ldd  [ %g1 + 0x230 ], %o2	! ea30 <_ctype_+0x151>
    8324:	90 10 00 14 	mov  %l4, %o0
    8328:	40 00 13 bc 	call  d218 <__subdf3>
    832c:	92 10 00 15 	mov  %l5, %o1
    8330:	b4 10 20 00 	clr  %i2
    8334:	a0 10 00 08 	mov  %o0, %l0
    8338:	a2 10 00 09 	mov  %o1, %l1
    833c:	94 10 00 12 	mov  %l2, %o2
    8340:	40 00 15 59 	call  d8a4 <__gtdf2>
    8344:	96 10 00 13 	mov  %l3, %o3
    8348:	80 a2 20 00 	cmp  %o0, 0
    834c:	04 80 00 2b 	ble  83f8 <_dtoa_r+0x510>
    8350:	c0 27 bf bc 	clr  [ %fp + -68 ]
    8354:	d6 07 bf b8 	ld  [ %fp + -72 ], %o3
    8358:	82 10 20 31 	mov  0x31, %g1
    835c:	b0 02 e0 01 	add  %o3, 1, %i0
    8360:	c2 2a c0 00 	stb  %g1, [ %o3 ]
    8364:	ba 07 60 01 	inc  %i5
    8368:	d0 07 a0 44 	ld  [ %fp + 0x44 ], %o0
    836c:	40 00 06 1b 	call  9bd8 <_Bfree>
    8370:	92 10 00 1a 	mov  %i2, %o1
    8374:	da 07 bf bc 	ld  [ %fp + -68 ], %o5
    8378:	80 a3 60 00 	cmp  %o5, 0
    837c:	02 80 00 0e 	be  83b4 <_dtoa_r+0x4cc>
    8380:	c2 07 bf c0 	ld  [ %fp + -64 ], %g1
    8384:	d6 07 bf c0 	ld  [ %fp + -64 ], %o3
    8388:	80 a0 00 01 	cmp  %g0, %g1
    838c:	9a 1a c0 0d 	xor  %o3, %o5, %o5
    8390:	82 40 20 00 	addx  %g0, 0, %g1
    8394:	80 a0 00 0d 	cmp  %g0, %o5
    8398:	98 40 20 00 	addx  %g0, 0, %o4
    839c:	80 88 40 0c 	btst  %g1, %o4
    83a0:	12 80 00 12 	bne  83e8 <_dtoa_r+0x500>
    83a4:	d0 07 a0 44 	ld  [ %fp + 0x44 ], %o0
    83a8:	d2 07 bf bc 	ld  [ %fp + -68 ], %o1
    83ac:	40 00 06 0b 	call  9bd8 <_Bfree>
    83b0:	d0 07 a0 44 	ld  [ %fp + 0x44 ], %o0
    83b4:	d0 07 a0 44 	ld  [ %fp + 0x44 ], %o0
    83b8:	40 00 06 08 	call  9bd8 <_Bfree>
    83bc:	d2 07 bf c4 	ld  [ %fp + -60 ], %o1
    83c0:	c0 2e 00 00 	clrb  [ %i0 ]
    83c4:	d8 07 a0 58 	ld  [ %fp + 0x58 ], %o4
    83c8:	da 07 a0 60 	ld  [ %fp + 0x60 ], %o5
    83cc:	82 07 60 01 	add  %i5, 1, %g1
    83d0:	80 a3 60 00 	cmp  %o5, 0
    83d4:	02 80 00 03 	be  83e0 <_dtoa_r+0x4f8>
    83d8:	c2 23 00 00 	st  %g1, [ %o4 ]
    83dc:	f0 23 40 00 	st  %i0, [ %o5 ]
    83e0:	10 80 03 6c 	b  9190 <_dtoa_r+0x12a8>
    83e4:	c2 07 bf b8 	ld  [ %fp + -72 ], %g1
    83e8:	40 00 05 fc 	call  9bd8 <_Bfree>
    83ec:	92 10 00 0b 	mov  %o3, %o1
    83f0:	10 bf ff ef 	b  83ac <_dtoa_r+0x4c4>
    83f4:	d2 07 bf bc 	ld  [ %fp + -68 ], %o1
    83f8:	90 10 00 12 	mov  %l2, %o0
    83fc:	40 00 15 ee 	call  dbb4 <__negdf2>
    8400:	92 10 00 13 	mov  %l3, %o1
    8404:	94 10 00 10 	mov  %l0, %o2
    8408:	40 00 15 27 	call  d8a4 <__gtdf2>
    840c:	96 10 00 11 	mov  %l1, %o3
    8410:	80 a2 20 00 	cmp  %o0, 0
    8414:	04 80 00 06 	ble  842c <_dtoa_r+0x544>
    8418:	d6 07 bf e0 	ld  [ %fp + -32 ], %o3
    841c:	da 07 a0 54 	ld  [ %fp + 0x54 ], %o5
    8420:	10 bf ff d2 	b  8368 <_dtoa_r+0x480>
    8424:	ba 38 00 0d 	xnor  %g0, %o5, %i5
    8428:	d6 07 bf e0 	ld  [ %fp + -32 ], %o3
    842c:	fa 07 bf d8 	ld  [ %fp + -40 ], %i5
    8430:	f0 07 bf b8 	ld  [ %fp + -72 ], %i0
    8434:	a8 10 00 16 	mov  %l6, %l4
    8438:	aa 10 00 17 	mov  %l7, %l5
    843c:	d6 27 bf e4 	st  %o3, [ %fp + -28 ]
    8440:	d0 07 bf f4 	ld  [ %fp + -12 ], %o0
    8444:	80 a7 60 0e 	cmp  %i5, 0xe
    8448:	82 38 00 08 	xnor  %g0, %o0, %g1
    844c:	98 10 20 01 	mov  1, %o4
    8450:	04 80 00 03 	ble  845c <_dtoa_r+0x574>
    8454:	83 30 60 1f 	srl  %g1, 0x1f, %g1
    8458:	98 10 20 00 	clr  %o4
    845c:	80 88 40 0c 	btst  %g1, %o4
    8460:	02 80 00 77 	be  863c <_dtoa_r+0x754>
    8464:	c2 07 bf d0 	ld  [ %fp + -48 ], %g1
    8468:	83 2f 60 03 	sll  %i5, 3, %g1
    846c:	1b 00 00 3a 	sethi  %hi(0xe800), %o5
    8470:	9a 13 62 98 	or  %o5, 0x298, %o5	! ea98 <__mprec_tens>
    8474:	98 03 40 01 	add  %o5, %g1, %o4
    8478:	da 07 bf e4 	ld  [ %fp + -28 ], %o5
    847c:	c2 07 a0 54 	ld  [ %fp + 0x54 ], %g1
    8480:	e4 1b 00 00 	ldd  [ %o4 ], %l2
    8484:	98 03 7f ff 	add  %o5, -1, %o4
    8488:	98 13 40 0c 	or  %o5, %o4, %o4
    848c:	80 8b 00 01 	btst  %o4, %g1
    8490:	16 80 00 13 	bge  84dc <_dtoa_r+0x5f4>
    8494:	b2 10 20 01 	mov  1, %i1
    8498:	80 a3 60 00 	cmp  %o5, 0
    849c:	c0 27 bf bc 	clr  [ %fp + -68 ]
    84a0:	06 bf ff df 	bl  841c <_dtoa_r+0x534>
    84a4:	b4 10 20 00 	clr  %i2
    84a8:	19 00 00 3a 	sethi  %hi(0xe800), %o4
    84ac:	d4 1b 22 30 	ldd  [ %o4 + 0x230 ], %o2	! ea30 <_ctype_+0x151>
    84b0:	90 10 00 12 	mov  %l2, %o0
    84b4:	40 00 13 70 	call  d274 <__muldf3>
    84b8:	92 10 00 13 	mov  %l3, %o1
    84bc:	94 10 00 14 	mov  %l4, %o2
    84c0:	40 00 15 12 	call  d908 <__gedf2>
    84c4:	96 10 00 15 	mov  %l5, %o3
    84c8:	80 a2 20 00 	cmp  %o0, 0
    84cc:	16 bf ff d5 	bge  8420 <_dtoa_r+0x538>
    84d0:	da 07 a0 54 	ld  [ %fp + 0x54 ], %o5
    84d4:	10 bf ff a1 	b  8358 <_dtoa_r+0x470>
    84d8:	d6 07 bf b8 	ld  [ %fp + -72 ], %o3
    84dc:	94 10 00 12 	mov  %l2, %o2
    84e0:	96 10 00 13 	mov  %l3, %o3
    84e4:	90 10 00 14 	mov  %l4, %o0
    84e8:	40 00 14 41 	call  d5ec <__divdf3>
    84ec:	92 10 00 15 	mov  %l5, %o1
    84f0:	40 00 15 86 	call  db08 <__fixdfsi>
    84f4:	01 00 00 00 	nop 
    84f8:	40 00 15 4f 	call  da34 <__floatsidf>
    84fc:	b4 10 00 08 	mov  %o0, %i2
    8500:	94 10 00 12 	mov  %l2, %o2
    8504:	40 00 13 5c 	call  d274 <__muldf3>
    8508:	96 10 00 13 	mov  %l3, %o3
    850c:	94 10 00 08 	mov  %o0, %o2
    8510:	96 10 00 09 	mov  %o1, %o3
    8514:	90 10 00 14 	mov  %l4, %o0
    8518:	40 00 13 40 	call  d218 <__subdf3>
    851c:	92 10 00 15 	mov  %l5, %o1
    8520:	da 07 bf e4 	ld  [ %fp + -28 ], %o5
    8524:	82 06 a0 30 	add  %i2, 0x30, %g1
    8528:	80 a6 40 0d 	cmp  %i1, %o5
    852c:	c2 2e 00 00 	stb  %g1, [ %i0 ]
    8530:	02 80 00 13 	be  857c <_dtoa_r+0x694>
    8534:	b0 06 20 01 	inc  %i0
    8538:	94 10 00 08 	mov  %o0, %o2
    853c:	96 10 00 09 	mov  %o1, %o3
    8540:	19 00 00 3a 	sethi  %hi(0xe800), %o4
    8544:	d0 1b 22 20 	ldd  [ %o4 + 0x220 ], %o0	! ea20 <_ctype_+0x141>
    8548:	40 00 13 4b 	call  d274 <__muldf3>
    854c:	b2 06 60 01 	inc  %i1
    8550:	1b 00 00 3a 	sethi  %hi(0xe800), %o5
    8554:	d4 1b 60 28 	ldd  [ %o5 + 0x28 ], %o2	! e828 <zeroes.1+0x88>
    8558:	98 10 00 08 	mov  %o0, %o4
    855c:	aa 10 00 09 	mov  %o1, %l5
    8560:	40 00 14 9f 	call  d7dc <__eqdf2>
    8564:	a8 10 00 0c 	mov  %o4, %l4
    8568:	80 a2 20 00 	cmp  %o0, 0
    856c:	12 bf ff dd 	bne  84e0 <_dtoa_r+0x5f8>
    8570:	94 10 00 12 	mov  %l2, %o2
    8574:	10 bf ff 91 	b  83b8 <_dtoa_r+0x4d0>
    8578:	d0 07 a0 44 	ld  [ %fp + 0x44 ], %o0
    857c:	94 10 00 08 	mov  %o0, %o2
    8580:	40 00 13 12 	call  d1c8 <__adddf3>
    8584:	96 10 00 09 	mov  %o1, %o3
    8588:	a0 10 00 08 	mov  %o0, %l0
    858c:	a2 10 00 09 	mov  %o1, %l1
    8590:	90 10 00 12 	mov  %l2, %o0
    8594:	92 10 00 13 	mov  %l3, %o1
    8598:	94 10 00 10 	mov  %l0, %o2
    859c:	40 00 14 f4 	call  d96c <__ltdf2>
    85a0:	96 10 00 11 	mov  %l1, %o3
    85a4:	80 a2 20 00 	cmp  %o0, 0
    85a8:	06 80 00 0c 	bl  85d8 <_dtoa_r+0x6f0>
    85ac:	90 10 00 12 	mov  %l2, %o0
    85b0:	92 10 00 13 	mov  %l3, %o1
    85b4:	94 10 00 10 	mov  %l0, %o2
    85b8:	40 00 14 89 	call  d7dc <__eqdf2>
    85bc:	96 10 00 11 	mov  %l1, %o3
    85c0:	80 a2 20 00 	cmp  %o0, 0
    85c4:	12 bf ff 7d 	bne  83b8 <_dtoa_r+0x4d0>
    85c8:	d0 07 a0 44 	ld  [ %fp + 0x44 ], %o0
    85cc:	80 8e a0 01 	btst  1, %i2
    85d0:	02 bf ff 7a 	be  83b8 <_dtoa_r+0x4d0>
    85d4:	01 00 00 00 	nop 
    85d8:	b0 06 3f ff 	add  %i0, -1, %i0
    85dc:	c2 4e 00 00 	ldsb  [ %i0 ], %g1
    85e0:	80 a0 60 39 	cmp  %g1, 0x39
    85e4:	02 80 00 06 	be  85fc <_dtoa_r+0x714>
    85e8:	da 0e 00 00 	ldub  [ %i0 ], %o5
    85ec:	82 03 60 01 	add  %o5, 1, %g1
    85f0:	c2 2e 00 00 	stb  %g1, [ %i0 ]
    85f4:	10 bf ff 70 	b  83b4 <_dtoa_r+0x4cc>
    85f8:	b0 06 20 01 	inc  %i0
    85fc:	c2 07 bf b8 	ld  [ %fp + -72 ], %g1
    8600:	80 a6 00 01 	cmp  %i0, %g1
    8604:	02 80 00 09 	be  8628 <_dtoa_r+0x740>
    8608:	d6 07 bf b8 	ld  [ %fp + -72 ], %o3
    860c:	b0 06 3f ff 	add  %i0, -1, %i0
    8610:	c2 4e 00 00 	ldsb  [ %i0 ], %g1
    8614:	80 a0 60 39 	cmp  %g1, 0x39
    8618:	02 bf ff f9 	be  85fc <_dtoa_r+0x714>
    861c:	da 0e 00 00 	ldub  [ %i0 ], %o5
    8620:	10 bf ff f4 	b  85f0 <_dtoa_r+0x708>
    8624:	82 03 60 01 	add  %o5, 1, %g1
    8628:	82 10 20 30 	mov  0x30, %g1
    862c:	ba 07 60 01 	inc  %i5
    8630:	c2 2a c0 00 	stb  %g1, [ %o3 ]
    8634:	10 bf ff ee 	b  85ec <_dtoa_r+0x704>
    8638:	9a 10 20 30 	mov  0x30, %o5
    863c:	e2 07 bf ec 	ld  [ %fp + -20 ], %l1
    8640:	80 a0 60 00 	cmp  %g1, 0
    8644:	e4 07 bf e8 	ld  [ %fp + -24 ], %l2
    8648:	c0 27 bf c0 	clr  [ %fp + -64 ]
    864c:	02 80 00 1d 	be  86c0 <_dtoa_r+0x7d8>
    8650:	c0 27 bf bc 	clr  [ %fp + -68 ]
    8654:	80 a6 e0 01 	cmp  %i3, 1
    8658:	04 80 01 ac 	ble  8d08 <_dtoa_r+0xe20>
    865c:	da 07 bf e8 	ld  [ %fp + -24 ], %o5
    8660:	d8 07 bf e4 	ld  [ %fp + -28 ], %o4
    8664:	a0 03 3f ff 	add  %o4, -1, %l0
    8668:	80 a3 40 10 	cmp  %o5, %l0
    866c:	16 80 00 09 	bge  8690 <_dtoa_r+0x7a8>
    8670:	a4 23 40 10 	sub  %o5, %l0, %l2
    8674:	c2 07 bf cc 	ld  [ %fp + -52 ], %g1
    8678:	a0 24 00 0d 	sub  %l0, %o5, %l0
    867c:	a4 10 20 00 	clr  %l2
    8680:	9a 03 40 10 	add  %o5, %l0, %o5
    8684:	82 00 40 10 	add  %g1, %l0, %g1
    8688:	da 27 bf e8 	st  %o5, [ %fp + -24 ]
    868c:	c2 27 bf cc 	st  %g1, [ %fp + -52 ]
    8690:	f2 07 bf e4 	ld  [ %fp + -28 ], %i1
    8694:	80 a6 60 00 	cmp  %i1, 0
    8698:	06 80 01 99 	bl  8cfc <_dtoa_r+0xe14>
    869c:	d6 07 bf ec 	ld  [ %fp + -20 ], %o3
    86a0:	d0 07 a0 44 	ld  [ %fp + 0x44 ], %o0
    86a4:	40 00 06 14 	call  9ef4 <_i2b>
    86a8:	92 10 20 01 	mov  1, %o1
    86ac:	d8 07 bf ec 	ld  [ %fp + -20 ], %o4
    86b0:	b8 07 00 19 	add  %i4, %i1, %i4
    86b4:	98 03 00 19 	add  %o4, %i1, %o4
    86b8:	d0 27 bf bc 	st  %o0, [ %fp + -68 ]
    86bc:	d8 27 bf ec 	st  %o4, [ %fp + -20 ]
    86c0:	9b 3c 60 1f 	sra  %l1, 0x1f, %o5
    86c4:	83 3f 20 1f 	sra  %i4, 0x1f, %g1
    86c8:	9a 23 40 11 	sub  %o5, %l1, %o5
    86cc:	82 20 40 1c 	sub  %g1, %i4, %g1
    86d0:	80 88 40 0d 	btst  %g1, %o5
    86d4:	16 80 00 0c 	bge  8704 <_dtoa_r+0x81c>
    86d8:	c2 07 bf e8 	ld  [ %fp + -24 ], %g1
    86dc:	80 a7 00 11 	cmp  %i4, %l1
    86e0:	04 80 00 03 	ble  86ec <_dtoa_r+0x804>
    86e4:	b2 10 00 1c 	mov  %i4, %i1
    86e8:	b2 10 00 11 	mov  %l1, %i1
    86ec:	da 07 bf ec 	ld  [ %fp + -20 ], %o5
    86f0:	b8 27 00 19 	sub  %i4, %i1, %i4
    86f4:	9a 23 40 19 	sub  %o5, %i1, %o5
    86f8:	a2 24 40 19 	sub  %l1, %i1, %l1
    86fc:	da 27 bf ec 	st  %o5, [ %fp + -20 ]
    8700:	c2 07 bf e8 	ld  [ %fp + -24 ], %g1
    8704:	80 a0 60 00 	cmp  %g1, 0
    8708:	04 80 00 18 	ble  8768 <_dtoa_r+0x880>
    870c:	d6 07 bf d0 	ld  [ %fp + -48 ], %o3
    8710:	80 a2 e0 00 	cmp  %o3, 0
    8714:	02 80 01 77 	be  8cf0 <_dtoa_r+0xe08>
    8718:	80 a4 a0 00 	cmp  %l2, 0
    871c:	04 80 00 0f 	ble  8758 <_dtoa_r+0x870>
    8720:	d2 07 bf bc 	ld  [ %fp + -68 ], %o1
    8724:	d0 07 a0 44 	ld  [ %fp + 0x44 ], %o0
    8728:	40 00 06 88 	call  a148 <_pow5mult>
    872c:	94 10 00 12 	mov  %l2, %o2
    8730:	d4 07 bf c4 	ld  [ %fp + -60 ], %o2
    8734:	d0 27 bf bc 	st  %o0, [ %fp + -68 ]
    8738:	d0 07 a0 44 	ld  [ %fp + 0x44 ], %o0
    873c:	40 00 05 f7 	call  9f18 <_multiply>
    8740:	d2 07 bf bc 	ld  [ %fp + -68 ], %o1
    8744:	d2 07 bf c4 	ld  [ %fp + -60 ], %o1
    8748:	a0 10 00 08 	mov  %o0, %l0
    874c:	40 00 05 23 	call  9bd8 <_Bfree>
    8750:	d0 07 a0 44 	ld  [ %fp + 0x44 ], %o0
    8754:	e0 27 bf c4 	st  %l0, [ %fp + -60 ]
    8758:	d8 07 bf e8 	ld  [ %fp + -24 ], %o4
    875c:	a0 a3 00 12 	subcc  %o4, %l2, %l0
    8760:	12 80 01 5f 	bne  8cdc <_dtoa_r+0xdf4>
    8764:	d2 07 bf c4 	ld  [ %fp + -60 ], %o1
    8768:	d0 07 a0 44 	ld  [ %fp + 0x44 ], %o0
    876c:	40 00 05 e2 	call  9ef4 <_i2b>
    8770:	92 10 20 01 	mov  1, %o1
    8774:	da 07 bf cc 	ld  [ %fp + -52 ], %o5
    8778:	80 a3 60 00 	cmp  %o5, 0
    877c:	04 80 00 07 	ble  8798 <_dtoa_r+0x8b0>
    8780:	b4 10 00 08 	mov  %o0, %i2
    8784:	92 10 00 08 	mov  %o0, %o1
    8788:	d0 07 a0 44 	ld  [ %fp + 0x44 ], %o0
    878c:	40 00 06 6f 	call  a148 <_pow5mult>
    8790:	94 10 00 0d 	mov  %o5, %o2
    8794:	b4 10 00 08 	mov  %o0, %i2
    8798:	80 a6 e0 01 	cmp  %i3, 1
    879c:	04 80 01 3f 	ble  8c98 <_dtoa_r+0xdb0>
    87a0:	a0 10 20 00 	clr  %l0
    87a4:	d6 07 bf cc 	ld  [ %fp + -52 ], %o3
    87a8:	82 07 20 01 	add  %i4, 1, %g1
    87ac:	80 a2 e0 00 	cmp  %o3, 0
    87b0:	12 80 01 32 	bne  8c78 <_dtoa_r+0xd90>
    87b4:	b2 08 60 1f 	and  %g1, 0x1f, %i1
    87b8:	80 a6 60 00 	cmp  %i1, 0
    87bc:	02 80 00 05 	be  87d0 <_dtoa_r+0x8e8>
    87c0:	80 a6 60 04 	cmp  %i1, 4
    87c4:	82 10 20 20 	mov  0x20, %g1
    87c8:	b2 20 40 19 	sub  %g1, %i1, %i1
    87cc:	80 a6 60 04 	cmp  %i1, 4
    87d0:	04 80 01 22 	ble  8c58 <_dtoa_r+0xd70>
    87d4:	80 a6 60 03 	cmp  %i1, 3
    87d8:	d8 07 bf ec 	ld  [ %fp + -20 ], %o4
    87dc:	b2 06 7f fc 	add  %i1, -4, %i1
    87e0:	98 03 00 19 	add  %o4, %i1, %o4
    87e4:	b8 07 00 19 	add  %i4, %i1, %i4
    87e8:	d8 27 bf ec 	st  %o4, [ %fp + -20 ]
    87ec:	a2 04 40 19 	add  %l1, %i1, %l1
    87f0:	c2 07 bf ec 	ld  [ %fp + -20 ], %g1
    87f4:	80 a0 60 00 	cmp  %g1, 0
    87f8:	04 80 00 06 	ble  8810 <_dtoa_r+0x928>
    87fc:	d2 07 bf c4 	ld  [ %fp + -60 ], %o1
    8800:	d0 07 a0 44 	ld  [ %fp + 0x44 ], %o0
    8804:	40 00 06 90 	call  a244 <_lshift>
    8808:	94 10 00 01 	mov  %g1, %o2
    880c:	d0 27 bf c4 	st  %o0, [ %fp + -60 ]
    8810:	80 a7 20 00 	cmp  %i4, 0
    8814:	04 80 00 06 	ble  882c <_dtoa_r+0x944>
    8818:	d0 07 a0 44 	ld  [ %fp + 0x44 ], %o0
    881c:	92 10 00 1a 	mov  %i2, %o1
    8820:	40 00 06 89 	call  a244 <_lshift>
    8824:	94 10 00 1c 	mov  %i4, %o2
    8828:	b4 10 00 08 	mov  %o0, %i2
    882c:	d6 07 bf d4 	ld  [ %fp + -44 ], %o3
    8830:	80 a2 e0 00 	cmp  %o3, 0
    8834:	12 80 00 f0 	bne  8bf4 <_dtoa_r+0xd0c>
    8838:	d0 07 bf c4 	ld  [ %fp + -60 ], %o0
    883c:	d6 07 bf e4 	ld  [ %fp + -28 ], %o3
    8840:	80 a6 e0 02 	cmp  %i3, 2
    8844:	82 02 ff ff 	add  %o3, -1, %g1
    8848:	9a 10 20 01 	mov  1, %o5
    884c:	82 12 c0 01 	or  %o3, %g1, %g1
    8850:	14 80 00 03 	bg  885c <_dtoa_r+0x974>
    8854:	83 30 60 1f 	srl  %g1, 0x1f, %g1
    8858:	9a 10 20 00 	clr  %o5
    885c:	80 88 40 0d 	btst  %g1, %o5
    8860:	02 80 00 13 	be  88ac <_dtoa_r+0x9c4>
    8864:	d8 07 bf d0 	ld  [ %fp + -48 ], %o4
    8868:	d8 07 bf e4 	ld  [ %fp + -28 ], %o4
    886c:	80 a3 20 00 	cmp  %o4, 0
    8870:	06 bf fe eb 	bl  841c <_dtoa_r+0x534>
    8874:	d0 07 a0 44 	ld  [ %fp + 0x44 ], %o0
    8878:	92 10 00 1a 	mov  %i2, %o1
    887c:	94 10 20 05 	mov  5, %o2
    8880:	40 00 04 e1 	call  9c04 <_multadd>
    8884:	96 10 20 00 	clr  %o3
    8888:	b4 10 00 08 	mov  %o0, %i2
    888c:	d0 07 bf c4 	ld  [ %fp + -60 ], %o0
    8890:	40 00 06 ab 	call  a33c <__mcmp>
    8894:	92 10 00 1a 	mov  %i2, %o1
    8898:	80 a2 20 00 	cmp  %o0, 0
    889c:	14 bf fe af 	bg  8358 <_dtoa_r+0x470>
    88a0:	d6 07 bf b8 	ld  [ %fp + -72 ], %o3
    88a4:	10 bf fe df 	b  8420 <_dtoa_r+0x538>
    88a8:	da 07 a0 54 	ld  [ %fp + 0x54 ], %o5
    88ac:	80 a3 20 00 	cmp  %o4, 0
    88b0:	02 80 00 c0 	be  8bb0 <_dtoa_r+0xcc8>
    88b4:	b2 10 20 01 	mov  1, %i1
    88b8:	80 a4 60 00 	cmp  %l1, 0
    88bc:	04 80 00 06 	ble  88d4 <_dtoa_r+0x9ec>
    88c0:	d2 07 bf bc 	ld  [ %fp + -68 ], %o1
    88c4:	d0 07 a0 44 	ld  [ %fp + 0x44 ], %o0
    88c8:	40 00 06 5f 	call  a244 <_lshift>
    88cc:	94 10 00 11 	mov  %l1, %o2
    88d0:	d0 27 bf bc 	st  %o0, [ %fp + -68 ]
    88d4:	da 07 bf bc 	ld  [ %fp + -68 ], %o5
    88d8:	80 a4 20 00 	cmp  %l0, 0
    88dc:	12 80 00 a4 	bne  8b6c <_dtoa_r+0xc84>
    88e0:	da 27 bf c0 	st  %o5, [ %fp + -64 ]
    88e4:	b2 10 20 01 	mov  1, %i1
    88e8:	d0 07 bf c4 	ld  [ %fp + -60 ], %o0
    88ec:	7f ff fc f8 	call  7ccc <quorem>
    88f0:	92 10 00 1a 	mov  %i2, %o1
    88f4:	d2 07 bf c0 	ld  [ %fp + -64 ], %o1
    88f8:	a6 02 20 30 	add  %o0, 0x30, %l3
    88fc:	d0 07 bf c4 	ld  [ %fp + -60 ], %o0
    8900:	40 00 06 8f 	call  a33c <__mcmp>
    8904:	a4 10 20 01 	mov  1, %l2
    8908:	d4 07 bf bc 	ld  [ %fp + -68 ], %o2
    890c:	a0 10 00 08 	mov  %o0, %l0
    8910:	d0 07 a0 44 	ld  [ %fp + 0x44 ], %o0
    8914:	40 00 06 a4 	call  a3a4 <__mdiff>
    8918:	92 10 00 1a 	mov  %i2, %o1
    891c:	c2 02 20 0c 	ld  [ %o0 + 0xc ], %g1
    8920:	80 a0 60 00 	cmp  %g1, 0
    8924:	02 80 00 8d 	be  8b58 <_dtoa_r+0xc70>
    8928:	a2 10 00 08 	mov  %o0, %l1
    892c:	d0 07 a0 44 	ld  [ %fp + 0x44 ], %o0
    8930:	40 00 04 aa 	call  9bd8 <_Bfree>
    8934:	92 10 00 11 	mov  %l1, %o1
    8938:	80 94 80 1b 	orcc  %l2, %i3, %g0
    893c:	12 80 00 05 	bne  8950 <_dtoa_r+0xa68>
    8940:	80 a4 20 00 	cmp  %l0, 0
    8944:	80 8d 60 01 	btst  1, %l5
    8948:	02 80 00 7d 	be  8b3c <_dtoa_r+0xc54>
    894c:	80 a4 20 00 	cmp  %l0, 0
    8950:	06 80 00 62 	bl  8ad8 <_dtoa_r+0xbf0>
    8954:	80 94 00 1b 	orcc  %l0, %i3, %g0
    8958:	12 80 00 05 	bne  896c <_dtoa_r+0xa84>
    895c:	80 a4 a0 00 	cmp  %l2, 0
    8960:	80 8d 60 01 	btst  1, %l5
    8964:	02 80 00 5d 	be  8ad8 <_dtoa_r+0xbf0>
    8968:	80 a4 a0 00 	cmp  %l2, 0
    896c:	14 80 00 55 	bg  8ac0 <_dtoa_r+0xbd8>
    8970:	80 a4 e0 39 	cmp  %l3, 0x39
    8974:	e6 2e 00 00 	stb  %l3, [ %i0 ]
    8978:	d6 07 bf e4 	ld  [ %fp + -28 ], %o3
    897c:	80 a6 40 0b 	cmp  %i1, %o3
    8980:	02 80 00 22 	be  8a08 <_dtoa_r+0xb20>
    8984:	b0 06 20 01 	inc  %i0
    8988:	d2 07 bf c4 	ld  [ %fp + -60 ], %o1
    898c:	d0 07 a0 44 	ld  [ %fp + 0x44 ], %o0
    8990:	94 10 20 0a 	mov  0xa, %o2
    8994:	40 00 04 9c 	call  9c04 <_multadd>
    8998:	96 10 20 00 	clr  %o3
    899c:	d8 07 bf c0 	ld  [ %fp + -64 ], %o4
    89a0:	da 07 bf bc 	ld  [ %fp + -68 ], %o5
    89a4:	80 a3 00 0d 	cmp  %o4, %o5
    89a8:	02 80 00 10 	be  89e8 <_dtoa_r+0xb00>
    89ac:	d0 27 bf c4 	st  %o0, [ %fp + -60 ]
    89b0:	d2 07 bf c0 	ld  [ %fp + -64 ], %o1
    89b4:	d0 07 a0 44 	ld  [ %fp + 0x44 ], %o0
    89b8:	94 10 20 0a 	mov  0xa, %o2
    89bc:	40 00 04 92 	call  9c04 <_multadd>
    89c0:	96 10 20 00 	clr  %o3
    89c4:	d2 07 bf bc 	ld  [ %fp + -68 ], %o1
    89c8:	d0 27 bf c0 	st  %o0, [ %fp + -64 ]
    89cc:	d0 07 a0 44 	ld  [ %fp + 0x44 ], %o0
    89d0:	94 10 20 0a 	mov  0xa, %o2
    89d4:	40 00 04 8c 	call  9c04 <_multadd>
    89d8:	96 10 20 00 	clr  %o3
    89dc:	d0 27 bf bc 	st  %o0, [ %fp + -68 ]
    89e0:	10 bf ff c2 	b  88e8 <_dtoa_r+0xa00>
    89e4:	b2 06 60 01 	inc  %i1
    89e8:	d0 07 a0 44 	ld  [ %fp + 0x44 ], %o0
    89ec:	92 10 00 0d 	mov  %o5, %o1
    89f0:	94 10 20 0a 	mov  0xa, %o2
    89f4:	40 00 04 84 	call  9c04 <_multadd>
    89f8:	96 10 20 00 	clr  %o3
    89fc:	d0 27 bf bc 	st  %o0, [ %fp + -68 ]
    8a00:	10 bf ff f8 	b  89e0 <_dtoa_r+0xaf8>
    8a04:	d0 27 bf c0 	st  %o0, [ %fp + -64 ]
    8a08:	d2 07 bf c4 	ld  [ %fp + -60 ], %o1
    8a0c:	d0 07 a0 44 	ld  [ %fp + 0x44 ], %o0
    8a10:	40 00 06 0d 	call  a244 <_lshift>
    8a14:	94 10 20 01 	mov  1, %o2
    8a18:	92 10 00 1a 	mov  %i2, %o1
    8a1c:	40 00 06 48 	call  a33c <__mcmp>
    8a20:	d0 27 bf c4 	st  %o0, [ %fp + -60 ]
    8a24:	a0 92 20 00 	orcc  %o0, 0, %l0
    8a28:	04 80 00 1b 	ble  8a94 <_dtoa_r+0xbac>
    8a2c:	80 a4 20 00 	cmp  %l0, 0
    8a30:	b0 06 3f ff 	add  %i0, -1, %i0
    8a34:	c2 4e 00 00 	ldsb  [ %i0 ], %g1
    8a38:	80 a0 60 39 	cmp  %g1, 0x39
    8a3c:	02 80 00 06 	be  8a54 <_dtoa_r+0xb6c>
    8a40:	da 0e 00 00 	ldub  [ %i0 ], %o5
    8a44:	82 03 60 01 	add  %o5, 1, %g1
    8a48:	c2 2e 00 00 	stb  %g1, [ %i0 ]
    8a4c:	10 bf fe 47 	b  8368 <_dtoa_r+0x480>
    8a50:	b0 06 20 01 	inc  %i0
    8a54:	d6 07 bf b8 	ld  [ %fp + -72 ], %o3
    8a58:	80 a6 00 0b 	cmp  %i0, %o3
    8a5c:	02 80 00 09 	be  8a80 <_dtoa_r+0xb98>
    8a60:	d8 07 bf b8 	ld  [ %fp + -72 ], %o4
    8a64:	b0 06 3f ff 	add  %i0, -1, %i0
    8a68:	c2 4e 00 00 	ldsb  [ %i0 ], %g1
    8a6c:	80 a0 60 39 	cmp  %g1, 0x39
    8a70:	02 bf ff fa 	be  8a58 <_dtoa_r+0xb70>
    8a74:	da 0e 00 00 	ldub  [ %i0 ], %o5
    8a78:	10 bf ff f4 	b  8a48 <_dtoa_r+0xb60>
    8a7c:	82 03 60 01 	add  %o5, 1, %g1
    8a80:	82 10 20 31 	mov  0x31, %g1
    8a84:	ba 07 60 01 	inc  %i5
    8a88:	c2 2b 00 00 	stb  %g1, [ %o4 ]
    8a8c:	10 bf fe 37 	b  8368 <_dtoa_r+0x480>
    8a90:	b0 03 20 01 	add  %o4, 1, %i0
    8a94:	12 80 00 05 	bne  8aa8 <_dtoa_r+0xbc0>
    8a98:	b0 06 3f ff 	add  %i0, -1, %i0
    8a9c:	80 8c e0 01 	btst  1, %l3
    8aa0:	12 bf ff e5 	bne  8a34 <_dtoa_r+0xb4c>
    8aa4:	01 00 00 00 	nop 
    8aa8:	c2 4e 00 00 	ldsb  [ %i0 ], %g1
    8aac:	80 a0 60 30 	cmp  %g1, 0x30
    8ab0:	22 bf ff fe 	be,a   8aa8 <_dtoa_r+0xbc0>
    8ab4:	b0 06 3f ff 	add  %i0, -1, %i0
    8ab8:	10 bf fe 2c 	b  8368 <_dtoa_r+0x480>
    8abc:	b0 06 20 01 	inc  %i0
    8ac0:	12 bf ff e2 	bne  8a48 <_dtoa_r+0xb60>
    8ac4:	82 04 e0 01 	add  %l3, 1, %g1
    8ac8:	82 10 20 39 	mov  0x39, %g1
    8acc:	c2 2e 00 00 	stb  %g1, [ %i0 ]
    8ad0:	10 bf ff d8 	b  8a30 <_dtoa_r+0xb48>
    8ad4:	b0 06 20 01 	inc  %i0
    8ad8:	80 a4 a0 00 	cmp  %l2, 0
    8adc:	04 80 00 0f 	ble  8b18 <_dtoa_r+0xc30>
    8ae0:	d2 07 bf c4 	ld  [ %fp + -60 ], %o1
    8ae4:	d0 07 a0 44 	ld  [ %fp + 0x44 ], %o0
    8ae8:	40 00 05 d7 	call  a244 <_lshift>
    8aec:	94 10 20 01 	mov  1, %o2
    8af0:	92 10 00 1a 	mov  %i2, %o1
    8af4:	40 00 06 12 	call  a33c <__mcmp>
    8af8:	d0 27 bf c4 	st  %o0, [ %fp + -60 ]
    8afc:	a4 92 20 00 	orcc  %o0, 0, %l2
    8b00:	04 80 00 08 	ble  8b20 <_dtoa_r+0xc38>
    8b04:	80 a4 a0 00 	cmp  %l2, 0
    8b08:	a6 04 e0 01 	inc  %l3
    8b0c:	80 a4 e0 3a 	cmp  %l3, 0x3a
    8b10:	02 bf ff ef 	be  8acc <_dtoa_r+0xbe4>
    8b14:	82 10 20 39 	mov  0x39, %g1
    8b18:	10 bf ff cd 	b  8a4c <_dtoa_r+0xb64>
    8b1c:	e6 2e 00 00 	stb  %l3, [ %i0 ]
    8b20:	32 bf ff cb 	bne,a   8a4c <_dtoa_r+0xb64>
    8b24:	e6 2e 00 00 	stb  %l3, [ %i0 ]
    8b28:	80 8c e0 01 	btst  1, %l3
    8b2c:	22 bf ff c8 	be,a   8a4c <_dtoa_r+0xb64>
    8b30:	e6 2e 00 00 	stb  %l3, [ %i0 ]
    8b34:	10 bf ff f6 	b  8b0c <_dtoa_r+0xc24>
    8b38:	a6 04 e0 01 	inc  %l3
    8b3c:	80 a4 e0 39 	cmp  %l3, 0x39
    8b40:	02 bf ff e2 	be  8ac8 <_dtoa_r+0xbe0>
    8b44:	83 3c 20 1f 	sra  %l0, 0x1f, %g1
    8b48:	82 20 40 10 	sub  %g1, %l0, %g1
    8b4c:	83 30 60 1f 	srl  %g1, 0x1f, %g1
    8b50:	10 bf ff f2 	b  8b18 <_dtoa_r+0xc30>
    8b54:	a6 04 c0 01 	add  %l3, %g1, %l3
    8b58:	d0 07 bf c4 	ld  [ %fp + -60 ], %o0
    8b5c:	40 00 05 f8 	call  a33c <__mcmp>
    8b60:	92 10 00 11 	mov  %l1, %o1
    8b64:	10 bf ff 72 	b  892c <_dtoa_r+0xa44>
    8b68:	a4 10 00 08 	mov  %o0, %l2
    8b6c:	d2 03 60 04 	ld  [ %o5 + 4 ], %o1
    8b70:	40 00 03 f2 	call  9b38 <_Balloc>
    8b74:	d0 07 a0 44 	ld  [ %fp + 0x44 ], %o0
    8b78:	c2 07 bf c0 	ld  [ %fp + -64 ], %g1
    8b7c:	d0 27 bf bc 	st  %o0, [ %fp + -68 ]
    8b80:	d4 00 60 10 	ld  [ %g1 + 0x10 ], %o2
    8b84:	92 00 60 0c 	add  %g1, 0xc, %o1
    8b88:	90 02 20 0c 	add  %o0, 0xc, %o0
    8b8c:	95 2a a0 02 	sll  %o2, 2, %o2
    8b90:	40 00 03 70 	call  9950 <memcpy>
    8b94:	94 02 a0 08 	add  %o2, 8, %o2
    8b98:	d0 07 a0 44 	ld  [ %fp + 0x44 ], %o0
    8b9c:	d2 07 bf bc 	ld  [ %fp + -68 ], %o1
    8ba0:	40 00 05 a9 	call  a244 <_lshift>
    8ba4:	94 10 20 01 	mov  1, %o2
    8ba8:	10 bf ff 4f 	b  88e4 <_dtoa_r+0x9fc>
    8bac:	d0 27 bf bc 	st  %o0, [ %fp + -68 ]
    8bb0:	d0 07 bf c4 	ld  [ %fp + -60 ], %o0
    8bb4:	7f ff fc 46 	call  7ccc <quorem>
    8bb8:	92 10 00 1a 	mov  %i2, %o1
    8bbc:	c2 07 bf e4 	ld  [ %fp + -28 ], %g1
    8bc0:	a6 02 20 30 	add  %o0, 0x30, %l3
    8bc4:	80 a6 40 01 	cmp  %i1, %g1
    8bc8:	e6 2e 00 00 	stb  %l3, [ %i0 ]
    8bcc:	16 bf ff 8f 	bge  8a08 <_dtoa_r+0xb20>
    8bd0:	b0 06 20 01 	inc  %i0
    8bd4:	d2 07 bf c4 	ld  [ %fp + -60 ], %o1
    8bd8:	d0 07 a0 44 	ld  [ %fp + 0x44 ], %o0
    8bdc:	94 10 20 0a 	mov  0xa, %o2
    8be0:	96 10 20 00 	clr  %o3
    8be4:	40 00 04 08 	call  9c04 <_multadd>
    8be8:	b2 06 60 01 	inc  %i1
    8bec:	10 bf ff f1 	b  8bb0 <_dtoa_r+0xcc8>
    8bf0:	d0 27 bf c4 	st  %o0, [ %fp + -60 ]
    8bf4:	40 00 05 d2 	call  a33c <__mcmp>
    8bf8:	92 10 00 1a 	mov  %i2, %o1
    8bfc:	80 a2 20 00 	cmp  %o0, 0
    8c00:	16 bf ff 10 	bge  8840 <_dtoa_r+0x958>
    8c04:	d6 07 bf e4 	ld  [ %fp + -28 ], %o3
    8c08:	d2 07 bf c4 	ld  [ %fp + -60 ], %o1
    8c0c:	d0 07 a0 44 	ld  [ %fp + 0x44 ], %o0
    8c10:	94 10 20 0a 	mov  0xa, %o2
    8c14:	40 00 03 fc 	call  9c04 <_multadd>
    8c18:	96 10 20 00 	clr  %o3
    8c1c:	d8 07 bf d0 	ld  [ %fp + -48 ], %o4
    8c20:	d0 27 bf c4 	st  %o0, [ %fp + -60 ]
    8c24:	80 a3 20 00 	cmp  %o4, 0
    8c28:	12 80 00 05 	bne  8c3c <_dtoa_r+0xd54>
    8c2c:	ba 07 7f ff 	add  %i5, -1, %i5
    8c30:	da 07 bf dc 	ld  [ %fp + -36 ], %o5
    8c34:	10 bf ff 02 	b  883c <_dtoa_r+0x954>
    8c38:	da 27 bf e4 	st  %o5, [ %fp + -28 ]
    8c3c:	d2 07 bf bc 	ld  [ %fp + -68 ], %o1
    8c40:	d0 07 a0 44 	ld  [ %fp + 0x44 ], %o0
    8c44:	94 10 20 0a 	mov  0xa, %o2
    8c48:	40 00 03 ef 	call  9c04 <_multadd>
    8c4c:	96 10 20 00 	clr  %o3
    8c50:	10 bf ff f8 	b  8c30 <_dtoa_r+0xd48>
    8c54:	d0 27 bf bc 	st  %o0, [ %fp + -68 ]
    8c58:	14 bf fe e7 	bg  87f4 <_dtoa_r+0x90c>
    8c5c:	c2 07 bf ec 	ld  [ %fp + -20 ], %g1
    8c60:	da 07 bf ec 	ld  [ %fp + -20 ], %o5
    8c64:	b2 06 60 1c 	add  %i1, 0x1c, %i1
    8c68:	9a 03 40 19 	add  %o5, %i1, %o5
    8c6c:	b8 07 00 19 	add  %i4, %i1, %i4
    8c70:	10 bf fe df 	b  87ec <_dtoa_r+0x904>
    8c74:	da 27 bf ec 	st  %o5, [ %fp + -20 ]
    8c78:	c2 06 a0 10 	ld  [ %i2 + 0x10 ], %g1
    8c7c:	83 28 60 02 	sll  %g1, 2, %g1
    8c80:	82 00 40 1a 	add  %g1, %i2, %g1
    8c84:	40 00 04 4a 	call  9dac <_hi0bits>
    8c88:	d0 00 60 10 	ld  [ %g1 + 0x10 ], %o0
    8c8c:	90 27 00 08 	sub  %i4, %o0, %o0
    8c90:	10 bf fe ca 	b  87b8 <_dtoa_r+0x8d0>
    8c94:	b2 0a 20 1f 	and  %o0, 0x1f, %i1
    8c98:	80 a5 60 00 	cmp  %l5, 0
    8c9c:	12 bf fe c3 	bne  87a8 <_dtoa_r+0x8c0>
    8ca0:	d6 07 bf cc 	ld  [ %fp + -52 ], %o3
    8ca4:	03 3f fc 00 	sethi  %hi(0xfff00000), %g1
    8ca8:	80 ad 00 01 	andncc  %l4, %g1, %g0
    8cac:	12 bf fe c0 	bne  87ac <_dtoa_r+0x8c4>
    8cb0:	82 07 20 01 	add  %i4, 1, %g1
    8cb4:	03 1f fc 00 	sethi  %hi(0x7ff00000), %g1
    8cb8:	80 88 40 14 	btst  %g1, %l4
    8cbc:	02 bf fe bc 	be  87ac <_dtoa_r+0x8c4>
    8cc0:	82 07 20 01 	add  %i4, 1, %g1
    8cc4:	c2 07 bf ec 	ld  [ %fp + -20 ], %g1
    8cc8:	b8 07 20 01 	inc  %i4
    8ccc:	82 00 60 01 	inc  %g1
    8cd0:	a0 10 20 01 	mov  1, %l0
    8cd4:	10 bf fe b4 	b  87a4 <_dtoa_r+0x8bc>
    8cd8:	c2 27 bf ec 	st  %g1, [ %fp + -20 ]
    8cdc:	94 10 00 10 	mov  %l0, %o2
    8ce0:	40 00 05 1a 	call  a148 <_pow5mult>
    8ce4:	d0 07 a0 44 	ld  [ %fp + 0x44 ], %o0
    8ce8:	10 bf fe a0 	b  8768 <_dtoa_r+0x880>
    8cec:	d0 27 bf c4 	st  %o0, [ %fp + -60 ]
    8cf0:	d2 07 bf c4 	ld  [ %fp + -60 ], %o1
    8cf4:	10 bf ff fb 	b  8ce0 <_dtoa_r+0xdf8>
    8cf8:	d4 07 bf e8 	ld  [ %fp + -24 ], %o2
    8cfc:	a2 22 c0 19 	sub  %o3, %i1, %l1
    8d00:	10 bf fe 68 	b  86a0 <_dtoa_r+0x7b8>
    8d04:	b2 10 20 00 	clr  %i1
    8d08:	d6 07 bf c8 	ld  [ %fp + -56 ], %o3
    8d0c:	80 a2 e0 00 	cmp  %o3, 0
    8d10:	12 bf fe 64 	bne  86a0 <_dtoa_r+0x7b8>
    8d14:	b2 02 24 33 	add  %o0, 0x433, %i1
    8d18:	c2 07 bf f0 	ld  [ %fp + -16 ], %g1
    8d1c:	9a 10 20 36 	mov  0x36, %o5
    8d20:	10 bf fe 60 	b  86a0 <_dtoa_r+0x7b8>
    8d24:	b2 23 40 01 	sub  %o5, %g1, %i1
    8d28:	d6 07 bf d0 	ld  [ %fp + -48 ], %o3
    8d2c:	80 a2 e0 00 	cmp  %o3, 0
    8d30:	02 80 00 42 	be  8e38 <_dtoa_r+0xf50>
    8d34:	c2 07 bf e4 	ld  [ %fp + -28 ], %g1
    8d38:	d8 07 bf e4 	ld  [ %fp + -28 ], %o4
    8d3c:	03 00 00 3a 	sethi  %hi(0xe800), %g1
    8d40:	9b 2b 20 03 	sll  %o4, 3, %o5
    8d44:	82 10 62 98 	or  %g1, 0x298, %g1
    8d48:	9a 03 40 01 	add  %o5, %g1, %o5
    8d4c:	d4 1b 7f f8 	ldd  [ %o5 + -8 ], %o2
    8d50:	1b 00 00 3a 	sethi  %hi(0xe800), %o5
    8d54:	d0 1b 62 38 	ldd  [ %o5 + 0x238 ], %o0	! ea38 <_ctype_+0x159>
    8d58:	40 00 12 25 	call  d5ec <__divdf3>
    8d5c:	b2 10 20 00 	clr  %i1
    8d60:	94 10 00 12 	mov  %l2, %o2
    8d64:	40 00 11 2d 	call  d218 <__subdf3>
    8d68:	96 10 00 13 	mov  %l3, %o3
    8d6c:	a4 10 00 08 	mov  %o0, %l2
    8d70:	a6 10 00 09 	mov  %o1, %l3
    8d74:	92 10 00 15 	mov  %l5, %o1
    8d78:	40 00 13 64 	call  db08 <__fixdfsi>
    8d7c:	90 10 00 14 	mov  %l4, %o0
    8d80:	40 00 13 2d 	call  da34 <__floatsidf>
    8d84:	b4 10 00 08 	mov  %o0, %i2
    8d88:	94 10 00 08 	mov  %o0, %o2
    8d8c:	96 10 00 09 	mov  %o1, %o3
    8d90:	90 10 00 14 	mov  %l4, %o0
    8d94:	40 00 11 21 	call  d218 <__subdf3>
    8d98:	92 10 00 15 	mov  %l5, %o1
    8d9c:	82 06 a0 30 	add  %i2, 0x30, %g1
    8da0:	a0 10 00 08 	mov  %o0, %l0
    8da4:	c2 2e 00 00 	stb  %g1, [ %i0 ]
    8da8:	a2 10 00 09 	mov  %o1, %l1
    8dac:	94 10 00 12 	mov  %l2, %o2
    8db0:	96 10 00 13 	mov  %l3, %o3
    8db4:	40 00 12 ee 	call  d96c <__ltdf2>
    8db8:	b0 06 20 01 	inc  %i0
    8dbc:	80 a2 20 00 	cmp  %o0, 0
    8dc0:	06 bf fd 7d 	bl  83b4 <_dtoa_r+0x4cc>
    8dc4:	03 00 00 3a 	sethi  %hi(0xe800), %g1
    8dc8:	d0 18 62 18 	ldd  [ %g1 + 0x218 ], %o0	! ea18 <_ctype_+0x139>
    8dcc:	94 10 00 10 	mov  %l0, %o2
    8dd0:	40 00 11 12 	call  d218 <__subdf3>
    8dd4:	96 10 00 11 	mov  %l1, %o3
    8dd8:	94 10 00 12 	mov  %l2, %o2
    8ddc:	40 00 12 e4 	call  d96c <__ltdf2>
    8de0:	96 10 00 13 	mov  %l3, %o3
    8de4:	80 a2 20 00 	cmp  %o0, 0
    8de8:	06 bf fd fc 	bl  85d8 <_dtoa_r+0x6f0>
    8dec:	b2 06 60 01 	inc  %i1
    8df0:	d6 07 bf e4 	ld  [ %fp + -28 ], %o3
    8df4:	80 a6 40 0b 	cmp  %i1, %o3
    8df8:	16 bf fd 8c 	bge  8428 <_dtoa_r+0x540>
    8dfc:	19 00 00 3a 	sethi  %hi(0xe800), %o4
    8e00:	d0 1b 22 20 	ldd  [ %o4 + 0x220 ], %o0	! ea20 <_ctype_+0x141>
    8e04:	94 10 00 12 	mov  %l2, %o2
    8e08:	40 00 11 1b 	call  d274 <__muldf3>
    8e0c:	96 10 00 13 	mov  %l3, %o3
    8e10:	1b 00 00 3a 	sethi  %hi(0xe800), %o5
    8e14:	a4 10 00 08 	mov  %o0, %l2
    8e18:	a6 10 00 09 	mov  %o1, %l3
    8e1c:	d0 1b 62 20 	ldd  [ %o5 + 0x220 ], %o0
    8e20:	94 10 00 10 	mov  %l0, %o2
    8e24:	40 00 11 14 	call  d274 <__muldf3>
    8e28:	96 10 00 11 	mov  %l1, %o3
    8e2c:	a8 10 00 08 	mov  %o0, %l4
    8e30:	10 bf ff d1 	b  8d74 <_dtoa_r+0xe8c>
    8e34:	aa 10 00 09 	mov  %o1, %l5
    8e38:	96 10 00 09 	mov  %o1, %o3
    8e3c:	9b 28 60 03 	sll  %g1, 3, %o5
    8e40:	03 00 00 3a 	sethi  %hi(0xe800), %g1
    8e44:	82 10 62 98 	or  %g1, 0x298, %g1	! ea98 <__mprec_tens>
    8e48:	9a 03 40 01 	add  %o5, %g1, %o5
    8e4c:	d0 1b 7f f8 	ldd  [ %o5 + -8 ], %o0
    8e50:	94 10 00 12 	mov  %l2, %o2
    8e54:	40 00 11 08 	call  d274 <__muldf3>
    8e58:	b2 10 20 01 	mov  1, %i1
    8e5c:	a4 10 00 08 	mov  %o0, %l2
    8e60:	a6 10 00 09 	mov  %o1, %l3
    8e64:	92 10 00 15 	mov  %l5, %o1
    8e68:	40 00 13 28 	call  db08 <__fixdfsi>
    8e6c:	90 10 00 14 	mov  %l4, %o0
    8e70:	40 00 12 f1 	call  da34 <__floatsidf>
    8e74:	b4 10 00 08 	mov  %o0, %i2
    8e78:	96 10 00 09 	mov  %o1, %o3
    8e7c:	94 10 00 08 	mov  %o0, %o2
    8e80:	92 10 00 15 	mov  %l5, %o1
    8e84:	40 00 10 e5 	call  d218 <__subdf3>
    8e88:	90 10 00 14 	mov  %l4, %o0
    8e8c:	d6 07 bf e4 	ld  [ %fp + -28 ], %o3
    8e90:	82 06 a0 30 	add  %i2, 0x30, %g1
    8e94:	a0 10 00 08 	mov  %o0, %l0
    8e98:	c2 2e 00 00 	stb  %g1, [ %i0 ]
    8e9c:	a2 10 00 09 	mov  %o1, %l1
    8ea0:	80 a6 40 0b 	cmp  %i1, %o3
    8ea4:	02 80 00 0b 	be  8ed0 <_dtoa_r+0xfe8>
    8ea8:	b0 06 20 01 	inc  %i0
    8eac:	96 10 00 09 	mov  %o1, %o3
    8eb0:	03 00 00 3a 	sethi  %hi(0xe800), %g1
    8eb4:	d0 18 62 20 	ldd  [ %g1 + 0x220 ], %o0	! ea20 <_ctype_+0x141>
    8eb8:	94 10 00 10 	mov  %l0, %o2
    8ebc:	40 00 10 ee 	call  d274 <__muldf3>
    8ec0:	b2 06 60 01 	inc  %i1
    8ec4:	a8 10 00 08 	mov  %o0, %l4
    8ec8:	10 bf ff e7 	b  8e64 <_dtoa_r+0xf7c>
    8ecc:	aa 10 00 09 	mov  %o1, %l5
    8ed0:	19 00 00 3a 	sethi  %hi(0xe800), %o4
    8ed4:	d0 1b 22 38 	ldd  [ %o4 + 0x238 ], %o0	! ea38 <_ctype_+0x159>
    8ed8:	94 10 00 12 	mov  %l2, %o2
    8edc:	40 00 10 bb 	call  d1c8 <__adddf3>
    8ee0:	96 10 00 13 	mov  %l3, %o3
    8ee4:	94 10 00 10 	mov  %l0, %o2
    8ee8:	40 00 12 a1 	call  d96c <__ltdf2>
    8eec:	96 10 00 11 	mov  %l1, %o3
    8ef0:	80 a2 20 00 	cmp  %o0, 0
    8ef4:	06 bf fd b9 	bl  85d8 <_dtoa_r+0x6f0>
    8ef8:	1b 00 00 3a 	sethi  %hi(0xe800), %o5
    8efc:	d0 1b 62 38 	ldd  [ %o5 + 0x238 ], %o0	! ea38 <_ctype_+0x159>
    8f00:	94 10 00 12 	mov  %l2, %o2
    8f04:	40 00 10 c5 	call  d218 <__subdf3>
    8f08:	96 10 00 13 	mov  %l3, %o3
    8f0c:	94 10 00 10 	mov  %l0, %o2
    8f10:	40 00 12 65 	call  d8a4 <__gtdf2>
    8f14:	96 10 00 11 	mov  %l1, %o3
    8f18:	80 a2 20 00 	cmp  %o0, 0
    8f1c:	24 bf fd 44 	ble,a   842c <_dtoa_r+0x544>
    8f20:	d6 07 bf e0 	ld  [ %fp + -32 ], %o3
    8f24:	b0 06 3f ff 	add  %i0, -1, %i0
    8f28:	c2 4e 00 00 	ldsb  [ %i0 ], %g1
    8f2c:	80 a0 60 30 	cmp  %g1, 0x30
    8f30:	22 bf ff fe 	be,a   8f28 <_dtoa_r+0x1040>
    8f34:	b0 06 3f ff 	add  %i0, -1, %i0
    8f38:	10 bf fd 1f 	b  83b4 <_dtoa_r+0x4cc>
    8f3c:	b0 06 20 01 	inc  %i0
    8f40:	10 bf fc d4 	b  8290 <_dtoa_r+0x3a8>
    8f44:	9a 10 20 01 	mov  1, %o5
    8f48:	a4 a0 00 1d 	subcc  %g0, %i5, %l2
    8f4c:	02 bf fc c7 	be  8268 <_dtoa_r+0x380>
    8f50:	c2 07 bf d4 	ld  [ %fp + -44 ], %g1
    8f54:	9a 0c a0 0f 	and  %l2, 0xf, %o5
    8f58:	03 00 00 3a 	sethi  %hi(0xe800), %g1
    8f5c:	9b 2b 60 03 	sll  %o5, 3, %o5
    8f60:	82 10 62 98 	or  %g1, 0x298, %g1
    8f64:	98 00 40 0d 	add  %g1, %o5, %o4
    8f68:	d0 1b 00 00 	ldd  [ %o4 ], %o0
    8f6c:	94 10 00 14 	mov  %l4, %o2
    8f70:	40 00 10 c1 	call  d274 <__muldf3>
    8f74:	96 10 00 15 	mov  %l5, %o3
    8f78:	a1 3c a0 04 	sra  %l2, 4, %l0
    8f7c:	a8 10 00 08 	mov  %o0, %l4
    8f80:	80 a4 20 00 	cmp  %l0, 0
    8f84:	02 bf fc b8 	be  8264 <_dtoa_r+0x37c>
    8f88:	aa 10 00 09 	mov  %o1, %l5
    8f8c:	03 00 00 3a 	sethi  %hi(0xe800), %g1
    8f90:	a4 10 63 60 	or  %g1, 0x360, %l2	! eb60 <__mprec_bigtens>
    8f94:	80 8c 20 01 	btst  1, %l0
    8f98:	22 80 00 0c 	be,a   8fc8 <_dtoa_r+0x10e0>
    8f9c:	a1 3c 20 01 	sra  %l0, 1, %l0
    8fa0:	83 2e 60 03 	sll  %i1, 3, %g1
    8fa4:	9a 04 80 01 	add  %l2, %g1, %o5
    8fa8:	d0 1b 40 00 	ldd  [ %o5 ], %o0
    8fac:	94 10 00 14 	mov  %l4, %o2
    8fb0:	96 10 00 15 	mov  %l5, %o3
    8fb4:	40 00 10 b0 	call  d274 <__muldf3>
    8fb8:	a2 04 60 01 	inc  %l1
    8fbc:	a8 10 00 08 	mov  %o0, %l4
    8fc0:	aa 10 00 09 	mov  %o1, %l5
    8fc4:	a1 3c 20 01 	sra  %l0, 1, %l0
    8fc8:	80 a4 20 00 	cmp  %l0, 0
    8fcc:	12 bf ff f2 	bne  8f94 <_dtoa_r+0x10ac>
    8fd0:	b2 06 60 01 	inc  %i1
    8fd4:	10 bf fc a5 	b  8268 <_dtoa_r+0x380>
    8fd8:	c2 07 bf d4 	ld  [ %fp + -44 ], %g1
    8fdc:	c0 27 bf d0 	clr  [ %fp + -48 ]
    8fe0:	d8 07 a0 54 	ld  [ %fp + 0x54 ], %o4
    8fe4:	80 a3 20 00 	cmp  %o4, 0
    8fe8:	04 80 00 06 	ble  9000 <_dtoa_r+0x1118>
    8fec:	9a 10 20 01 	mov  1, %o5
    8ff0:	f2 07 a0 54 	ld  [ %fp + 0x54 ], %i1
    8ff4:	f2 27 bf dc 	st  %i1, [ %fp + -36 ]
    8ff8:	10 bf fc 4c 	b  8128 <_dtoa_r+0x240>
    8ffc:	f2 27 bf e4 	st  %i1, [ %fp + -28 ]
    9000:	10 bf ff fc 	b  8ff0 <_dtoa_r+0x1108>
    9004:	da 27 a0 54 	st  %o5, [ %fp + 0x54 ]
    9008:	c0 27 bf d0 	clr  [ %fp + -48 ]
    900c:	d6 07 a0 54 	ld  [ %fp + 0x54 ], %o3
    9010:	82 02 c0 1d 	add  %o3, %i5, %g1
    9014:	b2 00 60 01 	add  %g1, 1, %i1
    9018:	c2 27 bf dc 	st  %g1, [ %fp + -36 ]
    901c:	80 a6 60 00 	cmp  %i1, 0
    9020:	14 bf fc 42 	bg  8128 <_dtoa_r+0x240>
    9024:	f2 27 bf e4 	st  %i1, [ %fp + -28 ]
    9028:	10 bf fc 40 	b  8128 <_dtoa_r+0x240>
    902c:	b2 10 20 01 	mov  1, %i1
    9030:	9a 20 00 1d 	neg  %i5, %o5
    9034:	98 23 00 1d 	sub  %o4, %i5, %o4
    9038:	da 27 bf e8 	st  %o5, [ %fp + -24 ]
    903c:	d8 27 bf ec 	st  %o4, [ %fp + -20 ]
    9040:	10 bf fc 23 	b  80cc <_dtoa_r+0x1e4>
    9044:	c0 27 bf cc 	clr  [ %fp + -52 ]
    9048:	b8 10 20 00 	clr  %i4
    904c:	10 bf fc 1a 	b  80b4 <_dtoa_r+0x1cc>
    9050:	e0 27 bf ec 	st  %l0, [ %fp + -20 ]
    9054:	40 00 12 78 	call  da34 <__floatsidf>
    9058:	90 10 00 1d 	mov  %i5, %o0
    905c:	94 10 00 08 	mov  %o0, %o2
    9060:	96 10 00 09 	mov  %o1, %o3
    9064:	90 10 00 12 	mov  %l2, %o0
    9068:	40 00 11 f6 	call  d840 <__nedf2>
    906c:	92 10 00 13 	mov  %l3, %o1
    9070:	80 a0 00 08 	cmp  %g0, %o0
    9074:	10 bf fb f9 	b  8058 <_dtoa_r+0x170>
    9078:	ba 67 60 00 	subx  %i5, 0, %i5
    907c:	c2 07 bf f4 	ld  [ %fp + -12 ], %g1
    9080:	f4 07 bf f0 	ld  [ %fp + -16 ], %i2
    9084:	9a 06 80 01 	add  %i2, %g1, %o5
    9088:	b2 03 64 32 	add  %o5, 0x432, %i1
    908c:	82 20 00 19 	neg  %i1, %g1
    9090:	80 a6 60 20 	cmp  %i1, 0x20
    9094:	04 80 00 06 	ble  90ac <_dtoa_r+0x11c4>
    9098:	a1 2d 40 01 	sll  %l5, %g1, %l0
    909c:	9a 03 64 12 	add  %o5, 0x412, %o5
    90a0:	83 2d 00 01 	sll  %l4, %g1, %g1
    90a4:	9b 35 40 0d 	srl  %l5, %o5, %o5
    90a8:	a0 10 40 0d 	or  %g1, %o5, %l0
    90ac:	40 00 12 62 	call  da34 <__floatsidf>
    90b0:	90 10 00 10 	mov  %l0, %o0
    90b4:	80 a4 20 00 	cmp  %l0, 0
    90b8:	06 80 00 09 	bl  90dc <_dtoa_r+0x11f4>
    90bc:	1b 00 00 3a 	sethi  %hi(0xe800), %o5
    90c0:	03 3f 84 00 	sethi  %hi(0xfe100000), %g1
    90c4:	ae 10 00 09 	mov  %o1, %l7
    90c8:	ac 00 40 08 	add  %g1, %o0, %l6
    90cc:	b2 06 7b cd 	add  %i1, -1075, %i1
    90d0:	82 10 20 01 	mov  1, %g1
    90d4:	10 bf fb be 	b  7fcc <_dtoa_r+0xe4>
    90d8:	c2 27 bf c8 	st  %g1, [ %fp + -56 ]
    90dc:	40 00 10 3b 	call  d1c8 <__adddf3>
    90e0:	d4 1b 61 f0 	ldd  [ %o5 + 0x1f0 ], %o2
    90e4:	10 bf ff f8 	b  90c4 <_dtoa_r+0x11dc>
    90e8:	03 3f 84 00 	sethi  %hi(0xfe100000), %g1
    90ec:	d8 07 a0 58 	ld  [ %fp + 0x58 ], %o4
    90f0:	03 00 00 09 	sethi  %hi(0x2400), %g1
    90f4:	80 a5 60 00 	cmp  %l5, 0
    90f8:	82 10 63 0f 	or  %g1, 0x30f, %g1
    90fc:	12 80 00 07 	bne  9118 <_dtoa_r+0x1230>
    9100:	c2 23 00 00 	st  %g1, [ %o4 ]
    9104:	03 3f fc 00 	sethi  %hi(0xfff00000), %g1
    9108:	1b 00 00 3a 	sethi  %hi(0xe800), %o5
    910c:	80 ad 00 01 	andncc  %l4, %g1, %g0
    9110:	02 80 00 04 	be  9120 <_dtoa_r+0x1238>
    9114:	b0 13 61 e0 	or  %o5, 0x1e0, %i0
    9118:	03 00 00 3a 	sethi  %hi(0xe800), %g1
    911c:	b0 10 60 00 	mov  %g1, %i0	! e800 <zeroes.1+0x60>
    9120:	da 07 a0 60 	ld  [ %fp + 0x60 ], %o5
    9124:	80 a3 60 00 	cmp  %o5, 0
    9128:	02 80 00 1a 	be  9190 <_dtoa_r+0x12a8>
    912c:	82 10 00 18 	mov  %i0, %g1
    9130:	c2 4e 20 03 	ldsb  [ %i0 + 3 ], %g1
    9134:	80 a0 60 00 	cmp  %g1, 0
    9138:	12 80 00 03 	bne  9144 <_dtoa_r+0x125c>
    913c:	9a 06 20 08 	add  %i0, 8, %o5
    9140:	9a 06 20 03 	add  %i0, 3, %o5
    9144:	c2 07 a0 60 	ld  [ %fp + 0x60 ], %g1
    9148:	10 bf fb 8d 	b  7f7c <_dtoa_r+0x94>
    914c:	da 20 40 00 	st  %o5, [ %g1 ]
    9150:	1b 20 00 00 	sethi  %hi(0x80000000), %o5
    9154:	c2 24 00 00 	st  %g1, [ %l0 ]
    9158:	10 bf fb 73 	b  7f24 <_dtoa_r+0x3c>
    915c:	a8 2d 00 0d 	andn  %l4, %o5, %l4
    9160:	c2 06 20 44 	ld  [ %i0 + 0x44 ], %g1
    9164:	92 10 00 0b 	mov  %o3, %o1
    9168:	c2 22 e0 04 	st  %g1, [ %o3 + 4 ]
    916c:	da 06 20 44 	ld  [ %i0 + 0x44 ], %o5
    9170:	82 10 20 01 	mov  1, %g1
    9174:	90 10 00 18 	mov  %i0, %o0
    9178:	83 28 40 0d 	sll  %g1, %o5, %g1
    917c:	40 00 02 97 	call  9bd8 <_Bfree>
    9180:	c2 22 e0 08 	st  %g1, [ %o3 + 8 ]
    9184:	d6 07 a0 44 	ld  [ %fp + 0x44 ], %o3
    9188:	10 bf fb 63 	b  7f14 <_dtoa_r+0x2c>
    918c:	c0 22 e0 40 	clr  [ %o3 + 0x40 ]
    9190:	81 c7 e0 08 	ret 
    9194:	91 e8 00 01 	restore  %g0, %g1, %o0

00009198 <__sflags>:
    9198:	c2 4a 40 00 	ldsb  [ %o1 ], %g1
    919c:	80 a0 60 72 	cmp  %g1, 0x72
    91a0:	22 80 00 23 	be,a   922c <__sflags+0x94>
    91a4:	90 10 20 04 	mov  4, %o0
    91a8:	14 80 00 1b 	bg  9214 <__sflags+0x7c>
    91ac:	80 a0 60 77 	cmp  %g1, 0x77
    91b0:	80 a0 60 61 	cmp  %g1, 0x61
    91b4:	22 80 00 06 	be,a   91cc <__sflags+0x34>
    91b8:	90 10 21 08 	mov  0x108, %o0
    91bc:	82 10 20 16 	mov  0x16, %g1
    91c0:	c2 22 00 00 	st  %g1, [ %o0 ]
    91c4:	10 80 00 1d 	b  9238 <__sflags+0xa0>
    91c8:	90 10 20 00 	clr  %o0
    91cc:	9a 10 20 01 	mov  1, %o5
    91d0:	98 10 22 08 	mov  0x208, %o4
    91d4:	c2 4a 60 01 	ldsb  [ %o1 + 1 ], %g1
    91d8:	80 a0 60 00 	cmp  %g1, 0
    91dc:	22 80 00 0a 	be,a   9204 <__sflags+0x6c>
    91e0:	82 13 40 0c 	or  %o5, %o4, %g1
    91e4:	80 a0 60 2b 	cmp  %g1, 0x2b
    91e8:	22 80 00 09 	be,a   920c <__sflags+0x74>
    91ec:	90 10 20 10 	mov  0x10, %o0
    91f0:	c2 4a 60 02 	ldsb  [ %o1 + 2 ], %g1
    91f4:	80 a0 60 2b 	cmp  %g1, 0x2b
    91f8:	22 80 00 05 	be,a   920c <__sflags+0x74>
    91fc:	90 10 20 10 	mov  0x10, %o0
    9200:	82 13 40 0c 	or  %o5, %o4, %g1
    9204:	10 80 00 0d 	b  9238 <__sflags+0xa0>
    9208:	c2 22 80 00 	st  %g1, [ %o2 ]
    920c:	10 bf ff fd 	b  9200 <__sflags+0x68>
    9210:	9a 10 20 02 	mov  2, %o5
    9214:	12 bf ff eb 	bne  91c0 <__sflags+0x28>
    9218:	82 10 20 16 	mov  0x16, %g1
    921c:	90 10 20 08 	mov  8, %o0
    9220:	9a 10 20 01 	mov  1, %o5
    9224:	10 bf ff ec 	b  91d4 <__sflags+0x3c>
    9228:	98 10 26 00 	mov  0x600, %o4
    922c:	9a 10 20 00 	clr  %o5
    9230:	10 bf ff e9 	b  91d4 <__sflags+0x3c>
    9234:	98 10 20 00 	clr  %o4
    9238:	81 c3 e0 08 	retl 
    923c:	01 00 00 00 	nop 

00009240 <fread>:
    9240:	9d e3 bf 98 	save  %sp, -104, %sp
    9244:	90 10 00 1a 	mov  %i2, %o0
    9248:	7f ff e4 24 	call  22d8 <.umul>
    924c:	92 10 00 19 	mov  %i1, %o1
    9250:	a2 92 20 00 	orcc  %o0, 0, %l1
    9254:	02 80 00 2d 	be  9308 <fread+0xc8>
    9258:	90 10 20 00 	clr  %o0
    925c:	d4 06 e0 04 	ld  [ %i3 + 4 ], %o2
    9260:	80 a2 a0 00 	cmp  %o2, 0
    9264:	26 80 00 27 	bl,a   9300 <fread+0xc0>
    9268:	c0 26 e0 04 	clr  [ %i3 + 4 ]
    926c:	a0 10 00 0a 	mov  %o2, %l0
    9270:	80 a4 40 0a 	cmp  %l1, %o2
    9274:	08 80 00 14 	bleu  92c4 <fread+0x84>
    9278:	a4 10 00 11 	mov  %l1, %l2
    927c:	d2 06 c0 00 	ld  [ %i3 ], %o1
    9280:	94 10 00 10 	mov  %l0, %o2
    9284:	40 00 01 b3 	call  9950 <memcpy>
    9288:	90 10 00 18 	mov  %i0, %o0
    928c:	c2 06 c0 00 	ld  [ %i3 ], %g1
    9290:	90 10 00 1b 	mov  %i3, %o0
    9294:	82 00 40 10 	add  %g1, %l0, %g1
    9298:	a2 24 40 10 	sub  %l1, %l0, %l1
    929c:	c2 26 c0 00 	st  %g1, [ %i3 ]
    92a0:	7f ff ed f1 	call  4a64 <__srefill>
    92a4:	b0 06 00 10 	add  %i0, %l0, %i0
    92a8:	80 a2 20 00 	cmp  %o0, 0
    92ac:	32 80 00 12 	bne,a   92f4 <fread+0xb4>
    92b0:	90 24 80 11 	sub  %l2, %l1, %o0
    92b4:	e0 06 e0 04 	ld  [ %i3 + 4 ], %l0
    92b8:	80 a4 40 10 	cmp  %l1, %l0
    92bc:	38 bf ff f1 	bgu,a   9280 <fread+0x40>
    92c0:	d2 06 c0 00 	ld  [ %i3 ], %o1
    92c4:	d2 06 c0 00 	ld  [ %i3 ], %o1
    92c8:	90 10 00 18 	mov  %i0, %o0
    92cc:	40 00 01 a1 	call  9950 <memcpy>
    92d0:	94 10 00 11 	mov  %l1, %o2
    92d4:	da 06 e0 04 	ld  [ %i3 + 4 ], %o5
    92d8:	c2 06 c0 00 	ld  [ %i3 ], %g1
    92dc:	9a 23 40 11 	sub  %o5, %l1, %o5
    92e0:	82 00 40 11 	add  %g1, %l1, %g1
    92e4:	da 26 e0 04 	st  %o5, [ %i3 + 4 ]
    92e8:	c2 26 c0 00 	st  %g1, [ %i3 ]
    92ec:	10 80 00 07 	b  9308 <fread+0xc8>
    92f0:	90 10 00 1a 	mov  %i2, %o0
    92f4:	7f ff e4 33 	call  23c0 <.udiv>
    92f8:	92 10 00 19 	mov  %i1, %o1
    92fc:	30 80 00 03 	b,a   9308 <fread+0xc8>
    9300:	10 bf ff db 	b  926c <fread+0x2c>
    9304:	94 10 20 00 	clr  %o2
    9308:	81 c7 e0 08 	ret 
    930c:	91 e8 00 08 	restore  %g0, %o0, %o0

00009310 <__sfvwrite>:
    9310:	9d e3 bf 98 	save  %sp, -104, %sp
    9314:	e2 06 60 08 	ld  [ %i1 + 8 ], %l1
    9318:	80 a4 60 00 	cmp  %l1, 0
    931c:	02 80 00 fb 	be  9708 <__sfvwrite+0x3f8>
    9320:	9a 10 20 00 	clr  %o5
    9324:	c2 16 20 0c 	lduh  [ %i0 + 0xc ], %g1
    9328:	80 88 60 08 	btst  8, %g1
    932c:	02 80 00 06 	be  9344 <__sfvwrite+0x34>
    9330:	da 16 20 0c 	lduh  [ %i0 + 0xc ], %o5
    9334:	c2 06 20 10 	ld  [ %i0 + 0x10 ], %g1
    9338:	80 a0 60 00 	cmp  %g1, 0
    933c:	12 80 00 09 	bne  9360 <__sfvwrite+0x50>
    9340:	83 2b 60 10 	sll  %o5, 0x10, %g1
    9344:	7f ff fa 05 	call  7b58 <__swsetup>
    9348:	90 10 00 18 	mov  %i0, %o0
    934c:	80 a2 20 00 	cmp  %o0, 0
    9350:	12 80 00 ee 	bne  9708 <__sfvwrite+0x3f8>
    9354:	9a 10 3f ff 	mov  -1, %o5
    9358:	da 16 20 0c 	lduh  [ %i0 + 0xc ], %o5
    935c:	83 2b 60 10 	sll  %o5, 0x10, %g1
    9360:	e4 06 40 00 	ld  [ %i1 ], %l2
    9364:	83 30 60 10 	srl  %g1, 0x10, %g1
    9368:	80 88 60 02 	btst  2, %g1
    936c:	02 80 00 22 	be  93f4 <__sfvwrite+0xe4>
    9370:	a2 10 20 00 	clr  %l1
    9374:	80 a4 60 00 	cmp  %l1, 0
    9378:	12 80 00 08 	bne  9398 <__sfvwrite+0x88>
    937c:	80 a4 64 00 	cmp  %l1, 0x400
    9380:	e2 04 a0 04 	ld  [ %l2 + 4 ], %l1
    9384:	e6 04 80 00 	ld  [ %l2 ], %l3
    9388:	80 a4 60 00 	cmp  %l1, 0
    938c:	02 bf ff fd 	be  9380 <__sfvwrite+0x70>
    9390:	a4 04 a0 08 	add  %l2, 8, %l2
    9394:	80 a4 64 00 	cmp  %l1, 0x400
    9398:	d0 06 20 1c 	ld  [ %i0 + 0x1c ], %o0
    939c:	08 80 00 03 	bleu  93a8 <__sfvwrite+0x98>
    93a0:	94 10 00 11 	mov  %l1, %o2
    93a4:	94 10 24 00 	mov  0x400, %o2
    93a8:	c2 06 20 24 	ld  [ %i0 + 0x24 ], %g1
    93ac:	9f c0 40 00 	call  %g1
    93b0:	92 10 00 13 	mov  %l3, %o1
    93b4:	a0 92 20 00 	orcc  %o0, 0, %l0
    93b8:	04 80 00 0a 	ble  93e0 <__sfvwrite+0xd0>
    93bc:	a6 04 c0 10 	add  %l3, %l0, %l3
    93c0:	c2 06 60 08 	ld  [ %i1 + 8 ], %g1
    93c4:	82 20 40 10 	sub  %g1, %l0, %g1
    93c8:	a2 24 40 10 	sub  %l1, %l0, %l1
    93cc:	80 a0 60 00 	cmp  %g1, 0
    93d0:	12 bf ff e9 	bne  9374 <__sfvwrite+0x64>
    93d4:	c2 26 60 08 	st  %g1, [ %i1 + 8 ]
    93d8:	10 80 00 cc 	b  9708 <__sfvwrite+0x3f8>
    93dc:	9a 10 20 00 	clr  %o5
    93e0:	c2 16 20 0c 	lduh  [ %i0 + 0xc ], %g1
    93e4:	9a 10 3f ff 	mov  -1, %o5
    93e8:	82 10 60 40 	or  %g1, 0x40, %g1
    93ec:	10 80 00 c7 	b  9708 <__sfvwrite+0x3f8>
    93f0:	c2 36 20 0c 	sth  %g1, [ %i0 + 0xc ]
    93f4:	80 88 60 01 	btst  1, %g1
    93f8:	12 80 00 67 	bne  9594 <__sfvwrite+0x284>
    93fc:	aa 10 20 00 	clr  %l5
    9400:	e2 04 a0 04 	ld  [ %l2 + 4 ], %l1
    9404:	e6 04 80 00 	ld  [ %l2 ], %l3
    9408:	80 a4 60 00 	cmp  %l1, 0
    940c:	02 bf ff fd 	be  9400 <__sfvwrite+0xf0>
    9410:	a4 04 a0 08 	add  %l2, 8, %l2
    9414:	83 2b 60 10 	sll  %o5, 0x10, %g1
    9418:	83 30 60 10 	srl  %g1, 0x10, %g1
    941c:	80 88 62 00 	btst  0x200, %g1
    9420:	02 80 00 31 	be  94e4 <__sfvwrite+0x1d4>
    9424:	e0 06 20 08 	ld  [ %i0 + 8 ], %l0
    9428:	80 a4 40 10 	cmp  %l1, %l0
    942c:	08 80 00 06 	bleu  9444 <__sfvwrite+0x134>
    9430:	01 00 00 00 	nop 
    9434:	80 88 60 80 	btst  0x80, %g1
    9438:	32 80 00 1c 	bne,a   94a8 <__sfvwrite+0x198>
    943c:	d2 06 20 10 	ld  [ %i0 + 0x10 ], %o1
    9440:	80 a4 40 10 	cmp  %l1, %l0
    9444:	2a 80 00 02 	bcs,a   944c <__sfvwrite+0x13c>
    9448:	a0 10 00 11 	mov  %l1, %l0
    944c:	d0 06 00 00 	ld  [ %i0 ], %o0
    9450:	94 10 00 10 	mov  %l0, %o2
    9454:	40 00 01 70 	call  9a14 <memmove>
    9458:	92 10 00 13 	mov  %l3, %o1
    945c:	c2 06 20 08 	ld  [ %i0 + 8 ], %g1
    9460:	da 06 00 00 	ld  [ %i0 ], %o5
    9464:	82 20 40 10 	sub  %g1, %l0, %g1
    9468:	9a 03 40 10 	add  %o5, %l0, %o5
    946c:	c2 26 20 08 	st  %g1, [ %i0 + 8 ]
    9470:	da 26 00 00 	st  %o5, [ %i0 ]
    9474:	a0 10 00 11 	mov  %l1, %l0
    9478:	c2 06 60 08 	ld  [ %i1 + 8 ], %g1
    947c:	a6 04 c0 10 	add  %l3, %l0, %l3
    9480:	82 20 40 10 	sub  %g1, %l0, %g1
    9484:	a2 24 40 10 	sub  %l1, %l0, %l1
    9488:	80 a0 60 00 	cmp  %g1, 0
    948c:	02 bf ff d3 	be  93d8 <__sfvwrite+0xc8>
    9490:	c2 26 60 08 	st  %g1, [ %i1 + 8 ]
    9494:	80 a4 60 00 	cmp  %l1, 0
    9498:	12 bf ff df 	bne  9414 <__sfvwrite+0x104>
    949c:	da 16 20 0c 	lduh  [ %i0 + 0xc ], %o5
    94a0:	10 bf ff d9 	b  9404 <__sfvwrite+0xf4>
    94a4:	e2 04 a0 04 	ld  [ %l2 + 4 ], %l1
    94a8:	c2 06 00 00 	ld  [ %i0 ], %g1
    94ac:	d0 06 20 54 	ld  [ %i0 + 0x54 ], %o0
    94b0:	a8 20 40 09 	sub  %g1, %o1, %l4
    94b4:	a0 05 00 11 	add  %l4, %l1, %l0
    94b8:	7f ff eb b5 	call  438c <_realloc_r>
    94bc:	94 10 00 10 	mov  %l0, %o2
    94c0:	80 a2 20 00 	cmp  %o0, 0
    94c4:	02 bf ff c7 	be  93e0 <__sfvwrite+0xd0>
    94c8:	82 02 00 14 	add  %o0, %l4, %g1
    94cc:	e0 26 20 14 	st  %l0, [ %i0 + 0x14 ]
    94d0:	c2 26 00 00 	st  %g1, [ %i0 ]
    94d4:	d0 26 20 10 	st  %o0, [ %i0 + 0x10 ]
    94d8:	e2 26 20 08 	st  %l1, [ %i0 + 8 ]
    94dc:	10 bf ff d9 	b  9440 <__sfvwrite+0x130>
    94e0:	a0 10 00 11 	mov  %l1, %l0
    94e4:	c2 06 20 10 	ld  [ %i0 + 0x10 ], %g1
    94e8:	d0 06 00 00 	ld  [ %i0 ], %o0
    94ec:	80 a0 40 08 	cmp  %g1, %o0
    94f0:	9a 40 20 00 	addx  %g0, 0, %o5
    94f4:	80 a4 00 11 	cmp  %l0, %l1
    94f8:	82 40 20 00 	addx  %g0, 0, %g1
    94fc:	80 8b 40 01 	btst  %o5, %g1
    9500:	12 80 00 19 	bne  9564 <__sfvwrite+0x254>
    9504:	92 10 00 13 	mov  %l3, %o1
    9508:	e0 06 20 14 	ld  [ %i0 + 0x14 ], %l0
    950c:	80 a4 40 10 	cmp  %l1, %l0
    9510:	0a 80 00 0b 	bcs  953c <__sfvwrite+0x22c>
    9514:	94 10 00 10 	mov  %l0, %o2
    9518:	d0 06 20 1c 	ld  [ %i0 + 0x1c ], %o0
    951c:	c2 06 20 24 	ld  [ %i0 + 0x24 ], %g1
    9520:	9f c0 40 00 	call  %g1
    9524:	92 10 00 13 	mov  %l3, %o1
    9528:	a0 92 20 00 	orcc  %o0, 0, %l0
    952c:	34 bf ff d4 	bg,a   947c <__sfvwrite+0x16c>
    9530:	c2 06 60 08 	ld  [ %i1 + 8 ], %g1
    9534:	10 bf ff ac 	b  93e4 <__sfvwrite+0xd4>
    9538:	c2 16 20 0c 	lduh  [ %i0 + 0xc ], %g1
    953c:	40 00 01 36 	call  9a14 <memmove>
    9540:	94 10 00 11 	mov  %l1, %o2
    9544:	c2 06 20 08 	ld  [ %i0 + 8 ], %g1
    9548:	da 06 00 00 	ld  [ %i0 ], %o5
    954c:	82 20 40 11 	sub  %g1, %l1, %g1
    9550:	9a 03 40 11 	add  %o5, %l1, %o5
    9554:	a0 10 00 11 	mov  %l1, %l0
    9558:	c2 26 20 08 	st  %g1, [ %i0 + 8 ]
    955c:	10 bf ff c7 	b  9478 <__sfvwrite+0x168>
    9560:	da 26 00 00 	st  %o5, [ %i0 ]
    9564:	40 00 01 2c 	call  9a14 <memmove>
    9568:	94 10 00 10 	mov  %l0, %o2
    956c:	c2 06 00 00 	ld  [ %i0 ], %g1
    9570:	90 10 00 18 	mov  %i0, %o0
    9574:	82 00 40 10 	add  %g1, %l0, %g1
    9578:	7f ff e5 9b 	call  2be4 <fflush>
    957c:	c2 26 00 00 	st  %g1, [ %i0 ]
    9580:	80 a2 20 00 	cmp  %o0, 0
    9584:	22 bf ff be 	be,a   947c <__sfvwrite+0x16c>
    9588:	c2 06 60 08 	ld  [ %i1 + 8 ], %g1
    958c:	10 bf ff 96 	b  93e4 <__sfvwrite+0xd4>
    9590:	c2 16 20 0c 	lduh  [ %i0 + 0xc ], %g1
    9594:	80 a4 60 00 	cmp  %l1, 0
    9598:	12 80 00 09 	bne  95bc <__sfvwrite+0x2ac>
    959c:	80 a5 60 00 	cmp  %l5, 0
    95a0:	aa 10 20 00 	clr  %l5
    95a4:	e2 04 a0 04 	ld  [ %l2 + 4 ], %l1
    95a8:	e6 04 80 00 	ld  [ %l2 ], %l3
    95ac:	80 a4 60 00 	cmp  %l1, 0
    95b0:	02 bf ff fd 	be  95a4 <__sfvwrite+0x294>
    95b4:	a4 04 a0 08 	add  %l2, 8, %l2
    95b8:	80 a5 60 00 	cmp  %l5, 0
    95bc:	02 80 00 48 	be  96dc <__sfvwrite+0x3cc>
    95c0:	90 10 00 13 	mov  %l3, %o0
    95c4:	80 a5 00 11 	cmp  %l4, %l1
    95c8:	08 80 00 03 	bleu  95d4 <__sfvwrite+0x2c4>
    95cc:	98 10 00 14 	mov  %l4, %o4
    95d0:	98 10 00 11 	mov  %l1, %o4
    95d4:	c2 06 20 10 	ld  [ %i0 + 0x10 ], %g1
    95d8:	d0 06 00 00 	ld  [ %i0 ], %o0
    95dc:	da 06 20 08 	ld  [ %i0 + 8 ], %o5
    95e0:	d6 06 20 14 	ld  [ %i0 + 0x14 ], %o3
    95e4:	80 a0 40 08 	cmp  %g1, %o0
    95e8:	a0 03 40 0b 	add  %o5, %o3, %l0
    95ec:	82 40 20 00 	addx  %g0, 0, %g1
    95f0:	80 a3 00 10 	cmp  %o4, %l0
    95f4:	14 80 00 03 	bg  9600 <__sfvwrite+0x2f0>
    95f8:	9a 10 20 01 	mov  1, %o5
    95fc:	9a 10 20 00 	clr  %o5
    9600:	80 88 40 0d 	btst  %g1, %o5
    9604:	12 80 00 29 	bne  96a8 <__sfvwrite+0x398>
    9608:	80 a3 00 0b 	cmp  %o4, %o3
    960c:	06 80 00 1d 	bl  9680 <__sfvwrite+0x370>
    9610:	a0 10 00 0c 	mov  %o4, %l0
    9614:	d0 06 20 1c 	ld  [ %i0 + 0x1c ], %o0
    9618:	c2 06 20 24 	ld  [ %i0 + 0x24 ], %g1
    961c:	94 10 00 0b 	mov  %o3, %o2
    9620:	9f c0 40 00 	call  %g1
    9624:	92 10 00 13 	mov  %l3, %o1
    9628:	a0 92 20 00 	orcc  %o0, 0, %l0
    962c:	24 bf ff 6e 	ble,a   93e4 <__sfvwrite+0xd4>
    9630:	c2 16 20 0c 	lduh  [ %i0 + 0xc ], %g1
    9634:	a8 a5 00 10 	subcc  %l4, %l0, %l4
    9638:	02 80 00 0b 	be  9664 <__sfvwrite+0x354>
    963c:	01 00 00 00 	nop 
    9640:	c2 06 60 08 	ld  [ %i1 + 8 ], %g1
    9644:	a6 04 c0 10 	add  %l3, %l0, %l3
    9648:	82 20 40 10 	sub  %g1, %l0, %g1
    964c:	a2 24 40 10 	sub  %l1, %l0, %l1
    9650:	80 a0 60 00 	cmp  %g1, 0
    9654:	12 bf ff d0 	bne  9594 <__sfvwrite+0x284>
    9658:	c2 26 60 08 	st  %g1, [ %i1 + 8 ]
    965c:	10 80 00 2b 	b  9708 <__sfvwrite+0x3f8>
    9660:	9a 10 20 00 	clr  %o5
    9664:	7f ff e5 60 	call  2be4 <fflush>
    9668:	90 10 00 18 	mov  %i0, %o0
    966c:	80 a2 20 00 	cmp  %o0, 0
    9670:	12 bf ff 5c 	bne  93e0 <__sfvwrite+0xd0>
    9674:	aa 10 20 00 	clr  %l5
    9678:	10 bf ff f3 	b  9644 <__sfvwrite+0x334>
    967c:	c2 06 60 08 	ld  [ %i1 + 8 ], %g1
    9680:	92 10 00 13 	mov  %l3, %o1
    9684:	40 00 00 e4 	call  9a14 <memmove>
    9688:	94 10 00 0c 	mov  %o4, %o2
    968c:	c2 06 20 08 	ld  [ %i0 + 8 ], %g1
    9690:	da 06 00 00 	ld  [ %i0 ], %o5
    9694:	82 20 40 10 	sub  %g1, %l0, %g1
    9698:	9a 03 40 10 	add  %o5, %l0, %o5
    969c:	c2 26 20 08 	st  %g1, [ %i0 + 8 ]
    96a0:	10 bf ff e5 	b  9634 <__sfvwrite+0x324>
    96a4:	da 26 00 00 	st  %o5, [ %i0 ]
    96a8:	92 10 00 13 	mov  %l3, %o1
    96ac:	40 00 00 da 	call  9a14 <memmove>
    96b0:	94 10 00 10 	mov  %l0, %o2
    96b4:	c2 06 00 00 	ld  [ %i0 ], %g1
    96b8:	90 10 00 18 	mov  %i0, %o0
    96bc:	82 00 40 10 	add  %g1, %l0, %g1
    96c0:	7f ff e5 49 	call  2be4 <fflush>
    96c4:	c2 26 00 00 	st  %g1, [ %i0 ]
    96c8:	80 a2 20 00 	cmp  %o0, 0
    96cc:	22 bf ff db 	be,a   9638 <__sfvwrite+0x328>
    96d0:	a8 a5 00 10 	subcc  %l4, %l0, %l4
    96d4:	10 bf ff 44 	b  93e4 <__sfvwrite+0xd4>
    96d8:	c2 16 20 0c 	lduh  [ %i0 + 0xc ], %g1
    96dc:	92 10 20 0a 	mov  0xa, %o1
    96e0:	40 00 00 62 	call  9868 <memchr>
    96e4:	94 10 00 11 	mov  %l1, %o2
    96e8:	80 a2 20 00 	cmp  %o0, 0
    96ec:	90 22 00 13 	sub  %o0, %l3, %o0
    96f0:	02 80 00 04 	be  9700 <__sfvwrite+0x3f0>
    96f4:	a8 02 20 01 	add  %o0, 1, %l4
    96f8:	10 bf ff b3 	b  95c4 <__sfvwrite+0x2b4>
    96fc:	aa 10 20 01 	mov  1, %l5
    9700:	10 bf ff fe 	b  96f8 <__sfvwrite+0x3e8>
    9704:	a8 04 60 01 	add  %l1, 1, %l4
    9708:	81 c7 e0 08 	ret 
    970c:	91 e8 00 0d 	restore  %g0, %o5, %o0

00009710 <_setlocale_r>:
    9710:	9d e3 bf 98 	save  %sp, -104, %sp
    9714:	80 a6 a0 00 	cmp  %i2, 0
    9718:	02 80 00 15 	be  976c <_setlocale_r+0x5c>
    971c:	a2 10 00 18 	mov  %i0, %l1
    9720:	90 10 00 1a 	mov  %i2, %o0
    9724:	21 00 00 39 	sethi  %hi(0xe400), %l0
    9728:	40 00 04 a5 	call  a9bc <strcmp>
    972c:	92 14 23 88 	or  %l0, 0x388, %o1	! e788 <__CTOR_END__+0x458>
    9730:	80 a2 20 00 	cmp  %o0, 0
    9734:	12 80 00 06 	bne  974c <_setlocale_r+0x3c>
    9738:	90 10 00 1a 	mov  %i2, %o0
    973c:	f4 24 60 34 	st  %i2, [ %l1 + 0x34 ]
    9740:	f2 24 60 30 	st  %i1, [ %l1 + 0x30 ]
    9744:	10 80 00 0c 	b  9774 <_setlocale_r+0x64>
    9748:	b0 14 23 88 	or  %l0, 0x388, %i0
    974c:	13 00 00 3a 	sethi  %hi(0xe800), %o1
    9750:	b0 10 20 00 	clr  %i0
    9754:	40 00 04 9a 	call  a9bc <strcmp>
    9758:	92 12 62 40 	or  %o1, 0x240, %o1
    975c:	80 a2 20 00 	cmp  %o0, 0
    9760:	22 bf ff f8 	be,a   9740 <_setlocale_r+0x30>
    9764:	f4 24 60 34 	st  %i2, [ %l1 + 0x34 ]
    9768:	30 80 00 03 	b,a   9774 <_setlocale_r+0x64>
    976c:	10 bf ff f6 	b  9744 <_setlocale_r+0x34>
    9770:	21 00 00 39 	sethi  %hi(0xe400), %l0
    9774:	81 c7 e0 08 	ret 
    9778:	81 e8 00 00 	restore 

0000977c <__locale_charset>:
    977c:	03 00 00 3d 	sethi  %hi(0xf400), %g1
    9780:	81 c3 e0 08 	retl 
    9784:	d0 00 60 bc 	ld  [ %g1 + 0xbc ], %o0	! f4bc <charset>

00009788 <_localeconv_r>:
    9788:	11 00 00 3a 	sethi  %hi(0xe800), %o0
    978c:	81 c3 e0 08 	retl 
    9790:	90 12 22 54 	or  %o0, 0x254, %o0	! ea54 <lconv>

00009794 <setlocale>:
    9794:	03 00 00 3c 	sethi  %hi(0xf000), %g1
    9798:	da 00 60 98 	ld  [ %g1 + 0x98 ], %o5	! f098 <_impure_ptr>
    979c:	98 10 00 08 	mov  %o0, %o4
    97a0:	94 10 00 09 	mov  %o1, %o2
    97a4:	90 10 00 0d 	mov  %o5, %o0
    97a8:	92 10 00 0c 	mov  %o4, %o1
    97ac:	82 13 c0 00 	mov  %o7, %g1
    97b0:	7f ff ff d8 	call  9710 <_setlocale_r>
    97b4:	9e 10 40 00 	mov  %g1, %o7
    97b8:	01 00 00 00 	nop 

000097bc <localeconv>:
    97bc:	03 00 00 3c 	sethi  %hi(0xf000), %g1
    97c0:	d0 00 60 98 	ld  [ %g1 + 0x98 ], %o0	! f098 <_impure_ptr>
    97c4:	82 13 c0 00 	mov  %o7, %g1
    97c8:	7f ff ff f0 	call  9788 <_localeconv_r>
    97cc:	9e 10 40 00 	mov  %g1, %o7
    97d0:	01 00 00 00 	nop 

000097d4 <_lseek_r>:
    97d4:	9d e3 bf 98 	save  %sp, -104, %sp
    97d8:	94 10 00 1b 	mov  %i3, %o2
    97dc:	90 10 00 19 	mov  %i1, %o0
    97e0:	92 10 00 1a 	mov  %i2, %o1
    97e4:	37 00 00 4e 	sethi  %hi(0x13800), %i3
    97e8:	40 00 0b cc 	call  c718 <lseek>
    97ec:	c0 26 e1 54 	clr  [ %i3 + 0x154 ]	! 13954 <errno>
    97f0:	80 a2 3f ff 	cmp  %o0, -1
    97f4:	12 80 00 06 	bne  980c <_lseek_r+0x38>
    97f8:	c2 06 e1 54 	ld  [ %i3 + 0x154 ], %g1
    97fc:	80 a0 60 00 	cmp  %g1, 0
    9800:	02 80 00 03 	be  980c <_lseek_r+0x38>
    9804:	01 00 00 00 	nop 
    9808:	c2 26 00 00 	st  %g1, [ %i0 ]
    980c:	81 c7 e0 08 	ret 
    9810:	91 e8 00 08 	restore  %g0, %o0, %o0

00009814 <_mbtowc_r>:
    9814:	9c 03 bf 90 	add  %sp, -112, %sp
    9818:	80 a2 60 00 	cmp  %o1, 0
    981c:	22 80 00 02 	be,a   9824 <_mbtowc_r+0x10>
    9820:	92 03 a0 64 	add  %sp, 0x64, %o1
    9824:	80 a0 00 0a 	cmp  %g0, %o2
    9828:	9a 40 20 00 	addx  %g0, 0, %o5
    982c:	80 a0 00 0b 	cmp  %g0, %o3
    9830:	82 60 3f ff 	subx  %g0, -1, %g1
    9834:	80 8b 40 01 	btst  %o5, %g1
    9838:	12 80 00 0a 	bne  9860 <_mbtowc_r+0x4c>
    983c:	90 10 3f fe 	mov  -2, %o0
    9840:	80 a2 a0 00 	cmp  %o2, 0
    9844:	02 80 00 07 	be  9860 <_mbtowc_r+0x4c>
    9848:	90 10 20 00 	clr  %o0
    984c:	c2 0a 80 00 	ldub  [ %o2 ], %g1
    9850:	c2 22 40 00 	st  %g1, [ %o1 ]
    9854:	da 0a 80 00 	ldub  [ %o2 ], %o5
    9858:	80 a0 00 0d 	cmp  %g0, %o5
    985c:	90 40 20 00 	addx  %g0, 0, %o0
    9860:	81 c3 e0 08 	retl 
    9864:	9c 23 bf 90 	sub  %sp, -112, %sp

00009868 <memchr>:
    9868:	9d e3 bf 98 	save  %sp, -104, %sp
    986c:	80 a6 a0 03 	cmp  %i2, 3
    9870:	08 80 00 29 	bleu  9914 <memchr+0xac>
    9874:	b2 0e 60 ff 	and  %i1, 0xff, %i1
    9878:	80 8e 20 03 	btst  3, %i0
    987c:	32 80 00 27 	bne,a   9918 <memchr+0xb0>
    9880:	b4 06 bf ff 	add  %i2, -1, %i2
    9884:	b6 10 00 18 	mov  %i0, %i3
    9888:	9e 10 20 00 	clr  %o7
    988c:	ba 10 20 00 	clr  %i5
    9890:	83 2b e0 08 	sll  %o7, 8, %g1
    9894:	ba 07 60 01 	inc  %i5
    9898:	80 a7 60 03 	cmp  %i5, 3
    989c:	08 bf ff fd 	bleu  9890 <memchr+0x28>
    98a0:	9e 00 40 19 	add  %g1, %i1, %o7
    98a4:	80 a6 a0 03 	cmp  %i2, 3
    98a8:	08 80 00 1a 	bleu  9910 <memchr+0xa8>
    98ac:	03 3f bf bf 	sethi  %hi(0xfefefc00), %g1
    98b0:	3b 20 20 20 	sethi  %hi(0x80808000), %i5
    98b4:	98 10 62 ff 	or  %g1, 0x2ff, %o4
    98b8:	9a 17 60 80 	or  %i5, 0x80, %o5
    98bc:	c2 06 c0 00 	ld  [ %i3 ], %g1
    98c0:	82 18 40 0f 	xor  %g1, %o7, %g1
    98c4:	ba 00 40 0c 	add  %g1, %o4, %i5
    98c8:	82 2f 40 01 	andn  %i5, %g1, %g1
    98cc:	80 88 40 0d 	btst  %g1, %o5
    98d0:	22 80 00 0d 	be,a   9904 <memchr+0x9c>
    98d4:	b4 06 bf fc 	add  %i2, -4, %i2
    98d8:	b0 10 00 1b 	mov  %i3, %i0
    98dc:	b8 10 20 00 	clr  %i4
    98e0:	c2 0e 00 00 	ldub  [ %i0 ], %g1
    98e4:	80 a0 40 19 	cmp  %g1, %i1
    98e8:	02 80 00 18 	be  9948 <memchr+0xe0>
    98ec:	ba 10 00 18 	mov  %i0, %i5
    98f0:	b8 07 20 01 	inc  %i4
    98f4:	80 a7 20 03 	cmp  %i4, 3
    98f8:	08 bf ff fa 	bleu  98e0 <memchr+0x78>
    98fc:	b0 06 20 01 	inc  %i0
    9900:	b4 06 bf fc 	add  %i2, -4, %i2
    9904:	80 a6 a0 03 	cmp  %i2, 3
    9908:	18 bf ff ed 	bgu  98bc <memchr+0x54>
    990c:	b6 06 e0 04 	add  %i3, 4, %i3
    9910:	b0 10 00 1b 	mov  %i3, %i0
    9914:	b4 06 bf ff 	add  %i2, -1, %i2
    9918:	80 a6 bf ff 	cmp  %i2, -1
    991c:	02 80 00 0b 	be  9948 <memchr+0xe0>
    9920:	ba 10 20 00 	clr  %i5
    9924:	c2 0e 00 00 	ldub  [ %i0 ], %g1
    9928:	80 a0 40 19 	cmp  %g1, %i1
    992c:	02 80 00 07 	be  9948 <memchr+0xe0>
    9930:	ba 10 00 18 	mov  %i0, %i5
    9934:	b4 06 bf ff 	add  %i2, -1, %i2
    9938:	80 a6 bf ff 	cmp  %i2, -1
    993c:	12 bf ff fa 	bne  9924 <memchr+0xbc>
    9940:	b0 06 20 01 	inc  %i0
    9944:	ba 10 20 00 	clr  %i5
    9948:	81 c7 e0 08 	ret 
    994c:	91 e8 00 1d 	restore  %g0, %i5, %o0

00009950 <memcpy>:
    9950:	80 a2 a0 0f 	cmp  %o2, 0xf
    9954:	08 80 00 23 	bleu  99e0 <memcpy+0x90>
    9958:	98 10 00 08 	mov  %o0, %o4
    995c:	82 12 40 08 	or  %o1, %o0, %g1
    9960:	80 88 60 03 	btst  3, %g1
    9964:	32 80 00 20 	bne,a   99e4 <memcpy+0x94>
    9968:	94 02 bf ff 	add  %o2, -1, %o2
    996c:	c2 02 40 00 	ld  [ %o1 ], %g1
    9970:	92 02 60 04 	add  %o1, 4, %o1
    9974:	c2 23 00 00 	st  %g1, [ %o4 ]
    9978:	da 02 40 00 	ld  [ %o1 ], %o5
    997c:	98 03 20 04 	add  %o4, 4, %o4
    9980:	92 02 60 04 	add  %o1, 4, %o1
    9984:	da 23 00 00 	st  %o5, [ %o4 ]
    9988:	c2 02 40 00 	ld  [ %o1 ], %g1
    998c:	98 03 20 04 	add  %o4, 4, %o4
    9990:	92 02 60 04 	add  %o1, 4, %o1
    9994:	c2 23 00 00 	st  %g1, [ %o4 ]
    9998:	c2 02 40 00 	ld  [ %o1 ], %g1
    999c:	98 03 20 04 	add  %o4, 4, %o4
    99a0:	94 02 bf f0 	add  %o2, -16, %o2
    99a4:	c2 23 00 00 	st  %g1, [ %o4 ]
    99a8:	80 a2 a0 0f 	cmp  %o2, 0xf
    99ac:	92 02 60 04 	add  %o1, 4, %o1
    99b0:	18 bf ff ef 	bgu  996c <memcpy+0x1c>
    99b4:	98 03 20 04 	add  %o4, 4, %o4
    99b8:	80 a2 a0 03 	cmp  %o2, 3
    99bc:	28 80 00 0a 	bleu,a   99e4 <memcpy+0x94>
    99c0:	94 02 bf ff 	add  %o2, -1, %o2
    99c4:	c2 02 40 00 	ld  [ %o1 ], %g1
    99c8:	94 02 bf fc 	add  %o2, -4, %o2
    99cc:	c2 23 00 00 	st  %g1, [ %o4 ]
    99d0:	80 a2 a0 03 	cmp  %o2, 3
    99d4:	92 02 60 04 	add  %o1, 4, %o1
    99d8:	18 bf ff fb 	bgu  99c4 <memcpy+0x74>
    99dc:	98 03 20 04 	add  %o4, 4, %o4
    99e0:	94 02 bf ff 	add  %o2, -1, %o2
    99e4:	80 a2 bf ff 	cmp  %o2, -1
    99e8:	02 80 00 09 	be  9a0c <memcpy+0xbc>
    99ec:	01 00 00 00 	nop 
    99f0:	c2 0a 40 00 	ldub  [ %o1 ], %g1
    99f4:	94 02 bf ff 	add  %o2, -1, %o2
    99f8:	c2 2b 00 00 	stb  %g1, [ %o4 ]
    99fc:	80 a2 bf ff 	cmp  %o2, -1
    9a00:	92 02 60 01 	inc  %o1
    9a04:	12 bf ff fb 	bne  99f0 <memcpy+0xa0>
    9a08:	98 03 20 01 	inc  %o4
    9a0c:	81 c3 e0 08 	retl 
    9a10:	01 00 00 00 	nop 

00009a14 <memmove>:
    9a14:	9a 10 00 09 	mov  %o1, %o5
    9a18:	80 a2 40 08 	cmp  %o1, %o0
    9a1c:	98 10 00 08 	mov  %o0, %o4
    9a20:	1a 80 00 13 	bcc  9a6c <memmove+0x58>
    9a24:	96 10 00 0a 	mov  %o2, %o3
    9a28:	82 02 40 0a 	add  %o1, %o2, %g1
    9a2c:	80 a2 00 01 	cmp  %o0, %g1
    9a30:	1a 80 00 10 	bcc  9a70 <memmove+0x5c>
    9a34:	80 a2 a0 0f 	cmp  %o2, 0xf
    9a38:	96 02 bf ff 	add  %o2, -1, %o3
    9a3c:	92 10 00 01 	mov  %g1, %o1
    9a40:	80 a2 ff ff 	cmp  %o3, -1
    9a44:	02 80 00 3b 	be  9b30 <memmove+0x11c>
    9a48:	98 02 00 0a 	add  %o0, %o2, %o4
    9a4c:	92 02 7f ff 	add  %o1, -1, %o1
    9a50:	c2 0a 40 00 	ldub  [ %o1 ], %g1
    9a54:	98 03 3f ff 	add  %o4, -1, %o4
    9a58:	96 02 ff ff 	add  %o3, -1, %o3
    9a5c:	80 a2 ff ff 	cmp  %o3, -1
    9a60:	12 bf ff fb 	bne  9a4c <memmove+0x38>
    9a64:	c2 2b 00 00 	stb  %g1, [ %o4 ]
    9a68:	30 80 00 32 	b,a   9b30 <memmove+0x11c>
    9a6c:	80 a2 a0 0f 	cmp  %o2, 0xf
    9a70:	28 80 00 26 	bleu,a   9b08 <memmove+0xf4>
    9a74:	96 02 ff ff 	add  %o3, -1, %o3
    9a78:	82 13 40 08 	or  %o5, %o0, %g1
    9a7c:	80 88 60 03 	btst  3, %g1
    9a80:	32 80 00 22 	bne,a   9b08 <memmove+0xf4>
    9a84:	96 02 ff ff 	add  %o3, -1, %o3
    9a88:	92 10 00 0d 	mov  %o5, %o1
    9a8c:	98 10 00 08 	mov  %o0, %o4
    9a90:	c2 02 40 00 	ld  [ %o1 ], %g1
    9a94:	92 02 60 04 	add  %o1, 4, %o1
    9a98:	c2 23 00 00 	st  %g1, [ %o4 ]
    9a9c:	da 02 40 00 	ld  [ %o1 ], %o5
    9aa0:	98 03 20 04 	add  %o4, 4, %o4
    9aa4:	92 02 60 04 	add  %o1, 4, %o1
    9aa8:	da 23 00 00 	st  %o5, [ %o4 ]
    9aac:	c2 02 40 00 	ld  [ %o1 ], %g1
    9ab0:	98 03 20 04 	add  %o4, 4, %o4
    9ab4:	92 02 60 04 	add  %o1, 4, %o1
    9ab8:	c2 23 00 00 	st  %g1, [ %o4 ]
    9abc:	c2 02 40 00 	ld  [ %o1 ], %g1
    9ac0:	98 03 20 04 	add  %o4, 4, %o4
    9ac4:	96 02 ff f0 	add  %o3, -16, %o3
    9ac8:	c2 23 00 00 	st  %g1, [ %o4 ]
    9acc:	80 a2 e0 0f 	cmp  %o3, 0xf
    9ad0:	92 02 60 04 	add  %o1, 4, %o1
    9ad4:	18 bf ff ef 	bgu  9a90 <memmove+0x7c>
    9ad8:	98 03 20 04 	add  %o4, 4, %o4
    9adc:	80 a2 e0 03 	cmp  %o3, 3
    9ae0:	28 80 00 0a 	bleu,a   9b08 <memmove+0xf4>
    9ae4:	96 02 ff ff 	add  %o3, -1, %o3
    9ae8:	c2 02 40 00 	ld  [ %o1 ], %g1
    9aec:	96 02 ff fc 	add  %o3, -4, %o3
    9af0:	c2 23 00 00 	st  %g1, [ %o4 ]
    9af4:	80 a2 e0 03 	cmp  %o3, 3
    9af8:	92 02 60 04 	add  %o1, 4, %o1
    9afc:	18 bf ff fb 	bgu  9ae8 <memmove+0xd4>
    9b00:	98 03 20 04 	add  %o4, 4, %o4
    9b04:	96 02 ff ff 	add  %o3, -1, %o3
    9b08:	80 a2 ff ff 	cmp  %o3, -1
    9b0c:	02 80 00 09 	be  9b30 <memmove+0x11c>
    9b10:	01 00 00 00 	nop 
    9b14:	c2 0a 40 00 	ldub  [ %o1 ], %g1
    9b18:	96 02 ff ff 	add  %o3, -1, %o3
    9b1c:	c2 2b 00 00 	stb  %g1, [ %o4 ]
    9b20:	80 a2 ff ff 	cmp  %o3, -1
    9b24:	92 02 60 01 	inc  %o1
    9b28:	12 bf ff fb 	bne  9b14 <memmove+0x100>
    9b2c:	98 03 20 01 	inc  %o4
    9b30:	81 c3 e0 08 	retl 
    9b34:	01 00 00 00 	nop 

00009b38 <_Balloc>:
    9b38:	9d e3 bf 98 	save  %sp, -104, %sp
    9b3c:	d8 06 20 4c 	ld  [ %i0 + 0x4c ], %o4
    9b40:	80 a3 20 00 	cmp  %o4, 0
    9b44:	02 80 00 1b 	be  9bb0 <_Balloc+0x78>
    9b48:	92 10 20 04 	mov  4, %o1
    9b4c:	97 2e 60 02 	sll  %i1, 2, %o3
    9b50:	da 03 00 0b 	ld  [ %o4 + %o3 ], %o5
    9b54:	90 10 00 18 	mov  %i0, %o0
    9b58:	82 10 20 01 	mov  1, %g1
    9b5c:	92 10 20 01 	mov  1, %o1
    9b60:	b1 28 40 19 	sll  %g1, %i1, %i0
    9b64:	80 a3 60 00 	cmp  %o5, 0
    9b68:	95 2e 20 02 	sll  %i0, 2, %o2
    9b6c:	02 80 00 08 	be  9b8c <_Balloc+0x54>
    9b70:	94 02 a0 14 	add  %o2, 0x14, %o2
    9b74:	c2 03 40 00 	ld  [ %o5 ], %g1
    9b78:	c2 23 00 0b 	st  %g1, [ %o4 + %o3 ]
    9b7c:	82 10 00 0d 	mov  %o5, %g1
    9b80:	c0 23 60 10 	clr  [ %o5 + 0x10 ]
    9b84:	10 80 00 13 	b  9bd0 <_Balloc+0x98>
    9b88:	c0 23 60 0c 	clr  [ %o5 + 0xc ]
    9b8c:	7f ff e3 6f 	call  2948 <_calloc_r>
    9b90:	01 00 00 00 	nop 
    9b94:	82 10 20 00 	clr  %g1	! 0 <__DYNAMIC>
    9b98:	80 a2 20 00 	cmp  %o0, 0
    9b9c:	02 80 00 0d 	be  9bd0 <_Balloc+0x98>
    9ba0:	9a 10 00 08 	mov  %o0, %o5
    9ba4:	f2 22 20 04 	st  %i1, [ %o0 + 4 ]
    9ba8:	10 bf ff f5 	b  9b7c <_Balloc+0x44>
    9bac:	f0 22 20 08 	st  %i0, [ %o0 + 8 ]
    9bb0:	94 10 20 10 	mov  0x10, %o2
    9bb4:	7f ff e3 65 	call  2948 <_calloc_r>
    9bb8:	90 10 00 18 	mov  %i0, %o0
    9bbc:	82 10 20 00 	clr  %g1
    9bc0:	d0 26 20 4c 	st  %o0, [ %i0 + 0x4c ]
    9bc4:	80 a2 20 00 	cmp  %o0, 0
    9bc8:	12 bf ff e1 	bne  9b4c <_Balloc+0x14>
    9bcc:	98 10 00 08 	mov  %o0, %o4
    9bd0:	81 c7 e0 08 	ret 
    9bd4:	91 e8 00 01 	restore  %g0, %g1, %o0

00009bd8 <_Bfree>:
    9bd8:	80 a2 60 00 	cmp  %o1, 0
    9bdc:	02 80 00 08 	be  9bfc <_Bfree+0x24>
    9be0:	01 00 00 00 	nop 
    9be4:	c2 02 20 4c 	ld  [ %o0 + 0x4c ], %g1
    9be8:	da 02 60 04 	ld  [ %o1 + 4 ], %o5
    9bec:	9b 2b 60 02 	sll  %o5, 2, %o5
    9bf0:	d8 00 40 0d 	ld  [ %g1 + %o5 ], %o4
    9bf4:	d8 22 40 00 	st  %o4, [ %o1 ]
    9bf8:	d2 20 40 0d 	st  %o1, [ %g1 + %o5 ]
    9bfc:	81 c3 e0 08 	retl 
    9c00:	01 00 00 00 	nop 

00009c04 <_multadd>:
    9c04:	9d e3 bf 98 	save  %sp, -104, %sp
    9c08:	e8 06 60 10 	ld  [ %i1 + 0x10 ], %l4
    9c0c:	03 00 00 3f 	sethi  %hi(0xfc00), %g1
    9c10:	a4 06 60 14 	add  %i1, 0x14, %l2
    9c14:	aa 10 63 ff 	or  %g1, 0x3ff, %l5
    9c18:	a6 10 20 00 	clr  %l3
    9c1c:	e2 04 80 00 	ld  [ %l2 ], %l1
    9c20:	92 10 00 1a 	mov  %i2, %o1
    9c24:	7f ff e1 ad 	call  22d8 <.umul>
    9c28:	90 0c 40 15 	and  %l1, %l5, %o0
    9c2c:	a3 34 60 10 	srl  %l1, 0x10, %l1
    9c30:	a0 02 00 1b 	add  %o0, %i3, %l0
    9c34:	92 10 00 1a 	mov  %i2, %o1
    9c38:	7f ff e1 a8 	call  22d8 <.umul>
    9c3c:	90 10 00 11 	mov  %l1, %o0
    9c40:	9a 0c 00 15 	and  %l0, %l5, %o5
    9c44:	a6 04 e0 01 	inc  %l3
    9c48:	a1 34 20 10 	srl  %l0, 0x10, %l0
    9c4c:	80 a4 c0 14 	cmp  %l3, %l4
    9c50:	90 02 00 10 	add  %o0, %l0, %o0
    9c54:	83 2a 20 10 	sll  %o0, 0x10, %g1
    9c58:	b7 32 20 10 	srl  %o0, 0x10, %i3
    9c5c:	82 00 40 0d 	add  %g1, %o5, %g1
    9c60:	c2 24 80 00 	st  %g1, [ %l2 ]
    9c64:	06 bf ff ee 	bl  9c1c <_multadd+0x18>
    9c68:	a4 04 a0 04 	add  %l2, 4, %l2
    9c6c:	80 a6 e0 00 	cmp  %i3, 0
    9c70:	02 80 00 1c 	be  9ce0 <_multadd+0xdc>
    9c74:	01 00 00 00 	nop 
    9c78:	c2 06 60 08 	ld  [ %i1 + 8 ], %g1
    9c7c:	80 a5 00 01 	cmp  %l4, %g1
    9c80:	36 80 00 08 	bge,a   9ca0 <_multadd+0x9c>
    9c84:	d2 06 60 04 	ld  [ %i1 + 4 ], %o1
    9c88:	83 2d 20 02 	sll  %l4, 2, %g1
    9c8c:	a8 05 20 01 	inc  %l4
    9c90:	82 00 40 19 	add  %g1, %i1, %g1
    9c94:	e8 26 60 10 	st  %l4, [ %i1 + 0x10 ]
    9c98:	10 80 00 12 	b  9ce0 <_multadd+0xdc>
    9c9c:	f6 20 60 14 	st  %i3, [ %g1 + 0x14 ]
    9ca0:	90 10 00 18 	mov  %i0, %o0
    9ca4:	7f ff ff a5 	call  9b38 <_Balloc>
    9ca8:	92 02 60 01 	inc  %o1
    9cac:	d4 06 60 10 	ld  [ %i1 + 0x10 ], %o2
    9cb0:	92 06 60 0c 	add  %i1, 0xc, %o1
    9cb4:	a0 10 00 08 	mov  %o0, %l0
    9cb8:	95 2a a0 02 	sll  %o2, 2, %o2
    9cbc:	90 02 20 0c 	add  %o0, 0xc, %o0
    9cc0:	7f ff ff 24 	call  9950 <memcpy>
    9cc4:	94 02 a0 08 	add  %o2, 8, %o2
    9cc8:	90 10 00 18 	mov  %i0, %o0
    9ccc:	92 10 00 19 	mov  %i1, %o1
    9cd0:	7f ff ff c2 	call  9bd8 <_Bfree>
    9cd4:	b2 10 00 10 	mov  %l0, %i1
    9cd8:	10 bf ff ed 	b  9c8c <_multadd+0x88>
    9cdc:	83 2d 20 02 	sll  %l4, 2, %g1
    9ce0:	81 c7 e0 08 	ret 
    9ce4:	91 e8 00 19 	restore  %g0, %i1, %o0

00009ce8 <_s2b>:
    9ce8:	9d e3 bf 98 	save  %sp, -104, %sp
    9cec:	92 10 20 09 	mov  9, %o1
    9cf0:	7f ff e1 b6 	call  23c8 <.div>
    9cf4:	90 06 e0 08 	add  %i3, 8, %o0
    9cf8:	82 10 20 01 	mov  1, %g1
    9cfc:	80 a2 20 01 	cmp  %o0, 1
    9d00:	04 80 00 06 	ble  9d18 <_s2b+0x30>
    9d04:	92 10 20 00 	clr  %o1
    9d08:	82 00 40 01 	add  %g1, %g1, %g1
    9d0c:	80 a2 00 01 	cmp  %o0, %g1
    9d10:	14 bf ff fe 	bg  9d08 <_s2b+0x20>
    9d14:	92 02 60 01 	inc  %o1
    9d18:	7f ff ff 88 	call  9b38 <_Balloc>
    9d1c:	90 10 00 18 	mov  %i0, %o0
    9d20:	82 10 20 01 	mov  1, %g1
    9d24:	f8 22 20 14 	st  %i4, [ %o0 + 0x14 ]
    9d28:	80 a6 a0 09 	cmp  %i2, 9
    9d2c:	c2 22 20 10 	st  %g1, [ %o0 + 0x10 ]
    9d30:	04 80 00 1b 	ble  9d9c <_s2b+0xb4>
    9d34:	b8 10 20 09 	mov  9, %i4
    9d38:	b2 06 60 09 	add  %i1, 9, %i1
    9d3c:	d6 4e 40 00 	ldsb  [ %i1 ], %o3
    9d40:	92 10 00 08 	mov  %o0, %o1
    9d44:	96 02 ff d0 	add  %o3, -48, %o3
    9d48:	90 10 00 18 	mov  %i0, %o0
    9d4c:	7f ff ff ae 	call  9c04 <_multadd>
    9d50:	94 10 20 0a 	mov  0xa, %o2
    9d54:	b8 07 20 01 	inc  %i4
    9d58:	80 a7 00 1a 	cmp  %i4, %i2
    9d5c:	06 bf ff f8 	bl  9d3c <_s2b+0x54>
    9d60:	b2 06 60 01 	inc  %i1
    9d64:	b2 06 60 01 	inc  %i1
    9d68:	80 a7 00 1b 	cmp  %i4, %i3
    9d6c:	16 80 00 0e 	bge  9da4 <_s2b+0xbc>
    9d70:	b8 26 c0 1c 	sub  %i3, %i4, %i4
    9d74:	d6 4e 40 00 	ldsb  [ %i1 ], %o3
    9d78:	92 10 00 08 	mov  %o0, %o1
    9d7c:	96 02 ff d0 	add  %o3, -48, %o3
    9d80:	90 10 00 18 	mov  %i0, %o0
    9d84:	7f ff ff a0 	call  9c04 <_multadd>
    9d88:	94 10 20 0a 	mov  0xa, %o2
    9d8c:	b8 87 3f ff 	addcc  %i4, -1, %i4
    9d90:	12 bf ff f9 	bne  9d74 <_s2b+0x8c>
    9d94:	b2 06 60 01 	inc  %i1
    9d98:	30 80 00 03 	b,a   9da4 <_s2b+0xbc>
    9d9c:	10 bf ff f3 	b  9d68 <_s2b+0x80>
    9da0:	b2 06 60 0a 	add  %i1, 0xa, %i1
    9da4:	81 c7 e0 08 	ret 
    9da8:	91 e8 00 08 	restore  %g0, %o0, %o0

00009dac <_hi0bits>:
    9dac:	03 3f ff c0 	sethi  %hi(0xffff0000), %g1
    9db0:	80 8a 00 01 	btst  %o0, %g1
    9db4:	12 80 00 04 	bne  9dc4 <_hi0bits+0x18>
    9db8:	9a 10 20 00 	clr  %o5
    9dbc:	9a 10 20 10 	mov  0x10, %o5
    9dc0:	91 2a 20 10 	sll  %o0, 0x10, %o0
    9dc4:	03 3f c0 00 	sethi  %hi(0xff000000), %g1
    9dc8:	80 8a 00 01 	btst  %o0, %g1
    9dcc:	12 80 00 04 	bne  9ddc <_hi0bits+0x30>
    9dd0:	03 3c 00 00 	sethi  %hi(0xf0000000), %g1
    9dd4:	9a 03 60 08 	add  %o5, 8, %o5
    9dd8:	91 2a 20 08 	sll  %o0, 8, %o0
    9ddc:	80 8a 00 01 	btst  %o0, %g1
    9de0:	12 80 00 04 	bne  9df0 <_hi0bits+0x44>
    9de4:	03 30 00 00 	sethi  %hi(0xc0000000), %g1
    9de8:	9a 03 60 04 	add  %o5, 4, %o5
    9dec:	91 2a 20 04 	sll  %o0, 4, %o0
    9df0:	80 8a 00 01 	btst  %o0, %g1
    9df4:	12 80 00 05 	bne  9e08 <_hi0bits+0x5c>
    9df8:	80 a2 20 00 	cmp  %o0, 0
    9dfc:	9a 03 60 02 	add  %o5, 2, %o5
    9e00:	91 2a 20 02 	sll  %o0, 2, %o0
    9e04:	80 a2 20 00 	cmp  %o0, 0
    9e08:	06 80 00 06 	bl  9e20 <_hi0bits+0x74>
    9e0c:	03 10 00 00 	sethi  %hi(0x40000000), %g1
    9e10:	9a 03 60 01 	inc  %o5
    9e14:	80 8a 00 01 	btst  %o0, %g1
    9e18:	02 80 00 03 	be  9e24 <_hi0bits+0x78>
    9e1c:	90 10 20 20 	mov  0x20, %o0
    9e20:	90 10 00 0d 	mov  %o5, %o0
    9e24:	81 c3 e0 08 	retl 
    9e28:	01 00 00 00 	nop 

00009e2c <_lo0bits>:
    9e2c:	da 02 00 00 	ld  [ %o0 ], %o5
    9e30:	80 8b 60 07 	btst  7, %o5
    9e34:	02 80 00 0e 	be  9e6c <_lo0bits+0x40>
    9e38:	98 10 00 08 	mov  %o0, %o4
    9e3c:	80 8b 60 01 	btst  1, %o5
    9e40:	12 80 00 2b 	bne  9eec <_lo0bits+0xc0>
    9e44:	90 10 20 00 	clr  %o0
    9e48:	80 8b 60 02 	btst  2, %o5
    9e4c:	02 80 00 06 	be  9e64 <_lo0bits+0x38>
    9e50:	83 33 60 02 	srl  %o5, 2, %g1
    9e54:	83 33 60 01 	srl  %o5, 1, %g1
    9e58:	90 10 20 01 	mov  1, %o0
    9e5c:	10 80 00 24 	b  9eec <_lo0bits+0xc0>
    9e60:	c2 23 00 00 	st  %g1, [ %o4 ]
    9e64:	10 bf ff fe 	b  9e5c <_lo0bits+0x30>
    9e68:	90 10 20 02 	mov  2, %o0
    9e6c:	03 00 00 3f 	sethi  %hi(0xfc00), %g1
    9e70:	82 10 63 ff 	or  %g1, 0x3ff, %g1	! ffff <rgnNodes+0x6d3>
    9e74:	80 8b 40 01 	btst  %o5, %g1
    9e78:	12 80 00 04 	bne  9e88 <_lo0bits+0x5c>
    9e7c:	82 10 20 00 	clr  %g1
    9e80:	82 10 20 10 	mov  0x10, %g1
    9e84:	9b 33 60 10 	srl  %o5, 0x10, %o5
    9e88:	80 8b 60 ff 	btst  0xff, %o5
    9e8c:	12 80 00 05 	bne  9ea0 <_lo0bits+0x74>
    9e90:	80 8b 60 0f 	btst  0xf, %o5
    9e94:	82 00 60 08 	add  %g1, 8, %g1
    9e98:	9b 33 60 08 	srl  %o5, 8, %o5
    9e9c:	80 8b 60 0f 	btst  0xf, %o5
    9ea0:	12 80 00 05 	bne  9eb4 <_lo0bits+0x88>
    9ea4:	80 8b 60 03 	btst  3, %o5
    9ea8:	82 00 60 04 	add  %g1, 4, %g1
    9eac:	9b 33 60 04 	srl  %o5, 4, %o5
    9eb0:	80 8b 60 03 	btst  3, %o5
    9eb4:	12 80 00 05 	bne  9ec8 <_lo0bits+0x9c>
    9eb8:	80 8b 60 01 	btst  1, %o5
    9ebc:	82 00 60 02 	add  %g1, 2, %g1
    9ec0:	9b 33 60 02 	srl  %o5, 2, %o5
    9ec4:	80 8b 60 01 	btst  1, %o5
    9ec8:	32 80 00 08 	bne,a   9ee8 <_lo0bits+0xbc>
    9ecc:	da 23 00 00 	st  %o5, [ %o4 ]
    9ed0:	9b 33 60 01 	srl  %o5, 1, %o5
    9ed4:	82 00 60 01 	inc  %g1
    9ed8:	80 a3 60 00 	cmp  %o5, 0
    9edc:	02 80 00 04 	be  9eec <_lo0bits+0xc0>
    9ee0:	90 10 20 20 	mov  0x20, %o0
    9ee4:	da 23 00 00 	st  %o5, [ %o4 ]
    9ee8:	90 10 00 01 	mov  %g1, %o0
    9eec:	81 c3 e0 08 	retl 
    9ef0:	01 00 00 00 	nop 

00009ef4 <_i2b>:
    9ef4:	9d e3 bf 98 	save  %sp, -104, %sp
    9ef8:	90 10 00 18 	mov  %i0, %o0
    9efc:	7f ff ff 0f 	call  9b38 <_Balloc>
    9f00:	92 10 20 01 	mov  1, %o1
    9f04:	82 10 20 01 	mov  1, %g1
    9f08:	f2 22 20 14 	st  %i1, [ %o0 + 0x14 ]
    9f0c:	c2 22 20 10 	st  %g1, [ %o0 + 0x10 ]
    9f10:	81 c7 e0 08 	ret 
    9f14:	91 e8 00 08 	restore  %g0, %o0, %o0

00009f18 <_multiply>:
    9f18:	9d e3 bf 88 	save  %sp, -120, %sp
    9f1c:	e2 06 60 10 	ld  [ %i1 + 0x10 ], %l1
    9f20:	e0 06 a0 10 	ld  [ %i2 + 0x10 ], %l0
    9f24:	80 a4 40 10 	cmp  %l1, %l0
    9f28:	16 80 00 07 	bge  9f44 <_multiply+0x2c>
    9f2c:	90 10 00 18 	mov  %i0, %o0
    9f30:	f2 27 bf f4 	st  %i1, [ %fp + -12 ]
    9f34:	b2 10 00 1a 	mov  %i2, %i1
    9f38:	f4 07 bf f4 	ld  [ %fp + -12 ], %i2
    9f3c:	a2 10 00 10 	mov  %l0, %l1
    9f40:	e0 06 a0 10 	ld  [ %i2 + 0x10 ], %l0
    9f44:	c2 06 60 08 	ld  [ %i1 + 8 ], %g1
    9f48:	b8 04 40 10 	add  %l1, %l0, %i4
    9f4c:	80 a7 00 01 	cmp  %i4, %g1
    9f50:	04 80 00 03 	ble  9f5c <_multiply+0x44>
    9f54:	d2 06 60 04 	ld  [ %i1 + 4 ], %o1
    9f58:	92 02 60 01 	inc  %o1
    9f5c:	7f ff fe f7 	call  9b38 <_Balloc>
    9f60:	01 00 00 00 	nop 
    9f64:	83 2f 20 02 	sll  %i4, 2, %g1
    9f68:	b0 02 20 14 	add  %o0, 0x14, %i0
    9f6c:	d0 27 bf f4 	st  %o0, [ %fp + -12 ]
    9f70:	b6 06 00 01 	add  %i0, %g1, %i3
    9f74:	c2 27 bf ec 	st  %g1, [ %fp + -20 ]
    9f78:	80 a6 00 1b 	cmp  %i0, %i3
    9f7c:	1a 80 00 07 	bcc  9f98 <_multiply+0x80>
    9f80:	a6 10 00 18 	mov  %i0, %l3
    9f84:	c0 24 c0 00 	clr  [ %l3 ]
    9f88:	a6 04 e0 04 	add  %l3, 4, %l3
    9f8c:	80 a4 c0 1b 	cmp  %l3, %i3
    9f90:	2a bf ff fe 	bcs,a   9f88 <_multiply+0x70>
    9f94:	c0 24 c0 00 	clr  [ %l3 ]
    9f98:	b4 06 a0 14 	add  %i2, 0x14, %i2
    9f9c:	b6 06 60 14 	add  %i1, 0x14, %i3
    9fa0:	83 2c 60 02 	sll  %l1, 2, %g1
    9fa4:	9b 2c 20 02 	sll  %l0, 2, %o5
    9fa8:	ae 06 c0 01 	add  %i3, %g1, %l7
    9fac:	9a 06 80 0d 	add  %i2, %o5, %o5
    9fb0:	ba 10 00 18 	mov  %i0, %i5
    9fb4:	80 a6 80 0d 	cmp  %i2, %o5
    9fb8:	1a 80 00 4f 	bcc  a0f4 <_multiply+0x1dc>
    9fbc:	da 27 bf f0 	st  %o5, [ %fp + -16 ]
    9fc0:	c2 06 80 00 	ld  [ %i2 ], %g1
    9fc4:	1b 00 00 3f 	sethi  %hi(0xfc00), %o5
    9fc8:	9a 13 63 ff 	or  %o5, 0x3ff, %o5	! ffff <rgnNodes+0x6d3>
    9fcc:	aa 88 40 0d 	andcc  %g1, %o5, %l5
    9fd0:	22 80 00 21 	be,a   a054 <_multiply+0x13c>
    9fd4:	ab 30 60 10 	srl  %g1, 0x10, %l5
    9fd8:	a6 10 00 1b 	mov  %i3, %l3
    9fdc:	a4 10 00 1d 	mov  %i5, %l2
    9fe0:	a8 10 20 00 	clr  %l4
    9fe4:	ac 10 00 0d 	mov  %o5, %l6
    9fe8:	e0 04 c0 00 	ld  [ %l3 ], %l0
    9fec:	92 10 00 15 	mov  %l5, %o1
    9ff0:	7f ff e0 ba 	call  22d8 <.umul>
    9ff4:	90 0c 00 16 	and  %l0, %l6, %o0
    9ff8:	e2 04 80 00 	ld  [ %l2 ], %l1
    9ffc:	9a 10 00 08 	mov  %o0, %o5
    a000:	82 0c 40 16 	and  %l1, %l6, %g1
    a004:	a1 34 20 10 	srl  %l0, 0x10, %l0
    a008:	9a 03 40 01 	add  %o5, %g1, %o5
    a00c:	a3 34 60 10 	srl  %l1, 0x10, %l1
    a010:	b2 03 40 14 	add  %o5, %l4, %i1
    a014:	90 10 00 10 	mov  %l0, %o0
    a018:	a9 36 60 10 	srl  %i1, 0x10, %l4
    a01c:	7f ff e0 af 	call  22d8 <.umul>
    a020:	92 10 00 15 	mov  %l5, %o1
    a024:	a6 04 e0 04 	add  %l3, 4, %l3
    a028:	f2 34 a0 02 	sth  %i1, [ %l2 + 2 ]
    a02c:	90 02 00 11 	add  %o0, %l1, %o0
    a030:	80 a4 c0 17 	cmp  %l3, %l7
    a034:	a2 02 00 14 	add  %o0, %l4, %l1
    a038:	e2 34 80 00 	sth  %l1, [ %l2 ]
    a03c:	a9 34 60 10 	srl  %l1, 0x10, %l4
    a040:	0a bf ff ea 	bcs  9fe8 <_multiply+0xd0>
    a044:	a4 04 a0 04 	add  %l2, 4, %l2
    a048:	e8 24 80 00 	st  %l4, [ %l2 ]
    a04c:	c2 06 80 00 	ld  [ %i2 ], %g1
    a050:	ab 30 60 10 	srl  %g1, 0x10, %l5
    a054:	80 a5 60 00 	cmp  %l5, 0
    a058:	02 80 00 23 	be  a0e4 <_multiply+0x1cc>
    a05c:	c2 07 bf f0 	ld  [ %fp + -16 ], %g1
    a060:	e2 07 40 00 	ld  [ %i5 ], %l1
    a064:	1b 00 00 3f 	sethi  %hi(0xfc00), %o5
    a068:	a4 10 00 1d 	mov  %i5, %l2
    a06c:	a6 10 00 1b 	mov  %i3, %l3
    a070:	a8 10 20 00 	clr  %l4
    a074:	b2 10 00 11 	mov  %l1, %i1
    a078:	ac 13 63 ff 	or  %o5, 0x3ff, %l6
    a07c:	e0 04 c0 00 	ld  [ %l3 ], %l0
    a080:	92 10 00 15 	mov  %l5, %o1
    a084:	7f ff e0 95 	call  22d8 <.umul>
    a088:	90 0c 00 16 	and  %l0, %l6, %o0
    a08c:	83 36 60 10 	srl  %i1, 0x10, %g1
    a090:	90 02 00 01 	add  %o0, %g1, %o0
    a094:	e2 34 a0 02 	sth  %l1, [ %l2 + 2 ]
    a098:	b2 02 00 14 	add  %o0, %l4, %i1
    a09c:	a1 34 20 10 	srl  %l0, 0x10, %l0
    a0a0:	f2 34 80 00 	sth  %i1, [ %l2 ]
    a0a4:	90 10 00 10 	mov  %l0, %o0
    a0a8:	a4 04 a0 04 	add  %l2, 4, %l2
    a0ac:	7f ff e0 8b 	call  22d8 <.umul>
    a0b0:	92 10 00 15 	mov  %l5, %o1
    a0b4:	c2 04 80 00 	ld  [ %l2 ], %g1
    a0b8:	a9 36 60 10 	srl  %i1, 0x10, %l4
    a0bc:	a6 04 e0 04 	add  %l3, 4, %l3
    a0c0:	b2 10 00 01 	mov  %g1, %i1
    a0c4:	80 a4 c0 17 	cmp  %l3, %l7
    a0c8:	82 08 40 16 	and  %g1, %l6, %g1
    a0cc:	90 02 00 01 	add  %o0, %g1, %o0
    a0d0:	a2 02 00 14 	add  %o0, %l4, %l1
    a0d4:	0a bf ff ea 	bcs  a07c <_multiply+0x164>
    a0d8:	a9 34 60 10 	srl  %l1, 0x10, %l4
    a0dc:	e2 24 80 00 	st  %l1, [ %l2 ]
    a0e0:	c2 07 bf f0 	ld  [ %fp + -16 ], %g1
    a0e4:	b4 06 a0 04 	add  %i2, 4, %i2
    a0e8:	80 a6 80 01 	cmp  %i2, %g1
    a0ec:	0a bf ff b5 	bcs  9fc0 <_multiply+0xa8>
    a0f0:	ba 07 60 04 	add  %i5, 4, %i5
    a0f4:	da 07 bf ec 	ld  [ %fp + -20 ], %o5
    a0f8:	80 a7 20 00 	cmp  %i4, 0
    a0fc:	04 80 00 0f 	ble  a138 <_multiply+0x220>
    a100:	a4 06 00 0d 	add  %i0, %o5, %l2
    a104:	a4 04 bf fc 	add  %l2, -4, %l2
    a108:	c2 04 80 00 	ld  [ %l2 ], %g1
    a10c:	80 a0 60 00 	cmp  %g1, 0
    a110:	12 80 00 0b 	bne  a13c <_multiply+0x224>
    a114:	c2 07 bf f4 	ld  [ %fp + -12 ], %g1
    a118:	b8 07 3f ff 	add  %i4, -1, %i4
    a11c:	80 a7 20 00 	cmp  %i4, 0
    a120:	04 80 00 06 	ble  a138 <_multiply+0x220>
    a124:	a4 04 bf fc 	add  %l2, -4, %l2
    a128:	c2 04 80 00 	ld  [ %l2 ], %g1
    a12c:	80 a0 60 00 	cmp  %g1, 0
    a130:	22 bf ff fb 	be,a   a11c <_multiply+0x204>
    a134:	b8 07 3f ff 	add  %i4, -1, %i4
    a138:	c2 07 bf f4 	ld  [ %fp + -12 ], %g1
    a13c:	f8 20 60 10 	st  %i4, [ %g1 + 0x10 ]
    a140:	81 c7 e0 08 	ret 
    a144:	91 e8 00 01 	restore  %g0, %g1, %o0

0000a148 <_pow5mult>:
    a148:	9d e3 bf 98 	save  %sp, -104, %sp
    a14c:	a4 10 00 18 	mov  %i0, %l2
    a150:	82 8e a0 03 	andcc  %i2, 3, %g1
    a154:	12 80 00 2f 	bne  a210 <_pow5mult+0xc8>
    a158:	b0 10 00 19 	mov  %i1, %i0
    a15c:	b5 3e a0 02 	sra  %i2, 2, %i2
    a160:	80 a6 a0 00 	cmp  %i2, 0
    a164:	02 80 00 36 	be  a23c <_pow5mult+0xf4>
    a168:	01 00 00 00 	nop 
    a16c:	e2 04 a0 48 	ld  [ %l2 + 0x48 ], %l1
    a170:	80 a4 60 00 	cmp  %l1, 0
    a174:	02 80 00 21 	be  a1f8 <_pow5mult+0xb0>
    a178:	90 10 00 12 	mov  %l2, %o0
    a17c:	80 8e a0 01 	btst  1, %i2
    a180:	12 80 00 14 	bne  a1d0 <_pow5mult+0x88>
    a184:	94 10 00 11 	mov  %l1, %o2
    a188:	b5 3e a0 01 	sra  %i2, 1, %i2
    a18c:	92 10 00 11 	mov  %l1, %o1
    a190:	94 10 00 11 	mov  %l1, %o2
    a194:	80 a6 a0 00 	cmp  %i2, 0
    a198:	02 80 00 29 	be  a23c <_pow5mult+0xf4>
    a19c:	90 10 00 12 	mov  %l2, %o0
    a1a0:	c2 04 40 00 	ld  [ %l1 ], %g1
    a1a4:	80 a0 60 00 	cmp  %g1, 0
    a1a8:	02 80 00 04 	be  a1b8 <_pow5mult+0x70>
    a1ac:	01 00 00 00 	nop 
    a1b0:	10 bf ff f3 	b  a17c <_pow5mult+0x34>
    a1b4:	a2 10 00 01 	mov  %g1, %l1
    a1b8:	7f ff ff 58 	call  9f18 <_multiply>
    a1bc:	01 00 00 00 	nop 
    a1c0:	d0 24 40 00 	st  %o0, [ %l1 ]
    a1c4:	82 10 00 08 	mov  %o0, %g1
    a1c8:	10 bf ff fa 	b  a1b0 <_pow5mult+0x68>
    a1cc:	c0 22 00 00 	clr  [ %o0 ]
    a1d0:	92 10 00 18 	mov  %i0, %o1
    a1d4:	7f ff ff 51 	call  9f18 <_multiply>
    a1d8:	90 10 00 12 	mov  %l2, %o0
    a1dc:	92 10 00 18 	mov  %i0, %o1
    a1e0:	a0 10 00 08 	mov  %o0, %l0
    a1e4:	90 10 00 12 	mov  %l2, %o0
    a1e8:	7f ff fe 7c 	call  9bd8 <_Bfree>
    a1ec:	b0 10 00 10 	mov  %l0, %i0
    a1f0:	10 bf ff e7 	b  a18c <_pow5mult+0x44>
    a1f4:	b5 3e a0 01 	sra  %i2, 1, %i2
    a1f8:	7f ff ff 3f 	call  9ef4 <_i2b>
    a1fc:	92 10 22 71 	mov  0x271, %o1
    a200:	d0 24 a0 48 	st  %o0, [ %l2 + 0x48 ]
    a204:	a2 10 00 08 	mov  %o0, %l1
    a208:	10 bf ff dd 	b  a17c <_pow5mult+0x34>
    a20c:	c0 22 00 00 	clr  [ %o0 ]
    a210:	83 28 60 02 	sll  %g1, 2, %g1
    a214:	1b 00 00 3a 	sethi  %hi(0xe800), %o5
    a218:	9a 13 62 88 	or  %o5, 0x288, %o5	! ea88 <p05.0>
    a21c:	82 00 40 0d 	add  %g1, %o5, %g1
    a220:	d4 00 7f fc 	ld  [ %g1 + -4 ], %o2
    a224:	92 10 00 19 	mov  %i1, %o1
    a228:	90 10 00 12 	mov  %l2, %o0
    a22c:	7f ff fe 76 	call  9c04 <_multadd>
    a230:	96 10 20 00 	clr  %o3
    a234:	10 bf ff ca 	b  a15c <_pow5mult+0x14>
    a238:	b0 10 00 08 	mov  %o0, %i0
    a23c:	81 c7 e0 08 	ret 
    a240:	81 e8 00 00 	restore 

0000a244 <_lshift>:
    a244:	9d e3 bf 98 	save  %sp, -104, %sp
    a248:	c2 06 60 10 	ld  [ %i1 + 0x10 ], %g1
    a24c:	da 06 60 08 	ld  [ %i1 + 8 ], %o5
    a250:	a1 3e a0 05 	sra  %i2, 5, %l0
    a254:	a4 10 00 18 	mov  %i0, %l2
    a258:	82 04 00 01 	add  %l0, %g1, %g1
    a25c:	a2 00 60 01 	add  %g1, 1, %l1
    a260:	80 a4 40 0d 	cmp  %l1, %o5
    a264:	04 80 00 06 	ble  a27c <_lshift+0x38>
    a268:	d2 06 60 04 	ld  [ %i1 + 4 ], %o1
    a26c:	9a 03 40 0d 	add  %o5, %o5, %o5
    a270:	80 a4 40 0d 	cmp  %l1, %o5
    a274:	14 bf ff fe 	bg  a26c <_lshift+0x28>
    a278:	92 02 60 01 	inc  %o1
    a27c:	7f ff fe 2f 	call  9b38 <_Balloc>
    a280:	90 10 00 12 	mov  %l2, %o0
    a284:	80 a4 20 00 	cmp  %l0, 0
    a288:	b0 10 00 08 	mov  %o0, %i0
    a28c:	04 80 00 07 	ble  a2a8 <_lshift+0x64>
    a290:	96 02 20 14 	add  %o0, 0x14, %o3
    a294:	9a 10 00 10 	mov  %l0, %o5
    a298:	c0 22 c0 00 	clr  [ %o3 ]
    a29c:	9a 83 7f ff 	addcc  %o5, -1, %o5
    a2a0:	12 bf ff fe 	bne  a298 <_lshift+0x54>
    a2a4:	96 02 e0 04 	add  %o3, 4, %o3
    a2a8:	c2 06 60 10 	ld  [ %i1 + 0x10 ], %g1
    a2ac:	98 06 60 14 	add  %i1, 0x14, %o4
    a2b0:	83 28 60 02 	sll  %g1, 2, %g1
    a2b4:	b4 8e a0 1f 	andcc  %i2, 0x1f, %i2
    a2b8:	02 80 00 14 	be  a308 <_lshift+0xc4>
    a2bc:	94 03 00 01 	add  %o4, %g1, %o2
    a2c0:	82 10 20 20 	mov  0x20, %g1
    a2c4:	9a 10 20 00 	clr  %o5
    a2c8:	92 20 40 1a 	sub  %g1, %i2, %o1
    a2cc:	c2 03 00 00 	ld  [ %o4 ], %g1
    a2d0:	83 28 40 1a 	sll  %g1, %i2, %g1
    a2d4:	82 10 40 0d 	or  %g1, %o5, %g1
    a2d8:	c2 22 c0 00 	st  %g1, [ %o3 ]
    a2dc:	da 03 00 00 	ld  [ %o4 ], %o5
    a2e0:	96 02 e0 04 	add  %o3, 4, %o3
    a2e4:	98 03 20 04 	add  %o4, 4, %o4
    a2e8:	80 a3 00 0a 	cmp  %o4, %o2
    a2ec:	0a bf ff f8 	bcs  a2cc <_lshift+0x88>
    a2f0:	9b 33 40 09 	srl  %o5, %o1, %o5
    a2f4:	80 a3 60 00 	cmp  %o5, 0
    a2f8:	02 80 00 0a 	be  a320 <_lshift+0xdc>
    a2fc:	da 22 c0 00 	st  %o5, [ %o3 ]
    a300:	10 80 00 08 	b  a320 <_lshift+0xdc>
    a304:	a2 04 60 01 	inc  %l1
    a308:	c2 03 00 00 	ld  [ %o4 ], %g1
    a30c:	98 03 20 04 	add  %o4, 4, %o4
    a310:	c2 22 c0 00 	st  %g1, [ %o3 ]
    a314:	80 a3 00 0a 	cmp  %o4, %o2
    a318:	0a bf ff fc 	bcs  a308 <_lshift+0xc4>
    a31c:	96 02 e0 04 	add  %o3, 4, %o3
    a320:	82 04 7f ff 	add  %l1, -1, %g1
    a324:	90 10 00 12 	mov  %l2, %o0
    a328:	c2 26 20 10 	st  %g1, [ %i0 + 0x10 ]
    a32c:	7f ff fe 2b 	call  9bd8 <_Bfree>
    a330:	92 10 00 19 	mov  %i1, %o1
    a334:	81 c7 e0 08 	ret 
    a338:	81 e8 00 00 	restore 

0000a33c <__mcmp>:
    a33c:	98 10 00 08 	mov  %o0, %o4
    a340:	da 02 60 10 	ld  [ %o1 + 0x10 ], %o5
    a344:	d0 02 20 10 	ld  [ %o0 + 0x10 ], %o0
    a348:	90 a2 00 0d 	subcc  %o0, %o5, %o0
    a34c:	12 80 00 14 	bne  a39c <__mcmp+0x60>
    a350:	9b 2b 60 02 	sll  %o5, 2, %o5
    a354:	90 03 20 14 	add  %o4, 0x14, %o0
    a358:	82 02 60 14 	add  %o1, 0x14, %g1
    a35c:	82 00 40 0d 	add  %g1, %o5, %g1
    a360:	9a 02 00 0d 	add  %o0, %o5, %o5
    a364:	9a 03 7f fc 	add  %o5, -4, %o5
    a368:	82 00 7f fc 	add  %g1, -4, %g1
    a36c:	d6 03 40 00 	ld  [ %o5 ], %o3
    a370:	d8 00 40 00 	ld  [ %g1 ], %o4
    a374:	80 a2 c0 0c 	cmp  %o3, %o4
    a378:	12 80 00 06 	bne  a390 <__mcmp+0x54>
    a37c:	80 a3 40 08 	cmp  %o5, %o0
    a380:	38 bf ff fa 	bgu,a   a368 <__mcmp+0x2c>
    a384:	9a 03 7f fc 	add  %o5, -4, %o5
    a388:	10 80 00 05 	b  a39c <__mcmp+0x60>
    a38c:	90 10 20 00 	clr  %o0
    a390:	80 a2 c0 0c 	cmp  %o3, %o4
    a394:	82 60 20 00 	subx  %g0, 0, %g1
    a398:	90 10 60 01 	or  %g1, 1, %o0
    a39c:	81 c3 e0 08 	retl 
    a3a0:	01 00 00 00 	nop 

0000a3a4 <__mdiff>:
    a3a4:	9d e3 bf 98 	save  %sp, -104, %sp
    a3a8:	90 10 00 19 	mov  %i1, %o0
    a3ac:	92 10 00 1a 	mov  %i2, %o1
    a3b0:	7f ff ff e3 	call  a33c <__mcmp>
    a3b4:	a2 10 00 18 	mov  %i0, %l1
    a3b8:	a0 92 20 00 	orcc  %o0, 0, %l0
    a3bc:	02 80 00 4a 	be  a4e4 <__mdiff+0x140>
    a3c0:	80 a4 20 00 	cmp  %l0, 0
    a3c4:	06 80 00 44 	bl  a4d4 <__mdiff+0x130>
    a3c8:	b0 10 00 19 	mov  %i1, %i0
    a3cc:	a0 10 20 00 	clr  %l0
    a3d0:	d2 06 60 04 	ld  [ %i1 + 4 ], %o1
    a3d4:	7f ff fd d9 	call  9b38 <_Balloc>
    a3d8:	90 10 00 11 	mov  %l1, %o0
    a3dc:	da 06 a0 10 	ld  [ %i2 + 0x10 ], %o5
    a3e0:	e2 06 60 10 	ld  [ %i1 + 0x10 ], %l1
    a3e4:	9b 2b 60 02 	sll  %o5, 2, %o5
    a3e8:	b0 10 00 08 	mov  %o0, %i0
    a3ec:	e0 22 20 0c 	st  %l0, [ %o0 + 0xc ]
    a3f0:	92 06 a0 14 	add  %i2, 0x14, %o1
    a3f4:	90 06 60 14 	add  %i1, 0x14, %o0
    a3f8:	b4 02 40 0d 	add  %o1, %o5, %i2
    a3fc:	83 2c 60 02 	sll  %l1, 2, %g1
    a400:	1b 00 00 3f 	sethi  %hi(0xfc00), %o5
    a404:	b2 02 00 01 	add  %o0, %g1, %i1
    a408:	a0 13 63 ff 	or  %o5, 0x3ff, %l0
    a40c:	94 06 20 14 	add  %i0, 0x14, %o2
    a410:	9e 10 20 00 	clr  %o7
    a414:	d8 02 00 00 	ld  [ %o0 ], %o4
    a418:	d6 02 40 00 	ld  [ %o1 ], %o3
    a41c:	82 0b 00 10 	and  %o4, %l0, %g1
    a420:	9a 0a c0 10 	and  %o3, %l0, %o5
    a424:	82 20 40 0d 	sub  %g1, %o5, %g1
    a428:	82 00 40 0f 	add  %g1, %o7, %g1
    a42c:	9f 38 60 10 	sra  %g1, 0x10, %o7
    a430:	c2 32 a0 02 	sth  %g1, [ %o2 + 2 ]
    a434:	99 33 20 10 	srl  %o4, 0x10, %o4
    a438:	97 32 e0 10 	srl  %o3, 0x10, %o3
    a43c:	92 02 60 04 	add  %o1, 4, %o1
    a440:	98 23 00 0b 	sub  %o4, %o3, %o4
    a444:	80 a2 40 1a 	cmp  %o1, %i2
    a448:	98 03 00 0f 	add  %o4, %o7, %o4
    a44c:	90 02 20 04 	add  %o0, 4, %o0
    a450:	d8 32 80 00 	sth  %o4, [ %o2 ]
    a454:	9f 3b 20 10 	sra  %o4, 0x10, %o7
    a458:	0a bf ff ef 	bcs  a414 <__mdiff+0x70>
    a45c:	94 02 a0 04 	add  %o2, 4, %o2
    a460:	80 a2 00 19 	cmp  %o0, %i1
    a464:	1a 80 00 10 	bcc  a4a4 <__mdiff+0x100>
    a468:	03 00 00 3f 	sethi  %hi(0xfc00), %g1
    a46c:	96 10 63 ff 	or  %g1, 0x3ff, %o3	! ffff <rgnNodes+0x6d3>
    a470:	da 02 00 00 	ld  [ %o0 ], %o5
    a474:	90 02 20 04 	add  %o0, 4, %o0
    a478:	82 0b 40 0b 	and  %o5, %o3, %g1
    a47c:	82 00 40 0f 	add  %g1, %o7, %g1
    a480:	9f 38 60 10 	sra  %g1, 0x10, %o7
    a484:	c2 32 a0 02 	sth  %g1, [ %o2 + 2 ]
    a488:	9b 33 60 10 	srl  %o5, 0x10, %o5
    a48c:	80 a2 00 19 	cmp  %o0, %i1
    a490:	98 03 40 0f 	add  %o5, %o7, %o4
    a494:	d8 32 80 00 	sth  %o4, [ %o2 ]
    a498:	9f 3b 20 10 	sra  %o4, 0x10, %o7
    a49c:	0a bf ff f5 	bcs  a470 <__mdiff+0xcc>
    a4a0:	94 02 a0 04 	add  %o2, 4, %o2
    a4a4:	94 02 bf fc 	add  %o2, -4, %o2
    a4a8:	c2 02 80 00 	ld  [ %o2 ], %g1
    a4ac:	80 a0 60 00 	cmp  %g1, 0
    a4b0:	32 80 00 14 	bne,a   a500 <__mdiff+0x15c>
    a4b4:	e2 26 20 10 	st  %l1, [ %i0 + 0x10 ]
    a4b8:	94 02 bf fc 	add  %o2, -4, %o2
    a4bc:	c2 02 80 00 	ld  [ %o2 ], %g1
    a4c0:	80 a0 60 00 	cmp  %g1, 0
    a4c4:	02 bf ff fd 	be  a4b8 <__mdiff+0x114>
    a4c8:	a2 04 7f ff 	add  %l1, -1, %l1
    a4cc:	10 80 00 0d 	b  a500 <__mdiff+0x15c>
    a4d0:	e2 26 20 10 	st  %l1, [ %i0 + 0x10 ]
    a4d4:	a0 10 20 01 	mov  1, %l0
    a4d8:	b2 10 00 1a 	mov  %i2, %i1
    a4dc:	10 bf ff bd 	b  a3d0 <__mdiff+0x2c>
    a4e0:	b4 10 00 18 	mov  %i0, %i2
    a4e4:	90 10 00 18 	mov  %i0, %o0
    a4e8:	7f ff fd 94 	call  9b38 <_Balloc>
    a4ec:	92 10 20 00 	clr  %o1
    a4f0:	82 10 20 01 	mov  1, %g1
    a4f4:	b0 10 00 08 	mov  %o0, %i0
    a4f8:	c0 22 20 14 	clr  [ %o0 + 0x14 ]
    a4fc:	c2 22 20 10 	st  %g1, [ %o0 + 0x10 ]
    a500:	81 c7 e0 08 	ret 
    a504:	81 e8 00 00 	restore 

0000a508 <_ulp>:
    a508:	03 1f fc 00 	sethi  %hi(0x7ff00000), %g1
    a50c:	17 3f 30 00 	sethi  %hi(0xfcc00000), %o3
    a510:	98 0a 00 01 	and  %o0, %g1, %o4
    a514:	98 03 00 0b 	add  %o4, %o3, %o4
    a518:	80 a3 20 00 	cmp  %o4, 0
    a51c:	04 80 00 04 	ble  a52c <_ulp+0x24>
    a520:	90 10 00 0c 	mov  %o4, %o0
    a524:	10 80 00 13 	b  a570 <_ulp+0x68>
    a528:	92 10 20 00 	clr  %o1
    a52c:	82 20 00 0c 	neg  %o4, %g1
    a530:	99 38 60 14 	sra  %g1, 0x14, %o4
    a534:	80 a3 20 13 	cmp  %o4, 0x13
    a538:	14 80 00 05 	bg  a54c <_ulp+0x44>
    a53c:	96 10 20 01 	mov  1, %o3
    a540:	03 00 02 00 	sethi  %hi(0x80000), %g1
    a544:	10 bf ff f8 	b  a524 <_ulp+0x1c>
    a548:	91 38 40 0c 	sra  %g1, %o4, %o0
    a54c:	98 03 3f ec 	add  %o4, -20, %o4
    a550:	82 10 20 1f 	mov  0x1f, %g1
    a554:	90 10 20 00 	clr  %o0
    a558:	80 a3 20 1e 	cmp  %o4, 0x1e
    a55c:	14 80 00 04 	bg  a56c <_ulp+0x64>
    a560:	9a 20 40 0c 	sub  %g1, %o4, %o5
    a564:	82 10 20 01 	mov  1, %g1
    a568:	97 28 40 0d 	sll  %g1, %o5, %o3
    a56c:	92 10 00 0b 	mov  %o3, %o1
    a570:	81 c3 e0 08 	retl 
    a574:	01 00 00 00 	nop 

0000a578 <_b2d>:
    a578:	9d e3 bf 98 	save  %sp, -104, %sp
    a57c:	c2 06 20 10 	ld  [ %i0 + 0x10 ], %g1
    a580:	a4 06 20 14 	add  %i0, 0x14, %l2
    a584:	83 28 60 02 	sll  %g1, 2, %g1
    a588:	a0 04 80 01 	add  %l2, %g1, %l0
    a58c:	a0 04 3f fc 	add  %l0, -4, %l0
    a590:	e2 04 00 00 	ld  [ %l0 ], %l1
    a594:	7f ff fe 06 	call  9dac <_hi0bits>
    a598:	90 10 00 11 	mov  %l1, %o0
    a59c:	82 10 20 20 	mov  0x20, %g1
    a5a0:	80 a2 20 0a 	cmp  %o0, 0xa
    a5a4:	82 20 40 08 	sub  %g1, %o0, %g1
    a5a8:	04 80 00 1c 	ble  a618 <_b2d+0xa0>
    a5ac:	c2 26 40 00 	st  %g1, [ %i1 ]
    a5b0:	80 a4 00 12 	cmp  %l0, %l2
    a5b4:	08 80 00 04 	bleu  a5c4 <_b2d+0x4c>
    a5b8:	96 10 20 00 	clr  %o3
    a5bc:	a0 04 3f fc 	add  %l0, -4, %l0
    a5c0:	d6 04 00 00 	ld  [ %l0 ], %o3
    a5c4:	90 82 3f f5 	addcc  %o0, -11, %o0
    a5c8:	02 80 00 11 	be  a60c <_b2d+0x94>
    a5cc:	03 0f fc 00 	sethi  %hi(0x3ff00000), %g1
    a5d0:	83 2c 40 08 	sll  %l1, %o0, %g1
    a5d4:	9a 20 00 08 	neg  %o0, %o5
    a5d8:	19 0f fc 00 	sethi  %hi(0x3ff00000), %o4
    a5dc:	9b 32 c0 0d 	srl  %o3, %o5, %o5
    a5e0:	80 a4 00 12 	cmp  %l0, %l2
    a5e4:	82 10 40 0d 	or  %g1, %o5, %g1
    a5e8:	a2 10 20 00 	clr  %l1
    a5ec:	08 80 00 03 	bleu  a5f8 <_b2d+0x80>
    a5f0:	b0 10 40 0c 	or  %g1, %o4, %i0
    a5f4:	e2 04 3f fc 	ld  [ %l0 + -4 ], %l1
    a5f8:	82 20 00 08 	neg  %o0, %g1
    a5fc:	9b 2a c0 08 	sll  %o3, %o0, %o5
    a600:	83 34 40 01 	srl  %l1, %g1, %g1
    a604:	10 80 00 14 	b  a654 <_b2d+0xdc>
    a608:	b2 13 40 01 	or  %o5, %g1, %i1
    a60c:	b2 10 00 0b 	mov  %o3, %i1
    a610:	10 80 00 11 	b  a654 <_b2d+0xdc>
    a614:	b0 14 40 01 	or  %l1, %g1, %i0
    a618:	82 10 20 0b 	mov  0xb, %g1
    a61c:	1b 0f fc 00 	sethi  %hi(0x3ff00000), %o5
    a620:	82 20 40 08 	sub  %g1, %o0, %g1
    a624:	80 a4 00 12 	cmp  %l0, %l2
    a628:	83 34 40 01 	srl  %l1, %g1, %g1
    a62c:	98 10 20 00 	clr  %o4
    a630:	08 80 00 03 	bleu  a63c <_b2d+0xc4>
    a634:	b0 10 40 0d 	or  %g1, %o5, %i0
    a638:	d8 04 3f fc 	ld  [ %l0 + -4 ], %o4
    a63c:	9a 02 20 15 	add  %o0, 0x15, %o5
    a640:	82 10 20 0b 	mov  0xb, %g1
    a644:	9b 2c 40 0d 	sll  %l1, %o5, %o5
    a648:	82 20 40 08 	sub  %g1, %o0, %g1
    a64c:	10 bf ff ee 	b  a604 <_b2d+0x8c>
    a650:	83 33 00 01 	srl  %o4, %g1, %g1
    a654:	81 c7 e0 08 	ret 
    a658:	81 e8 00 00 	restore 

0000a65c <_d2b>:
    a65c:	9d e3 bf 90 	save  %sp, -112, %sp
    a660:	90 10 00 18 	mov  %i0, %o0
    a664:	7f ff fd 35 	call  9b38 <_Balloc>
    a668:	92 10 20 01 	mov  1, %o1
    a66c:	03 3f fc 00 	sethi  %hi(0xfff00000), %g1
    a670:	a2 10 00 1a 	mov  %i2, %l1
    a674:	9a 2e 40 01 	andn  %i1, %g1, %o5
    a678:	b0 10 00 08 	mov  %o0, %i0
    a67c:	03 20 00 00 	sethi  %hi(0x80000000), %g1
    a680:	da 27 bf f0 	st  %o5, [ %fp + -16 ]
    a684:	a0 2e 40 01 	andn  %i1, %g1, %l0
    a688:	b5 34 20 14 	srl  %l0, 0x14, %i2
    a68c:	80 a6 a0 00 	cmp  %i2, 0
    a690:	02 80 00 05 	be  a6a4 <_d2b+0x48>
    a694:	b2 02 20 14 	add  %o0, 0x14, %i1
    a698:	03 00 04 00 	sethi  %hi(0x100000), %g1
    a69c:	82 13 40 01 	or  %o5, %g1, %g1
    a6a0:	c2 27 bf f0 	st  %g1, [ %fp + -16 ]
    a6a4:	80 a4 60 00 	cmp  %l1, 0
    a6a8:	02 80 00 2c 	be  a758 <_d2b+0xfc>
    a6ac:	01 00 00 00 	nop 
    a6b0:	e2 27 bf f4 	st  %l1, [ %fp + -12 ]
    a6b4:	7f ff fd de 	call  9e2c <_lo0bits>
    a6b8:	90 07 bf f4 	add  %fp, -12, %o0
    a6bc:	96 92 20 00 	orcc  %o0, 0, %o3
    a6c0:	02 80 00 24 	be  a750 <_d2b+0xf4>
    a6c4:	c2 07 bf f4 	ld  [ %fp + -12 ], %g1
    a6c8:	da 07 bf f0 	ld  [ %fp + -16 ], %o5
    a6cc:	98 20 00 0b 	neg  %o3, %o4
    a6d0:	9b 2b 40 0c 	sll  %o5, %o4, %o5
    a6d4:	82 10 40 0d 	or  %g1, %o5, %g1
    a6d8:	c2 26 20 14 	st  %g1, [ %i0 + 0x14 ]
    a6dc:	da 07 bf f0 	ld  [ %fp + -16 ], %o5
    a6e0:	9b 33 40 0b 	srl  %o5, %o3, %o5
    a6e4:	da 27 bf f0 	st  %o5, [ %fp + -16 ]
    a6e8:	da 07 bf f0 	ld  [ %fp + -16 ], %o5
    a6ec:	82 10 20 02 	mov  2, %g1
    a6f0:	80 a0 00 0d 	cmp  %g0, %o5
    a6f4:	da 26 60 04 	st  %o5, [ %i1 + 4 ]
    a6f8:	82 40 7f ff 	addx  %g1, -1, %g1
    a6fc:	c2 26 20 10 	st  %g1, [ %i0 + 0x10 ]
    a700:	a0 10 00 01 	mov  %g1, %l0
    a704:	80 a6 a0 00 	cmp  %i2, 0
    a708:	02 80 00 09 	be  a72c <_d2b+0xd0>
    a70c:	83 2c 20 02 	sll  %l0, 2, %g1
    a710:	82 06 80 0b 	add  %i2, %o3, %g1
    a714:	82 00 7b cd 	add  %g1, -1075, %g1
    a718:	c2 26 c0 00 	st  %g1, [ %i3 ]
    a71c:	9a 10 20 35 	mov  0x35, %o5
    a720:	9a 23 40 0b 	sub  %o5, %o3, %o5
    a724:	10 80 00 16 	b  a77c <_d2b+0x120>
    a728:	da 27 00 00 	st  %o5, [ %i4 ]
    a72c:	82 00 40 19 	add  %g1, %i1, %g1
    a730:	d0 00 7f fc 	ld  [ %g1 + -4 ], %o0
    a734:	9a 02 fb ce 	add  %o3, -1074, %o5
    a738:	a1 2c 20 05 	sll  %l0, 5, %l0
    a73c:	7f ff fd 9c 	call  9dac <_hi0bits>
    a740:	da 26 c0 00 	st  %o5, [ %i3 ]
    a744:	a0 24 00 08 	sub  %l0, %o0, %l0
    a748:	10 80 00 0d 	b  a77c <_d2b+0x120>
    a74c:	e0 27 00 00 	st  %l0, [ %i4 ]
    a750:	10 bf ff e6 	b  a6e8 <_d2b+0x8c>
    a754:	c2 26 20 14 	st  %g1, [ %i0 + 0x14 ]
    a758:	7f ff fd b5 	call  9e2c <_lo0bits>
    a75c:	90 07 bf f0 	add  %fp, -16, %o0
    a760:	c2 07 bf f0 	ld  [ %fp + -16 ], %g1
    a764:	9a 10 20 01 	mov  1, %o5
    a768:	c2 26 20 14 	st  %g1, [ %i0 + 0x14 ]
    a76c:	da 26 20 10 	st  %o5, [ %i0 + 0x10 ]
    a770:	a0 10 20 01 	mov  1, %l0
    a774:	10 bf ff e4 	b  a704 <_d2b+0xa8>
    a778:	96 02 20 20 	add  %o0, 0x20, %o3
    a77c:	81 c7 e0 08 	ret 
    a780:	81 e8 00 00 	restore 

0000a784 <_ratio>:
    a784:	9d e3 bf 90 	save  %sp, -112, %sp
    a788:	90 10 00 18 	mov  %i0, %o0
    a78c:	7f ff ff 7b 	call  a578 <_b2d>
    a790:	92 07 bf f4 	add  %fp, -12, %o1
    a794:	a0 10 00 08 	mov  %o0, %l0
    a798:	a2 10 00 09 	mov  %o1, %l1
    a79c:	90 10 00 19 	mov  %i1, %o0
    a7a0:	7f ff ff 76 	call  a578 <_b2d>
    a7a4:	92 07 bf f0 	add  %fp, -16, %o1
    a7a8:	c2 06 60 10 	ld  [ %i1 + 0x10 ], %g1
    a7ac:	d8 06 20 10 	ld  [ %i0 + 0x10 ], %o4
    a7b0:	da 07 bf f4 	ld  [ %fp + -12 ], %o5
    a7b4:	98 23 00 01 	sub  %o4, %g1, %o4
    a7b8:	c2 07 bf f0 	ld  [ %fp + -16 ], %g1
    a7bc:	99 2b 20 05 	sll  %o4, 5, %o4
    a7c0:	9a 23 40 01 	sub  %o5, %g1, %o5
    a7c4:	94 10 00 08 	mov  %o0, %o2
    a7c8:	82 03 40 0c 	add  %o5, %o4, %g1
    a7cc:	80 a0 60 00 	cmp  %g1, 0
    a7d0:	04 80 00 05 	ble  a7e4 <_ratio+0x60>
    a7d4:	96 10 00 09 	mov  %o1, %o3
    a7d8:	83 28 60 14 	sll  %g1, 0x14, %g1
    a7dc:	10 80 00 04 	b  a7ec <_ratio+0x68>
    a7e0:	a0 00 40 10 	add  %g1, %l0, %l0
    a7e4:	83 28 60 14 	sll  %g1, 0x14, %g1
    a7e8:	94 22 80 01 	sub  %o2, %g1, %o2
    a7ec:	90 10 00 10 	mov  %l0, %o0
    a7f0:	40 00 0b 7f 	call  d5ec <__divdf3>
    a7f4:	92 10 00 11 	mov  %l1, %o1
    a7f8:	b0 10 00 08 	mov  %o0, %i0
    a7fc:	81 c7 e0 08 	ret 
    a800:	93 e8 00 09 	restore  %g0, %o1, %o1

0000a804 <_mprec_log10>:
    a804:	9d e3 bf 98 	save  %sp, -104, %sp
    a808:	03 00 00 3a 	sethi  %hi(0xe800), %g1
    a80c:	80 a6 20 17 	cmp  %i0, 0x17
    a810:	14 80 00 08 	bg  a830 <_mprec_log10+0x2c>
    a814:	d0 18 62 18 	ldd  [ %g1 + 0x218 ], %o0
    a818:	9b 2e 20 03 	sll  %i0, 3, %o5
    a81c:	03 00 00 3a 	sethi  %hi(0xe800), %g1
    a820:	82 10 62 98 	or  %g1, 0x298, %g1	! ea98 <__mprec_tens>
    a824:	98 00 40 0d 	add  %g1, %o5, %o4
    a828:	10 80 00 0c 	b  a858 <_mprec_log10+0x54>
    a82c:	d0 1b 00 00 	ldd  [ %o4 ], %o0
    a830:	80 a6 20 00 	cmp  %i0, 0
    a834:	24 80 00 0a 	ble,a   a85c <_mprec_log10+0x58>
    a838:	b0 10 00 08 	mov  %o0, %i0
    a83c:	03 00 00 3a 	sethi  %hi(0xe800), %g1
    a840:	d4 18 62 20 	ldd  [ %g1 + 0x220 ], %o2	! ea20 <_ctype_+0x141>
    a844:	40 00 0a 8c 	call  d274 <__muldf3>
    a848:	b0 06 3f ff 	add  %i0, -1, %i0
    a84c:	80 a6 20 00 	cmp  %i0, 0
    a850:	14 bf ff fc 	bg  a840 <_mprec_log10+0x3c>
    a854:	03 00 00 3a 	sethi  %hi(0xe800), %g1
    a858:	b0 10 00 08 	mov  %o0, %i0
    a85c:	81 c7 e0 08 	ret 
    a860:	93 e8 00 09 	restore  %g0, %o1, %o1

0000a864 <_read_r>:
    a864:	9d e3 bf 98 	save  %sp, -104, %sp
    a868:	94 10 00 1b 	mov  %i3, %o2
    a86c:	90 10 00 19 	mov  %i1, %o0
    a870:	92 10 00 1a 	mov  %i2, %o1
    a874:	37 00 00 4e 	sethi  %hi(0x13800), %i3
    a878:	40 00 07 a0 	call  c6f8 <read>
    a87c:	c0 26 e1 54 	clr  [ %i3 + 0x154 ]	! 13954 <errno>
    a880:	80 a2 3f ff 	cmp  %o0, -1
    a884:	12 80 00 06 	bne  a89c <_read_r+0x38>
    a888:	c2 06 e1 54 	ld  [ %i3 + 0x154 ], %g1
    a88c:	80 a0 60 00 	cmp  %g1, 0
    a890:	02 80 00 03 	be  a89c <_read_r+0x38>
    a894:	01 00 00 00 	nop 
    a898:	c2 26 00 00 	st  %g1, [ %i0 ]
    a89c:	81 c7 e0 08 	ret 
    a8a0:	91 e8 00 08 	restore  %g0, %o0, %o0

0000a8a4 <isinf>:
    a8a4:	82 20 00 09 	neg  %o1, %g1
    a8a8:	82 10 40 09 	or  %g1, %o1, %g1
    a8ac:	83 30 60 1f 	srl  %g1, 0x1f, %g1
    a8b0:	17 20 00 00 	sethi  %hi(0x80000000), %o3
    a8b4:	1b 1f fc 00 	sethi  %hi(0x7ff00000), %o5
    a8b8:	96 2a 00 0b 	andn  %o0, %o3, %o3
    a8bc:	90 10 20 01 	mov  1, %o0
    a8c0:	96 12 c0 01 	or  %o3, %g1, %o3
    a8c4:	96 23 40 0b 	sub  %o5, %o3, %o3
    a8c8:	82 20 00 0b 	neg  %o3, %g1
    a8cc:	96 12 c0 01 	or  %o3, %g1, %o3
    a8d0:	97 32 e0 1f 	srl  %o3, 0x1f, %o3
    a8d4:	81 c3 e0 08 	retl 
    a8d8:	90 22 00 0b 	sub  %o0, %o3, %o0

0000a8dc <isnan>:
    a8dc:	98 10 00 08 	mov  %o0, %o4
    a8e0:	82 20 00 09 	neg  %o1, %g1
    a8e4:	11 20 00 00 	sethi  %hi(0x80000000), %o0
    a8e8:	82 10 40 09 	or  %g1, %o1, %g1
    a8ec:	90 2b 00 08 	andn  %o4, %o0, %o0
    a8f0:	83 30 60 1f 	srl  %g1, 0x1f, %g1
    a8f4:	1b 1f fc 00 	sethi  %hi(0x7ff00000), %o5
    a8f8:	90 12 00 01 	or  %o0, %g1, %o0
    a8fc:	90 23 40 08 	sub  %o5, %o0, %o0
    a900:	81 c3 e0 08 	retl 
    a904:	91 32 20 1f 	srl  %o0, 0x1f, %o0

0000a908 <_sprintf_r>:
    a908:	9d e3 bf 38 	save  %sp, -200, %sp
    a90c:	9a 10 22 08 	mov  0x208, %o5
    a910:	03 1f ff ff 	sethi  %hi(0x7ffffc00), %g1
    a914:	82 10 63 ff 	or  %g1, 0x3ff, %g1	! 7fffffff <_RAM_SIZE+0x7dffffff>
    a918:	f0 27 bf ec 	st  %i0, [ %fp + -20 ]
    a91c:	c2 27 bf ac 	st  %g1, [ %fp + -84 ]
    a920:	c2 27 bf a0 	st  %g1, [ %fp + -96 ]
    a924:	f6 27 a0 50 	st  %i3, [ %fp + 0x50 ]
    a928:	f8 27 a0 54 	st  %i4, [ %fp + 0x54 ]
    a92c:	fa 27 a0 58 	st  %i5, [ %fp + 0x58 ]
    a930:	f2 27 bf a8 	st  %i1, [ %fp + -88 ]
    a934:	92 10 00 1a 	mov  %i2, %o1
    a938:	f2 27 bf 98 	st  %i1, [ %fp + -104 ]
    a93c:	da 37 bf a4 	sth  %o5, [ %fp + -92 ]
    a940:	94 07 a0 50 	add  %fp, 0x50, %o2
    a944:	7f ff e9 90 	call  4f84 <vfprintf>
    a948:	90 07 bf 98 	add  %fp, -104, %o0
    a94c:	c2 07 bf 98 	ld  [ %fp + -104 ], %g1
    a950:	c0 28 40 00 	clrb  [ %g1 ]
    a954:	81 c7 e0 08 	ret 
    a958:	91 e8 00 08 	restore  %g0, %o0, %o0

0000a95c <sprintf>:
    a95c:	9d e3 bf 38 	save  %sp, -200, %sp
    a960:	03 00 00 3c 	sethi  %hi(0xf000), %g1
    a964:	da 00 60 98 	ld  [ %g1 + 0x98 ], %o5	! f098 <_impure_ptr>
    a968:	03 1f ff ff 	sethi  %hi(0x7ffffc00), %g1
    a96c:	da 27 bf ec 	st  %o5, [ %fp + -20 ]
    a970:	82 10 63 ff 	or  %g1, 0x3ff, %g1
    a974:	9a 10 22 08 	mov  0x208, %o5
    a978:	f0 27 bf a8 	st  %i0, [ %fp + -88 ]
    a97c:	f0 27 bf 98 	st  %i0, [ %fp + -104 ]
    a980:	c2 27 bf ac 	st  %g1, [ %fp + -84 ]
    a984:	c2 27 bf a0 	st  %g1, [ %fp + -96 ]
    a988:	f4 27 a0 4c 	st  %i2, [ %fp + 0x4c ]
    a98c:	f6 27 a0 50 	st  %i3, [ %fp + 0x50 ]
    a990:	f8 27 a0 54 	st  %i4, [ %fp + 0x54 ]
    a994:	fa 27 a0 58 	st  %i5, [ %fp + 0x58 ]
    a998:	92 10 00 19 	mov  %i1, %o1
    a99c:	da 37 bf a4 	sth  %o5, [ %fp + -92 ]
    a9a0:	94 07 a0 4c 	add  %fp, 0x4c, %o2
    a9a4:	7f ff e9 78 	call  4f84 <vfprintf>
    a9a8:	90 07 bf 98 	add  %fp, -104, %o0
    a9ac:	c2 07 bf 98 	ld  [ %fp + -104 ], %g1
    a9b0:	c0 28 40 00 	clrb  [ %g1 ]
    a9b4:	81 c7 e0 08 	ret 
    a9b8:	91 e8 00 08 	restore  %g0, %o0, %o0

0000a9bc <strcmp>:
    a9bc:	82 12 00 09 	or  %o0, %o1, %g1
    a9c0:	80 88 60 03 	btst  3, %g1
    a9c4:	32 80 00 08 	bne,a   a9e4 <strcmp+0x28>
    a9c8:	d6 4a 00 00 	ldsb  [ %o0 ], %o3
    a9cc:	d8 02 00 00 	ld  [ %o0 ], %o4
    a9d0:	c2 02 40 00 	ld  [ %o1 ], %g1
    a9d4:	80 a3 00 01 	cmp  %o4, %g1
    a9d8:	02 80 00 1c 	be  aa48 <strcmp+0x8c>
    a9dc:	03 3f bf bf 	sethi  %hi(0xfefefc00), %g1
    a9e0:	d6 4a 00 00 	ldsb  [ %o0 ], %o3
    a9e4:	80 a2 e0 00 	cmp  %o3, 0
    a9e8:	02 80 00 16 	be  aa40 <strcmp+0x84>
    a9ec:	da 0a 00 00 	ldub  [ %o0 ], %o5
    a9f0:	c2 4a 40 00 	ldsb  [ %o1 ], %g1
    a9f4:	80 a2 c0 01 	cmp  %o3, %g1
    a9f8:	02 80 00 06 	be  aa10 <strcmp+0x54>
    a9fc:	d8 0a 40 00 	ldub  [ %o1 ], %o4
    aa00:	9a 0b 60 ff 	and  %o5, 0xff, %o5
    aa04:	82 0b 20 ff 	and  %o4, 0xff, %g1
    aa08:	10 80 00 21 	b  aa8c <strcmp+0xd0>
    aa0c:	82 23 40 01 	sub  %o5, %g1, %g1
    aa10:	90 02 20 01 	inc  %o0
    aa14:	d6 4a 00 00 	ldsb  [ %o0 ], %o3
    aa18:	92 02 60 01 	inc  %o1
    aa1c:	80 a2 e0 00 	cmp  %o3, 0
    aa20:	02 80 00 08 	be  aa40 <strcmp+0x84>
    aa24:	da 0a 00 00 	ldub  [ %o0 ], %o5
    aa28:	c2 4a 40 00 	ldsb  [ %o1 ], %g1
    aa2c:	80 a2 c0 01 	cmp  %o3, %g1
    aa30:	02 bf ff f8 	be  aa10 <strcmp+0x54>
    aa34:	d8 0a 40 00 	ldub  [ %o1 ], %o4
    aa38:	10 bf ff f3 	b  aa04 <strcmp+0x48>
    aa3c:	9a 0b 60 ff 	and  %o5, 0xff, %o5
    aa40:	10 bf ff f0 	b  aa00 <strcmp+0x44>
    aa44:	d8 0a 40 00 	ldub  [ %o1 ], %o4
    aa48:	1b 20 20 20 	sethi  %hi(0x80808000), %o5
    aa4c:	94 10 62 ff 	or  %g1, 0x2ff, %o2
    aa50:	96 13 60 80 	or  %o5, 0x80, %o3
    aa54:	82 03 00 0a 	add  %o4, %o2, %g1
    aa58:	82 28 40 0c 	andn  %g1, %o4, %g1
    aa5c:	90 02 20 04 	add  %o0, 4, %o0
    aa60:	80 88 40 0b 	btst  %g1, %o3
    aa64:	92 02 60 04 	add  %o1, 4, %o1
    aa68:	12 80 00 09 	bne  aa8c <strcmp+0xd0>
    aa6c:	82 10 20 00 	clr  %g1
    aa70:	c2 02 00 00 	ld  [ %o0 ], %g1
    aa74:	da 02 40 00 	ld  [ %o1 ], %o5
    aa78:	80 a0 40 0d 	cmp  %g1, %o5
    aa7c:	02 bf ff f6 	be  aa54 <strcmp+0x98>
    aa80:	98 10 00 01 	mov  %g1, %o4
    aa84:	10 bf ff d8 	b  a9e4 <strcmp+0x28>
    aa88:	d6 4a 00 00 	ldsb  [ %o0 ], %o3
    aa8c:	81 c3 e0 08 	retl 
    aa90:	90 10 00 01 	mov  %g1, %o0

0000aa94 <strlen>:
    aa94:	80 8a 20 03 	btst  3, %o0
    aa98:	12 80 00 14 	bne  aae8 <strlen+0x54>
    aa9c:	94 10 00 08 	mov  %o0, %o2
    aaa0:	d8 02 00 00 	ld  [ %o0 ], %o4
    aaa4:	03 3f bf bf 	sethi  %hi(0xfefefc00), %g1
    aaa8:	1b 20 20 20 	sethi  %hi(0x80808000), %o5
    aaac:	96 10 62 ff 	or  %g1, 0x2ff, %o3
    aab0:	9a 13 60 80 	or  %o5, 0x80, %o5
    aab4:	82 03 00 0b 	add  %o4, %o3, %g1
    aab8:	98 28 40 0c 	andn  %g1, %o4, %o4
    aabc:	80 8b 00 0d 	btst  %o4, %o5
    aac0:	32 80 00 0b 	bne,a   aaec <strlen+0x58>
    aac4:	c2 4a 00 00 	ldsb  [ %o0 ], %g1
    aac8:	98 10 00 0d 	mov  %o5, %o4
    aacc:	90 02 20 04 	add  %o0, 4, %o0
    aad0:	c2 02 00 00 	ld  [ %o0 ], %g1
    aad4:	9a 00 40 0b 	add  %g1, %o3, %o5
    aad8:	82 2b 40 01 	andn  %o5, %g1, %g1
    aadc:	80 88 40 0c 	btst  %g1, %o4
    aae0:	22 bf ff fc 	be,a   aad0 <strlen+0x3c>
    aae4:	90 02 20 04 	add  %o0, 4, %o0
    aae8:	c2 4a 00 00 	ldsb  [ %o0 ], %g1
    aaec:	80 a0 60 00 	cmp  %g1, 0
    aaf0:	02 80 00 07 	be  ab0c <strlen+0x78>
    aaf4:	01 00 00 00 	nop 
    aaf8:	90 02 20 01 	inc  %o0
    aafc:	c2 4a 00 00 	ldsb  [ %o0 ], %g1
    ab00:	80 a0 60 00 	cmp  %g1, 0
    ab04:	32 bf ff fe 	bne,a   aafc <strlen+0x68>
    ab08:	90 02 20 01 	inc  %o0
    ab0c:	81 c3 e0 08 	retl 
    ab10:	90 22 00 0a 	sub  %o0, %o2, %o0
    ab14:	00 00 ac 38 	unimp  0xac38
    ab18:	00 00 ac 70 	unimp  0xac70
    ab1c:	00 00 ac 70 	unimp  0xac70
    ab20:	00 00 ac 70 	unimp  0xac70
    ab24:	00 00 ac 70 	unimp  0xac70
    ab28:	00 00 ac 70 	unimp  0xac70
    ab2c:	00 00 ac 70 	unimp  0xac70
    ab30:	00 00 ac 70 	unimp  0xac70
    ab34:	00 00 ac 70 	unimp  0xac70
    ab38:	00 00 bb 20 	unimp  0xbb20
    ab3c:	00 00 bb 20 	unimp  0xbb20
    ab40:	00 00 bb 20 	unimp  0xbb20
    ab44:	00 00 bb 20 	unimp  0xbb20
    ab48:	00 00 bb 20 	unimp  0xbb20
    ab4c:	00 00 ac 70 	unimp  0xac70
    ab50:	00 00 ac 70 	unimp  0xac70
    ab54:	00 00 ac 70 	unimp  0xac70
    ab58:	00 00 ac 70 	unimp  0xac70
    ab5c:	00 00 ac 70 	unimp  0xac70
    ab60:	00 00 ac 70 	unimp  0xac70
    ab64:	00 00 ac 70 	unimp  0xac70
    ab68:	00 00 ac 70 	unimp  0xac70
    ab6c:	00 00 ac 70 	unimp  0xac70
    ab70:	00 00 ac 70 	unimp  0xac70
    ab74:	00 00 ac 70 	unimp  0xac70
    ab78:	00 00 ac 70 	unimp  0xac70
    ab7c:	00 00 ac 70 	unimp  0xac70
    ab80:	00 00 ac 70 	unimp  0xac70
    ab84:	00 00 ac 70 	unimp  0xac70
    ab88:	00 00 ac 70 	unimp  0xac70
    ab8c:	00 00 ac 70 	unimp  0xac70
    ab90:	00 00 ac 70 	unimp  0xac70
    ab94:	00 00 bb 20 	unimp  0xbb20
    ab98:	00 00 ac 70 	unimp  0xac70
    ab9c:	00 00 ac 70 	unimp  0xac70
    aba0:	00 00 ac 70 	unimp  0xac70
    aba4:	00 00 ac 70 	unimp  0xac70
    aba8:	00 00 ac 70 	unimp  0xac70
    abac:	00 00 ac 70 	unimp  0xac70
    abb0:	00 00 ac 70 	unimp  0xac70
    abb4:	00 00 ac 70 	unimp  0xac70
    abb8:	00 00 ac 70 	unimp  0xac70
    abbc:	00 00 ac 70 	unimp  0xac70
    abc0:	00 00 ac 24 	unimp  0xac24
    abc4:	00 00 ac 70 	unimp  0xac70
    abc8:	00 00 ac 1c 	unimp  0xac1c

0000abcc <_strtod_r>:
    abcc:	9d e3 bf 70 	save  %sp, -144, %sp
    abd0:	92 10 00 19 	mov  %i1, %o1
    abd4:	ae 10 00 18 	mov  %i0, %l7
    abd8:	03 00 00 3a 	sethi  %hi(0xe800), %g1
    abdc:	f0 18 60 28 	ldd  [ %g1 + 0x28 ], %i0	! e828 <zeroes.1+0x88>
    abe0:	f4 27 a0 4c 	st  %i2, [ %fp + 0x4c ]
    abe4:	94 10 20 00 	clr  %o2
    abe8:	a0 10 20 00 	clr  %l0
    abec:	c0 27 bf ec 	clr  [ %fp + -20 ]
    abf0:	ac 10 00 09 	mov  %o1, %l6
    abf4:	c2 4d 80 00 	ldsb  [ %l6 ], %g1
    abf8:	80 a0 60 2d 	cmp  %g1, 0x2d
    abfc:	18 80 00 1d 	bgu  ac70 <_strtod_r+0xa4>
    ac00:	d6 0d 80 00 	ldub  [ %l6 ], %o3
    ac04:	83 28 60 02 	sll  %g1, 2, %g1
    ac08:	1b 00 00 2a 	sethi  %hi(0xa800), %o5
    ac0c:	9a 13 63 14 	or  %o5, 0x314, %o5	! ab14 <strlen+0x80>
    ac10:	d8 03 40 01 	ld  [ %o5 + %g1 ], %o4
    ac14:	81 c3 00 00 	jmp  %o4
    ac18:	01 00 00 00 	nop 
    ac1c:	96 10 20 01 	mov  1, %o3	! 1 <__DYNAMIC+0x1>
    ac20:	d6 27 bf ec 	st  %o3, [ %fp + -20 ]
    ac24:	ac 05 a0 01 	inc  %l6
    ac28:	c2 4d 80 00 	ldsb  [ %l6 ], %g1
    ac2c:	80 a0 60 00 	cmp  %g1, 0
    ac30:	12 80 00 10 	bne  ac70 <_strtod_r+0xa4>
    ac34:	d6 0d 80 00 	ldub  [ %l6 ], %o3
    ac38:	ac 10 00 09 	mov  %o1, %l6
    ac3c:	c2 07 a0 4c 	ld  [ %fp + 0x4c ], %g1
    ac40:	80 a0 60 00 	cmp  %g1, 0
    ac44:	32 80 00 02 	bne,a   ac4c <_strtod_r+0x80>
    ac48:	ec 20 40 00 	st  %l6, [ %g1 ]
    ac4c:	d6 07 bf ec 	ld  [ %fp + -20 ], %o3
    ac50:	90 10 00 18 	mov  %i0, %o0
    ac54:	80 a2 e0 00 	cmp  %o3, 0
    ac58:	02 80 03 b4 	be  bb28 <_strtod_r+0xf5c>
    ac5c:	92 10 00 19 	mov  %i1, %o1
    ac60:	40 00 0b d5 	call  dbb4 <__negdf2>
    ac64:	01 00 00 00 	nop 
    ac68:	10 80 03 b1 	b  bb2c <_strtod_r+0xf60>
    ac6c:	b0 10 00 08 	mov  %o0, %i0
    ac70:	83 2a e0 18 	sll  %o3, 0x18, %g1
    ac74:	83 38 60 18 	sra  %g1, 0x18, %g1
    ac78:	80 a0 60 30 	cmp  %g1, 0x30
    ac7c:	22 80 03 9f 	be,a   baf8 <_strtod_r+0xf2c>
    ac80:	a0 10 20 01 	mov  1, %l0
    ac84:	83 2a e0 18 	sll  %o3, 0x18, %g1
    ac88:	ec 27 bf e4 	st  %l6, [ %fp + -28 ]
    ac8c:	91 38 60 18 	sra  %g1, 0x18, %o0
    ac90:	a4 10 20 00 	clr  %l2
    ac94:	80 a2 20 2f 	cmp  %o0, 0x2f
    ac98:	b4 10 20 00 	clr  %i2
    ac9c:	9e 10 20 00 	clr  %o7
    aca0:	04 80 00 15 	ble  acf4 <_strtod_r+0x128>
    aca4:	a6 10 20 00 	clr  %l3
    aca8:	80 a2 20 39 	cmp  %o0, 0x39
    acac:	14 80 00 13 	bg  acf8 <_strtod_r+0x12c>
    acb0:	80 a2 20 2e 	cmp  %o0, 0x2e
    acb4:	80 a4 e0 08 	cmp  %l3, 8
    acb8:	14 80 03 88 	bg  bad8 <_strtod_r+0xf0c>
    acbc:	80 a4 e0 0f 	cmp  %l3, 0xf
    acc0:	83 2e a0 02 	sll  %i2, 2, %g1
    acc4:	82 00 40 1a 	add  %g1, %i2, %g1
    acc8:	82 00 40 01 	add  %g1, %g1, %g1
    accc:	82 00 40 08 	add  %g1, %o0, %g1
    acd0:	b4 00 7f d0 	add  %g1, -48, %i2
    acd4:	ac 05 a0 01 	inc  %l6
    acd8:	d0 4d 80 00 	ldsb  [ %l6 ], %o0
    acdc:	80 a2 20 2f 	cmp  %o0, 0x2f
    ace0:	04 80 00 05 	ble  acf4 <_strtod_r+0x128>
    ace4:	a6 04 e0 01 	inc  %l3
    ace8:	80 a2 20 39 	cmp  %o0, 0x39
    acec:	04 bf ff f3 	ble  acb8 <_strtod_r+0xec>
    acf0:	80 a4 e0 08 	cmp  %l3, 8
    acf4:	80 a2 20 2e 	cmp  %o0, 0x2e
    acf8:	02 80 03 2e 	be  b9b0 <_strtod_r+0xde4>
    acfc:	aa 10 00 13 	mov  %l3, %l5
    ad00:	82 1a 20 65 	xor  %o0, 0x65, %g1
    ad04:	80 a0 00 01 	cmp  %g0, %g1
    ad08:	9a 1a 20 45 	xor  %o0, 0x45, %o5
    ad0c:	98 60 3f ff 	subx  %g0, -1, %o4
    ad10:	80 a0 00 0d 	cmp  %g0, %o5
    ad14:	82 60 3f ff 	subx  %g0, -1, %g1
    ad18:	80 93 00 01 	orcc  %o4, %g1, %g0
    ad1c:	02 80 00 3d 	be  ae10 <_strtod_r+0x244>
    ad20:	c0 27 bf e8 	clr  [ %fp + -24 ]
    ad24:	82 14 c0 0a 	or  %l3, %o2, %g1
    ad28:	80 90 40 10 	orcc  %g1, %l0, %g0
    ad2c:	22 bf ff c4 	be,a   ac3c <_strtod_r+0x70>
    ad30:	ac 10 00 09 	mov  %o1, %l6
    ad34:	92 10 00 16 	mov  %l6, %o1
    ad38:	ac 05 a0 01 	inc  %l6
    ad3c:	d0 4d 80 00 	ldsb  [ %l6 ], %o0
    ad40:	80 a2 20 2b 	cmp  %o0, 0x2b
    ad44:	02 80 03 18 	be  b9a4 <_strtod_r+0xdd8>
    ad48:	98 10 20 00 	clr  %o4
    ad4c:	80 a2 20 2d 	cmp  %o0, 0x2d
    ad50:	22 80 03 15 	be,a   b9a4 <_strtod_r+0xdd8>
    ad54:	98 10 20 01 	mov  1, %o4
    ad58:	82 02 3f d0 	add  %o0, -48, %g1
    ad5c:	80 a0 60 09 	cmp  %g1, 9
    ad60:	38 80 00 2c 	bgu,a   ae10 <_strtod_r+0x244>
    ad64:	ac 10 00 09 	mov  %o1, %l6
    ad68:	80 a2 20 30 	cmp  %o0, 0x30
    ad6c:	02 80 03 07 	be  b988 <_strtod_r+0xdbc>
    ad70:	82 02 3f cf 	add  %o0, -49, %g1
    ad74:	80 a0 60 08 	cmp  %g1, 8
    ad78:	18 80 00 26 	bgu  ae10 <_strtod_r+0x244>
    ad7c:	c0 27 bf e8 	clr  [ %fp + -24 ]
    ad80:	90 02 3f d0 	add  %o0, -48, %o0
    ad84:	9a 10 00 16 	mov  %l6, %o5
    ad88:	d0 27 bf e8 	st  %o0, [ %fp + -24 ]
    ad8c:	ac 05 a0 01 	inc  %l6
    ad90:	d0 4d 80 00 	ldsb  [ %l6 ], %o0
    ad94:	80 a2 20 2f 	cmp  %o0, 0x2f
    ad98:	04 80 00 12 	ble  ade0 <_strtod_r+0x214>
    ad9c:	80 a2 20 39 	cmp  %o0, 0x39
    ada0:	14 80 00 11 	bg  ade4 <_strtod_r+0x218>
    ada4:	82 25 80 0d 	sub  %l6, %o5, %g1
    ada8:	d6 07 bf e8 	ld  [ %fp + -24 ], %o3
    adac:	ac 05 a0 01 	inc  %l6
    adb0:	83 2a e0 02 	sll  %o3, 2, %g1
    adb4:	82 00 40 0b 	add  %g1, %o3, %g1
    adb8:	82 00 40 01 	add  %g1, %g1, %g1
    adbc:	82 00 40 08 	add  %g1, %o0, %g1
    adc0:	d0 4d 80 00 	ldsb  [ %l6 ], %o0
    adc4:	82 00 7f d0 	add  %g1, -48, %g1
    adc8:	80 a2 20 2f 	cmp  %o0, 0x2f
    adcc:	04 80 00 05 	ble  ade0 <_strtod_r+0x214>
    add0:	c2 27 bf e8 	st  %g1, [ %fp + -24 ]
    add4:	80 a2 20 39 	cmp  %o0, 0x39
    add8:	04 bf ff f5 	ble  adac <_strtod_r+0x1e0>
    addc:	d6 07 bf e8 	ld  [ %fp + -24 ], %o3
    ade0:	82 25 80 0d 	sub  %l6, %o5, %g1
    ade4:	80 a0 60 08 	cmp  %g1, 8
    ade8:	04 80 00 05 	ble  adfc <_strtod_r+0x230>
    adec:	80 a3 20 00 	cmp  %o4, 0
    adf0:	03 00 26 25 	sethi  %hi(0x989400), %g1
    adf4:	82 10 62 7f 	or  %g1, 0x27f, %g1	! 98967f <AC_RAM_END+0x48967f>
    adf8:	c2 27 bf e8 	st  %g1, [ %fp + -24 ]
    adfc:	02 80 00 06 	be  ae14 <_strtod_r+0x248>
    ae00:	80 a4 e0 00 	cmp  %l3, 0
    ae04:	d8 07 bf e8 	ld  [ %fp + -24 ], %o4
    ae08:	98 20 00 0c 	neg  %o4
    ae0c:	d8 27 bf e8 	st  %o4, [ %fp + -24 ]
    ae10:	80 a4 e0 00 	cmp  %l3, 0
    ae14:	02 80 02 d8 	be  b974 <_strtod_r+0xda8>
    ae18:	da 07 bf e8 	ld  [ %fp + -24 ], %o5
    ae1c:	80 a5 60 00 	cmp  %l5, 0
    ae20:	9a 23 40 0f 	sub  %o5, %o7, %o5
    ae24:	12 80 00 03 	bne  ae30 <_strtod_r+0x264>
    ae28:	da 27 bf e8 	st  %o5, [ %fp + -24 ]
    ae2c:	aa 10 00 13 	mov  %l3, %l5
    ae30:	80 a4 e0 10 	cmp  %l3, 0x10
    ae34:	04 80 00 03 	ble  ae40 <_strtod_r+0x274>
    ae38:	a8 10 00 13 	mov  %l3, %l4
    ae3c:	a8 10 20 10 	mov  0x10, %l4
    ae40:	40 00 0a fd 	call  da34 <__floatsidf>
    ae44:	90 10 00 1a 	mov  %i2, %o0
    ae48:	80 a6 a0 00 	cmp  %i2, 0
    ae4c:	06 80 02 c6 	bl  b964 <_strtod_r+0xd98>
    ae50:	03 00 00 3a 	sethi  %hi(0xe800), %g1
    ae54:	80 a5 20 09 	cmp  %l4, 9
    ae58:	b0 10 00 08 	mov  %o0, %i0
    ae5c:	04 80 00 17 	ble  aeb8 <_strtod_r+0x2ec>
    ae60:	b2 10 00 09 	mov  %o1, %i1
    ae64:	94 10 00 08 	mov  %o0, %o2
    ae68:	96 10 00 09 	mov  %o1, %o3
    ae6c:	83 2d 20 03 	sll  %l4, 3, %g1
    ae70:	1b 00 00 3a 	sethi  %hi(0xe800), %o5
    ae74:	9a 13 62 98 	or  %o5, 0x298, %o5	! ea98 <__mprec_tens>
    ae78:	82 00 40 0d 	add  %g1, %o5, %g1
    ae7c:	40 00 08 fe 	call  d274 <__muldf3>
    ae80:	d0 18 7f b8 	ldd  [ %g1 + -72 ], %o0
    ae84:	a0 10 00 08 	mov  %o0, %l0
    ae88:	a2 10 00 09 	mov  %o1, %l1
    ae8c:	40 00 0a ea 	call  da34 <__floatsidf>
    ae90:	90 10 00 12 	mov  %l2, %o0
    ae94:	80 a4 a0 00 	cmp  %l2, 0
    ae98:	94 10 00 08 	mov  %o0, %o2
    ae9c:	06 80 02 ac 	bl  b94c <_strtod_r+0xd80>
    aea0:	96 10 00 09 	mov  %o1, %o3
    aea4:	90 10 00 10 	mov  %l0, %o0
    aea8:	40 00 08 c8 	call  d1c8 <__adddf3>
    aeac:	92 10 00 11 	mov  %l1, %o1
    aeb0:	b0 10 00 08 	mov  %o0, %i0
    aeb4:	b2 10 00 09 	mov  %o1, %i1
    aeb8:	80 a4 e0 0f 	cmp  %l3, 0xf
    aebc:	14 80 00 10 	bg  aefc <_strtod_r+0x330>
    aec0:	c0 27 bf d8 	clr  [ %fp + -40 ]
    aec4:	da 07 bf e8 	ld  [ %fp + -24 ], %o5
    aec8:	80 a3 60 00 	cmp  %o5, 0
    aecc:	02 bf ff 5d 	be  ac40 <_strtod_r+0x74>
    aed0:	c2 07 a0 4c 	ld  [ %fp + 0x4c ], %g1
    aed4:	04 80 02 8f 	ble  b910 <_strtod_r+0xd44>
    aed8:	80 a3 60 16 	cmp  %o5, 0x16
    aedc:	04 80 02 85 	ble  b8f0 <_strtod_r+0xd24>
    aee0:	82 10 20 0f 	mov  0xf, %g1
    aee4:	90 20 40 13 	sub  %g1, %l3, %o0
    aee8:	c2 07 bf e8 	ld  [ %fp + -24 ], %g1
    aeec:	9a 02 20 16 	add  %o0, 0x16, %o5
    aef0:	80 a0 40 0d 	cmp  %g1, %o5
    aef4:	04 80 02 6a 	ble  b89c <_strtod_r+0xcd0>
    aef8:	d8 07 bf e8 	ld  [ %fp + -24 ], %o4
    aefc:	da 07 bf e8 	ld  [ %fp + -24 ], %o5
    af00:	82 24 c0 14 	sub  %l3, %l4, %g1
    af04:	a2 03 40 01 	add  %o5, %g1, %l1
    af08:	80 a4 60 00 	cmp  %l1, 0
    af0c:	04 80 02 12 	ble  b754 <_strtod_r+0xb88>
    af10:	90 8c 60 0f 	andcc  %l1, 0xf, %o0
    af14:	22 80 00 0d 	be,a   af48 <_strtod_r+0x37c>
    af18:	a2 8c 7f f0 	andcc  %l1, -16, %l1
    af1c:	9b 2a 20 03 	sll  %o0, 3, %o5
    af20:	03 00 00 3a 	sethi  %hi(0xe800), %g1
    af24:	82 10 62 98 	or  %g1, 0x298, %g1	! ea98 <__mprec_tens>
    af28:	98 00 40 0d 	add  %g1, %o5, %o4
    af2c:	d0 1b 00 00 	ldd  [ %o4 ], %o0
    af30:	94 10 00 18 	mov  %i0, %o2
    af34:	40 00 08 d0 	call  d274 <__muldf3>
    af38:	96 10 00 19 	mov  %i1, %o3
    af3c:	b0 10 00 08 	mov  %o0, %i0
    af40:	b2 10 00 09 	mov  %o1, %i1
    af44:	a2 8c 7f f0 	andcc  %l1, -16, %l1
    af48:	02 80 00 4d 	be  b07c <_strtod_r+0x4b0>
    af4c:	d2 07 bf e4 	ld  [ %fp + -28 ], %o1
    af50:	80 a4 61 34 	cmp  %l1, 0x134
    af54:	24 80 00 1b 	ble,a   afc0 <_strtod_r+0x3f4>
    af58:	a3 3c 60 04 	sra  %l1, 4, %l1
    af5c:	da 07 bf d8 	ld  [ %fp + -40 ], %o5
    af60:	82 10 20 22 	mov  0x22, %g1
    af64:	80 a3 60 00 	cmp  %o5, 0
    af68:	c2 25 c0 00 	st  %g1, [ %l7 ]
    af6c:	1b 00 00 3a 	sethi  %hi(0xe800), %o5
    af70:	f0 1b 63 e8 	ldd  [ %o5 + 0x3e8 ], %i0	! ebe8 <__infinity>
    af74:	22 bf ff 33 	be,a   ac40 <_strtod_r+0x74>
    af78:	c2 07 a0 4c 	ld  [ %fp + 0x4c ], %g1
    af7c:	d2 07 bf e0 	ld  [ %fp + -32 ], %o1
    af80:	7f ff fb 16 	call  9bd8 <_Bfree>
    af84:	90 10 00 17 	mov  %l7, %o0
    af88:	d2 07 bf dc 	ld  [ %fp + -36 ], %o1
    af8c:	7f ff fb 13 	call  9bd8 <_Bfree>
    af90:	90 10 00 17 	mov  %l7, %o0
    af94:	92 10 00 1b 	mov  %i3, %o1
    af98:	7f ff fb 10 	call  9bd8 <_Bfree>
    af9c:	90 10 00 17 	mov  %l7, %o0
    afa0:	d2 07 bf d8 	ld  [ %fp + -40 ], %o1
    afa4:	7f ff fb 0d 	call  9bd8 <_Bfree>
    afa8:	90 10 00 17 	mov  %l7, %o0
    afac:	d2 07 bf d4 	ld  [ %fp + -44 ], %o1
    afb0:	7f ff fb 0a 	call  9bd8 <_Bfree>
    afb4:	90 10 00 17 	mov  %l7, %o0
    afb8:	10 bf ff 22 	b  ac40 <_strtod_r+0x74>
    afbc:	c2 07 a0 4c 	ld  [ %fp + 0x4c ], %g1
    afc0:	80 a4 60 00 	cmp  %l1, 0
    afc4:	02 80 00 2e 	be  b07c <_strtod_r+0x4b0>
    afc8:	d2 07 bf e4 	ld  [ %fp + -28 ], %o1
    afcc:	80 a4 60 01 	cmp  %l1, 1
    afd0:	a0 10 20 00 	clr  %l0
    afd4:	04 80 00 12 	ble  b01c <_strtod_r+0x450>
    afd8:	29 00 00 3a 	sethi  %hi(0xe800), %l4
    afdc:	a4 15 23 60 	or  %l4, 0x360, %l2	! eb60 <__mprec_bigtens>
    afe0:	80 8c 60 01 	btst  1, %l1
    afe4:	22 80 00 0b 	be,a   b010 <_strtod_r+0x444>
    afe8:	a3 3c 60 01 	sra  %l1, 1, %l1
    afec:	83 2c 20 03 	sll  %l0, 3, %g1
    aff0:	98 04 80 01 	add  %l2, %g1, %o4
    aff4:	d0 1b 00 00 	ldd  [ %o4 ], %o0
    aff8:	94 10 00 18 	mov  %i0, %o2
    affc:	40 00 08 9e 	call  d274 <__muldf3>
    b000:	96 10 00 19 	mov  %i1, %o3
    b004:	b0 10 00 08 	mov  %o0, %i0
    b008:	b2 10 00 09 	mov  %o1, %i1
    b00c:	a3 3c 60 01 	sra  %l1, 1, %l1
    b010:	80 a4 60 01 	cmp  %l1, 1
    b014:	14 bf ff f3 	bg  afe0 <_strtod_r+0x414>
    b018:	a0 04 20 01 	inc  %l0
    b01c:	9a 15 23 60 	or  %l4, 0x360, %o5
    b020:	83 2c 20 03 	sll  %l0, 3, %g1
    b024:	96 03 40 01 	add  %o5, %g1, %o3
    b028:	d0 1a c0 00 	ldd  [ %o3 ], %o0
    b02c:	03 3f 2c 00 	sethi  %hi(0xfcb00000), %g1
    b030:	96 10 00 19 	mov  %i1, %o3
    b034:	b0 00 40 18 	add  %g1, %i0, %i0
    b038:	40 00 08 8f 	call  d274 <__muldf3>
    b03c:	94 10 00 18 	mov  %i0, %o2
    b040:	03 1f fc 00 	sethi  %hi(0x7ff00000), %g1
    b044:	b0 10 00 08 	mov  %o0, %i0
    b048:	1b 1f 28 00 	sethi  %hi(0x7ca00000), %o5
    b04c:	a4 0e 00 01 	and  %i0, %g1, %l2
    b050:	80 a4 80 0d 	cmp  %l2, %o5
    b054:	18 bf ff c2 	bgu  af5c <_strtod_r+0x390>
    b058:	b2 10 00 09 	mov  %o1, %i1
    b05c:	03 1f 24 00 	sethi  %hi(0x7c900000), %g1
    b060:	80 a4 80 01 	cmp  %l2, %g1
    b064:	08 80 01 ba 	bleu  b74c <_strtod_r+0xb80>
    b068:	03 00 d4 00 	sethi  %hi(0x3500000), %g1
    b06c:	03 1f fb ff 	sethi  %hi(0x7feffc00), %g1
    b070:	b2 10 3f ff 	mov  -1, %i1
    b074:	b0 10 63 ff 	or  %g1, 0x3ff, %i0
    b078:	d2 07 bf e4 	ld  [ %fp + -28 ], %o1
    b07c:	96 10 00 13 	mov  %l3, %o3
    b080:	94 10 00 15 	mov  %l5, %o2
    b084:	98 10 00 1a 	mov  %i2, %o4
    b088:	7f ff fb 18 	call  9ce8 <_s2b>
    b08c:	90 10 00 17 	mov  %l7, %o0
    b090:	96 02 20 0c 	add  %o0, 0xc, %o3
    b094:	d0 27 bf d8 	st  %o0, [ %fp + -40 ]
    b098:	d6 27 bf d0 	st  %o3, [ %fp + -48 ]
    b09c:	d8 07 bf d8 	ld  [ %fp + -40 ], %o4
    b0a0:	90 10 00 17 	mov  %l7, %o0
    b0a4:	7f ff fa a5 	call  9b38 <_Balloc>
    b0a8:	d2 03 20 04 	ld  [ %o4 + 4 ], %o1
    b0ac:	da 07 bf d8 	ld  [ %fp + -40 ], %o5
    b0b0:	d2 07 bf d0 	ld  [ %fp + -48 ], %o1
    b0b4:	d4 03 60 10 	ld  [ %o5 + 0x10 ], %o2
    b0b8:	d0 27 bf dc 	st  %o0, [ %fp + -36 ]
    b0bc:	95 2a a0 02 	sll  %o2, 2, %o2
    b0c0:	90 02 20 0c 	add  %o0, 0xc, %o0
    b0c4:	7f ff fa 23 	call  9950 <memcpy>
    b0c8:	94 02 a0 08 	add  %o2, 8, %o2
    b0cc:	96 07 bf f4 	add  %fp, -12, %o3
    b0d0:	92 10 00 18 	mov  %i0, %o1
    b0d4:	94 10 00 19 	mov  %i1, %o2
    b0d8:	98 07 bf f0 	add  %fp, -16, %o4
    b0dc:	7f ff fd 60 	call  a65c <_d2b>
    b0e0:	90 10 00 17 	mov  %l7, %o0
    b0e4:	92 10 20 01 	mov  1, %o1
    b0e8:	d0 27 bf e0 	st  %o0, [ %fp + -32 ]
    b0ec:	7f ff fb 82 	call  9ef4 <_i2b>
    b0f0:	90 10 00 17 	mov  %l7, %o0
    b0f4:	c2 07 bf e8 	ld  [ %fp + -24 ], %g1
    b0f8:	80 a0 60 00 	cmp  %g1, 0
    b0fc:	06 80 01 8e 	bl  b734 <_strtod_r+0xb68>
    b100:	b6 10 00 08 	mov  %o0, %i3
    b104:	a2 10 00 01 	mov  %g1, %l1
    b108:	94 10 20 00 	clr  %o2
    b10c:	a4 10 20 00 	clr  %l2
    b110:	a8 10 00 01 	mov  %g1, %l4
    b114:	c2 07 bf f4 	ld  [ %fp + -12 ], %g1
    b118:	80 a0 60 00 	cmp  %g1, 0
    b11c:	26 80 00 03 	bl,a   b128 <_strtod_r+0x55c>
    b120:	a2 24 40 01 	sub  %l1, %g1, %l1
    b124:	a4 04 80 01 	add  %l2, %g1, %l2
    b128:	da 07 bf f0 	ld  [ %fp + -16 ], %o5
    b12c:	a0 00 64 33 	add  %g1, 0x433, %l0
    b130:	82 00 40 0d 	add  %g1, %o5, %g1
    b134:	90 00 7f ff 	add  %g1, -1, %o0
    b138:	80 a2 3c 02 	cmp  %o0, -1022
    b13c:	06 80 00 04 	bl  b14c <_strtod_r+0x580>
    b140:	a6 10 00 12 	mov  %l2, %l3
    b144:	82 10 20 36 	mov  0x36, %g1
    b148:	a0 20 40 0d 	sub  %g1, %o5, %l0
    b14c:	90 04 40 10 	add  %l1, %l0, %o0
    b150:	a4 04 80 10 	add  %l2, %l0, %l2
    b154:	80 a2 00 12 	cmp  %o0, %l2
    b158:	04 80 00 03 	ble  b164 <_strtod_r+0x598>
    b15c:	a2 10 00 08 	mov  %o0, %l1
    b160:	90 10 00 12 	mov  %l2, %o0
    b164:	80 a2 00 13 	cmp  %o0, %l3
    b168:	34 80 00 02 	bg,a   b170 <_strtod_r+0x5a4>
    b16c:	90 10 00 13 	mov  %l3, %o0
    b170:	80 a2 20 00 	cmp  %o0, 0
    b174:	04 80 00 05 	ble  b188 <_strtod_r+0x5bc>
    b178:	80 a2 a0 00 	cmp  %o2, 0
    b17c:	a6 24 c0 08 	sub  %l3, %o0, %l3
    b180:	a4 24 80 08 	sub  %l2, %o0, %l2
    b184:	a2 24 40 08 	sub  %l1, %o0, %l1
    b188:	04 80 00 0e 	ble  b1c0 <_strtod_r+0x5f4>
    b18c:	92 10 00 1b 	mov  %i3, %o1
    b190:	7f ff fb ee 	call  a148 <_pow5mult>
    b194:	90 10 00 17 	mov  %l7, %o0
    b198:	d4 07 bf e0 	ld  [ %fp + -32 ], %o2
    b19c:	b6 10 00 08 	mov  %o0, %i3
    b1a0:	92 10 00 1b 	mov  %i3, %o1
    b1a4:	7f ff fb 5d 	call  9f18 <_multiply>
    b1a8:	90 10 00 17 	mov  %l7, %o0
    b1ac:	d2 07 bf e0 	ld  [ %fp + -32 ], %o1
    b1b0:	a0 10 00 08 	mov  %o0, %l0
    b1b4:	7f ff fa 89 	call  9bd8 <_Bfree>
    b1b8:	90 10 00 17 	mov  %l7, %o0
    b1bc:	e0 27 bf e0 	st  %l0, [ %fp + -32 ]
    b1c0:	80 a4 a0 00 	cmp  %l2, 0
    b1c4:	04 80 00 06 	ble  b1dc <_strtod_r+0x610>
    b1c8:	d2 07 bf e0 	ld  [ %fp + -32 ], %o1
    b1cc:	94 10 00 12 	mov  %l2, %o2
    b1d0:	7f ff fc 1d 	call  a244 <_lshift>
    b1d4:	90 10 00 17 	mov  %l7, %o0
    b1d8:	d0 27 bf e0 	st  %o0, [ %fp + -32 ]
    b1dc:	80 a5 20 00 	cmp  %l4, 0
    b1e0:	04 80 00 06 	ble  b1f8 <_strtod_r+0x62c>
    b1e4:	d2 07 bf dc 	ld  [ %fp + -36 ], %o1
    b1e8:	94 10 00 14 	mov  %l4, %o2
    b1ec:	7f ff fb d7 	call  a148 <_pow5mult>
    b1f0:	90 10 00 17 	mov  %l7, %o0
    b1f4:	d0 27 bf dc 	st  %o0, [ %fp + -36 ]
    b1f8:	80 a4 60 00 	cmp  %l1, 0
    b1fc:	04 80 00 06 	ble  b214 <_strtod_r+0x648>
    b200:	d2 07 bf dc 	ld  [ %fp + -36 ], %o1
    b204:	94 10 00 11 	mov  %l1, %o2
    b208:	7f ff fc 0f 	call  a244 <_lshift>
    b20c:	90 10 00 17 	mov  %l7, %o0
    b210:	d0 27 bf dc 	st  %o0, [ %fp + -36 ]
    b214:	80 a4 e0 00 	cmp  %l3, 0
    b218:	04 80 00 06 	ble  b230 <_strtod_r+0x664>
    b21c:	92 10 00 1b 	mov  %i3, %o1
    b220:	94 10 00 13 	mov  %l3, %o2
    b224:	7f ff fc 08 	call  a244 <_lshift>
    b228:	90 10 00 17 	mov  %l7, %o0
    b22c:	b6 10 00 08 	mov  %o0, %i3
    b230:	d2 07 bf e0 	ld  [ %fp + -32 ], %o1
    b234:	d4 07 bf dc 	ld  [ %fp + -36 ], %o2
    b238:	7f ff fc 5b 	call  a3a4 <__mdiff>
    b23c:	90 10 00 17 	mov  %l7, %o0
    b240:	92 10 00 1b 	mov  %i3, %o1
    b244:	e8 02 20 0c 	ld  [ %o0 + 0xc ], %l4
    b248:	d0 27 bf d4 	st  %o0, [ %fp + -44 ]
    b24c:	7f ff fc 3c 	call  a33c <__mcmp>
    b250:	c0 22 20 0c 	clr  [ %o0 + 0xc ]
    b254:	80 a2 20 00 	cmp  %o0, 0
    b258:	26 80 01 22 	bl,a   b6e0 <_strtod_r+0xb14>
    b25c:	80 a5 20 00 	cmp  %l4, 0
    b260:	02 80 00 df 	be  b5dc <_strtod_r+0xa10>
    b264:	d0 07 bf d4 	ld  [ %fp + -44 ], %o0
    b268:	7f ff fd 47 	call  a784 <_ratio>
    b26c:	92 10 00 1b 	mov  %i3, %o1
    b270:	1b 00 00 3a 	sethi  %hi(0xe800), %o5
    b274:	d4 1b 63 c0 	ldd  [ %o5 + 0x3c0 ], %o2	! ebc0 <__mprec_tinytens+0x38>
    b278:	a0 10 00 08 	mov  %o0, %l0
    b27c:	40 00 09 d5 	call  d9d0 <__ledf2>
    b280:	a2 10 00 09 	mov  %o1, %l1
    b284:	80 a2 20 00 	cmp  %o0, 0
    b288:	04 80 00 a2 	ble  b510 <_strtod_r+0x944>
    b28c:	1b 00 00 3a 	sethi  %hi(0xe800), %o5
    b290:	d4 1b 62 38 	ldd  [ %o5 + 0x238 ], %o2	! ea38 <_ctype_+0x159>
    b294:	90 10 00 10 	mov  %l0, %o0
    b298:	40 00 07 f7 	call  d274 <__muldf3>
    b29c:	92 10 00 11 	mov  %l1, %o1
    b2a0:	80 a5 20 00 	cmp  %l4, 0
    b2a4:	a0 10 00 08 	mov  %o0, %l0
    b2a8:	a2 10 00 09 	mov  %o1, %l1
    b2ac:	a4 10 00 10 	mov  %l0, %l2
    b2b0:	12 80 00 06 	bne  b2c8 <_strtod_r+0x6fc>
    b2b4:	a6 10 00 09 	mov  %o1, %l3
    b2b8:	40 00 0a 3f 	call  dbb4 <__negdf2>
    b2bc:	01 00 00 00 	nop 
    b2c0:	a4 10 00 08 	mov  %o0, %l2
    b2c4:	a6 10 00 09 	mov  %o1, %l3
    b2c8:	2b 1f fc 00 	sethi  %hi(0x7ff00000), %l5
    b2cc:	03 1f f8 00 	sethi  %hi(0x7fe00000), %g1
    b2d0:	b4 0e 00 15 	and  %i0, %l5, %i2
    b2d4:	80 a6 80 01 	cmp  %i2, %g1
    b2d8:	02 80 00 69 	be  b47c <_strtod_r+0x8b0>
    b2dc:	03 00 d0 00 	sethi  %hi(0x3400000), %g1
    b2e0:	80 a6 80 01 	cmp  %i2, %g1
    b2e4:	18 80 00 1b 	bgu  b350 <_strtod_r+0x784>
    b2e8:	90 10 00 18 	mov  %i0, %o0
    b2ec:	03 00 00 3a 	sethi  %hi(0xe800), %g1
    b2f0:	d4 18 62 18 	ldd  [ %g1 + 0x218 ], %o2	! ea18 <_ctype_+0x139>
    b2f4:	90 10 00 10 	mov  %l0, %o0
    b2f8:	40 00 09 84 	call  d908 <__gedf2>
    b2fc:	92 10 00 11 	mov  %l1, %o1
    b300:	80 a2 20 00 	cmp  %o0, 0
    b304:	06 80 00 12 	bl  b34c <_strtod_r+0x780>
    b308:	19 00 00 3a 	sethi  %hi(0xe800), %o4
    b30c:	d4 1b 22 38 	ldd  [ %o4 + 0x238 ], %o2	! ea38 <_ctype_+0x159>
    b310:	90 10 00 10 	mov  %l0, %o0
    b314:	40 00 07 ad 	call  d1c8 <__adddf3>
    b318:	92 10 00 11 	mov  %l1, %o1
    b31c:	40 00 09 fb 	call  db08 <__fixdfsi>
    b320:	01 00 00 00 	nop 
    b324:	40 00 09 c4 	call  da34 <__floatsidf>
    b328:	01 00 00 00 	nop 
    b32c:	80 a5 20 00 	cmp  %l4, 0
    b330:	a4 10 00 08 	mov  %o0, %l2
    b334:	12 80 00 06 	bne  b34c <_strtod_r+0x780>
    b338:	a6 10 00 09 	mov  %o1, %l3
    b33c:	40 00 0a 1e 	call  dbb4 <__negdf2>
    b340:	01 00 00 00 	nop 
    b344:	a4 10 00 08 	mov  %o0, %l2
    b348:	a6 10 00 09 	mov  %o1, %l3
    b34c:	90 10 00 18 	mov  %i0, %o0
    b350:	7f ff fc 6e 	call  a508 <_ulp>
    b354:	92 10 00 19 	mov  %i1, %o1
    b358:	94 10 00 08 	mov  %o0, %o2
    b35c:	96 10 00 09 	mov  %o1, %o3
    b360:	90 10 00 12 	mov  %l2, %o0
    b364:	40 00 07 c4 	call  d274 <__muldf3>
    b368:	92 10 00 13 	mov  %l3, %o1
    b36c:	94 10 00 18 	mov  %i0, %o2
    b370:	40 00 07 96 	call  d1c8 <__adddf3>
    b374:	96 10 00 19 	mov  %i1, %o3
    b378:	b0 10 00 08 	mov  %o0, %i0
    b37c:	b2 10 00 09 	mov  %o1, %i1
    b380:	03 1f fc 00 	sethi  %hi(0x7ff00000), %g1
    b384:	a4 0e 00 01 	and  %i0, %g1, %l2
    b388:	80 a6 80 12 	cmp  %i2, %l2
    b38c:	22 80 00 10 	be,a   b3cc <_strtod_r+0x800>
    b390:	92 10 00 11 	mov  %l1, %o1
    b394:	d2 07 bf e0 	ld  [ %fp + -32 ], %o1
    b398:	7f ff fa 10 	call  9bd8 <_Bfree>
    b39c:	90 10 00 17 	mov  %l7, %o0
    b3a0:	d2 07 bf dc 	ld  [ %fp + -36 ], %o1
    b3a4:	7f ff fa 0d 	call  9bd8 <_Bfree>
    b3a8:	90 10 00 17 	mov  %l7, %o0
    b3ac:	92 10 00 1b 	mov  %i3, %o1
    b3b0:	7f ff fa 0a 	call  9bd8 <_Bfree>
    b3b4:	90 10 00 17 	mov  %l7, %o0
    b3b8:	d2 07 bf d4 	ld  [ %fp + -44 ], %o1
    b3bc:	7f ff fa 07 	call  9bd8 <_Bfree>
    b3c0:	90 10 00 17 	mov  %l7, %o0
    b3c4:	10 bf ff 37 	b  b0a0 <_strtod_r+0x4d4>
    b3c8:	d8 07 bf d8 	ld  [ %fp + -40 ], %o4
    b3cc:	40 00 09 cf 	call  db08 <__fixdfsi>
    b3d0:	90 10 00 10 	mov  %l0, %o0
    b3d4:	40 00 09 98 	call  da34 <__floatsidf>
    b3d8:	01 00 00 00 	nop 
    b3dc:	94 10 00 08 	mov  %o0, %o2
    b3e0:	96 10 00 09 	mov  %o1, %o3
    b3e4:	90 10 00 10 	mov  %l0, %o0
    b3e8:	40 00 07 8c 	call  d218 <__subdf3>
    b3ec:	92 10 00 11 	mov  %l1, %o1
    b3f0:	80 a5 20 00 	cmp  %l4, 0
    b3f4:	a0 10 00 08 	mov  %o0, %l0
    b3f8:	12 80 00 0a 	bne  b420 <_strtod_r+0x854>
    b3fc:	a2 10 00 09 	mov  %o1, %l1
    b400:	80 a6 60 00 	cmp  %i1, 0
    b404:	12 80 00 08 	bne  b424 <_strtod_r+0x858>
    b408:	03 00 00 3a 	sethi  %hi(0xe800), %g1
    b40c:	1b 00 03 ff 	sethi  %hi(0xffc00), %o5
    b410:	9a 13 63 ff 	or  %o5, 0x3ff, %o5	! fffff <__end+0xec6a7>
    b414:	80 8b 40 18 	btst  %o5, %i0
    b418:	02 80 00 12 	be  b460 <_strtod_r+0x894>
    b41c:	1b 00 00 3a 	sethi  %hi(0xe800), %o5
    b420:	03 00 00 3a 	sethi  %hi(0xe800), %g1
    b424:	d4 18 63 d0 	ldd  [ %g1 + 0x3d0 ], %o2	! ebd0 <__mprec_tinytens+0x48>
    b428:	90 10 00 10 	mov  %l0, %o0
    b42c:	40 00 09 50 	call  d96c <__ltdf2>
    b430:	92 10 00 11 	mov  %l1, %o1
    b434:	80 a2 20 00 	cmp  %o0, 0
    b438:	06 bf fe d1 	bl  af7c <_strtod_r+0x3b0>
    b43c:	19 00 00 3a 	sethi  %hi(0xe800), %o4
    b440:	d4 1b 23 d8 	ldd  [ %o4 + 0x3d8 ], %o2	! ebd8 <__mprec_tinytens+0x50>
    b444:	90 10 00 10 	mov  %l0, %o0
    b448:	40 00 09 17 	call  d8a4 <__gtdf2>
    b44c:	92 10 00 11 	mov  %l1, %o1
    b450:	80 a2 20 00 	cmp  %o0, 0
    b454:	04 bf ff d1 	ble  b398 <_strtod_r+0x7cc>
    b458:	d2 07 bf e0 	ld  [ %fp + -32 ], %o1
    b45c:	30 bf fe c9 	b,a   af80 <_strtod_r+0x3b4>
    b460:	d4 1b 63 e0 	ldd  [ %o5 + 0x3e0 ], %o2
    b464:	40 00 09 42 	call  d96c <__ltdf2>
    b468:	90 10 00 10 	mov  %l0, %o0
    b46c:	80 a2 20 00 	cmp  %o0, 0
    b470:	16 bf ff ca 	bge  b398 <_strtod_r+0x7cc>
    b474:	d2 07 bf e0 	ld  [ %fp + -32 ], %o1
    b478:	30 bf fe c2 	b,a   af80 <_strtod_r+0x3b4>
    b47c:	03 3f 2c 00 	sethi  %hi(0xfcb00000), %g1
    b480:	92 10 00 19 	mov  %i1, %o1
    b484:	b8 10 00 18 	mov  %i0, %i4
    b488:	b0 00 40 18 	add  %g1, %i0, %i0
    b48c:	7f ff fc 1f 	call  a508 <_ulp>
    b490:	90 10 00 18 	mov  %i0, %o0
    b494:	94 10 00 08 	mov  %o0, %o2
    b498:	96 10 00 09 	mov  %o1, %o3
    b49c:	90 10 00 12 	mov  %l2, %o0
    b4a0:	40 00 07 75 	call  d274 <__muldf3>
    b4a4:	92 10 00 13 	mov  %l3, %o1
    b4a8:	94 10 00 18 	mov  %i0, %o2
    b4ac:	40 00 07 47 	call  d1c8 <__adddf3>
    b4b0:	96 10 00 19 	mov  %i1, %o3
    b4b4:	ba 10 00 19 	mov  %i1, %i5
    b4b8:	b0 10 00 08 	mov  %o0, %i0
    b4bc:	03 1f 27 ff 	sethi  %hi(0x7c9ffc00), %g1
    b4c0:	9a 0e 00 15 	and  %i0, %l5, %o5
    b4c4:	82 10 63 ff 	or  %g1, 0x3ff, %g1
    b4c8:	80 a3 40 01 	cmp  %o5, %g1
    b4cc:	08 80 00 0e 	bleu  b504 <_strtod_r+0x938>
    b4d0:	b2 10 00 09 	mov  %o1, %i1
    b4d4:	03 1f fb ff 	sethi  %hi(0x7feffc00), %g1
    b4d8:	82 10 63 ff 	or  %g1, 0x3ff, %g1	! 7fefffff <_RAM_SIZE+0x7defffff>
    b4dc:	80 a7 00 01 	cmp  %i4, %g1
    b4e0:	02 80 00 05 	be  b4f4 <_strtod_r+0x928>
    b4e4:	80 a7 7f ff 	cmp  %i5, -1
    b4e8:	b0 10 00 01 	mov  %g1, %i0
    b4ec:	10 bf ff aa 	b  b394 <_strtod_r+0x7c8>
    b4f0:	b2 10 3f ff 	mov  -1, %i1
    b4f4:	12 bf ff fe 	bne  b4ec <_strtod_r+0x920>
    b4f8:	b0 10 00 01 	mov  %g1, %i0
    b4fc:	10 bf fe 99 	b  af60 <_strtod_r+0x394>
    b500:	da 07 bf d8 	ld  [ %fp + -40 ], %o5
    b504:	03 00 d4 00 	sethi  %hi(0x3500000), %g1
    b508:	10 bf ff 9e 	b  b380 <_strtod_r+0x7b4>
    b50c:	b0 00 40 18 	add  %g1, %i0, %i0
    b510:	80 a5 20 00 	cmp  %l4, 0
    b514:	02 80 00 07 	be  b530 <_strtod_r+0x964>
    b518:	80 a6 60 00 	cmp  %i1, 0
    b51c:	03 00 00 3a 	sethi  %hi(0xe800), %g1
    b520:	e0 18 62 18 	ldd  [ %g1 + 0x218 ], %l0	! ea18 <_ctype_+0x139>
    b524:	a4 10 00 10 	mov  %l0, %l2
    b528:	10 bf ff 68 	b  b2c8 <_strtod_r+0x6fc>
    b52c:	a6 10 00 11 	mov  %l1, %l3
    b530:	12 80 00 08 	bne  b550 <_strtod_r+0x984>
    b534:	80 a6 60 01 	cmp  %i1, 1
    b538:	17 00 03 ff 	sethi  %hi(0xffc00), %o3
    b53c:	96 12 e3 ff 	or  %o3, 0x3ff, %o3	! fffff <__end+0xec6a7>
    b540:	80 8a c0 18 	btst  %o3, %i0
    b544:	02 80 00 13 	be  b590 <_strtod_r+0x9c4>
    b548:	03 00 00 3a 	sethi  %hi(0xe800), %g1
    b54c:	80 a6 60 01 	cmp  %i1, 1
    b550:	02 80 00 07 	be  b56c <_strtod_r+0x9a0>
    b554:	80 a6 20 00 	cmp  %i0, 0
    b558:	19 00 00 3a 	sethi  %hi(0xe800), %o4
    b55c:	1b 00 00 3a 	sethi  %hi(0xe800), %o5
    b560:	e0 1b 22 18 	ldd  [ %o4 + 0x218 ], %l0
    b564:	10 bf ff 59 	b  b2c8 <_strtod_r+0x6fc>
    b568:	e4 1b 63 c8 	ldd  [ %o5 + 0x3c8 ], %l2
    b56c:	12 bf ff fc 	bne  b55c <_strtod_r+0x990>
    b570:	19 00 00 3a 	sethi  %hi(0xe800), %o4
    b574:	82 10 20 22 	mov  0x22, %g1
    b578:	da 07 bf d8 	ld  [ %fp + -40 ], %o5
    b57c:	c2 25 c0 00 	st  %g1, [ %l7 ]
    b580:	03 00 00 3a 	sethi  %hi(0xe800), %g1
    b584:	f0 18 60 28 	ldd  [ %g1 + 0x28 ], %i0	! e828 <zeroes.1+0x88>
    b588:	10 bf fe 7b 	b  af74 <_strtod_r+0x3a8>
    b58c:	80 a3 60 00 	cmp  %o5, 0
    b590:	d4 18 62 18 	ldd  [ %g1 + 0x218 ], %o2
    b594:	90 10 00 10 	mov  %l0, %o0
    b598:	40 00 08 f5 	call  d96c <__ltdf2>
    b59c:	92 10 00 11 	mov  %l1, %o1
    b5a0:	80 a2 20 00 	cmp  %o0, 0
    b5a4:	06 80 00 0b 	bl  b5d0 <_strtod_r+0xa04>
    b5a8:	19 00 00 3a 	sethi  %hi(0xe800), %o4
    b5ac:	d4 1b 22 38 	ldd  [ %o4 + 0x238 ], %o2	! ea38 <_ctype_+0x159>
    b5b0:	90 10 00 10 	mov  %l0, %o0
    b5b4:	40 00 07 30 	call  d274 <__muldf3>
    b5b8:	92 10 00 11 	mov  %l1, %o1
    b5bc:	a0 10 00 08 	mov  %o0, %l0
    b5c0:	a2 10 00 09 	mov  %o1, %l1
    b5c4:	90 10 00 10 	mov  %l0, %o0
    b5c8:	10 bf ff 3c 	b  b2b8 <_strtod_r+0x6ec>
    b5cc:	92 10 00 11 	mov  %l1, %o1
    b5d0:	17 00 00 3a 	sethi  %hi(0xe800), %o3
    b5d4:	10 bf ff fc 	b  b5c4 <_strtod_r+0x9f8>
    b5d8:	e0 1a e2 38 	ldd  [ %o3 + 0x238 ], %l0	! ea38 <_ctype_+0x159>
    b5dc:	80 a5 20 00 	cmp  %l4, 0
    b5e0:	02 80 00 30 	be  b6a0 <_strtod_r+0xad4>
    b5e4:	03 00 03 ff 	sethi  %hi(0xffc00), %g1
    b5e8:	1b 00 03 ff 	sethi  %hi(0xffc00), %o5
    b5ec:	9a 13 63 ff 	or  %o5, 0x3ff, %o5	! fffff <__end+0xec6a7>
    b5f0:	82 0e 00 0d 	and  %i0, %o5, %g1
    b5f4:	80 a0 40 0d 	cmp  %g1, %o5
    b5f8:	02 80 00 22 	be  b680 <_strtod_r+0xab4>
    b5fc:	80 a6 7f ff 	cmp  %i1, -1
    b600:	80 8e 60 01 	btst  1, %i1
    b604:	02 bf fe 5f 	be  af80 <_strtod_r+0x3b4>
    b608:	d2 07 bf e0 	ld  [ %fp + -32 ], %o1
    b60c:	80 a5 20 00 	cmp  %l4, 0
    b610:	12 80 00 14 	bne  b660 <_strtod_r+0xa94>
    b614:	90 10 00 18 	mov  %i0, %o0
    b618:	7f ff fb bc 	call  a508 <_ulp>
    b61c:	92 10 00 19 	mov  %i1, %o1
    b620:	94 10 00 08 	mov  %o0, %o2
    b624:	96 10 00 09 	mov  %o1, %o3
    b628:	90 10 00 18 	mov  %i0, %o0
    b62c:	40 00 06 fb 	call  d218 <__subdf3>
    b630:	92 10 00 19 	mov  %i1, %o1
    b634:	98 10 00 08 	mov  %o0, %o4
    b638:	b0 10 00 0c 	mov  %o4, %i0
    b63c:	19 00 00 3a 	sethi  %hi(0xe800), %o4
    b640:	d4 1b 20 28 	ldd  [ %o4 + 0x28 ], %o2	! e828 <zeroes.1+0x88>
    b644:	40 00 08 66 	call  d7dc <__eqdf2>
    b648:	b2 10 00 09 	mov  %o1, %i1
    b64c:	80 a2 20 00 	cmp  %o0, 0
    b650:	12 bf fe 4c 	bne  af80 <_strtod_r+0x3b4>
    b654:	d2 07 bf e0 	ld  [ %fp + -32 ], %o1
    b658:	10 bf ff c8 	b  b578 <_strtod_r+0x9ac>
    b65c:	82 10 20 22 	mov  0x22, %g1
    b660:	7f ff fb aa 	call  a508 <_ulp>
    b664:	92 10 00 19 	mov  %i1, %o1
    b668:	94 10 00 18 	mov  %i0, %o2
    b66c:	40 00 06 d7 	call  d1c8 <__adddf3>
    b670:	96 10 00 19 	mov  %i1, %o3
    b674:	b0 10 00 08 	mov  %o0, %i0
    b678:	10 bf fe 41 	b  af7c <_strtod_r+0x3b0>
    b67c:	b2 10 00 09 	mov  %o1, %i1
    b680:	12 bf ff e1 	bne  b604 <_strtod_r+0xa38>
    b684:	80 8e 60 01 	btst  1, %i1
    b688:	03 1f fc 00 	sethi  %hi(0x7ff00000), %g1
    b68c:	1b 00 04 00 	sethi  %hi(0x100000), %o5
    b690:	82 0e 00 01 	and  %i0, %g1, %g1
    b694:	b2 10 20 00 	clr  %i1
    b698:	10 bf fe 39 	b  af7c <_strtod_r+0x3b0>
    b69c:	b0 00 40 0d 	add  %g1, %o5, %i0
    b6a0:	82 10 63 ff 	or  %g1, 0x3ff, %g1
    b6a4:	80 88 40 18 	btst  %g1, %i0
    b6a8:	12 bf ff d7 	bne  b604 <_strtod_r+0xa38>
    b6ac:	80 8e 60 01 	btst  1, %i1
    b6b0:	80 a6 60 00 	cmp  %i1, 0
    b6b4:	12 bf ff d4 	bne  b604 <_strtod_r+0xa38>
    b6b8:	80 8e 60 01 	btst  1, %i1
    b6bc:	03 1f fc 00 	sethi  %hi(0x7ff00000), %g1
    b6c0:	1b 3f fc 00 	sethi  %hi(0xfff00000), %o5
    b6c4:	82 0e 00 01 	and  %i0, %g1, %g1
    b6c8:	17 00 03 ff 	sethi  %hi(0xffc00), %o3
    b6cc:	90 00 40 0d 	add  %g1, %o5, %o0
    b6d0:	96 12 e3 ff 	or  %o3, 0x3ff, %o3
    b6d4:	b2 10 3f ff 	mov  -1, %i1
    b6d8:	10 bf fe 29 	b  af7c <_strtod_r+0x3b0>
    b6dc:	b0 12 00 0b 	or  %o0, %o3, %i0
    b6e0:	12 bf fe 28 	bne  af80 <_strtod_r+0x3b4>
    b6e4:	d2 07 bf e0 	ld  [ %fp + -32 ], %o1
    b6e8:	80 a6 60 00 	cmp  %i1, 0
    b6ec:	12 bf fe 25 	bne  af80 <_strtod_r+0x3b4>
    b6f0:	19 00 03 ff 	sethi  %hi(0xffc00), %o4
    b6f4:	98 13 23 ff 	or  %o4, 0x3ff, %o4	! fffff <__end+0xec6a7>
    b6f8:	80 8b 00 18 	btst  %o4, %i0
    b6fc:	12 bf fe 21 	bne  af80 <_strtod_r+0x3b4>
    b700:	01 00 00 00 	nop 
    b704:	d2 07 bf d4 	ld  [ %fp + -44 ], %o1
    b708:	94 10 20 01 	mov  1, %o2
    b70c:	7f ff fa ce 	call  a244 <_lshift>
    b710:	90 10 00 17 	mov  %l7, %o0
    b714:	92 10 00 1b 	mov  %i3, %o1
    b718:	7f ff fb 09 	call  a33c <__mcmp>
    b71c:	d0 27 bf d4 	st  %o0, [ %fp + -44 ]
    b720:	80 a2 20 00 	cmp  %o0, 0
    b724:	34 bf ff e7 	bg,a   b6c0 <_strtod_r+0xaf4>
    b728:	03 1f fc 00 	sethi  %hi(0x7ff00000), %g1
    b72c:	10 bf fe 15 	b  af80 <_strtod_r+0x3b4>
    b730:	d2 07 bf e0 	ld  [ %fp + -32 ], %o1
    b734:	d6 07 bf e8 	ld  [ %fp + -24 ], %o3
    b738:	a8 10 20 00 	clr  %l4
    b73c:	a4 20 00 0b 	neg  %o3, %l2
    b740:	a2 10 20 00 	clr  %l1
    b744:	10 bf fe 74 	b  b114 <_strtod_r+0x548>
    b748:	94 10 00 12 	mov  %l2, %o2
    b74c:	10 bf fe 4b 	b  b078 <_strtod_r+0x4ac>
    b750:	b0 00 40 18 	add  %g1, %i0, %i0
    b754:	80 a4 60 00 	cmp  %l1, 0
    b758:	16 bf fe 49 	bge  b07c <_strtod_r+0x4b0>
    b75c:	d2 07 bf e4 	ld  [ %fp + -28 ], %o1
    b760:	a2 20 00 11 	neg  %l1
    b764:	90 8c 60 0f 	andcc  %l1, 0xf, %o0
    b768:	22 80 00 0d 	be,a   b79c <_strtod_r+0xbd0>
    b76c:	a2 8c 7f f0 	andcc  %l1, -16, %l1
    b770:	9b 2a 20 03 	sll  %o0, 3, %o5
    b774:	03 00 00 3a 	sethi  %hi(0xe800), %g1
    b778:	82 10 62 98 	or  %g1, 0x298, %g1	! ea98 <__mprec_tens>
    b77c:	98 00 40 0d 	add  %g1, %o5, %o4
    b780:	d4 1b 00 00 	ldd  [ %o4 ], %o2
    b784:	90 10 00 18 	mov  %i0, %o0
    b788:	40 00 07 99 	call  d5ec <__divdf3>
    b78c:	92 10 00 19 	mov  %i1, %o1
    b790:	b0 10 00 08 	mov  %o0, %i0
    b794:	b2 10 00 09 	mov  %o1, %i1
    b798:	a2 8c 7f f0 	andcc  %l1, -16, %l1
    b79c:	02 bf fe 38 	be  b07c <_strtod_r+0x4b0>
    b7a0:	d2 07 bf e4 	ld  [ %fp + -28 ], %o1
    b7a4:	a3 3c 60 04 	sra  %l1, 4, %l1
    b7a8:	80 a4 60 1f 	cmp  %l1, 0x1f
    b7ac:	14 bf ff 72 	bg  b574 <_strtod_r+0x9a8>
    b7b0:	a0 10 20 00 	clr  %l0
    b7b4:	80 a4 60 01 	cmp  %l1, 1
    b7b8:	04 80 00 12 	ble  b800 <_strtod_r+0xc34>
    b7bc:	29 00 00 3a 	sethi  %hi(0xe800), %l4
    b7c0:	a4 15 23 88 	or  %l4, 0x388, %l2	! eb88 <__mprec_tinytens>
    b7c4:	80 8c 60 01 	btst  1, %l1
    b7c8:	22 80 00 0b 	be,a   b7f4 <_strtod_r+0xc28>
    b7cc:	a3 3c 60 01 	sra  %l1, 1, %l1
    b7d0:	83 2c 20 03 	sll  %l0, 3, %g1
    b7d4:	9a 04 80 01 	add  %l2, %g1, %o5
    b7d8:	d0 1b 40 00 	ldd  [ %o5 ], %o0
    b7dc:	94 10 00 18 	mov  %i0, %o2
    b7e0:	40 00 06 a5 	call  d274 <__muldf3>
    b7e4:	96 10 00 19 	mov  %i1, %o3
    b7e8:	b0 10 00 08 	mov  %o0, %i0
    b7ec:	b2 10 00 09 	mov  %o1, %i1
    b7f0:	a3 3c 60 01 	sra  %l1, 1, %l1
    b7f4:	80 a4 60 01 	cmp  %l1, 1
    b7f8:	14 bf ff f3 	bg  b7c4 <_strtod_r+0xbf8>
    b7fc:	a0 04 20 01 	inc  %l0
    b800:	83 2c 20 03 	sll  %l0, 3, %g1
    b804:	9a 15 23 88 	or  %l4, 0x388, %o5
    b808:	98 03 40 01 	add  %o5, %g1, %o4
    b80c:	e0 1b 00 00 	ldd  [ %o4 ], %l0
    b810:	94 10 00 18 	mov  %i0, %o2
    b814:	96 10 00 19 	mov  %i1, %o3
    b818:	90 10 00 10 	mov  %l0, %o0
    b81c:	40 00 06 96 	call  d274 <__muldf3>
    b820:	92 10 00 11 	mov  %l1, %o1
    b824:	03 00 00 3a 	sethi  %hi(0xe800), %g1
    b828:	d4 18 60 28 	ldd  [ %g1 + 0x28 ], %o2	! e828 <zeroes.1+0x88>
    b82c:	98 10 00 08 	mov  %o0, %o4
    b830:	b8 10 00 18 	mov  %i0, %i4
    b834:	ba 10 00 19 	mov  %i1, %i5
    b838:	b0 10 00 0c 	mov  %o4, %i0
    b83c:	40 00 07 e8 	call  d7dc <__eqdf2>
    b840:	b2 10 00 09 	mov  %o1, %i1
    b844:	80 a2 20 00 	cmp  %o0, 0
    b848:	32 bf fe 0d 	bne,a   b07c <_strtod_r+0x4b0>
    b84c:	d2 07 bf e4 	ld  [ %fp + -28 ], %o1
    b850:	94 10 00 1c 	mov  %i4, %o2
    b854:	96 10 00 1d 	mov  %i5, %o3
    b858:	90 10 00 1c 	mov  %i4, %o0
    b85c:	40 00 06 5b 	call  d1c8 <__adddf3>
    b860:	92 10 00 1d 	mov  %i5, %o1
    b864:	94 10 00 08 	mov  %o0, %o2
    b868:	96 10 00 09 	mov  %o1, %o3
    b86c:	90 10 00 10 	mov  %l0, %o0
    b870:	40 00 06 81 	call  d274 <__muldf3>
    b874:	92 10 00 11 	mov  %l1, %o1
    b878:	19 00 00 3a 	sethi  %hi(0xe800), %o4
    b87c:	d4 1b 20 28 	ldd  [ %o4 + 0x28 ], %o2	! e828 <zeroes.1+0x88>
    b880:	40 00 07 d7 	call  d7dc <__eqdf2>
    b884:	b0 10 20 00 	clr  %i0
    b888:	80 a2 20 00 	cmp  %o0, 0
    b88c:	12 bf fd fb 	bne  b078 <_strtod_r+0x4ac>
    b890:	b2 10 20 01 	mov  1, %i1
    b894:	10 bf ff 39 	b  b578 <_strtod_r+0x9ac>
    b898:	82 10 20 22 	mov  0x22, %g1
    b89c:	83 2a 20 03 	sll  %o0, 3, %g1
    b8a0:	98 23 00 08 	sub  %o4, %o0, %o4
    b8a4:	21 00 00 3a 	sethi  %hi(0xe800), %l0
    b8a8:	a0 14 22 98 	or  %l0, 0x298, %l0	! ea98 <__mprec_tens>
    b8ac:	9a 04 00 01 	add  %l0, %g1, %o5
    b8b0:	d0 1b 40 00 	ldd  [ %o5 ], %o0
    b8b4:	94 10 00 18 	mov  %i0, %o2
    b8b8:	96 10 00 19 	mov  %i1, %o3
    b8bc:	40 00 06 6e 	call  d274 <__muldf3>
    b8c0:	d8 27 bf e8 	st  %o4, [ %fp + -24 ]
    b8c4:	d8 07 bf e8 	ld  [ %fp + -24 ], %o4
    b8c8:	94 10 00 08 	mov  %o0, %o2
    b8cc:	96 10 00 09 	mov  %o1, %o3
    b8d0:	83 2b 20 03 	sll  %o4, 3, %g1
    b8d4:	9a 04 00 01 	add  %l0, %g1, %o5
    b8d8:	d0 1b 40 00 	ldd  [ %o5 ], %o0
    b8dc:	40 00 06 66 	call  d274 <__muldf3>
    b8e0:	01 00 00 00 	nop 
    b8e4:	b0 10 00 08 	mov  %o0, %i0
    b8e8:	10 bf fc d5 	b  ac3c <_strtod_r+0x70>
    b8ec:	b2 10 00 09 	mov  %o1, %i1
    b8f0:	9b 2b 60 03 	sll  %o5, 3, %o5
    b8f4:	03 00 00 3a 	sethi  %hi(0xe800), %g1
    b8f8:	82 10 62 98 	or  %g1, 0x298, %g1	! ea98 <__mprec_tens>
    b8fc:	98 00 40 0d 	add  %g1, %o5, %o4
    b900:	d0 1b 00 00 	ldd  [ %o4 ], %o0
    b904:	94 10 00 18 	mov  %i0, %o2
    b908:	10 bf ff f5 	b  b8dc <_strtod_r+0xd10>
    b90c:	96 10 00 19 	mov  %i1, %o3
    b910:	c2 07 bf e8 	ld  [ %fp + -24 ], %g1
    b914:	80 a0 7f ea 	cmp  %g1, -22
    b918:	06 bf fd 7a 	bl  af00 <_strtod_r+0x334>
    b91c:	da 07 bf e8 	ld  [ %fp + -24 ], %o5
    b920:	9a 20 00 01 	neg  %g1, %o5
    b924:	03 00 00 3a 	sethi  %hi(0xe800), %g1
    b928:	9b 2b 60 03 	sll  %o5, 3, %o5
    b92c:	82 10 62 98 	or  %g1, 0x298, %g1
    b930:	98 00 40 0d 	add  %g1, %o5, %o4
    b934:	d4 1b 00 00 	ldd  [ %o4 ], %o2
    b938:	90 10 00 18 	mov  %i0, %o0
    b93c:	40 00 07 2c 	call  d5ec <__divdf3>
    b940:	92 10 00 19 	mov  %i1, %o1
    b944:	10 bf ff e9 	b  b8e8 <_strtod_r+0xd1c>
    b948:	b0 10 00 08 	mov  %o0, %i0
    b94c:	19 00 00 3a 	sethi  %hi(0xe800), %o4
    b950:	40 00 06 1e 	call  d1c8 <__adddf3>
    b954:	d4 1b 21 f0 	ldd  [ %o4 + 0x1f0 ], %o2	! e9f0 <_ctype_+0x111>
    b958:	94 10 00 08 	mov  %o0, %o2
    b95c:	10 bf fd 52 	b  aea4 <_strtod_r+0x2d8>
    b960:	96 10 00 09 	mov  %o1, %o3
    b964:	40 00 06 19 	call  d1c8 <__adddf3>
    b968:	d4 18 61 f0 	ldd  [ %g1 + 0x1f0 ], %o2
    b96c:	10 bf fd 3b 	b  ae58 <_strtod_r+0x28c>
    b970:	80 a5 20 09 	cmp  %l4, 9
    b974:	80 92 80 10 	orcc  %o2, %l0, %g0
    b978:	12 bf fc b2 	bne  ac40 <_strtod_r+0x74>
    b97c:	c2 07 a0 4c 	ld  [ %fp + 0x4c ], %g1
    b980:	10 bf fc b0 	b  ac40 <_strtod_r+0x74>
    b984:	ac 10 00 09 	mov  %o1, %l6
    b988:	ac 05 a0 01 	inc  %l6
    b98c:	d0 4d 80 00 	ldsb  [ %l6 ], %o0
    b990:	80 a2 20 30 	cmp  %o0, 0x30
    b994:	22 bf ff fe 	be,a   b98c <_strtod_r+0xdc0>
    b998:	ac 05 a0 01 	inc  %l6
    b99c:	10 bf fc f6 	b  ad74 <_strtod_r+0x1a8>
    b9a0:	82 02 3f cf 	add  %o0, -49, %g1
    b9a4:	ac 05 a0 01 	inc  %l6
    b9a8:	10 bf fc ec 	b  ad58 <_strtod_r+0x18c>
    b9ac:	d0 4d 80 00 	ldsb  [ %l6 ], %o0
    b9b0:	ac 05 a0 01 	inc  %l6
    b9b4:	80 a4 e0 00 	cmp  %l3, 0
    b9b8:	12 80 00 42 	bne  bac0 <_strtod_r+0xef4>
    b9bc:	d0 4d 80 00 	ldsb  [ %l6 ], %o0
    b9c0:	80 a2 20 30 	cmp  %o0, 0x30
    b9c4:	02 80 00 38 	be  baa4 <_strtod_r+0xed8>
    b9c8:	82 02 3f cf 	add  %o0, -49, %g1
    b9cc:	80 a0 60 08 	cmp  %g1, 8
    b9d0:	18 bf fc cd 	bgu  ad04 <_strtod_r+0x138>
    b9d4:	82 1a 20 65 	xor  %o0, 0x65, %g1
    b9d8:	9e 10 00 0a 	mov  %o2, %o7
    b9dc:	96 02 3f d0 	add  %o0, -48, %o3
    b9e0:	ec 27 bf e4 	st  %l6, [ %fp + -28 ]
    b9e4:	94 10 20 00 	clr  %o2
    b9e8:	80 a2 e0 00 	cmp  %o3, 0
    b9ec:	02 80 00 17 	be  ba48 <_strtod_r+0xe7c>
    b9f0:	94 02 a0 01 	inc  %o2
    b9f4:	80 a2 a0 01 	cmp  %o2, 1
    b9f8:	04 80 00 0c 	ble  ba28 <_strtod_r+0xe5c>
    b9fc:	9e 03 c0 0a 	add  %o7, %o2, %o7
    ba00:	90 02 bf ff 	add  %o2, -1, %o0
    ba04:	80 a4 e0 08 	cmp  %l3, 8
    ba08:	14 80 00 20 	bg  ba88 <_strtod_r+0xebc>
    ba0c:	a6 04 e0 01 	inc  %l3
    ba10:	83 2e a0 02 	sll  %i2, 2, %g1
    ba14:	82 00 40 1a 	add  %g1, %i2, %g1
    ba18:	b4 00 40 01 	add  %g1, %g1, %i2
    ba1c:	90 82 3f ff 	addcc  %o0, -1, %o0
    ba20:	12 bf ff fa 	bne  ba08 <_strtod_r+0xe3c>
    ba24:	80 a4 e0 08 	cmp  %l3, 8
    ba28:	80 a4 e0 08 	cmp  %l3, 8
    ba2c:	14 80 00 0f 	bg  ba68 <_strtod_r+0xe9c>
    ba30:	a6 04 e0 01 	inc  %l3
    ba34:	83 2e a0 02 	sll  %i2, 2, %g1
    ba38:	82 00 40 1a 	add  %g1, %i2, %g1
    ba3c:	82 00 40 01 	add  %g1, %g1, %g1
    ba40:	b4 00 40 0b 	add  %g1, %o3, %i2
    ba44:	94 10 20 00 	clr  %o2
    ba48:	ac 05 a0 01 	inc  %l6
    ba4c:	d0 4d 80 00 	ldsb  [ %l6 ], %o0
    ba50:	82 02 3f d0 	add  %o0, -48, %g1
    ba54:	80 a0 60 09 	cmp  %g1, 9
    ba58:	08 bf ff e4 	bleu  b9e8 <_strtod_r+0xe1c>
    ba5c:	96 10 00 01 	mov  %g1, %o3
    ba60:	10 bf fc a9 	b  ad04 <_strtod_r+0x138>
    ba64:	82 1a 20 65 	xor  %o0, 0x65, %g1
    ba68:	80 a4 e0 10 	cmp  %l3, 0x10
    ba6c:	14 bf ff f7 	bg  ba48 <_strtod_r+0xe7c>
    ba70:	94 10 20 00 	clr  %o2
    ba74:	83 2c a0 02 	sll  %l2, 2, %g1
    ba78:	82 00 40 12 	add  %g1, %l2, %g1
    ba7c:	82 00 40 01 	add  %g1, %g1, %g1
    ba80:	10 bf ff f2 	b  ba48 <_strtod_r+0xe7c>
    ba84:	a4 00 40 0b 	add  %g1, %o3, %l2
    ba88:	80 a4 e0 10 	cmp  %l3, 0x10
    ba8c:	34 bf ff e5 	bg,a   ba20 <_strtod_r+0xe54>
    ba90:	90 82 3f ff 	addcc  %o0, -1, %o0
    ba94:	83 2c a0 02 	sll  %l2, 2, %g1
    ba98:	82 00 40 12 	add  %g1, %l2, %g1
    ba9c:	10 bf ff e0 	b  ba1c <_strtod_r+0xe50>
    baa0:	a4 00 40 01 	add  %g1, %g1, %l2
    baa4:	ac 05 a0 01 	inc  %l6
    baa8:	d0 4d 80 00 	ldsb  [ %l6 ], %o0
    baac:	80 a2 20 30 	cmp  %o0, 0x30
    bab0:	02 bf ff fd 	be  baa4 <_strtod_r+0xed8>
    bab4:	94 02 a0 01 	inc  %o2
    bab8:	10 bf ff c5 	b  b9cc <_strtod_r+0xe00>
    babc:	82 02 3f cf 	add  %o0, -49, %g1
    bac0:	96 02 3f d0 	add  %o0, -48, %o3
    bac4:	80 a2 e0 09 	cmp  %o3, 9
    bac8:	08 bf ff c9 	bleu  b9ec <_strtod_r+0xe20>
    bacc:	80 a2 e0 00 	cmp  %o3, 0
    bad0:	10 bf fc 8d 	b  ad04 <_strtod_r+0x138>
    bad4:	82 1a 20 65 	xor  %o0, 0x65, %g1
    bad8:	34 bf fc 80 	bg,a   acd8 <_strtod_r+0x10c>
    badc:	ac 05 a0 01 	inc  %l6
    bae0:	83 2c a0 02 	sll  %l2, 2, %g1
    bae4:	82 00 40 12 	add  %g1, %l2, %g1
    bae8:	82 00 40 01 	add  %g1, %g1, %g1
    baec:	82 00 40 08 	add  %g1, %o0, %g1
    baf0:	10 bf fc 79 	b  acd4 <_strtod_r+0x108>
    baf4:	a4 00 7f d0 	add  %g1, -48, %l2
    baf8:	ac 05 a0 01 	inc  %l6
    bafc:	c2 4d 80 00 	ldsb  [ %l6 ], %g1
    bb00:	80 a0 60 30 	cmp  %g1, 0x30
    bb04:	02 bf ff fd 	be  baf8 <_strtod_r+0xf2c>
    bb08:	d6 0d 80 00 	ldub  [ %l6 ], %o3
    bb0c:	80 a0 60 00 	cmp  %g1, 0
    bb10:	32 bf fc 5e 	bne,a   ac88 <_strtod_r+0xbc>
    bb14:	83 2a e0 18 	sll  %o3, 0x18, %g1
    bb18:	10 bf fc 4a 	b  ac40 <_strtod_r+0x74>
    bb1c:	c2 07 a0 4c 	ld  [ %fp + 0x4c ], %g1
    bb20:	10 bf fc 35 	b  abf4 <_strtod_r+0x28>
    bb24:	ac 05 a0 01 	inc  %l6
    bb28:	b0 10 00 08 	mov  %o0, %i0
    bb2c:	81 c7 e0 08 	ret 
    bb30:	93 e8 00 09 	restore  %g0, %o1, %o1

0000bb34 <strtod>:
    bb34:	03 00 00 3c 	sethi  %hi(0xf000), %g1
    bb38:	da 00 60 98 	ld  [ %g1 + 0x98 ], %o5	! f098 <_impure_ptr>
    bb3c:	98 10 00 08 	mov  %o0, %o4
    bb40:	94 10 00 09 	mov  %o1, %o2
    bb44:	90 10 00 0d 	mov  %o5, %o0
    bb48:	92 10 00 0c 	mov  %o4, %o1
    bb4c:	82 13 c0 00 	mov  %o7, %g1
    bb50:	7f ff fc 1f 	call  abcc <_strtod_r>
    bb54:	9e 10 40 00 	mov  %g1, %o7
    bb58:	01 00 00 00 	nop 

0000bb5c <strtof>:
    bb5c:	9d e3 bf 98 	save  %sp, -104, %sp
    bb60:	03 00 00 3c 	sethi  %hi(0xf000), %g1
    bb64:	d0 00 60 98 	ld  [ %g1 + 0x98 ], %o0	! f098 <_impure_ptr>
    bb68:	94 10 00 19 	mov  %i1, %o2
    bb6c:	7f ff fc 18 	call  abcc <_strtod_r>
    bb70:	92 10 00 18 	mov  %i0, %o1
    bb74:	40 00 08 1f 	call  dbf0 <__truncdfsf2>
    bb78:	01 00 00 00 	nop 
    bb7c:	81 c7 e0 08 	ret 
    bb80:	91 e8 00 08 	restore  %g0, %o0, %o0

0000bb84 <_strtoll_r>:
    bb84:	9d e3 bf 98 	save  %sp, -104, %sp
    bb88:	3b 00 00 3a 	sethi  %hi(0xe800), %i5
    bb8c:	a6 10 00 19 	mov  %i1, %l3
    bb90:	b8 10 20 00 	clr  %i4
    bb94:	9a 17 60 e0 	or  %i5, 0xe0, %o5
    bb98:	e4 4c c0 00 	ldsb  [ %l3 ], %l2
    bb9c:	c2 0c 80 0d 	ldub  [ %l2 + %o5 ], %g1
    bba0:	80 88 60 08 	btst  8, %g1
    bba4:	12 bf ff fd 	bne  bb98 <_strtoll_r+0x14>
    bba8:	a6 04 e0 01 	inc  %l3
    bbac:	80 a4 a0 2d 	cmp  %l2, 0x2d
    bbb0:	02 80 00 8e 	be  bde8 <_strtoll_r+0x264>
    bbb4:	80 a4 a0 2b 	cmp  %l2, 0x2b
    bbb8:	22 80 00 8a 	be,a   bde0 <_strtoll_r+0x25c>
    bbbc:	e4 4c c0 00 	ldsb  [ %l3 ], %l2
    bbc0:	80 a0 00 1b 	cmp  %g0, %i3
    bbc4:	9a 1e e0 10 	xor  %i3, 0x10, %o5
    bbc8:	82 60 3f ff 	subx  %g0, -1, %g1
    bbcc:	80 a0 00 0d 	cmp  %g0, %o5
    bbd0:	98 60 3f ff 	subx  %g0, -1, %o4
    bbd4:	80 90 40 0c 	orcc  %g1, %o4, %g0
    bbd8:	02 80 00 06 	be  bbf0 <_strtoll_r+0x6c>
    bbdc:	80 a6 e0 00 	cmp  %i3, 0
    bbe0:	80 a4 a0 30 	cmp  %l2, 0x30
    bbe4:	22 80 00 72 	be,a   bdac <_strtoll_r+0x228>
    bbe8:	c2 4c c0 00 	ldsb  [ %l3 ], %g1
    bbec:	80 a6 e0 00 	cmp  %i3, 0
    bbf0:	12 80 00 08 	bne  bc10 <_strtoll_r+0x8c>
    bbf4:	80 a7 20 00 	cmp  %i4, 0
    bbf8:	82 1c a0 30 	xor  %l2, 0x30, %g1
    bbfc:	80 a0 00 01 	cmp  %g0, %g1
    bc00:	9a 60 20 00 	subx  %g0, 0, %o5
    bc04:	b6 0b 60 02 	and  %o5, 2, %i3
    bc08:	b6 06 e0 08 	add  %i3, 8, %i3
    bc0c:	80 a7 20 00 	cmp  %i4, 0
    bc10:	29 20 00 00 	sethi  %hi(0x80000000), %l4
    bc14:	12 80 00 05 	bne  bc28 <_strtoll_r+0xa4>
    bc18:	aa 10 20 00 	clr  %l5
    bc1c:	29 1f ff ff 	sethi  %hi(0x7ffffc00), %l4
    bc20:	aa 10 3f ff 	mov  -1, %l5
    bc24:	a8 15 23 ff 	or  %l4, 0x3ff, %l4
    bc28:	af 3e e0 1f 	sra  %i3, 0x1f, %l7
    bc2c:	96 10 00 1b 	mov  %i3, %o3
    bc30:	94 10 00 17 	mov  %l7, %o2
    bc34:	90 10 00 14 	mov  %l4, %o0
    bc38:	40 00 03 c9 	call  cb5c <__umoddi3>
    bc3c:	92 10 00 15 	mov  %l5, %o1
    bc40:	9a 10 00 09 	mov  %o1, %o5
    bc44:	90 10 00 14 	mov  %l4, %o0
    bc48:	92 10 00 15 	mov  %l5, %o1
    bc4c:	96 10 00 1b 	mov  %i3, %o3
    bc50:	ac 10 00 0d 	mov  %o5, %l6
    bc54:	40 00 02 f1 	call  c818 <__udivdi3>
    bc58:	94 10 00 17 	mov  %l7, %o2
    bc5c:	96 10 20 00 	clr  %o3
    bc60:	a8 10 00 08 	mov  %o0, %l4
    bc64:	aa 10 00 09 	mov  %o1, %l5
    bc68:	90 10 20 00 	clr  %o0
    bc6c:	92 10 20 00 	clr  %o1
    bc70:	82 17 60 e0 	or  %i5, 0xe0, %g1
    bc74:	c2 0c 80 01 	ldub  [ %l2 + %g1 ], %g1
    bc78:	80 88 60 04 	btst  4, %g1
    bc7c:	02 80 00 45 	be  bd90 <_strtoll_r+0x20c>
    bc80:	80 88 60 03 	btst  3, %g1
    bc84:	a4 04 bf d0 	add  %l2, -48, %l2
    bc88:	80 a4 80 1b 	cmp  %l2, %i3
    bc8c:	16 80 00 29 	bge  bd30 <_strtoll_r+0x1ac>
    bc90:	83 32 e0 1f 	srl  %o3, 0x1f, %g1
    bc94:	80 a2 00 14 	cmp  %o0, %l4
    bc98:	18 80 00 24 	bgu  bd28 <_strtoll_r+0x1a4>
    bc9c:	9a 10 20 00 	clr  %o5
    bca0:	80 a2 00 14 	cmp  %o0, %l4
    bca4:	02 80 00 1f 	be  bd20 <_strtoll_r+0x19c>
    bca8:	80 a2 40 15 	cmp  %o1, %l5
    bcac:	80 90 40 0d 	orcc  %g1, %o5, %g0
    bcb0:	32 80 00 0d 	bne,a   bce4 <_strtoll_r+0x160>
    bcb4:	96 10 3f ff 	mov  -1, %o3
    bcb8:	80 a2 00 14 	cmp  %o0, %l4
    bcbc:	02 80 00 14 	be  bd0c <_strtoll_r+0x188>
    bcc0:	9a 10 20 00 	clr  %o5
    bcc4:	80 a4 80 16 	cmp  %l2, %l6
    bcc8:	14 80 00 03 	bg  bcd4 <_strtoll_r+0x150>
    bccc:	82 10 20 01 	mov  1, %g1
    bcd0:	82 10 20 00 	clr  %g1
    bcd4:	80 8b 40 01 	btst  %o5, %g1
    bcd8:	22 80 00 06 	be,a   bcf0 <_strtoll_r+0x16c>
    bcdc:	96 10 00 1b 	mov  %i3, %o3
    bce0:	96 10 3f ff 	mov  -1, %o3
    bce4:	e4 4c c0 00 	ldsb  [ %l3 ], %l2
    bce8:	10 bf ff e2 	b  bc70 <_strtoll_r+0xec>
    bcec:	a6 04 e0 01 	inc  %l3
    bcf0:	40 00 02 96 	call  c748 <__muldi3>
    bcf4:	94 10 00 17 	mov  %l7, %o2
    bcf8:	99 3c a0 1f 	sra  %l2, 0x1f, %o4
    bcfc:	92 82 40 12 	addcc  %o1, %l2, %o1
    bd00:	96 10 20 01 	mov  1, %o3
    bd04:	10 bf ff f8 	b  bce4 <_strtoll_r+0x160>
    bd08:	90 42 00 0c 	addx  %o0, %o4, %o0
    bd0c:	80 a2 40 15 	cmp  %o1, %l5
    bd10:	22 bf ff ed 	be,a   bcc4 <_strtoll_r+0x140>
    bd14:	9a 10 20 01 	mov  1, %o5
    bd18:	10 bf ff ec 	b  bcc8 <_strtoll_r+0x144>
    bd1c:	80 a4 80 16 	cmp  %l2, %l6
    bd20:	08 bf ff e4 	bleu  bcb0 <_strtoll_r+0x12c>
    bd24:	80 90 40 0d 	orcc  %g1, %o5, %g0
    bd28:	10 bf ff e1 	b  bcac <_strtoll_r+0x128>
    bd2c:	9a 10 20 01 	mov  1, %o5
    bd30:	80 a2 e0 00 	cmp  %o3, 0
    bd34:	06 80 00 0e 	bl  bd6c <_strtoll_r+0x1e8>
    bd38:	80 a7 20 00 	cmp  %i4, 0
    bd3c:	02 80 00 05 	be  bd50 <_strtoll_r+0x1cc>
    bd40:	80 a6 a0 00 	cmp  %i2, 0
    bd44:	92 a0 00 09 	subcc  %g0, %o1, %o1
    bd48:	90 60 00 08 	subx  %g0, %o0, %o0
    bd4c:	80 a6 a0 00 	cmp  %i2, 0
    bd50:	02 80 00 29 	be  bdf4 <_strtoll_r+0x270>
    bd54:	80 a2 e0 00 	cmp  %o3, 0
    bd58:	12 80 00 03 	bne  bd64 <_strtoll_r+0x1e0>
    bd5c:	82 04 ff ff 	add  %l3, -1, %g1
    bd60:	82 10 00 19 	mov  %i1, %g1
    bd64:	10 80 00 24 	b  bdf4 <_strtoll_r+0x270>
    bd68:	c2 26 80 00 	st  %g1, [ %i2 ]
    bd6c:	11 20 00 00 	sethi  %hi(0x80000000), %o0
    bd70:	12 80 00 05 	bne  bd84 <_strtoll_r+0x200>
    bd74:	92 10 20 00 	clr  %o1
    bd78:	11 1f ff ff 	sethi  %hi(0x7ffffc00), %o0
    bd7c:	92 10 3f ff 	mov  -1, %o1
    bd80:	90 12 23 ff 	or  %o0, 0x3ff, %o0
    bd84:	82 10 20 22 	mov  0x22, %g1
    bd88:	10 bf ff f1 	b  bd4c <_strtoll_r+0x1c8>
    bd8c:	c2 26 00 00 	st  %g1, [ %i0 ]
    bd90:	02 bf ff e8 	be  bd30 <_strtoll_r+0x1ac>
    bd94:	80 88 60 01 	btst  1, %g1
    bd98:	12 80 00 03 	bne  bda4 <_strtoll_r+0x220>
    bd9c:	82 04 bf c9 	add  %l2, -55, %g1
    bda0:	82 04 bf a9 	add  %l2, -87, %g1
    bda4:	10 bf ff b9 	b  bc88 <_strtoll_r+0x104>
    bda8:	a4 10 00 01 	mov  %g1, %l2
    bdac:	9a 18 60 78 	xor  %g1, 0x78, %o5
    bdb0:	80 a0 00 0d 	cmp  %g0, %o5
    bdb4:	82 18 60 58 	xor  %g1, 0x58, %g1
    bdb8:	98 60 3f ff 	subx  %g0, -1, %o4
    bdbc:	80 a0 00 01 	cmp  %g0, %g1
    bdc0:	9a 60 3f ff 	subx  %g0, -1, %o5
    bdc4:	80 93 00 0d 	orcc  %o4, %o5, %g0
    bdc8:	02 bf ff 8a 	be  bbf0 <_strtoll_r+0x6c>
    bdcc:	80 a6 e0 00 	cmp  %i3, 0
    bdd0:	e4 4c e0 01 	ldsb  [ %l3 + 1 ], %l2
    bdd4:	b6 10 20 10 	mov  0x10, %i3
    bdd8:	10 bf ff 85 	b  bbec <_strtoll_r+0x68>
    bddc:	a6 04 e0 02 	add  %l3, 2, %l3
    bde0:	10 bf ff 78 	b  bbc0 <_strtoll_r+0x3c>
    bde4:	a6 04 e0 01 	inc  %l3
    bde8:	e4 4c c0 00 	ldsb  [ %l3 ], %l2
    bdec:	10 bf ff fd 	b  bde0 <_strtoll_r+0x25c>
    bdf0:	b8 10 20 01 	mov  1, %i4
    bdf4:	b0 10 00 08 	mov  %o0, %i0
    bdf8:	81 c7 e0 08 	ret 
    bdfc:	93 e8 00 09 	restore  %g0, %o1, %o1

0000be00 <_strtol_r>:
    be00:	9d e3 bf 98 	save  %sp, -104, %sp
    be04:	2b 00 00 3a 	sethi  %hi(0xe800), %l5
    be08:	a2 10 00 19 	mov  %i1, %l1
    be0c:	ac 10 20 00 	clr  %l6
    be10:	9a 15 60 e0 	or  %l5, 0xe0, %o5
    be14:	e0 4c 40 00 	ldsb  [ %l1 ], %l0
    be18:	c2 0c 00 0d 	ldub  [ %l0 + %o5 ], %g1
    be1c:	80 88 60 08 	btst  8, %g1
    be20:	12 bf ff fd 	bne  be14 <_strtol_r+0x14>
    be24:	a2 04 60 01 	inc  %l1
    be28:	80 a4 20 2d 	cmp  %l0, 0x2d
    be2c:	02 80 00 70 	be  bfec <_strtol_r+0x1ec>
    be30:	80 a4 20 2b 	cmp  %l0, 0x2b
    be34:	22 80 00 6c 	be,a   bfe4 <_strtol_r+0x1e4>
    be38:	e0 4c 40 00 	ldsb  [ %l1 ], %l0
    be3c:	80 a0 00 1b 	cmp  %g0, %i3
    be40:	9a 1e e0 10 	xor  %i3, 0x10, %o5
    be44:	82 60 3f ff 	subx  %g0, -1, %g1
    be48:	80 a0 00 0d 	cmp  %g0, %o5
    be4c:	98 60 3f ff 	subx  %g0, -1, %o4
    be50:	80 90 40 0c 	orcc  %g1, %o4, %g0
    be54:	02 80 00 06 	be  be6c <_strtol_r+0x6c>
    be58:	80 a6 e0 00 	cmp  %i3, 0
    be5c:	80 a4 20 30 	cmp  %l0, 0x30
    be60:	22 80 00 54 	be,a   bfb0 <_strtol_r+0x1b0>
    be64:	c2 4c 40 00 	ldsb  [ %l1 ], %g1
    be68:	80 a6 e0 00 	cmp  %i3, 0
    be6c:	12 80 00 08 	bne  be8c <_strtol_r+0x8c>
    be70:	80 a5 a0 00 	cmp  %l6, 0
    be74:	82 1c 20 30 	xor  %l0, 0x30, %g1
    be78:	80 a0 00 01 	cmp  %g0, %g1
    be7c:	9a 60 20 00 	subx  %g0, 0, %o5
    be80:	b6 0b 60 02 	and  %o5, 2, %i3
    be84:	b6 06 e0 08 	add  %i3, 8, %i3
    be88:	80 a5 a0 00 	cmp  %l6, 0
    be8c:	12 80 00 04 	bne  be9c <_strtol_r+0x9c>
    be90:	27 20 00 00 	sethi  %hi(0x80000000), %l3
    be94:	03 1f ff ff 	sethi  %hi(0x7ffffc00), %g1
    be98:	a6 10 63 ff 	or  %g1, 0x3ff, %l3	! 7fffffff <_RAM_SIZE+0x7dffffff>
    be9c:	90 10 00 13 	mov  %l3, %o0
    bea0:	7f ff d9 f4 	call  2670 <.urem>
    bea4:	92 10 00 1b 	mov  %i3, %o1
    bea8:	92 10 00 1b 	mov  %i3, %o1
    beac:	a8 10 00 08 	mov  %o0, %l4
    beb0:	7f ff d9 44 	call  23c0 <.udiv>
    beb4:	90 10 00 13 	mov  %l3, %o0
    beb8:	a4 10 20 00 	clr  %l2
    bebc:	a6 10 00 08 	mov  %o0, %l3
    bec0:	90 10 20 00 	clr  %o0
    bec4:	82 15 60 e0 	or  %l5, 0xe0, %g1
    bec8:	c2 0c 00 01 	ldub  [ %l0 + %g1 ], %g1
    becc:	80 88 60 04 	btst  4, %g1
    bed0:	02 80 00 31 	be  bf94 <_strtol_r+0x194>
    bed4:	80 88 60 03 	btst  3, %g1
    bed8:	a0 04 3f d0 	add  %l0, -48, %l0
    bedc:	80 a4 00 1b 	cmp  %l0, %i3
    bee0:	16 80 00 19 	bge  bf44 <_strtol_r+0x144>
    bee4:	80 a4 c0 08 	cmp  %l3, %o0
    bee8:	9b 34 a0 1f 	srl  %l2, 0x1f, %o5
    beec:	82 40 20 00 	addx  %g0, 0, %g1
    bef0:	80 93 40 01 	orcc  %o5, %g1, %g0
    bef4:	32 80 00 0d 	bne,a   bf28 <_strtol_r+0x128>
    bef8:	a4 10 3f ff 	mov  -1, %l2
    befc:	82 1a 00 13 	xor  %o0, %l3, %g1
    bf00:	80 a0 00 01 	cmp  %g0, %g1
    bf04:	82 60 3f ff 	subx  %g0, -1, %g1
    bf08:	80 a4 00 14 	cmp  %l0, %l4
    bf0c:	14 80 00 03 	bg  bf18 <_strtol_r+0x118>
    bf10:	9a 10 20 01 	mov  1, %o5
    bf14:	9a 10 20 00 	clr  %o5
    bf18:	80 88 40 0d 	btst  %g1, %o5
    bf1c:	02 80 00 06 	be  bf34 <_strtol_r+0x134>
    bf20:	92 10 00 1b 	mov  %i3, %o1
    bf24:	a4 10 3f ff 	mov  -1, %l2
    bf28:	e0 4c 40 00 	ldsb  [ %l1 ], %l0
    bf2c:	10 bf ff e6 	b  bec4 <_strtol_r+0xc4>
    bf30:	a2 04 60 01 	inc  %l1
    bf34:	7f ff d8 e9 	call  22d8 <.umul>
    bf38:	a4 10 20 01 	mov  1, %l2
    bf3c:	10 bf ff fb 	b  bf28 <_strtol_r+0x128>
    bf40:	90 02 00 10 	add  %o0, %l0, %o0
    bf44:	80 a4 a0 00 	cmp  %l2, 0
    bf48:	06 80 00 0c 	bl  bf78 <_strtol_r+0x178>
    bf4c:	80 a5 a0 00 	cmp  %l6, 0
    bf50:	32 80 00 02 	bne,a   bf58 <_strtol_r+0x158>
    bf54:	90 20 00 08 	neg  %o0
    bf58:	80 a6 a0 00 	cmp  %i2, 0
    bf5c:	02 80 00 27 	be  bff8 <_strtol_r+0x1f8>
    bf60:	80 a4 a0 00 	cmp  %l2, 0
    bf64:	12 80 00 03 	bne  bf70 <_strtol_r+0x170>
    bf68:	82 04 7f ff 	add  %l1, -1, %g1
    bf6c:	82 10 00 19 	mov  %i1, %g1
    bf70:	10 80 00 22 	b  bff8 <_strtol_r+0x1f8>
    bf74:	c2 26 80 00 	st  %g1, [ %i2 ]
    bf78:	12 80 00 04 	bne  bf88 <_strtol_r+0x188>
    bf7c:	11 20 00 00 	sethi  %hi(0x80000000), %o0
    bf80:	03 1f ff ff 	sethi  %hi(0x7ffffc00), %g1
    bf84:	90 10 63 ff 	or  %g1, 0x3ff, %o0	! 7fffffff <_RAM_SIZE+0x7dffffff>
    bf88:	82 10 20 22 	mov  0x22, %g1
    bf8c:	10 bf ff f3 	b  bf58 <_strtol_r+0x158>
    bf90:	c2 26 00 00 	st  %g1, [ %i0 ]
    bf94:	02 bf ff ec 	be  bf44 <_strtol_r+0x144>
    bf98:	80 88 60 01 	btst  1, %g1
    bf9c:	12 80 00 03 	bne  bfa8 <_strtol_r+0x1a8>
    bfa0:	82 04 3f c9 	add  %l0, -55, %g1
    bfa4:	82 04 3f a9 	add  %l0, -87, %g1
    bfa8:	10 bf ff cd 	b  bedc <_strtol_r+0xdc>
    bfac:	a0 10 00 01 	mov  %g1, %l0
    bfb0:	9a 18 60 78 	xor  %g1, 0x78, %o5
    bfb4:	80 a0 00 0d 	cmp  %g0, %o5
    bfb8:	82 18 60 58 	xor  %g1, 0x58, %g1
    bfbc:	98 60 3f ff 	subx  %g0, -1, %o4
    bfc0:	80 a0 00 01 	cmp  %g0, %g1
    bfc4:	9a 60 3f ff 	subx  %g0, -1, %o5
    bfc8:	80 93 00 0d 	orcc  %o4, %o5, %g0
    bfcc:	02 bf ff a8 	be  be6c <_strtol_r+0x6c>
    bfd0:	80 a6 e0 00 	cmp  %i3, 0
    bfd4:	e0 4c 60 01 	ldsb  [ %l1 + 1 ], %l0
    bfd8:	b6 10 20 10 	mov  0x10, %i3
    bfdc:	10 bf ff a3 	b  be68 <_strtol_r+0x68>
    bfe0:	a2 04 60 02 	add  %l1, 2, %l1
    bfe4:	10 bf ff 96 	b  be3c <_strtol_r+0x3c>
    bfe8:	a2 04 60 01 	inc  %l1
    bfec:	e0 4c 40 00 	ldsb  [ %l1 ], %l0
    bff0:	10 bf ff fd 	b  bfe4 <_strtol_r+0x1e4>
    bff4:	ac 10 20 01 	mov  1, %l6
    bff8:	81 c7 e0 08 	ret 
    bffc:	91 e8 00 08 	restore  %g0, %o0, %o0

0000c000 <strtol>:
    c000:	03 00 00 3c 	sethi  %hi(0xf000), %g1
    c004:	da 00 60 98 	ld  [ %g1 + 0x98 ], %o5	! f098 <_impure_ptr>
    c008:	98 10 00 08 	mov  %o0, %o4
    c00c:	82 10 00 09 	mov  %o1, %g1
    c010:	96 10 00 0a 	mov  %o2, %o3
    c014:	90 10 00 0d 	mov  %o5, %o0
    c018:	94 10 00 01 	mov  %g1, %o2
    c01c:	92 10 00 0c 	mov  %o4, %o1
    c020:	82 13 c0 00 	mov  %o7, %g1
    c024:	7f ff ff 77 	call  be00 <_strtol_r>
    c028:	9e 10 40 00 	mov  %g1, %o7
    c02c:	01 00 00 00 	nop 

0000c030 <_strtoull_r>:
    c030:	9d e3 bf 98 	save  %sp, -104, %sp
    c034:	2f 00 00 3a 	sethi  %hi(0xe800), %l7
    c038:	a6 10 00 19 	mov  %i1, %l3
    c03c:	ba 10 20 00 	clr  %i5
    c040:	9a 15 e0 e0 	or  %l7, 0xe0, %o5
    c044:	e4 4c c0 00 	ldsb  [ %l3 ], %l2
    c048:	c2 0c 80 0d 	ldub  [ %l2 + %o5 ], %g1
    c04c:	80 88 60 08 	btst  8, %g1
    c050:	12 bf ff fd 	bne  c044 <_strtoull_r+0x14>
    c054:	a6 04 e0 01 	inc  %l3
    c058:	80 a4 a0 2d 	cmp  %l2, 0x2d
    c05c:	02 80 00 82 	be  c264 <_strtoull_r+0x234>
    c060:	80 a4 a0 2b 	cmp  %l2, 0x2b
    c064:	22 80 00 7e 	be,a   c25c <_strtoull_r+0x22c>
    c068:	e4 4c c0 00 	ldsb  [ %l3 ], %l2
    c06c:	80 a0 00 1b 	cmp  %g0, %i3
    c070:	9a 1e e0 10 	xor  %i3, 0x10, %o5
    c074:	82 60 3f ff 	subx  %g0, -1, %g1
    c078:	80 a0 00 0d 	cmp  %g0, %o5
    c07c:	98 60 3f ff 	subx  %g0, -1, %o4
    c080:	80 90 40 0c 	orcc  %g1, %o4, %g0
    c084:	02 80 00 06 	be  c09c <_strtoull_r+0x6c>
    c088:	80 a6 e0 00 	cmp  %i3, 0
    c08c:	80 a4 a0 30 	cmp  %l2, 0x30
    c090:	22 80 00 66 	be,a   c228 <_strtoull_r+0x1f8>
    c094:	c2 4c c0 00 	ldsb  [ %l3 ], %g1
    c098:	80 a6 e0 00 	cmp  %i3, 0
    c09c:	12 80 00 08 	bne  c0bc <_strtoull_r+0x8c>
    c0a0:	ad 3e e0 1f 	sra  %i3, 0x1f, %l6
    c0a4:	82 1c a0 30 	xor  %l2, 0x30, %g1
    c0a8:	80 a0 00 01 	cmp  %g0, %g1
    c0ac:	9a 60 20 00 	subx  %g0, 0, %o5
    c0b0:	b6 0b 60 02 	and  %o5, 2, %i3
    c0b4:	b6 06 e0 08 	add  %i3, 8, %i3
    c0b8:	ad 3e e0 1f 	sra  %i3, 0x1f, %l6
    c0bc:	96 10 00 1b 	mov  %i3, %o3
    c0c0:	94 10 00 16 	mov  %l6, %o2
    c0c4:	90 10 3f ff 	mov  -1, %o0
    c0c8:	40 00 01 d4 	call  c818 <__udivdi3>
    c0cc:	92 10 3f ff 	mov  -1, %o1
    c0d0:	96 10 00 1b 	mov  %i3, %o3
    c0d4:	a8 10 00 08 	mov  %o0, %l4
    c0d8:	aa 10 00 09 	mov  %o1, %l5
    c0dc:	94 10 00 16 	mov  %l6, %o2
    c0e0:	90 10 3f ff 	mov  -1, %o0
    c0e4:	40 00 02 9e 	call  cb5c <__umoddi3>
    c0e8:	92 10 3f ff 	mov  -1, %o1
    c0ec:	90 10 20 00 	clr  %o0
    c0f0:	a0 10 00 09 	mov  %o1, %l0
    c0f4:	96 10 20 00 	clr  %o3
    c0f8:	92 10 20 00 	clr  %o1
    c0fc:	82 15 e0 e0 	or  %l7, 0xe0, %g1
    c100:	c2 0c 80 01 	ldub  [ %l2 + %g1 ], %g1
    c104:	80 88 60 04 	btst  4, %g1
    c108:	02 80 00 41 	be  c20c <_strtoull_r+0x1dc>
    c10c:	80 88 60 03 	btst  3, %g1
    c110:	a4 04 bf d0 	add  %l2, -48, %l2
    c114:	80 a4 80 1b 	cmp  %l2, %i3
    c118:	16 80 00 29 	bge  c1bc <_strtoull_r+0x18c>
    c11c:	83 32 e0 1f 	srl  %o3, 0x1f, %g1
    c120:	80 a2 00 14 	cmp  %o0, %l4
    c124:	18 80 00 24 	bgu  c1b4 <_strtoull_r+0x184>
    c128:	9a 10 20 00 	clr  %o5
    c12c:	80 a2 00 14 	cmp  %o0, %l4
    c130:	02 80 00 1f 	be  c1ac <_strtoull_r+0x17c>
    c134:	80 a2 40 15 	cmp  %o1, %l5
    c138:	80 90 40 0d 	orcc  %g1, %o5, %g0
    c13c:	32 80 00 0d 	bne,a   c170 <_strtoull_r+0x140>
    c140:	96 10 3f ff 	mov  -1, %o3
    c144:	80 a2 00 14 	cmp  %o0, %l4
    c148:	02 80 00 14 	be  c198 <_strtoull_r+0x168>
    c14c:	9a 10 20 00 	clr  %o5
    c150:	80 a4 80 10 	cmp  %l2, %l0
    c154:	14 80 00 03 	bg  c160 <_strtoull_r+0x130>
    c158:	82 10 20 01 	mov  1, %g1
    c15c:	82 10 20 00 	clr  %g1
    c160:	80 8b 40 01 	btst  %o5, %g1
    c164:	22 80 00 06 	be,a   c17c <_strtoull_r+0x14c>
    c168:	96 10 00 1b 	mov  %i3, %o3
    c16c:	96 10 3f ff 	mov  -1, %o3
    c170:	e4 4c c0 00 	ldsb  [ %l3 ], %l2
    c174:	10 bf ff e2 	b  c0fc <_strtoull_r+0xcc>
    c178:	a6 04 e0 01 	inc  %l3
    c17c:	40 00 01 73 	call  c748 <__muldi3>
    c180:	94 10 00 16 	mov  %l6, %o2
    c184:	99 3c a0 1f 	sra  %l2, 0x1f, %o4
    c188:	92 82 40 12 	addcc  %o1, %l2, %o1
    c18c:	96 10 20 01 	mov  1, %o3
    c190:	10 bf ff f8 	b  c170 <_strtoull_r+0x140>
    c194:	90 42 00 0c 	addx  %o0, %o4, %o0
    c198:	80 a2 40 15 	cmp  %o1, %l5
    c19c:	22 bf ff ed 	be,a   c150 <_strtoull_r+0x120>
    c1a0:	9a 10 20 01 	mov  1, %o5
    c1a4:	10 bf ff ec 	b  c154 <_strtoull_r+0x124>
    c1a8:	80 a4 80 10 	cmp  %l2, %l0
    c1ac:	08 bf ff e4 	bleu  c13c <_strtoull_r+0x10c>
    c1b0:	80 90 40 0d 	orcc  %g1, %o5, %g0
    c1b4:	10 bf ff e1 	b  c138 <_strtoull_r+0x108>
    c1b8:	9a 10 20 01 	mov  1, %o5
    c1bc:	80 a2 e0 00 	cmp  %o3, 0
    c1c0:	06 80 00 0e 	bl  c1f8 <_strtoull_r+0x1c8>
    c1c4:	80 a7 60 00 	cmp  %i5, 0
    c1c8:	02 80 00 05 	be  c1dc <_strtoull_r+0x1ac>
    c1cc:	80 a6 a0 00 	cmp  %i2, 0
    c1d0:	92 a0 00 09 	subcc  %g0, %o1, %o1
    c1d4:	90 60 00 08 	subx  %g0, %o0, %o0
    c1d8:	80 a6 a0 00 	cmp  %i2, 0
    c1dc:	02 80 00 25 	be  c270 <_strtoull_r+0x240>
    c1e0:	80 a2 e0 00 	cmp  %o3, 0
    c1e4:	12 80 00 03 	bne  c1f0 <_strtoull_r+0x1c0>
    c1e8:	82 04 ff ff 	add  %l3, -1, %g1
    c1ec:	82 10 00 19 	mov  %i1, %g1
    c1f0:	10 80 00 20 	b  c270 <_strtoull_r+0x240>
    c1f4:	c2 26 80 00 	st  %g1, [ %i2 ]
    c1f8:	82 10 20 22 	mov  0x22, %g1
    c1fc:	90 10 3f ff 	mov  -1, %o0
    c200:	c2 26 00 00 	st  %g1, [ %i0 ]
    c204:	10 bf ff f5 	b  c1d8 <_strtoull_r+0x1a8>
    c208:	92 10 3f ff 	mov  -1, %o1
    c20c:	02 bf ff ec 	be  c1bc <_strtoull_r+0x18c>
    c210:	80 88 60 01 	btst  1, %g1
    c214:	12 80 00 03 	bne  c220 <_strtoull_r+0x1f0>
    c218:	82 04 bf c9 	add  %l2, -55, %g1
    c21c:	82 04 bf a9 	add  %l2, -87, %g1
    c220:	10 bf ff bd 	b  c114 <_strtoull_r+0xe4>
    c224:	a4 10 00 01 	mov  %g1, %l2
    c228:	9a 18 60 78 	xor  %g1, 0x78, %o5
    c22c:	80 a0 00 0d 	cmp  %g0, %o5
    c230:	82 18 60 58 	xor  %g1, 0x58, %g1
    c234:	98 60 3f ff 	subx  %g0, -1, %o4
    c238:	80 a0 00 01 	cmp  %g0, %g1
    c23c:	9a 60 3f ff 	subx  %g0, -1, %o5
    c240:	80 93 00 0d 	orcc  %o4, %o5, %g0
    c244:	02 bf ff 96 	be  c09c <_strtoull_r+0x6c>
    c248:	80 a6 e0 00 	cmp  %i3, 0
    c24c:	e4 4c e0 01 	ldsb  [ %l3 + 1 ], %l2
    c250:	b6 10 20 10 	mov  0x10, %i3
    c254:	10 bf ff 91 	b  c098 <_strtoull_r+0x68>
    c258:	a6 04 e0 02 	add  %l3, 2, %l3
    c25c:	10 bf ff 84 	b  c06c <_strtoull_r+0x3c>
    c260:	a6 04 e0 01 	inc  %l3
    c264:	e4 4c c0 00 	ldsb  [ %l3 ], %l2
    c268:	10 bf ff fd 	b  c25c <_strtoull_r+0x22c>
    c26c:	ba 10 20 01 	mov  1, %i5
    c270:	b0 10 00 08 	mov  %o0, %i0
    c274:	81 c7 e0 08 	ret 
    c278:	93 e8 00 09 	restore  %g0, %o1, %o1

0000c27c <_strtoul_r>:
    c27c:	9d e3 bf 98 	save  %sp, -104, %sp
    c280:	2b 00 00 3a 	sethi  %hi(0xe800), %l5
    c284:	a2 10 00 19 	mov  %i1, %l1
    c288:	ac 10 20 00 	clr  %l6
    c28c:	9a 15 60 e0 	or  %l5, 0xe0, %o5
    c290:	e0 4c 40 00 	ldsb  [ %l1 ], %l0
    c294:	c2 0c 00 0d 	ldub  [ %l0 + %o5 ], %g1
    c298:	80 88 60 08 	btst  8, %g1
    c29c:	12 bf ff fd 	bne  c290 <_strtoul_r+0x14>
    c2a0:	a2 04 60 01 	inc  %l1
    c2a4:	80 a4 20 2d 	cmp  %l0, 0x2d
    c2a8:	02 80 00 68 	be  c448 <_strtoul_r+0x1cc>
    c2ac:	80 a4 20 2b 	cmp  %l0, 0x2b
    c2b0:	22 80 00 64 	be,a   c440 <_strtoul_r+0x1c4>
    c2b4:	e0 4c 40 00 	ldsb  [ %l1 ], %l0
    c2b8:	80 a0 00 1b 	cmp  %g0, %i3
    c2bc:	9a 1e e0 10 	xor  %i3, 0x10, %o5
    c2c0:	82 60 3f ff 	subx  %g0, -1, %g1
    c2c4:	80 a0 00 0d 	cmp  %g0, %o5
    c2c8:	98 60 3f ff 	subx  %g0, -1, %o4
    c2cc:	80 90 40 0c 	orcc  %g1, %o4, %g0
    c2d0:	02 80 00 06 	be  c2e8 <_strtoul_r+0x6c>
    c2d4:	80 a6 e0 00 	cmp  %i3, 0
    c2d8:	80 a4 20 30 	cmp  %l0, 0x30
    c2dc:	22 80 00 4c 	be,a   c40c <_strtoul_r+0x190>
    c2e0:	c2 4c 40 00 	ldsb  [ %l1 ], %g1
    c2e4:	80 a6 e0 00 	cmp  %i3, 0
    c2e8:	12 80 00 08 	bne  c308 <_strtoul_r+0x8c>
    c2ec:	92 10 00 1b 	mov  %i3, %o1
    c2f0:	82 1c 20 30 	xor  %l0, 0x30, %g1
    c2f4:	80 a0 00 01 	cmp  %g0, %g1
    c2f8:	9a 60 20 00 	subx  %g0, 0, %o5
    c2fc:	b6 0b 60 02 	and  %o5, 2, %i3
    c300:	b6 06 e0 08 	add  %i3, 8, %i3
    c304:	92 10 00 1b 	mov  %i3, %o1
    c308:	7f ff d8 2e 	call  23c0 <.udiv>
    c30c:	90 10 3f ff 	mov  -1, %o0
    c310:	92 10 00 1b 	mov  %i3, %o1
    c314:	a6 10 00 08 	mov  %o0, %l3
    c318:	7f ff d8 d6 	call  2670 <.urem>
    c31c:	90 10 3f ff 	mov  -1, %o0
    c320:	a4 10 20 00 	clr  %l2
    c324:	a8 10 00 08 	mov  %o0, %l4
    c328:	90 10 20 00 	clr  %o0
    c32c:	82 15 60 e0 	or  %l5, 0xe0, %g1
    c330:	c2 0c 00 01 	ldub  [ %l0 + %g1 ], %g1
    c334:	80 88 60 04 	btst  4, %g1
    c338:	02 80 00 2e 	be  c3f0 <_strtoul_r+0x174>
    c33c:	80 88 60 03 	btst  3, %g1
    c340:	a0 04 3f d0 	add  %l0, -48, %l0
    c344:	80 a4 00 1b 	cmp  %l0, %i3
    c348:	16 80 00 19 	bge  c3ac <_strtoul_r+0x130>
    c34c:	80 a4 c0 08 	cmp  %l3, %o0
    c350:	9b 34 a0 1f 	srl  %l2, 0x1f, %o5
    c354:	82 40 20 00 	addx  %g0, 0, %g1
    c358:	80 93 40 01 	orcc  %o5, %g1, %g0
    c35c:	32 80 00 0d 	bne,a   c390 <_strtoul_r+0x114>
    c360:	a4 10 3f ff 	mov  -1, %l2
    c364:	82 1a 00 13 	xor  %o0, %l3, %g1
    c368:	80 a0 00 01 	cmp  %g0, %g1
    c36c:	82 60 3f ff 	subx  %g0, -1, %g1
    c370:	80 a4 00 14 	cmp  %l0, %l4
    c374:	14 80 00 03 	bg  c380 <_strtoul_r+0x104>
    c378:	9a 10 20 01 	mov  1, %o5
    c37c:	9a 10 20 00 	clr  %o5
    c380:	80 88 40 0d 	btst  %g1, %o5
    c384:	02 80 00 06 	be  c39c <_strtoul_r+0x120>
    c388:	92 10 00 1b 	mov  %i3, %o1
    c38c:	a4 10 3f ff 	mov  -1, %l2
    c390:	e0 4c 40 00 	ldsb  [ %l1 ], %l0
    c394:	10 bf ff e6 	b  c32c <_strtoul_r+0xb0>
    c398:	a2 04 60 01 	inc  %l1
    c39c:	7f ff d7 cf 	call  22d8 <.umul>
    c3a0:	a4 10 20 01 	mov  1, %l2
    c3a4:	10 bf ff fb 	b  c390 <_strtoul_r+0x114>
    c3a8:	90 02 00 10 	add  %o0, %l0, %o0
    c3ac:	80 a4 a0 00 	cmp  %l2, 0
    c3b0:	06 80 00 0c 	bl  c3e0 <_strtoul_r+0x164>
    c3b4:	80 a5 a0 00 	cmp  %l6, 0
    c3b8:	32 80 00 02 	bne,a   c3c0 <_strtoul_r+0x144>
    c3bc:	90 20 00 08 	neg  %o0
    c3c0:	80 a6 a0 00 	cmp  %i2, 0
    c3c4:	02 80 00 24 	be  c454 <_strtoul_r+0x1d8>
    c3c8:	80 a4 a0 00 	cmp  %l2, 0
    c3cc:	12 80 00 03 	bne  c3d8 <_strtoul_r+0x15c>
    c3d0:	82 04 7f ff 	add  %l1, -1, %g1
    c3d4:	82 10 00 19 	mov  %i1, %g1
    c3d8:	10 80 00 1f 	b  c454 <_strtoul_r+0x1d8>
    c3dc:	c2 26 80 00 	st  %g1, [ %i2 ]
    c3e0:	82 10 20 22 	mov  0x22, %g1
    c3e4:	90 10 3f ff 	mov  -1, %o0
    c3e8:	10 bf ff f6 	b  c3c0 <_strtoul_r+0x144>
    c3ec:	c2 26 00 00 	st  %g1, [ %i0 ]
    c3f0:	02 bf ff ef 	be  c3ac <_strtoul_r+0x130>
    c3f4:	80 88 60 01 	btst  1, %g1
    c3f8:	12 80 00 03 	bne  c404 <_strtoul_r+0x188>
    c3fc:	82 04 3f c9 	add  %l0, -55, %g1
    c400:	82 04 3f a9 	add  %l0, -87, %g1
    c404:	10 bf ff d0 	b  c344 <_strtoul_r+0xc8>
    c408:	a0 10 00 01 	mov  %g1, %l0
    c40c:	9a 18 60 78 	xor  %g1, 0x78, %o5
    c410:	80 a0 00 0d 	cmp  %g0, %o5
    c414:	82 18 60 58 	xor  %g1, 0x58, %g1
    c418:	98 60 3f ff 	subx  %g0, -1, %o4
    c41c:	80 a0 00 01 	cmp  %g0, %g1
    c420:	9a 60 3f ff 	subx  %g0, -1, %o5
    c424:	80 93 00 0d 	orcc  %o4, %o5, %g0
    c428:	02 bf ff b0 	be  c2e8 <_strtoul_r+0x6c>
    c42c:	80 a6 e0 00 	cmp  %i3, 0
    c430:	e0 4c 60 01 	ldsb  [ %l1 + 1 ], %l0
    c434:	b6 10 20 10 	mov  0x10, %i3
    c438:	10 bf ff ab 	b  c2e4 <_strtoul_r+0x68>
    c43c:	a2 04 60 02 	add  %l1, 2, %l1
    c440:	10 bf ff 9e 	b  c2b8 <_strtoul_r+0x3c>
    c444:	a2 04 60 01 	inc  %l1
    c448:	e0 4c 40 00 	ldsb  [ %l1 ], %l0
    c44c:	10 bf ff fd 	b  c440 <_strtoul_r+0x1c4>
    c450:	ac 10 20 01 	mov  1, %l6
    c454:	81 c7 e0 08 	ret 
    c458:	91 e8 00 08 	restore  %g0, %o0, %o0

0000c45c <strtoul>:
    c45c:	03 00 00 3c 	sethi  %hi(0xf000), %g1
    c460:	da 00 60 98 	ld  [ %g1 + 0x98 ], %o5	! f098 <_impure_ptr>
    c464:	98 10 00 08 	mov  %o0, %o4
    c468:	82 10 00 09 	mov  %o1, %g1
    c46c:	96 10 00 0a 	mov  %o2, %o3
    c470:	90 10 00 0d 	mov  %o5, %o0
    c474:	94 10 00 01 	mov  %g1, %o2
    c478:	92 10 00 0c 	mov  %o4, %o1
    c47c:	82 13 c0 00 	mov  %o7, %g1
    c480:	7f ff ff 7f 	call  c27c <_strtoul_r>
    c484:	9e 10 40 00 	mov  %g1, %o7
    c488:	01 00 00 00 	nop 

0000c48c <__submore>:
    c48c:	9d e3 bf 98 	save  %sp, -104, %sp
    c490:	d2 06 20 30 	ld  [ %i0 + 0x30 ], %o1
    c494:	82 06 20 40 	add  %i0, 0x40, %g1
    c498:	80 a2 40 01 	cmp  %o1, %g1
    c49c:	02 80 00 14 	be  c4ec <__submore+0x60>
    c4a0:	a4 10 00 18 	mov  %i0, %l2
    c4a4:	e0 06 20 34 	ld  [ %i0 + 0x34 ], %l0
    c4a8:	d0 06 20 54 	ld  [ %i0 + 0x54 ], %o0
    c4ac:	a6 04 00 10 	add  %l0, %l0, %l3
    c4b0:	b0 10 3f ff 	mov  -1, %i0
    c4b4:	7f ff df b6 	call  438c <_realloc_r>
    c4b8:	94 10 00 13 	mov  %l3, %o2
    c4bc:	a2 92 20 00 	orcc  %o0, 0, %l1
    c4c0:	02 80 00 1e 	be  c538 <__submore+0xac>
    c4c4:	94 10 00 10 	mov  %l0, %o2
    c4c8:	92 10 00 11 	mov  %l1, %o1
    c4cc:	a0 04 40 10 	add  %l1, %l0, %l0
    c4d0:	7f ff f5 20 	call  9950 <memcpy>
    c4d4:	90 10 00 10 	mov  %l0, %o0
    c4d8:	e6 24 a0 34 	st  %l3, [ %l2 + 0x34 ]
    c4dc:	e0 24 80 00 	st  %l0, [ %l2 ]
    c4e0:	e2 24 a0 30 	st  %l1, [ %l2 + 0x30 ]
    c4e4:	10 80 00 15 	b  c538 <__submore+0xac>
    c4e8:	b0 10 20 00 	clr  %i0
    c4ec:	d0 06 20 54 	ld  [ %i0 + 0x54 ], %o0
    c4f0:	92 10 24 00 	mov  0x400, %o1
    c4f4:	7f ff dd ed 	call  3ca8 <_malloc_r>
    c4f8:	b0 10 3f ff 	mov  -1, %i0
    c4fc:	a2 92 20 00 	orcc  %o0, 0, %l1
    c500:	02 80 00 0e 	be  c538 <__submore+0xac>
    c504:	82 10 24 00 	mov  0x400, %g1
    c508:	e2 24 a0 30 	st  %l1, [ %l2 + 0x30 ]
    c50c:	a2 04 63 fd 	add  %l1, 0x3fd, %l1
    c510:	c2 24 a0 34 	st  %g1, [ %l2 + 0x34 ]
    c514:	a0 10 20 02 	mov  2, %l0
    c518:	82 04 00 12 	add  %l0, %l2, %g1
    c51c:	da 08 60 40 	ldub  [ %g1 + 0x40 ], %o5
    c520:	da 2c 40 10 	stb  %o5, [ %l1 + %l0 ]
    c524:	a0 84 3f ff 	addcc  %l0, -1, %l0
    c528:	1c bf ff fd 	bpos  c51c <__submore+0x90>
    c52c:	82 04 00 12 	add  %l0, %l2, %g1
    c530:	10 bf ff ed 	b  c4e4 <__submore+0x58>
    c534:	e2 24 80 00 	st  %l1, [ %l2 ]
    c538:	81 c7 e0 08 	ret 
    c53c:	81 e8 00 00 	restore 

0000c540 <ungetc>:
    c540:	9d e3 bf 98 	save  %sp, -104, %sp
    c544:	80 a6 3f ff 	cmp  %i0, -1
    c548:	02 80 00 64 	be  c6d8 <ungetc+0x198>
    c54c:	98 10 3f ff 	mov  -1, %o4
    c550:	d0 06 60 54 	ld  [ %i1 + 0x54 ], %o0
    c554:	80 a2 20 00 	cmp  %o0, 0
    c558:	32 80 00 07 	bne,a   c574 <ungetc+0x34>
    c55c:	c2 02 20 38 	ld  [ %o0 + 0x38 ], %g1
    c560:	03 00 00 3c 	sethi  %hi(0xf000), %g1
    c564:	da 00 60 98 	ld  [ %g1 + 0x98 ], %o5	! f098 <_impure_ptr>
    c568:	da 26 60 54 	st  %o5, [ %i1 + 0x54 ]
    c56c:	90 10 00 0d 	mov  %o5, %o0
    c570:	c2 02 20 38 	ld  [ %o0 + 0x38 ], %g1
    c574:	80 a0 60 00 	cmp  %g1, 0
    c578:	02 80 00 54 	be  c6c8 <ungetc+0x188>
    c57c:	01 00 00 00 	nop 
    c580:	c2 16 60 0c 	lduh  [ %i1 + 0xc ], %g1
    c584:	82 08 7f df 	and  %g1, -33, %g1
    c588:	9b 28 60 10 	sll  %g1, 0x10, %o5
    c58c:	9b 33 60 10 	srl  %o5, 0x10, %o5
    c590:	80 8b 60 04 	btst  4, %o5
    c594:	12 80 00 0b 	bne  c5c0 <ungetc+0x80>
    c598:	c2 36 60 0c 	sth  %g1, [ %i1 + 0xc ]
    c59c:	80 8b 60 10 	btst  0x10, %o5
    c5a0:	02 80 00 4e 	be  c6d8 <ungetc+0x198>
    c5a4:	98 10 3f ff 	mov  -1, %o4
    c5a8:	80 8b 60 08 	btst  8, %o5
    c5ac:	12 80 00 3c 	bne  c69c <ungetc+0x15c>
    c5b0:	01 00 00 00 	nop 
    c5b4:	c2 16 60 0c 	lduh  [ %i1 + 0xc ], %g1
    c5b8:	82 10 60 04 	or  %g1, 4, %g1
    c5bc:	c2 36 60 0c 	sth  %g1, [ %i1 + 0xc ]
    c5c0:	c2 06 60 30 	ld  [ %i1 + 0x30 ], %g1
    c5c4:	80 a0 60 00 	cmp  %g1, 0
    c5c8:	02 80 00 16 	be  c620 <ungetc+0xe0>
    c5cc:	b0 0e 20 ff 	and  %i0, 0xff, %i0
    c5d0:	da 06 60 04 	ld  [ %i1 + 4 ], %o5
    c5d4:	c2 06 60 34 	ld  [ %i1 + 0x34 ], %g1
    c5d8:	80 a3 40 01 	cmp  %o5, %g1
    c5dc:	16 80 00 0b 	bge  c608 <ungetc+0xc8>
    c5e0:	01 00 00 00 	nop 
    c5e4:	da 06 40 00 	ld  [ %i1 ], %o5
    c5e8:	98 10 00 18 	mov  %i0, %o4
    c5ec:	82 03 7f ff 	add  %o5, -1, %g1
    c5f0:	c2 26 40 00 	st  %g1, [ %i1 ]
    c5f4:	f0 2b 7f ff 	stb  %i0, [ %o5 + -1 ]
    c5f8:	c2 06 60 04 	ld  [ %i1 + 4 ], %g1
    c5fc:	82 00 60 01 	inc  %g1
    c600:	10 80 00 36 	b  c6d8 <ungetc+0x198>
    c604:	c2 26 60 04 	st  %g1, [ %i1 + 4 ]
    c608:	7f ff ff a1 	call  c48c <__submore>
    c60c:	90 10 00 19 	mov  %i1, %o0
    c610:	80 a2 20 00 	cmp  %o0, 0
    c614:	02 bf ff f4 	be  c5e4 <ungetc+0xa4>
    c618:	98 10 3f ff 	mov  -1, %o4
    c61c:	30 80 00 2f 	b,a   c6d8 <ungetc+0x198>
    c620:	c2 06 60 10 	ld  [ %i1 + 0x10 ], %g1
    c624:	80 a0 60 00 	cmp  %g1, 0
    c628:	02 80 00 09 	be  c64c <ungetc+0x10c>
    c62c:	da 06 40 00 	ld  [ %i1 ], %o5
    c630:	80 a3 40 01 	cmp  %o5, %g1
    c634:	28 80 00 07 	bleu,a   c650 <ungetc+0x110>
    c638:	c2 06 60 04 	ld  [ %i1 + 4 ], %g1
    c63c:	c2 0b 7f ff 	ldub  [ %o5 + -1 ], %g1
    c640:	80 a0 40 18 	cmp  %g1, %i0
    c644:	22 80 00 10 	be,a   c684 <ungetc+0x144>
    c648:	c2 06 60 04 	ld  [ %i1 + 4 ], %g1
    c64c:	c2 06 60 04 	ld  [ %i1 + 4 ], %g1
    c650:	da 26 60 38 	st  %o5, [ %i1 + 0x38 ]
    c654:	c2 26 60 3c 	st  %g1, [ %i1 + 0x3c ]
    c658:	9a 10 20 03 	mov  3, %o5
    c65c:	82 06 60 40 	add  %i1, 0x40, %g1
    c660:	da 26 60 34 	st  %o5, [ %i1 + 0x34 ]
    c664:	c2 26 60 30 	st  %g1, [ %i1 + 0x30 ]
    c668:	9a 10 20 01 	mov  1, %o5
    c66c:	82 06 60 42 	add  %i1, 0x42, %g1
    c670:	f0 2e 60 42 	stb  %i0, [ %i1 + 0x42 ]
    c674:	98 10 00 18 	mov  %i0, %o4
    c678:	c2 26 40 00 	st  %g1, [ %i1 ]
    c67c:	10 80 00 17 	b  c6d8 <ungetc+0x198>
    c680:	da 26 60 04 	st  %o5, [ %i1 + 4 ]
    c684:	9a 03 7f ff 	add  %o5, -1, %o5
    c688:	82 00 60 01 	inc  %g1
    c68c:	da 26 40 00 	st  %o5, [ %i1 ]
    c690:	c2 26 60 04 	st  %g1, [ %i1 + 4 ]
    c694:	10 80 00 11 	b  c6d8 <ungetc+0x198>
    c698:	98 10 00 18 	mov  %i0, %o4
    c69c:	7f ff d9 52 	call  2be4 <fflush>
    c6a0:	90 10 00 19 	mov  %i1, %o0
    c6a4:	80 a2 20 00 	cmp  %o0, 0
    c6a8:	12 80 00 0c 	bne  c6d8 <ungetc+0x198>
    c6ac:	98 10 3f ff 	mov  -1, %o4
    c6b0:	c2 16 60 0c 	lduh  [ %i1 + 0xc ], %g1
    c6b4:	c0 26 60 08 	clr  [ %i1 + 8 ]
    c6b8:	82 08 7f f7 	and  %g1, -9, %g1
    c6bc:	c0 26 60 18 	clr  [ %i1 + 0x18 ]
    c6c0:	10 bf ff bd 	b  c5b4 <ungetc+0x74>
    c6c4:	c2 36 60 0c 	sth  %g1, [ %i1 + 0xc ]
    c6c8:	7f ff d9 f4 	call  2e98 <__sinit>
    c6cc:	01 00 00 00 	nop 
    c6d0:	10 bf ff ad 	b  c584 <ungetc+0x44>
    c6d4:	c2 16 60 0c 	lduh  [ %i1 + 0xc ], %g1
    c6d8:	81 c7 e0 08 	ret 
    c6dc:	91 e8 00 0c 	restore  %g0, %o4, %o0

0000c6e0 <open>:
    c6e0:	81 c0 20 40 	jmp  0x40
    c6e4:	01 00 00 00 	nop 

0000c6e8 <creat>:
    c6e8:	81 c0 20 44 	jmp  0x44
    c6ec:	01 00 00 00 	nop 

0000c6f0 <close>:
    c6f0:	81 c0 20 48 	jmp  0x48
    c6f4:	01 00 00 00 	nop 

0000c6f8 <read>:
    c6f8:	81 c0 20 4c 	jmp  0x4c
    c6fc:	01 00 00 00 	nop 

0000c700 <write>:
    c700:	81 c0 20 50 	jmp  0x50
    c704:	01 00 00 00 	nop 

0000c708 <isatty>:
    c708:	81 c0 20 54 	jmp  0x54
    c70c:	01 00 00 00 	nop 

0000c710 <sbrk>:
    c710:	81 c0 20 58 	jmp  0x58
    c714:	01 00 00 00 	nop 

0000c718 <lseek>:
    c718:	81 c0 20 5c 	jmp  0x5c
    c71c:	01 00 00 00 	nop 

0000c720 <fstat>:
    c720:	81 c0 20 60 	jmp  0x60
    c724:	01 00 00 00 	nop 

0000c728 <_exit>:
    c728:	81 c0 20 64 	jmp  0x64
    c72c:	01 00 00 00 	nop 

0000c730 <times>:
    c730:	81 c0 20 68 	jmp  0x68
    c734:	01 00 00 00 	nop 

0000c738 <time>:
    c738:	81 c0 20 6c 	jmp  0x6c
    c73c:	01 00 00 00 	nop 

0000c740 <random>:
    c740:	81 c0 20 70 	jmp  0x70
    c744:	01 00 00 00 	nop 

0000c748 <__muldi3>:
    c748:	9d e3 bf 98 	save  %sp, -104, %sp
    c74c:	81 80 00 19 	wr  %g0, %i1, %y
    c750:	9b 3e e0 1f 	sra  %i3, 0x1f, %o5
    c754:	9a 0e 40 0d 	and  %i1, %o5, %o5
    c758:	82 88 20 00 	andcc  %g0, 0, %g1
    c75c:	83 20 40 1b 	mulscc  %g1, %i3, %g1
    c760:	83 20 40 1b 	mulscc  %g1, %i3, %g1
    c764:	83 20 40 1b 	mulscc  %g1, %i3, %g1
    c768:	83 20 40 1b 	mulscc  %g1, %i3, %g1
    c76c:	83 20 40 1b 	mulscc  %g1, %i3, %g1
    c770:	83 20 40 1b 	mulscc  %g1, %i3, %g1
    c774:	83 20 40 1b 	mulscc  %g1, %i3, %g1
    c778:	83 20 40 1b 	mulscc  %g1, %i3, %g1
    c77c:	83 20 40 1b 	mulscc  %g1, %i3, %g1
    c780:	83 20 40 1b 	mulscc  %g1, %i3, %g1
    c784:	83 20 40 1b 	mulscc  %g1, %i3, %g1
    c788:	83 20 40 1b 	mulscc  %g1, %i3, %g1
    c78c:	83 20 40 1b 	mulscc  %g1, %i3, %g1
    c790:	83 20 40 1b 	mulscc  %g1, %i3, %g1
    c794:	83 20 40 1b 	mulscc  %g1, %i3, %g1
    c798:	83 20 40 1b 	mulscc  %g1, %i3, %g1
    c79c:	83 20 40 1b 	mulscc  %g1, %i3, %g1
    c7a0:	83 20 40 1b 	mulscc  %g1, %i3, %g1
    c7a4:	83 20 40 1b 	mulscc  %g1, %i3, %g1
    c7a8:	83 20 40 1b 	mulscc  %g1, %i3, %g1
    c7ac:	83 20 40 1b 	mulscc  %g1, %i3, %g1
    c7b0:	83 20 40 1b 	mulscc  %g1, %i3, %g1
    c7b4:	83 20 40 1b 	mulscc  %g1, %i3, %g1
    c7b8:	83 20 40 1b 	mulscc  %g1, %i3, %g1
    c7bc:	83 20 40 1b 	mulscc  %g1, %i3, %g1
    c7c0:	83 20 40 1b 	mulscc  %g1, %i3, %g1
    c7c4:	83 20 40 1b 	mulscc  %g1, %i3, %g1
    c7c8:	83 20 40 1b 	mulscc  %g1, %i3, %g1
    c7cc:	83 20 40 1b 	mulscc  %g1, %i3, %g1
    c7d0:	83 20 40 1b 	mulscc  %g1, %i3, %g1
    c7d4:	83 20 40 1b 	mulscc  %g1, %i3, %g1
    c7d8:	83 20 40 1b 	mulscc  %g1, %i3, %g1
    c7dc:	83 20 60 00 	mulscc  %g1, 0, %g1
    c7e0:	a4 00 40 0d 	add  %g1, %o5, %l2
    c7e4:	99 40 00 00 	rd  %y, %o4
    c7e8:	a2 10 00 19 	mov  %i1, %l1
    c7ec:	92 10 00 1a 	mov  %i2, %o1
    c7f0:	b2 10 00 0c 	mov  %o4, %i1
    c7f4:	7f ff d6 b9 	call  22d8 <.umul>
    c7f8:	90 10 00 11 	mov  %l1, %o0
    c7fc:	92 10 00 1b 	mov  %i3, %o1
    c800:	a8 10 00 08 	mov  %o0, %l4
    c804:	7f ff d6 b5 	call  22d8 <.umul>
    c808:	90 10 00 18 	mov  %i0, %o0
    c80c:	a8 05 00 08 	add  %l4, %o0, %l4
    c810:	81 c7 e0 08 	ret 
    c814:	91 ed 00 12 	restore  %l4, %l2, %o0

0000c818 <__udivdi3>:
    c818:	9d e3 bf 98 	save  %sp, -104, %sp
    c81c:	a0 10 00 18 	mov  %i0, %l0
    c820:	92 96 a0 00 	orcc  %i2, 0, %o1
    c824:	a2 10 20 00 	clr  %l1
    c828:	90 10 00 1b 	mov  %i3, %o0
    c82c:	12 80 00 51 	bne  c970 <__udivdi3+0x158>
    c830:	b0 10 00 19 	mov  %i1, %i0
    c834:	80 a6 c0 10 	cmp  %i3, %l0
    c838:	08 80 00 1a 	bleu  c8a0 <__udivdi3+0x88>
    c83c:	80 a6 e0 00 	cmp  %i3, 0
    c840:	98 10 00 19 	mov  %i1, %o4
    c844:	82 10 20 20 	mov  0x20, %g1
    c848:	80 a4 00 1b 	cmp  %l0, %i3
    c84c:	0a 80 00 0c 	bcs  c87c <__udivdi3+0x64>
    c850:	98 c3 00 0c 	addxcc  %o4, %o4, %o4
    c854:	a0 24 00 1b 	sub  %l0, %i3, %l0
    c858:	a0 44 00 10 	addx  %l0, %l0, %l0
    c85c:	82 a0 60 01 	deccc  %g1
    c860:	12 bf ff fb 	bne  c84c <__udivdi3+0x34>
    c864:	80 a4 00 1b 	cmp  %l0, %i3
    c868:	0a 80 00 0b 	bcs  c894 <__udivdi3+0x7c>
    c86c:	98 c3 00 0c 	addxcc  %o4, %o4, %o4
    c870:	10 80 00 09 	b  c894 <__udivdi3+0x7c>
    c874:	a0 24 00 1b 	sub  %l0, %i3, %l0
    c878:	a0 24 00 1b 	sub  %l0, %i3, %l0
    c87c:	a0 c4 00 10 	addxcc  %l0, %l0, %l0
    c880:	1a bf ff f8 	bcc  c860 <__udivdi3+0x48>
    c884:	82 a0 60 01 	deccc  %g1
    c888:	12 bf ff fc 	bne  c878 <__udivdi3+0x60>
    c88c:	98 83 00 0c 	addcc  %o4, %o4, %o4
    c890:	a0 24 00 1b 	sub  %l0, %i3, %l0
    c894:	98 3b 20 00 	xnor  %o4, 0, %o4
    c898:	10 80 00 ae 	b  cb50 <__udivdi3+0x338>
    c89c:	9a 10 20 00 	clr  %o5
    c8a0:	12 80 00 06 	bne  c8b8 <__udivdi3+0xa0>
    c8a4:	9a 10 00 10 	mov  %l0, %o5
    c8a8:	90 10 20 01 	mov  1, %o0
    c8ac:	7f ff d6 c5 	call  23c0 <.udiv>
    c8b0:	92 10 20 00 	clr  %o1
    c8b4:	9a 10 00 10 	mov  %l0, %o5
    c8b8:	98 10 00 18 	mov  %i0, %o4
    c8bc:	82 10 20 20 	mov  0x20, %g1
    c8c0:	80 a4 40 08 	cmp  %l1, %o0
    c8c4:	0a 80 00 0c 	bcs  c8f4 <__udivdi3+0xdc>
    c8c8:	9a c3 40 0d 	addxcc  %o5, %o5, %o5
    c8cc:	a2 24 40 08 	sub  %l1, %o0, %l1
    c8d0:	a2 44 40 11 	addx  %l1, %l1, %l1
    c8d4:	82 a0 60 01 	deccc  %g1
    c8d8:	12 bf ff fb 	bne  c8c4 <__udivdi3+0xac>
    c8dc:	80 a4 40 08 	cmp  %l1, %o0
    c8e0:	0a 80 00 0b 	bcs  c90c <__udivdi3+0xf4>
    c8e4:	9a c3 40 0d 	addxcc  %o5, %o5, %o5
    c8e8:	10 80 00 09 	b  c90c <__udivdi3+0xf4>
    c8ec:	a2 24 40 08 	sub  %l1, %o0, %l1
    c8f0:	a2 24 40 08 	sub  %l1, %o0, %l1
    c8f4:	a2 c4 40 11 	addxcc  %l1, %l1, %l1
    c8f8:	1a bf ff f8 	bcc  c8d8 <__udivdi3+0xc0>
    c8fc:	82 a0 60 01 	deccc  %g1
    c900:	12 bf ff fc 	bne  c8f0 <__udivdi3+0xd8>
    c904:	9a 83 40 0d 	addcc  %o5, %o5, %o5
    c908:	a2 24 40 08 	sub  %l1, %o0, %l1
    c90c:	9a 3b 60 00 	xnor  %o5, 0, %o5
    c910:	a0 10 00 11 	mov  %l1, %l0
    c914:	82 10 20 20 	mov  0x20, %g1
    c918:	80 a4 00 08 	cmp  %l0, %o0
    c91c:	0a 80 00 0c 	bcs  c94c <__udivdi3+0x134>
    c920:	98 c3 00 0c 	addxcc  %o4, %o4, %o4
    c924:	a0 24 00 08 	sub  %l0, %o0, %l0
    c928:	a0 44 00 10 	addx  %l0, %l0, %l0
    c92c:	82 a0 60 01 	deccc  %g1
    c930:	12 bf ff fb 	bne  c91c <__udivdi3+0x104>
    c934:	80 a4 00 08 	cmp  %l0, %o0
    c938:	0a 80 00 0b 	bcs  c964 <__udivdi3+0x14c>
    c93c:	98 c3 00 0c 	addxcc  %o4, %o4, %o4
    c940:	10 80 00 09 	b  c964 <__udivdi3+0x14c>
    c944:	a0 24 00 08 	sub  %l0, %o0, %l0
    c948:	a0 24 00 08 	sub  %l0, %o0, %l0
    c94c:	a0 c4 00 10 	addxcc  %l0, %l0, %l0
    c950:	1a bf ff f8 	bcc  c930 <__udivdi3+0x118>
    c954:	82 a0 60 01 	deccc  %g1
    c958:	12 bf ff fc 	bne  c948 <__udivdi3+0x130>
    c95c:	98 83 00 0c 	addcc  %o4, %o4, %o4
    c960:	a0 24 00 08 	sub  %l0, %o0, %l0
    c964:	98 3b 20 00 	xnor  %o4, 0, %o4
    c968:	10 80 00 7b 	b  cb54 <__udivdi3+0x33c>
    c96c:	b0 10 00 0d 	mov  %o5, %i0
    c970:	80 a2 40 10 	cmp  %o1, %l0
    c974:	98 10 20 00 	clr  %o4
    c978:	18 80 00 76 	bgu  cb50 <__udivdi3+0x338>
    c97c:	9a 10 20 00 	clr  %o5
    c980:	03 00 00 3f 	sethi  %hi(0xfc00), %g1
    c984:	82 10 63 ff 	or  %g1, 0x3ff, %g1	! ffff <rgnNodes+0x6d3>
    c988:	80 a2 40 01 	cmp  %o1, %g1
    c98c:	18 80 00 6b 	bgu  cb38 <__udivdi3+0x320>
    c990:	03 00 3f ff 	sethi  %hi(0xfffc00), %g1
    c994:	80 a2 61 00 	cmp  %o1, 0x100
    c998:	82 60 3f ff 	subx  %g0, -1, %g1
    c99c:	97 28 60 03 	sll  %g1, 3, %o3
    c9a0:	83 32 40 0b 	srl  %o1, %o3, %g1
    c9a4:	1b 00 00 3b 	sethi  %hi(0xec00), %o5
    c9a8:	9a 13 60 10 	or  %o5, 0x10, %o5	! ec10 <__clz_tab>
    c9ac:	d8 0b 40 01 	ldub  [ %o5 + %g1 ], %o4
    c9b0:	9a 10 20 20 	mov  0x20, %o5
    c9b4:	98 03 00 0b 	add  %o4, %o3, %o4
    c9b8:	9e a3 40 0c 	subcc  %o5, %o4, %o7
    c9bc:	12 80 00 0b 	bne  c9e8 <__udivdi3+0x1d0>
    c9c0:	9a 23 40 0f 	sub  %o5, %o7, %o5
    c9c4:	80 a2 40 10 	cmp  %o1, %l0
    c9c8:	9a 40 20 00 	addx  %g0, 0, %o5
    c9cc:	80 a6 00 08 	cmp  %i0, %o0
    c9d0:	82 60 3f ff 	subx  %g0, -1, %g1
    c9d4:	80 93 40 01 	orcc  %o5, %g1, %g0
    c9d8:	12 bf ff b0 	bne  c898 <__udivdi3+0x80>
    c9dc:	98 10 20 01 	mov  1, %o4
    c9e0:	10 bf ff ae 	b  c898 <__udivdi3+0x80>
    c9e4:	98 10 20 00 	clr  %o4
    c9e8:	99 2a 40 0f 	sll  %o1, %o7, %o4
    c9ec:	83 32 00 0d 	srl  %o0, %o5, %g1
    c9f0:	95 36 00 0d 	srl  %i0, %o5, %o2
    c9f4:	97 2c 00 0f 	sll  %l0, %o7, %o3
    c9f8:	9b 34 00 0d 	srl  %l0, %o5, %o5
    c9fc:	a0 12 c0 0a 	or  %o3, %o2, %l0
    ca00:	92 13 00 01 	or  %o4, %g1, %o1
    ca04:	91 2a 00 0f 	sll  %o0, %o7, %o0
    ca08:	98 10 00 10 	mov  %l0, %o4
    ca0c:	b1 2e 00 0f 	sll  %i0, %o7, %i0
    ca10:	82 10 20 20 	mov  0x20, %g1
    ca14:	80 a3 40 09 	cmp  %o5, %o1
    ca18:	0a 80 00 0c 	bcs  ca48 <__udivdi3+0x230>
    ca1c:	98 c3 00 0c 	addxcc  %o4, %o4, %o4
    ca20:	9a 23 40 09 	sub  %o5, %o1, %o5
    ca24:	9a 43 40 0d 	addx  %o5, %o5, %o5
    ca28:	82 a0 60 01 	deccc  %g1
    ca2c:	12 bf ff fb 	bne  ca18 <__udivdi3+0x200>
    ca30:	80 a3 40 09 	cmp  %o5, %o1
    ca34:	0a 80 00 0b 	bcs  ca60 <__udivdi3+0x248>
    ca38:	98 c3 00 0c 	addxcc  %o4, %o4, %o4
    ca3c:	10 80 00 09 	b  ca60 <__udivdi3+0x248>
    ca40:	9a 23 40 09 	sub  %o5, %o1, %o5
    ca44:	9a 23 40 09 	sub  %o5, %o1, %o5
    ca48:	9a c3 40 0d 	addxcc  %o5, %o5, %o5
    ca4c:	1a bf ff f8 	bcc  ca2c <__udivdi3+0x214>
    ca50:	82 a0 60 01 	deccc  %g1
    ca54:	12 bf ff fc 	bne  ca44 <__udivdi3+0x22c>
    ca58:	98 83 00 0c 	addcc  %o4, %o4, %o4
    ca5c:	9a 23 40 09 	sub  %o5, %o1, %o5
    ca60:	98 3b 20 00 	xnor  %o4, 0, %o4
    ca64:	a0 10 00 0d 	mov  %o5, %l0
    ca68:	81 80 00 0c 	wr  %g0, %o4, %y
    ca6c:	9b 3a 20 1f 	sra  %o0, 0x1f, %o5
    ca70:	9a 0b 00 0d 	and  %o4, %o5, %o5
    ca74:	82 88 20 00 	andcc  %g0, 0, %g1
    ca78:	83 20 40 08 	mulscc  %g1, %o0, %g1
    ca7c:	83 20 40 08 	mulscc  %g1, %o0, %g1
    ca80:	83 20 40 08 	mulscc  %g1, %o0, %g1
    ca84:	83 20 40 08 	mulscc  %g1, %o0, %g1
    ca88:	83 20 40 08 	mulscc  %g1, %o0, %g1
    ca8c:	83 20 40 08 	mulscc  %g1, %o0, %g1
    ca90:	83 20 40 08 	mulscc  %g1, %o0, %g1
    ca94:	83 20 40 08 	mulscc  %g1, %o0, %g1
    ca98:	83 20 40 08 	mulscc  %g1, %o0, %g1
    ca9c:	83 20 40 08 	mulscc  %g1, %o0, %g1
    caa0:	83 20 40 08 	mulscc  %g1, %o0, %g1
    caa4:	83 20 40 08 	mulscc  %g1, %o0, %g1
    caa8:	83 20 40 08 	mulscc  %g1, %o0, %g1
    caac:	83 20 40 08 	mulscc  %g1, %o0, %g1
    cab0:	83 20 40 08 	mulscc  %g1, %o0, %g1
    cab4:	83 20 40 08 	mulscc  %g1, %o0, %g1
    cab8:	83 20 40 08 	mulscc  %g1, %o0, %g1
    cabc:	83 20 40 08 	mulscc  %g1, %o0, %g1
    cac0:	83 20 40 08 	mulscc  %g1, %o0, %g1
    cac4:	83 20 40 08 	mulscc  %g1, %o0, %g1
    cac8:	83 20 40 08 	mulscc  %g1, %o0, %g1
    cacc:	83 20 40 08 	mulscc  %g1, %o0, %g1
    cad0:	83 20 40 08 	mulscc  %g1, %o0, %g1
    cad4:	83 20 40 08 	mulscc  %g1, %o0, %g1
    cad8:	83 20 40 08 	mulscc  %g1, %o0, %g1
    cadc:	83 20 40 08 	mulscc  %g1, %o0, %g1
    cae0:	83 20 40 08 	mulscc  %g1, %o0, %g1
    cae4:	83 20 40 08 	mulscc  %g1, %o0, %g1
    cae8:	83 20 40 08 	mulscc  %g1, %o0, %g1
    caec:	83 20 40 08 	mulscc  %g1, %o0, %g1
    caf0:	83 20 40 08 	mulscc  %g1, %o0, %g1
    caf4:	83 20 40 08 	mulscc  %g1, %o0, %g1
    caf8:	83 20 60 00 	mulscc  %g1, 0, %g1
    cafc:	96 00 40 0d 	add  %g1, %o5, %o3
    cb00:	95 40 00 00 	rd  %y, %o2
    cb04:	80 a2 c0 10 	cmp  %o3, %l0
    cb08:	38 bf ff 64 	bgu,a   c898 <__udivdi3+0x80>
    cb0c:	98 03 3f ff 	add  %o4, -1, %o4
    cb10:	82 1a c0 10 	xor  %o3, %l0, %g1
    cb14:	80 a0 00 01 	cmp  %g0, %g1
    cb18:	9a 60 3f ff 	subx  %g0, -1, %o5
    cb1c:	80 a6 00 0a 	cmp  %i0, %o2
    cb20:	82 40 20 00 	addx  %g0, 0, %g1
    cb24:	80 8b 40 01 	btst  %o5, %g1
    cb28:	22 80 00 0a 	be,a   cb50 <__udivdi3+0x338>
    cb2c:	9a 10 20 00 	clr  %o5
    cb30:	10 bf ff 5a 	b  c898 <__udivdi3+0x80>
    cb34:	98 03 3f ff 	add  %o4, -1, %o4
    cb38:	82 10 63 ff 	or  %g1, 0x3ff, %g1
    cb3c:	80 a0 40 09 	cmp  %g1, %o1
    cb40:	9a 60 20 00 	subx  %g0, 0, %o5
    cb44:	96 0b 60 08 	and  %o5, 8, %o3
    cb48:	10 bf ff 96 	b  c9a0 <__udivdi3+0x188>
    cb4c:	96 02 e0 10 	add  %o3, 0x10, %o3
    cb50:	b0 10 00 0d 	mov  %o5, %i0
    cb54:	81 c7 e0 08 	ret 
    cb58:	93 e8 00 0c 	restore  %g0, %o4, %o1

0000cb5c <__umoddi3>:
    cb5c:	9d e3 bf 90 	save  %sp, -112, %sp
    cb60:	a2 96 a0 00 	orcc  %i2, 0, %l1
    cb64:	a6 07 bf f0 	add  %fp, -16, %l3
    cb68:	90 10 00 1b 	mov  %i3, %o0
    cb6c:	a4 10 00 19 	mov  %i1, %l2
    cb70:	12 80 00 56 	bne  ccc8 <__umoddi3+0x16c>
    cb74:	a0 10 00 18 	mov  %i0, %l0
    cb78:	80 a6 c0 18 	cmp  %i3, %i0
    cb7c:	08 80 00 1f 	bleu  cbf8 <__umoddi3+0x9c>
    cb80:	80 a6 e0 00 	cmp  %i3, 0
    cb84:	98 10 00 19 	mov  %i1, %o4
    cb88:	82 10 20 20 	mov  0x20, %g1
    cb8c:	80 a4 00 1b 	cmp  %l0, %i3
    cb90:	0a 80 00 0c 	bcs  cbc0 <__umoddi3+0x64>
    cb94:	98 c3 00 0c 	addxcc  %o4, %o4, %o4
    cb98:	a0 24 00 1b 	sub  %l0, %i3, %l0
    cb9c:	a0 44 00 10 	addx  %l0, %l0, %l0
    cba0:	82 a0 60 01 	deccc  %g1
    cba4:	12 bf ff fb 	bne  cb90 <__umoddi3+0x34>
    cba8:	80 a4 00 1b 	cmp  %l0, %i3
    cbac:	0a 80 00 0b 	bcs  cbd8 <__umoddi3+0x7c>
    cbb0:	98 c3 00 0c 	addxcc  %o4, %o4, %o4
    cbb4:	10 80 00 09 	b  cbd8 <__umoddi3+0x7c>
    cbb8:	a0 24 00 1b 	sub  %l0, %i3, %l0
    cbbc:	a0 24 00 1b 	sub  %l0, %i3, %l0
    cbc0:	a0 c4 00 10 	addxcc  %l0, %l0, %l0
    cbc4:	1a bf ff f8 	bcc  cba4 <__umoddi3+0x48>
    cbc8:	82 a0 60 01 	deccc  %g1
    cbcc:	12 bf ff fc 	bne  cbbc <__umoddi3+0x60>
    cbd0:	98 83 00 0c 	addcc  %o4, %o4, %o4
    cbd4:	a0 24 00 1b 	sub  %l0, %i3, %l0
    cbd8:	98 3b 20 00 	xnor  %o4, 0, %o4
    cbdc:	aa 10 00 10 	mov  %l0, %l5
    cbe0:	a8 10 20 00 	clr  %l4
    cbe4:	80 a4 e0 00 	cmp  %l3, 0
    cbe8:	02 80 00 c1 	be  ceec <__umoddi3+0x390>
    cbec:	f0 1f bf f0 	ldd  [ %fp + -16 ], %i0
    cbf0:	10 80 00 be 	b  cee8 <__umoddi3+0x38c>
    cbf4:	e8 3c c0 00 	std  %l4, [ %l3 ]
    cbf8:	12 80 00 06 	bne  cc10 <__umoddi3+0xb4>
    cbfc:	9a 10 00 10 	mov  %l0, %o5
    cc00:	90 10 20 01 	mov  1, %o0
    cc04:	7f ff d5 ef 	call  23c0 <.udiv>
    cc08:	92 10 20 00 	clr  %o1
    cc0c:	9a 10 00 10 	mov  %l0, %o5
    cc10:	98 10 00 12 	mov  %l2, %o4
    cc14:	82 10 20 20 	mov  0x20, %g1
    cc18:	80 a4 40 08 	cmp  %l1, %o0
    cc1c:	0a 80 00 0c 	bcs  cc4c <__umoddi3+0xf0>
    cc20:	9a c3 40 0d 	addxcc  %o5, %o5, %o5
    cc24:	a2 24 40 08 	sub  %l1, %o0, %l1
    cc28:	a2 44 40 11 	addx  %l1, %l1, %l1
    cc2c:	82 a0 60 01 	deccc  %g1
    cc30:	12 bf ff fb 	bne  cc1c <__umoddi3+0xc0>
    cc34:	80 a4 40 08 	cmp  %l1, %o0
    cc38:	0a 80 00 0b 	bcs  cc64 <__umoddi3+0x108>
    cc3c:	9a c3 40 0d 	addxcc  %o5, %o5, %o5
    cc40:	10 80 00 09 	b  cc64 <__umoddi3+0x108>
    cc44:	a2 24 40 08 	sub  %l1, %o0, %l1
    cc48:	a2 24 40 08 	sub  %l1, %o0, %l1
    cc4c:	a2 c4 40 11 	addxcc  %l1, %l1, %l1
    cc50:	1a bf ff f8 	bcc  cc30 <__umoddi3+0xd4>
    cc54:	82 a0 60 01 	deccc  %g1
    cc58:	12 bf ff fc 	bne  cc48 <__umoddi3+0xec>
    cc5c:	9a 83 40 0d 	addcc  %o5, %o5, %o5
    cc60:	a2 24 40 08 	sub  %l1, %o0, %l1
    cc64:	9a 3b 60 00 	xnor  %o5, 0, %o5
    cc68:	a0 10 00 11 	mov  %l1, %l0
    cc6c:	82 10 20 20 	mov  0x20, %g1
    cc70:	80 a4 00 08 	cmp  %l0, %o0
    cc74:	0a 80 00 0c 	bcs  cca4 <__umoddi3+0x148>
    cc78:	98 c3 00 0c 	addxcc  %o4, %o4, %o4
    cc7c:	a0 24 00 08 	sub  %l0, %o0, %l0
    cc80:	a0 44 00 10 	addx  %l0, %l0, %l0
    cc84:	82 a0 60 01 	deccc  %g1
    cc88:	12 bf ff fb 	bne  cc74 <__umoddi3+0x118>
    cc8c:	80 a4 00 08 	cmp  %l0, %o0
    cc90:	0a 80 00 0b 	bcs  ccbc <__umoddi3+0x160>
    cc94:	98 c3 00 0c 	addxcc  %o4, %o4, %o4
    cc98:	10 80 00 09 	b  ccbc <__umoddi3+0x160>
    cc9c:	a0 24 00 08 	sub  %l0, %o0, %l0
    cca0:	a0 24 00 08 	sub  %l0, %o0, %l0
    cca4:	a0 c4 00 10 	addxcc  %l0, %l0, %l0
    cca8:	1a bf ff f8 	bcc  cc88 <__umoddi3+0x12c>
    ccac:	82 a0 60 01 	deccc  %g1
    ccb0:	12 bf ff fc 	bne  cca0 <__umoddi3+0x144>
    ccb4:	98 83 00 0c 	addcc  %o4, %o4, %o4
    ccb8:	a0 24 00 08 	sub  %l0, %o0, %l0
    ccbc:	98 3b 20 00 	xnor  %o4, 0, %o4
    ccc0:	10 bf ff c8 	b  cbe0 <__umoddi3+0x84>
    ccc4:	aa 10 00 10 	mov  %l0, %l5
    ccc8:	80 a4 40 18 	cmp  %l1, %i0
    cccc:	08 80 00 06 	bleu  cce4 <__umoddi3+0x188>
    ccd0:	03 00 00 3f 	sethi  %hi(0xfc00), %g1
    ccd4:	aa 10 00 19 	mov  %i1, %l5
    ccd8:	a8 10 00 18 	mov  %i0, %l4
    ccdc:	10 80 00 83 	b  cee8 <__umoddi3+0x38c>
    cce0:	e8 3f bf f0 	std  %l4, [ %fp + -16 ]
    cce4:	82 10 63 ff 	or  %g1, 0x3ff, %g1
    cce8:	80 a4 40 01 	cmp  %l1, %g1
    ccec:	18 80 00 79 	bgu  ced0 <__umoddi3+0x374>
    ccf0:	03 00 3f ff 	sethi  %hi(0xfffc00), %g1
    ccf4:	80 a4 61 00 	cmp  %l1, 0x100
    ccf8:	82 60 3f ff 	subx  %g0, -1, %g1
    ccfc:	97 28 60 03 	sll  %g1, 3, %o3
    cd00:	83 34 40 0b 	srl  %l1, %o3, %g1
    cd04:	1b 00 00 3b 	sethi  %hi(0xec00), %o5
    cd08:	9a 13 60 10 	or  %o5, 0x10, %o5	! ec10 <__clz_tab>
    cd0c:	d8 0b 40 01 	ldub  [ %o5 + %g1 ], %o4
    cd10:	82 10 20 20 	mov  0x20, %g1
    cd14:	98 03 00 0b 	add  %o4, %o3, %o4
    cd18:	94 a0 40 0c 	subcc  %g1, %o4, %o2
    cd1c:	32 80 00 0f 	bne,a   cd58 <__umoddi3+0x1fc>
    cd20:	99 2c 40 0a 	sll  %l1, %o2, %o4
    cd24:	80 a4 40 10 	cmp  %l1, %l0
    cd28:	9a 40 20 00 	addx  %g0, 0, %o5
    cd2c:	80 a4 80 08 	cmp  %l2, %o0
    cd30:	82 60 3f ff 	subx  %g0, -1, %g1
    cd34:	80 93 40 01 	orcc  %o5, %g1, %g0
    cd38:	22 80 00 06 	be,a   cd50 <__umoddi3+0x1f4>
    cd3c:	aa 10 00 12 	mov  %l2, %l5
    cd40:	82 a4 80 08 	subcc  %l2, %o0, %g1
    cd44:	a0 64 00 11 	subx  %l0, %l1, %l0
    cd48:	a4 10 00 01 	mov  %g1, %l2
    cd4c:	aa 10 00 12 	mov  %l2, %l5
    cd50:	10 bf ff a5 	b  cbe4 <__umoddi3+0x88>
    cd54:	a8 10 00 10 	mov  %l0, %l4
    cd58:	92 20 40 0a 	sub  %g1, %o2, %o1
    cd5c:	97 2c 00 0a 	sll  %l0, %o2, %o3
    cd60:	83 32 00 09 	srl  %o0, %o1, %g1
    cd64:	9b 34 00 09 	srl  %l0, %o1, %o5
    cd68:	a2 13 00 01 	or  %o4, %g1, %l1
    cd6c:	99 34 80 09 	srl  %l2, %o1, %o4
    cd70:	a0 12 c0 0c 	or  %o3, %o4, %l0
    cd74:	91 2a 00 0a 	sll  %o0, %o2, %o0
    cd78:	98 10 00 10 	mov  %l0, %o4
    cd7c:	a5 2c 80 0a 	sll  %l2, %o2, %l2
    cd80:	82 10 20 20 	mov  0x20, %g1
    cd84:	80 a3 40 11 	cmp  %o5, %l1
    cd88:	0a 80 00 0c 	bcs  cdb8 <__umoddi3+0x25c>
    cd8c:	98 c3 00 0c 	addxcc  %o4, %o4, %o4
    cd90:	9a 23 40 11 	sub  %o5, %l1, %o5
    cd94:	9a 43 40 0d 	addx  %o5, %o5, %o5
    cd98:	82 a0 60 01 	deccc  %g1
    cd9c:	12 bf ff fb 	bne  cd88 <__umoddi3+0x22c>
    cda0:	80 a3 40 11 	cmp  %o5, %l1
    cda4:	0a 80 00 0b 	bcs  cdd0 <__umoddi3+0x274>
    cda8:	98 c3 00 0c 	addxcc  %o4, %o4, %o4
    cdac:	10 80 00 09 	b  cdd0 <__umoddi3+0x274>
    cdb0:	9a 23 40 11 	sub  %o5, %l1, %o5
    cdb4:	9a 23 40 11 	sub  %o5, %l1, %o5
    cdb8:	9a c3 40 0d 	addxcc  %o5, %o5, %o5
    cdbc:	1a bf ff f8 	bcc  cd9c <__umoddi3+0x240>
    cdc0:	82 a0 60 01 	deccc  %g1
    cdc4:	12 bf ff fc 	bne  cdb4 <__umoddi3+0x258>
    cdc8:	98 83 00 0c 	addcc  %o4, %o4, %o4
    cdcc:	9a 23 40 11 	sub  %o5, %l1, %o5
    cdd0:	98 3b 20 00 	xnor  %o4, 0, %o4
    cdd4:	a0 10 00 0d 	mov  %o5, %l0
    cdd8:	81 80 00 0c 	wr  %g0, %o4, %y
    cddc:	9b 3a 20 1f 	sra  %o0, 0x1f, %o5
    cde0:	9a 0b 00 0d 	and  %o4, %o5, %o5
    cde4:	82 88 20 00 	andcc  %g0, 0, %g1
    cde8:	83 20 40 08 	mulscc  %g1, %o0, %g1
    cdec:	83 20 40 08 	mulscc  %g1, %o0, %g1
    cdf0:	83 20 40 08 	mulscc  %g1, %o0, %g1
    cdf4:	83 20 40 08 	mulscc  %g1, %o0, %g1
    cdf8:	83 20 40 08 	mulscc  %g1, %o0, %g1
    cdfc:	83 20 40 08 	mulscc  %g1, %o0, %g1
    ce00:	83 20 40 08 	mulscc  %g1, %o0, %g1
    ce04:	83 20 40 08 	mulscc  %g1, %o0, %g1
    ce08:	83 20 40 08 	mulscc  %g1, %o0, %g1
    ce0c:	83 20 40 08 	mulscc  %g1, %o0, %g1
    ce10:	83 20 40 08 	mulscc  %g1, %o0, %g1
    ce14:	83 20 40 08 	mulscc  %g1, %o0, %g1
    ce18:	83 20 40 08 	mulscc  %g1, %o0, %g1
    ce1c:	83 20 40 08 	mulscc  %g1, %o0, %g1
    ce20:	83 20 40 08 	mulscc  %g1, %o0, %g1
    ce24:	83 20 40 08 	mulscc  %g1, %o0, %g1
    ce28:	83 20 40 08 	mulscc  %g1, %o0, %g1
    ce2c:	83 20 40 08 	mulscc  %g1, %o0, %g1
    ce30:	83 20 40 08 	mulscc  %g1, %o0, %g1
    ce34:	83 20 40 08 	mulscc  %g1, %o0, %g1
    ce38:	83 20 40 08 	mulscc  %g1, %o0, %g1
    ce3c:	83 20 40 08 	mulscc  %g1, %o0, %g1
    ce40:	83 20 40 08 	mulscc  %g1, %o0, %g1
    ce44:	83 20 40 08 	mulscc  %g1, %o0, %g1
    ce48:	83 20 40 08 	mulscc  %g1, %o0, %g1
    ce4c:	83 20 40 08 	mulscc  %g1, %o0, %g1
    ce50:	83 20 40 08 	mulscc  %g1, %o0, %g1
    ce54:	83 20 40 08 	mulscc  %g1, %o0, %g1
    ce58:	83 20 40 08 	mulscc  %g1, %o0, %g1
    ce5c:	83 20 40 08 	mulscc  %g1, %o0, %g1
    ce60:	83 20 40 08 	mulscc  %g1, %o0, %g1
    ce64:	83 20 40 08 	mulscc  %g1, %o0, %g1
    ce68:	83 20 60 00 	mulscc  %g1, 0, %g1
    ce6c:	98 00 40 0d 	add  %g1, %o5, %o4
    ce70:	97 40 00 00 	rd  %y, %o3
    ce74:	80 a3 00 10 	cmp  %o4, %l0
    ce78:	18 80 00 09 	bgu  ce9c <__umoddi3+0x340>
    ce7c:	82 1b 00 10 	xor  %o4, %l0, %g1
    ce80:	80 a0 00 01 	cmp  %g0, %g1
    ce84:	9a 60 3f ff 	subx  %g0, -1, %o5
    ce88:	80 a4 80 0b 	cmp  %l2, %o3
    ce8c:	82 40 20 00 	addx  %g0, 0, %g1
    ce90:	80 8b 40 01 	btst  %o5, %g1
    ce94:	02 80 00 06 	be  ceac <__umoddi3+0x350>
    ce98:	80 a4 e0 00 	cmp  %l3, 0
    ce9c:	82 a2 c0 08 	subcc  %o3, %o0, %g1
    cea0:	98 63 00 11 	subx  %o4, %l1, %o4
    cea4:	96 10 00 01 	mov  %g1, %o3
    cea8:	80 a4 e0 00 	cmp  %l3, 0
    ceac:	02 80 00 10 	be  ceec <__umoddi3+0x390>
    ceb0:	f0 1f bf f0 	ldd  [ %fp + -16 ], %i0
    ceb4:	82 a4 80 0b 	subcc  %l2, %o3, %g1
    ceb8:	a0 64 00 0c 	subx  %l0, %o4, %l0
    cebc:	9b 2c 00 09 	sll  %l0, %o1, %o5
    cec0:	83 30 40 0a 	srl  %g1, %o2, %g1
    cec4:	a9 34 00 0a 	srl  %l0, %o2, %l4
    cec8:	10 bf ff 4a 	b  cbf0 <__umoddi3+0x94>
    cecc:	aa 13 40 01 	or  %o5, %g1, %l5
    ced0:	82 10 63 ff 	or  %g1, 0x3ff, %g1
    ced4:	80 a0 40 11 	cmp  %g1, %l1
    ced8:	9a 60 20 00 	subx  %g0, 0, %o5
    cedc:	96 0b 60 08 	and  %o5, 8, %o3
    cee0:	10 bf ff 88 	b  cd00 <__umoddi3+0x1a4>
    cee4:	96 02 e0 10 	add  %o3, 0x10, %o3
    cee8:	f0 1f bf f0 	ldd  [ %fp + -16 ], %i0
    ceec:	81 c7 e0 08 	ret 
    cef0:	81 e8 00 00 	restore 

0000cef4 <_fpadd_parts>:
    cef4:	9d e3 bf 98 	save  %sp, -104, %sp
    cef8:	c2 06 00 00 	ld  [ %i0 ], %g1
    cefc:	9e 10 00 18 	mov  %i0, %o7
    cf00:	9a 10 00 19 	mov  %i1, %o5
    cf04:	80 a0 60 01 	cmp  %g1, 1
    cf08:	08 80 00 ae 	bleu  d1c0 <_fpadd_parts+0x2cc>
    cf0c:	98 10 00 1a 	mov  %i2, %o4
    cf10:	fa 06 40 00 	ld  [ %i1 ], %i5
    cf14:	80 a7 60 01 	cmp  %i5, 1
    cf18:	08 80 00 aa 	bleu  d1c0 <_fpadd_parts+0x2cc>
    cf1c:	b0 10 00 19 	mov  %i1, %i0
    cf20:	80 a0 60 04 	cmp  %g1, 4
    cf24:	12 80 00 0c 	bne  cf54 <_fpadd_parts+0x60>
    cf28:	80 a7 60 04 	cmp  %i5, 4
    cf2c:	12 80 00 a5 	bne  d1c0 <_fpadd_parts+0x2cc>
    cf30:	b0 10 00 0f 	mov  %o7, %i0
    cf34:	c2 06 60 04 	ld  [ %i1 + 4 ], %g1
    cf38:	fa 03 e0 04 	ld  [ %o7 + 4 ], %i5
    cf3c:	39 00 00 3a 	sethi  %hi(0xe800), %i4
    cf40:	80 a7 40 01 	cmp  %i5, %g1
    cf44:	12 80 00 9f 	bne  d1c0 <_fpadd_parts+0x2cc>
    cf48:	b0 17 23 f8 	or  %i4, 0x3f8, %i0
    cf4c:	10 80 00 9d 	b  d1c0 <_fpadd_parts+0x2cc>
    cf50:	b0 10 00 0f 	mov  %o7, %i0
    cf54:	02 80 00 9b 	be  d1c0 <_fpadd_parts+0x2cc>
    cf58:	b0 10 00 19 	mov  %i1, %i0
    cf5c:	80 a7 60 02 	cmp  %i5, 2
    cf60:	12 80 00 10 	bne  cfa0 <_fpadd_parts+0xac>
    cf64:	80 a0 60 02 	cmp  %g1, 2
    cf68:	12 80 00 96 	bne  d1c0 <_fpadd_parts+0x2cc>
    cf6c:	b0 10 00 0f 	mov  %o7, %i0
    cf70:	f4 1b c0 00 	ldd  [ %o7 ], %i2
    cf74:	b0 10 00 0c 	mov  %o4, %i0
    cf78:	f4 3b 00 00 	std  %i2, [ %o4 ]
    cf7c:	f8 1b e0 08 	ldd  [ %o7 + 8 ], %i4
    cf80:	f8 3b 20 08 	std  %i4, [ %o4 + 8 ]
    cf84:	f4 1b e0 10 	ldd  [ %o7 + 0x10 ], %i2
    cf88:	f4 3b 20 10 	std  %i2, [ %o4 + 0x10 ]
    cf8c:	c2 03 e0 04 	ld  [ %o7 + 4 ], %g1
    cf90:	fa 06 60 04 	ld  [ %i1 + 4 ], %i5
    cf94:	82 08 40 1d 	and  %g1, %i5, %g1
    cf98:	10 80 00 8a 	b  d1c0 <_fpadd_parts+0x2cc>
    cf9c:	c2 23 20 04 	st  %g1, [ %o4 + 4 ]
    cfa0:	02 80 00 88 	be  d1c0 <_fpadd_parts+0x2cc>
    cfa4:	b0 10 00 19 	mov  %i1, %i0
    cfa8:	e0 03 e0 08 	ld  [ %o7 + 8 ], %l0
    cfac:	f0 06 60 08 	ld  [ %i1 + 8 ], %i0
    cfb0:	d4 1b e0 10 	ldd  [ %o7 + 0x10 ], %o2
    cfb4:	82 a4 00 18 	subcc  %l0, %i0, %g1
    cfb8:	0c 80 00 80 	bneg  d1b8 <_fpadd_parts+0x2c4>
    cfbc:	d0 1e 60 10 	ldd  [ %i1 + 0x10 ], %o0
    cfc0:	80 a0 60 3f 	cmp  %g1, 0x3f
    cfc4:	14 80 00 75 	bg  d198 <_fpadd_parts+0x2a4>
    cfc8:	80 a4 00 18 	cmp  %l0, %i0
    cfcc:	04 80 00 0f 	ble  d008 <_fpadd_parts+0x114>
    cfd0:	80 a6 00 10 	cmp  %i0, %l0
    cfd4:	b0 24 00 18 	sub  %l0, %i0, %i0
    cfd8:	b3 2a 20 1f 	sll  %o0, 0x1f, %i1
    cfdc:	83 32 60 01 	srl  %o1, 1, %g1
    cfe0:	b4 0a 20 00 	and  %o0, 0, %i2
    cfe4:	b6 0a 60 01 	and  %o1, 1, %i3
    cfe8:	ba 16 40 01 	or  %i1, %g1, %i5
    cfec:	b9 32 20 01 	srl  %o0, 1, %i4
    cff0:	92 16 c0 1d 	or  %i3, %i5, %o1
    cff4:	b0 86 3f ff 	addcc  %i0, -1, %i0
    cff8:	12 bf ff f8 	bne  cfd8 <_fpadd_parts+0xe4>
    cffc:	90 16 80 1c 	or  %i2, %i4, %o0
    d000:	b0 10 00 10 	mov  %l0, %i0
    d004:	80 a6 00 10 	cmp  %i0, %l0
    d008:	24 80 00 0f 	ble,a   d044 <_fpadd_parts+0x150>
    d00c:	f0 03 e0 04 	ld  [ %o7 + 4 ], %i0
    d010:	a0 26 00 10 	sub  %i0, %l0, %l0
    d014:	b3 2a a0 1f 	sll  %o2, 0x1f, %i1
    d018:	83 32 e0 01 	srl  %o3, 1, %g1
    d01c:	b4 0a a0 00 	and  %o2, 0, %i2
    d020:	b6 0a e0 01 	and  %o3, 1, %i3
    d024:	ba 16 40 01 	or  %i1, %g1, %i5
    d028:	b9 32 a0 01 	srl  %o2, 1, %i4
    d02c:	96 16 c0 1d 	or  %i3, %i5, %o3
    d030:	a0 84 3f ff 	addcc  %l0, -1, %l0
    d034:	12 bf ff f8 	bne  d014 <_fpadd_parts+0x120>
    d038:	94 16 80 1c 	or  %i2, %i4, %o2
    d03c:	a0 10 00 18 	mov  %i0, %l0
    d040:	f0 03 e0 04 	ld  [ %o7 + 4 ], %i0
    d044:	c2 03 60 04 	ld  [ %o5 + 4 ], %g1
    d048:	80 a6 00 01 	cmp  %i0, %g1
    d04c:	02 80 00 4d 	be  d180 <_fpadd_parts+0x28c>
    d050:	80 a6 20 00 	cmp  %i0, 0
    d054:	02 80 00 49 	be  d178 <_fpadd_parts+0x284>
    d058:	b6 a2 c0 09 	subcc  %o3, %o1, %i3
    d05c:	b6 a2 40 0b 	subcc  %o1, %o3, %i3
    d060:	b4 62 00 0a 	subx  %o0, %o2, %i2
    d064:	80 a6 a0 00 	cmp  %i2, 0
    d068:	06 80 00 3e 	bl  d160 <_fpadd_parts+0x26c>
    d06c:	ba a0 00 1b 	subcc  %g0, %i3, %i5
    d070:	e0 23 20 08 	st  %l0, [ %o4 + 8 ]
    d074:	f4 3b 20 10 	std  %i2, [ %o4 + 0x10 ]
    d078:	c0 23 20 04 	clr  [ %o4 + 4 ]
    d07c:	f4 1b 20 10 	ldd  [ %o4 + 0x10 ], %i2
    d080:	03 03 ff ff 	sethi  %hi(0xffffc00), %g1
    d084:	ba 86 ff ff 	addcc  %i3, -1, %i5
    d088:	82 10 63 ff 	or  %g1, 0x3ff, %g1
    d08c:	b8 46 bf ff 	addx  %i2, -1, %i4
    d090:	80 a7 00 01 	cmp  %i4, %g1
    d094:	38 80 00 1a 	bgu,a   d0fc <_fpadd_parts+0x208>
    d098:	f8 03 20 10 	ld  [ %o4 + 0x10 ], %i4
    d09c:	02 80 00 2d 	be  d150 <_fpadd_parts+0x25c>
    d0a0:	80 a7 7f fe 	cmp  %i5, -2
    d0a4:	c2 03 20 08 	ld  [ %o4 + 8 ], %g1
    d0a8:	ba 06 80 1a 	add  %i2, %i2, %i5
    d0ac:	b9 36 e0 1f 	srl  %i3, 0x1f, %i4
    d0b0:	82 00 7f ff 	add  %g1, -1, %g1
    d0b4:	b0 17 00 1d 	or  %i4, %i5, %i0
    d0b8:	b2 06 c0 1b 	add  %i3, %i3, %i1
    d0bc:	ba 86 7f ff 	addcc  %i1, -1, %i5
    d0c0:	c2 23 20 08 	st  %g1, [ %o4 + 8 ]
    d0c4:	b8 46 3f ff 	addx  %i0, -1, %i4
    d0c8:	03 03 ff ff 	sethi  %hi(0xffffc00), %g1
    d0cc:	82 10 63 ff 	or  %g1, 0x3ff, %g1	! fffffff <_RAM_SIZE+0xdffffff>
    d0d0:	80 a7 00 01 	cmp  %i4, %g1
    d0d4:	18 80 00 09 	bgu  d0f8 <_fpadd_parts+0x204>
    d0d8:	f0 3b 20 10 	std  %i0, [ %o4 + 0x10 ]
    d0dc:	80 a7 00 01 	cmp  %i4, %g1
    d0e0:	b4 10 00 18 	mov  %i0, %i2
    d0e4:	12 bf ff f0 	bne  d0a4 <_fpadd_parts+0x1b0>
    d0e8:	b6 10 00 19 	mov  %i1, %i3
    d0ec:	80 a7 7f fe 	cmp  %i5, -2
    d0f0:	28 bf ff ee 	bleu,a   d0a8 <_fpadd_parts+0x1b4>
    d0f4:	c2 03 20 08 	ld  [ %o4 + 8 ], %g1
    d0f8:	f8 03 20 10 	ld  [ %o4 + 0x10 ], %i4
    d0fc:	ba 10 20 03 	mov  3, %i5
    d100:	03 07 ff ff 	sethi  %hi(0x1ffffc00), %g1
    d104:	82 10 63 ff 	or  %g1, 0x3ff, %g1	! 1fffffff <_RAM_SIZE+0x1dffffff>
    d108:	80 a7 00 01 	cmp  %i4, %g1
    d10c:	08 80 00 0f 	bleu  d148 <_fpadd_parts+0x254>
    d110:	fa 23 00 00 	st  %i5, [ %o4 ]
    d114:	c2 03 20 08 	ld  [ %o4 + 8 ], %g1
    d118:	f4 1b 20 10 	ldd  [ %o4 + 0x10 ], %i2
    d11c:	82 00 60 01 	inc  %g1
    d120:	b0 0e a0 00 	and  %i2, 0, %i0
    d124:	b2 0e e0 01 	and  %i3, 1, %i1
    d128:	c2 23 20 08 	st  %g1, [ %o4 + 8 ]
    d12c:	9f 2e a0 1f 	sll  %i2, 0x1f, %o7
    d130:	83 36 e0 01 	srl  %i3, 1, %g1
    d134:	b9 36 a0 01 	srl  %i2, 1, %i4
    d138:	ba 13 c0 01 	or  %o7, %g1, %i5
    d13c:	b0 16 00 1c 	or  %i0, %i4, %i0
    d140:	b2 16 40 1d 	or  %i1, %i5, %i1
    d144:	f0 3b 20 10 	std  %i0, [ %o4 + 0x10 ]
    d148:	10 80 00 1e 	b  d1c0 <_fpadd_parts+0x2cc>
    d14c:	b0 10 00 0c 	mov  %o4, %i0
    d150:	28 bf ff d6 	bleu,a   d0a8 <_fpadd_parts+0x1b4>
    d154:	c2 03 20 08 	ld  [ %o4 + 8 ], %g1
    d158:	10 bf ff e9 	b  d0fc <_fpadd_parts+0x208>
    d15c:	f8 03 20 10 	ld  [ %o4 + 0x10 ], %i4
    d160:	82 10 20 01 	mov  1, %g1
    d164:	b8 60 00 1a 	subx  %g0, %i2, %i4
    d168:	e0 23 20 08 	st  %l0, [ %o4 + 8 ]
    d16c:	f8 3b 20 10 	std  %i4, [ %o4 + 0x10 ]
    d170:	10 bf ff c3 	b  d07c <_fpadd_parts+0x188>
    d174:	c2 23 20 04 	st  %g1, [ %o4 + 4 ]
    d178:	10 bf ff bb 	b  d064 <_fpadd_parts+0x170>
    d17c:	b4 62 80 08 	subx  %o2, %o0, %i2
    d180:	ba 82 c0 09 	addcc  %o3, %o1, %i5
    d184:	f0 23 20 04 	st  %i0, [ %o4 + 4 ]
    d188:	b8 42 80 08 	addx  %o2, %o0, %i4
    d18c:	e0 23 20 08 	st  %l0, [ %o4 + 8 ]
    d190:	10 bf ff da 	b  d0f8 <_fpadd_parts+0x204>
    d194:	f8 3b 20 10 	std  %i4, [ %o4 + 0x10 ]
    d198:	24 80 00 05 	ble,a   d1ac <_fpadd_parts+0x2b8>
    d19c:	a0 10 00 18 	mov  %i0, %l0
    d1a0:	90 10 20 00 	clr  %o0
    d1a4:	10 bf ff a7 	b  d040 <_fpadd_parts+0x14c>
    d1a8:	92 10 20 00 	clr  %o1
    d1ac:	94 10 20 00 	clr  %o2
    d1b0:	10 bf ff a4 	b  d040 <_fpadd_parts+0x14c>
    d1b4:	96 10 20 00 	clr  %o3
    d1b8:	10 bf ff 82 	b  cfc0 <_fpadd_parts+0xcc>
    d1bc:	82 20 00 01 	neg  %g1
    d1c0:	81 c7 e0 08 	ret 
    d1c4:	81 e8 00 00 	restore 

0000d1c8 <__adddf3>:
    d1c8:	9d e3 bf 40 	save  %sp, -192, %sp
    d1cc:	a2 07 bf e0 	add  %fp, -32, %l1
    d1d0:	90 07 bf a8 	add  %fp, -88, %o0
    d1d4:	92 10 00 11 	mov  %l1, %o1
    d1d8:	f0 3f bf a8 	std  %i0, [ %fp + -88 ]
    d1dc:	a0 07 bf c8 	add  %fp, -56, %l0
    d1e0:	40 00 03 37 	call  debc <__unpack_d>
    d1e4:	f4 3f bf a0 	std  %i2, [ %fp + -96 ]
    d1e8:	90 07 bf a0 	add  %fp, -96, %o0
    d1ec:	40 00 03 34 	call  debc <__unpack_d>
    d1f0:	92 10 00 10 	mov  %l0, %o1
    d1f4:	94 07 bf b0 	add  %fp, -80, %o2
    d1f8:	92 10 00 10 	mov  %l0, %o1
    d1fc:	7f ff ff 3e 	call  cef4 <_fpadd_parts>
    d200:	90 10 00 11 	mov  %l1, %o0
    d204:	40 00 02 ad 	call  dcb8 <__pack_d>
    d208:	01 00 00 00 	nop 
    d20c:	b0 10 00 08 	mov  %o0, %i0
    d210:	81 c7 e0 08 	ret 
    d214:	93 e8 00 09 	restore  %g0, %o1, %o1

0000d218 <__subdf3>:
    d218:	9d e3 bf 40 	save  %sp, -192, %sp
    d21c:	f0 3f bf a8 	std  %i0, [ %fp + -88 ]
    d220:	a2 07 bf e0 	add  %fp, -32, %l1
    d224:	90 07 bf a8 	add  %fp, -88, %o0
    d228:	92 10 00 11 	mov  %l1, %o1
    d22c:	40 00 03 24 	call  debc <__unpack_d>
    d230:	f4 3f bf a0 	std  %i2, [ %fp + -96 ]
    d234:	a0 07 bf c8 	add  %fp, -56, %l0
    d238:	90 07 bf a0 	add  %fp, -96, %o0
    d23c:	40 00 03 20 	call  debc <__unpack_d>
    d240:	92 10 00 10 	mov  %l0, %o1
    d244:	c2 07 bf cc 	ld  [ %fp + -52 ], %g1
    d248:	92 10 00 10 	mov  %l0, %o1
    d24c:	82 18 60 01 	xor  %g1, 1, %g1
    d250:	94 07 bf b0 	add  %fp, -80, %o2
    d254:	c2 27 bf cc 	st  %g1, [ %fp + -52 ]
    d258:	7f ff ff 27 	call  cef4 <_fpadd_parts>
    d25c:	90 10 00 11 	mov  %l1, %o0
    d260:	40 00 02 96 	call  dcb8 <__pack_d>
    d264:	01 00 00 00 	nop 
    d268:	b0 10 00 08 	mov  %o0, %i0
    d26c:	81 c7 e0 08 	ret 
    d270:	93 e8 00 09 	restore  %g0, %o1, %o1

0000d274 <__muldf3>:
    d274:	9d e3 bf 38 	save  %sp, -200, %sp
    d278:	90 07 bf a8 	add  %fp, -88, %o0
    d27c:	ba 07 bf e0 	add  %fp, -32, %i5
    d280:	f0 3f bf a8 	std  %i0, [ %fp + -88 ]
    d284:	92 10 00 1d 	mov  %i5, %o1
    d288:	40 00 03 0d 	call  debc <__unpack_d>
    d28c:	f4 3f bf a0 	std  %i2, [ %fp + -96 ]
    d290:	b8 07 bf c8 	add  %fp, -56, %i4
    d294:	90 07 bf a0 	add  %fp, -96, %o0
    d298:	40 00 03 09 	call  debc <__unpack_d>
    d29c:	92 10 00 1c 	mov  %i4, %o1
    d2a0:	c2 07 bf e0 	ld  [ %fp + -32 ], %g1
    d2a4:	80 a0 60 01 	cmp  %g1, 1
    d2a8:	08 80 00 0d 	bleu  d2dc <__muldf3+0x68>
    d2ac:	ae 07 bf b0 	add  %fp, -80, %l7
    d2b0:	da 07 bf c8 	ld  [ %fp + -56 ], %o5
    d2b4:	80 a3 60 01 	cmp  %o5, 1
    d2b8:	28 80 00 17 	bleu,a   d314 <__muldf3+0xa0>
    d2bc:	da 07 bf cc 	ld  [ %fp + -52 ], %o5
    d2c0:	80 a0 60 04 	cmp  %g1, 4
    d2c4:	12 80 00 0e 	bne  d2fc <__muldf3+0x88>
    d2c8:	80 a3 60 04 	cmp  %o5, 4
    d2cc:	03 00 00 3a 	sethi  %hi(0xe800), %g1
    d2d0:	80 a3 60 02 	cmp  %o5, 2
    d2d4:	02 80 00 c1 	be  d5d8 <__muldf3+0x364>
    d2d8:	90 10 63 f8 	or  %g1, 0x3f8, %o0
    d2dc:	c2 07 bf e4 	ld  [ %fp + -28 ], %g1
    d2e0:	da 07 bf cc 	ld  [ %fp + -52 ], %o5
    d2e4:	90 10 00 1d 	mov  %i5, %o0
    d2e8:	82 18 40 0d 	xor  %g1, %o5, %g1
    d2ec:	80 a0 00 01 	cmp  %g0, %g1
    d2f0:	9a 40 20 00 	addx  %g0, 0, %o5
    d2f4:	10 80 00 b9 	b  d5d8 <__muldf3+0x364>
    d2f8:	da 27 bf e4 	st  %o5, [ %fp + -28 ]
    d2fc:	12 80 00 0d 	bne  d330 <__muldf3+0xbc>
    d300:	80 a0 60 02 	cmp  %g1, 2
    d304:	03 00 00 3a 	sethi  %hi(0xe800), %g1
    d308:	02 80 00 b4 	be  d5d8 <__muldf3+0x364>
    d30c:	90 10 63 f8 	or  %g1, 0x3f8, %o0	! ebf8 <__thenan_df>
    d310:	da 07 bf cc 	ld  [ %fp + -52 ], %o5
    d314:	c2 07 bf e4 	ld  [ %fp + -28 ], %g1
    d318:	90 10 00 1c 	mov  %i4, %o0
    d31c:	82 18 40 0d 	xor  %g1, %o5, %g1
    d320:	80 a0 00 01 	cmp  %g0, %g1
    d324:	9a 40 20 00 	addx  %g0, 0, %o5
    d328:	10 80 00 ac 	b  d5d8 <__muldf3+0x364>
    d32c:	da 27 bf cc 	st  %o5, [ %fp + -52 ]
    d330:	02 bf ff ec 	be  d2e0 <__muldf3+0x6c>
    d334:	c2 07 bf e4 	ld  [ %fp + -28 ], %g1
    d338:	80 a3 60 02 	cmp  %o5, 2
    d33c:	02 bf ff f7 	be  d318 <__muldf3+0xa4>
    d340:	da 07 bf cc 	ld  [ %fp + -52 ], %o5
    d344:	ec 07 bf dc 	ld  [ %fp + -36 ], %l6
    d348:	d2 07 bf d8 	ld  [ %fp + -40 ], %o1
    d34c:	9a 10 00 16 	mov  %l6, %o5
    d350:	98 10 20 00 	clr  %o4
    d354:	a0 10 00 09 	mov  %o1, %l0
    d358:	d8 3f bf 98 	std  %o4, [ %fp + -104 ]
    d35c:	e4 07 bf f4 	ld  [ %fp + -12 ], %l2
    d360:	da 07 bf f0 	ld  [ %fp + -16 ], %o5
    d364:	d0 1f bf 98 	ldd  [ %fp + -104 ], %o0
    d368:	a8 10 00 0d 	mov  %o5, %l4
    d36c:	a6 10 00 12 	mov  %l2, %l3
    d370:	a4 10 20 00 	clr  %l2
    d374:	96 10 00 13 	mov  %l3, %o3
    d378:	7f ff fc f4 	call  c748 <__muldi3>
    d37c:	94 10 00 12 	mov  %l2, %o2
    d380:	a2 10 00 10 	mov  %l0, %l1
    d384:	94 10 00 12 	mov  %l2, %o2
    d388:	96 10 00 13 	mov  %l3, %o3
    d38c:	a0 10 20 00 	clr  %l0
    d390:	b0 10 00 08 	mov  %o0, %i0
    d394:	b2 10 00 09 	mov  %o1, %i1
    d398:	90 10 00 10 	mov  %l0, %o0
    d39c:	7f ff fc eb 	call  c748 <__muldi3>
    d3a0:	92 10 00 11 	mov  %l1, %o1
    d3a4:	b4 10 00 08 	mov  %o0, %i2
    d3a8:	b6 10 00 09 	mov  %o1, %i3
    d3ac:	d0 1f bf 98 	ldd  [ %fp + -104 ], %o0
    d3b0:	aa 10 00 14 	mov  %l4, %l5
    d3b4:	a8 10 20 00 	clr  %l4
    d3b8:	96 10 00 15 	mov  %l5, %o3
    d3bc:	7f ff fc e3 	call  c748 <__muldi3>
    d3c0:	94 10 00 14 	mov  %l4, %o2
    d3c4:	94 10 00 14 	mov  %l4, %o2
    d3c8:	a4 10 00 08 	mov  %o0, %l2
    d3cc:	a6 10 00 09 	mov  %o1, %l3
    d3d0:	90 10 00 10 	mov  %l0, %o0
    d3d4:	92 10 00 11 	mov  %l1, %o1
    d3d8:	7f ff fc dc 	call  c748 <__muldi3>
    d3dc:	96 10 00 15 	mov  %l5, %o3
    d3e0:	a2 86 c0 13 	addcc  %i3, %l3, %l1
    d3e4:	a8 10 00 08 	mov  %o0, %l4
    d3e8:	a0 46 80 12 	addx  %i2, %l2, %l0
    d3ec:	aa 10 00 09 	mov  %o1, %l5
    d3f0:	80 a6 80 10 	cmp  %i2, %l0
    d3f4:	a4 10 20 00 	clr  %l2
    d3f8:	18 80 00 75 	bgu  d5cc <__muldf3+0x358>
    d3fc:	a6 10 20 00 	clr  %l3
    d400:	80 a6 80 10 	cmp  %i2, %l0
    d404:	02 80 00 70 	be  d5c4 <__muldf3+0x350>
    d408:	80 a6 c0 11 	cmp  %i3, %l1
    d40c:	b6 10 20 00 	clr  %i3
    d410:	92 86 40 1b 	addcc  %i1, %i3, %o1
    d414:	90 46 00 11 	addx  %i0, %l1, %o0
    d418:	80 a6 00 08 	cmp  %i0, %o0
    d41c:	38 80 00 68 	bgu,a   d5bc <__muldf3+0x348>
    d420:	a6 84 e0 01 	inccc  %l3
    d424:	80 a6 00 08 	cmp  %i0, %o0
    d428:	02 80 00 62 	be  d5b0 <__muldf3+0x33c>
    d42c:	80 a6 40 09 	cmp  %i1, %o1
    d430:	c2 07 60 04 	ld  [ %i5 + 4 ], %g1
    d434:	d4 07 20 04 	ld  [ %i4 + 4 ], %o2
    d438:	9a 84 00 15 	addcc  %l0, %l5, %o5
    d43c:	d6 07 60 08 	ld  [ %i5 + 8 ], %o3
    d440:	82 18 40 0a 	xor  %g1, %o2, %g1
    d444:	98 10 20 00 	clr  %o4
    d448:	98 43 00 14 	addx  %o4, %l4, %o4
    d44c:	b2 84 c0 0d 	addcc  %l3, %o5, %i1
    d450:	da 07 20 08 	ld  [ %i4 + 8 ], %o5
    d454:	b0 44 80 0c 	addx  %l2, %o4, %i0
    d458:	80 a0 00 01 	cmp  %g0, %g1
    d45c:	82 40 20 00 	addx  %g0, 0, %g1
    d460:	96 02 c0 0d 	add  %o3, %o5, %o3
    d464:	c2 25 e0 04 	st  %g1, [ %l7 + 4 ]
    d468:	96 02 e0 04 	add  %o3, 4, %o3
    d46c:	03 07 ff ff 	sethi  %hi(0x1ffffc00), %g1
    d470:	d6 25 e0 08 	st  %o3, [ %l7 + 8 ]
    d474:	82 10 63 ff 	or  %g1, 0x3ff, %g1
    d478:	a0 10 00 08 	mov  %o0, %l0
    d47c:	80 a6 00 01 	cmp  %i0, %g1
    d480:	08 80 00 19 	bleu  d4e4 <__muldf3+0x270>
    d484:	a2 10 00 09 	mov  %o1, %l1
    d488:	9e 10 00 01 	mov  %g1, %o7
    d48c:	25 20 00 00 	sethi  %hi(0x80000000), %l2
    d490:	a6 10 20 00 	clr  %l3
    d494:	c2 05 e0 08 	ld  [ %l7 + 8 ], %g1
    d498:	9b 36 60 01 	srl  %i1, 1, %o5
    d49c:	99 2e 20 1f 	sll  %i0, 0x1f, %o4
    d4a0:	95 2c 20 1f 	sll  %l0, 0x1f, %o2
    d4a4:	b6 13 00 0d 	or  %o4, %o5, %i3
    d4a8:	97 34 60 01 	srl  %l1, 1, %o3
    d4ac:	82 00 60 01 	inc  %g1
    d4b0:	9a 0e 60 01 	and  %i1, 1, %o5
    d4b4:	92 12 80 0b 	or  %o2, %o3, %o1
    d4b8:	c2 25 e0 08 	st  %g1, [ %l7 + 8 ]
    d4bc:	b5 36 20 01 	srl  %i0, 1, %i2
    d4c0:	80 a3 60 00 	cmp  %o5, 0
    d4c4:	02 80 00 04 	be  d4d4 <__muldf3+0x260>
    d4c8:	91 34 20 01 	srl  %l0, 1, %o0
    d4cc:	a0 12 00 12 	or  %o0, %l2, %l0
    d4d0:	a2 12 40 13 	or  %o1, %l3, %l1
    d4d4:	b0 10 00 1a 	mov  %i2, %i0
    d4d8:	80 a6 80 0f 	cmp  %i2, %o7
    d4dc:	18 bf ff ee 	bgu  d494 <__muldf3+0x220>
    d4e0:	b2 10 00 1b 	mov  %i3, %i1
    d4e4:	03 03 ff ff 	sethi  %hi(0xffffc00), %g1
    d4e8:	82 10 63 ff 	or  %g1, 0x3ff, %g1	! fffffff <_RAM_SIZE+0xdffffff>
    d4ec:	80 a6 00 01 	cmp  %i0, %g1
    d4f0:	18 80 00 18 	bgu  d550 <__muldf3+0x2dc>
    d4f4:	98 0e 20 00 	and  %i0, 0, %o4
    d4f8:	c2 05 e0 08 	ld  [ %l7 + 8 ], %g1
    d4fc:	93 36 60 1f 	srl  %i1, 0x1f, %o1
    d500:	96 06 00 18 	add  %i0, %i0, %o3
    d504:	91 34 60 1f 	srl  %l1, 0x1f, %o0
    d508:	98 12 40 0b 	or  %o1, %o3, %o4
    d50c:	94 04 00 10 	add  %l0, %l0, %o2
    d510:	82 00 7f ff 	add  %g1, -1, %g1
    d514:	9a 06 40 19 	add  %i1, %i1, %o5
    d518:	80 a4 20 00 	cmp  %l0, 0
    d51c:	b4 12 00 0a 	or  %o0, %o2, %i2
    d520:	c2 25 e0 08 	st  %g1, [ %l7 + 8 ]
    d524:	b0 10 00 0c 	mov  %o4, %i0
    d528:	06 80 00 1f 	bl  d5a4 <__muldf3+0x330>
    d52c:	b2 10 00 0d 	mov  %o5, %i1
    d530:	b6 04 40 11 	add  %l1, %l1, %i3
    d534:	03 03 ff ff 	sethi  %hi(0xffffc00), %g1
    d538:	a0 10 00 1a 	mov  %i2, %l0
    d53c:	82 10 63 ff 	or  %g1, 0x3ff, %g1
    d540:	80 a6 00 01 	cmp  %i0, %g1
    d544:	08 bf ff ed 	bleu  d4f8 <__muldf3+0x284>
    d548:	a2 10 00 1b 	mov  %i3, %l1
    d54c:	98 0e 20 00 	and  %i0, 0, %o4
    d550:	80 a3 20 00 	cmp  %o4, 0
    d554:	12 80 00 05 	bne  d568 <__muldf3+0x2f4>
    d558:	9a 0e 60 ff 	and  %i1, 0xff, %o5
    d55c:	80 a3 60 80 	cmp  %o5, 0x80
    d560:	02 80 00 07 	be  d57c <__muldf3+0x308>
    d564:	98 0e 20 00 	and  %i0, 0, %o4
    d568:	82 10 20 03 	mov  3, %g1
    d56c:	f0 3d e0 10 	std  %i0, [ %l7 + 0x10 ]
    d570:	90 10 00 17 	mov  %l7, %o0
    d574:	10 80 00 19 	b  d5d8 <__muldf3+0x364>
    d578:	c2 25 c0 00 	st  %g1, [ %l7 ]
    d57c:	9a 0e 61 00 	and  %i1, 0x100, %o5
    d580:	80 93 00 0d 	orcc  %o4, %o5, %g0
    d584:	32 80 00 06 	bne,a   d59c <__muldf3+0x328>
    d588:	b2 86 60 80 	addcc  %i1, 0x80, %i1
    d58c:	80 94 00 11 	orcc  %l0, %l1, %g0
    d590:	02 bf ff f7 	be  d56c <__muldf3+0x2f8>
    d594:	82 10 20 03 	mov  3, %g1
    d598:	b2 86 60 80 	addcc  %i1, 0x80, %i1
    d59c:	10 bf ff f3 	b  d568 <__muldf3+0x2f4>
    d5a0:	b0 46 20 00 	addx  %i0, 0, %i0
    d5a4:	b0 13 20 00 	mov  %o4, %i0
    d5a8:	10 bf ff e2 	b  d530 <__muldf3+0x2bc>
    d5ac:	b2 13 60 01 	or  %o5, 1, %i1
    d5b0:	28 bf ff a1 	bleu,a   d434 <__muldf3+0x1c0>
    d5b4:	c2 07 60 04 	ld  [ %i5 + 4 ], %g1
    d5b8:	a6 84 e0 01 	inccc  %l3
    d5bc:	10 bf ff 9d 	b  d430 <__muldf3+0x1bc>
    d5c0:	a4 44 a0 00 	addx  %l2, 0, %l2
    d5c4:	08 bf ff 93 	bleu  d410 <__muldf3+0x19c>
    d5c8:	b6 10 20 00 	clr  %i3
    d5cc:	a4 10 20 01 	mov  1, %l2
    d5d0:	10 bf ff 8f 	b  d40c <__muldf3+0x198>
    d5d4:	a6 10 20 00 	clr  %l3
    d5d8:	40 00 01 b8 	call  dcb8 <__pack_d>
    d5dc:	01 00 00 00 	nop 
    d5e0:	b0 10 00 08 	mov  %o0, %i0
    d5e4:	81 c7 e0 08 	ret 
    d5e8:	93 e8 00 09 	restore  %g0, %o1, %o1

0000d5ec <__divdf3>:
    d5ec:	9d e3 bf 58 	save  %sp, -168, %sp
    d5f0:	a4 07 bf e0 	add  %fp, -32, %l2
    d5f4:	90 07 bf c0 	add  %fp, -64, %o0
    d5f8:	92 10 00 12 	mov  %l2, %o1
    d5fc:	f4 3f bf b8 	std  %i2, [ %fp + -72 ]
    d600:	40 00 02 2f 	call  debc <__unpack_d>
    d604:	f0 3f bf c0 	std  %i0, [ %fp + -64 ]
    d608:	b6 07 bf c8 	add  %fp, -56, %i3
    d60c:	90 07 bf b8 	add  %fp, -72, %o0
    d610:	40 00 02 2b 	call  debc <__unpack_d>
    d614:	92 10 00 1b 	mov  %i3, %o1
    d618:	d8 07 bf e0 	ld  [ %fp + -32 ], %o4
    d61c:	80 a3 20 01 	cmp  %o4, 1
    d620:	08 80 00 6a 	bleu  d7c8 <__divdf3+0x1dc>
    d624:	90 10 00 12 	mov  %l2, %o0
    d628:	d6 07 bf c8 	ld  [ %fp + -56 ], %o3
    d62c:	80 a2 e0 01 	cmp  %o3, 1
    d630:	08 80 00 66 	bleu  d7c8 <__divdf3+0x1dc>
    d634:	90 10 00 1b 	mov  %i3, %o0
    d638:	c2 07 bf e4 	ld  [ %fp + -28 ], %g1
    d63c:	da 07 bf cc 	ld  [ %fp + -52 ], %o5
    d640:	80 a3 20 04 	cmp  %o4, 4
    d644:	82 18 40 0d 	xor  %g1, %o5, %g1
    d648:	02 80 00 05 	be  d65c <__divdf3+0x70>
    d64c:	c2 27 bf e4 	st  %g1, [ %fp + -28 ]
    d650:	80 a3 20 02 	cmp  %o4, 2
    d654:	12 80 00 08 	bne  d674 <__divdf3+0x88>
    d658:	80 a2 e0 04 	cmp  %o3, 4
    d65c:	03 00 00 3a 	sethi  %hi(0xe800), %g1
    d660:	80 a3 00 0b 	cmp  %o4, %o3
    d664:	02 80 00 59 	be  d7c8 <__divdf3+0x1dc>
    d668:	90 10 63 f8 	or  %g1, 0x3f8, %o0
    d66c:	10 80 00 57 	b  d7c8 <__divdf3+0x1dc>
    d670:	90 10 00 12 	mov  %l2, %o0
    d674:	12 80 00 08 	bne  d694 <__divdf3+0xa8>
    d678:	80 a2 e0 02 	cmp  %o3, 2
    d67c:	98 10 20 00 	clr  %o4
    d680:	9a 10 20 00 	clr  %o5
    d684:	c0 27 bf e8 	clr  [ %fp + -24 ]
    d688:	90 10 00 12 	mov  %l2, %o0
    d68c:	10 80 00 4f 	b  d7c8 <__divdf3+0x1dc>
    d690:	d8 3f bf f0 	std  %o4, [ %fp + -16 ]
    d694:	12 80 00 06 	bne  d6ac <__divdf3+0xc0>
    d698:	c2 07 bf e8 	ld  [ %fp + -24 ], %g1
    d69c:	82 10 20 04 	mov  4, %g1
    d6a0:	90 10 00 12 	mov  %l2, %o0
    d6a4:	10 80 00 49 	b  d7c8 <__divdf3+0x1dc>
    d6a8:	c2 27 bf e0 	st  %g1, [ %fp + -32 ]
    d6ac:	d0 1f bf f0 	ldd  [ %fp + -16 ], %o0
    d6b0:	e0 1f bf d8 	ldd  [ %fp + -40 ], %l0
    d6b4:	da 07 bf d0 	ld  [ %fp + -48 ], %o5
    d6b8:	80 a4 00 08 	cmp  %l0, %o0
    d6bc:	82 20 40 0d 	sub  %g1, %o5, %g1
    d6c0:	18 80 00 38 	bgu  d7a0 <__divdf3+0x1b4>
    d6c4:	c2 27 bf e8 	st  %g1, [ %fp + -24 ]
    d6c8:	80 a4 00 08 	cmp  %l0, %o0
    d6cc:	02 80 00 33 	be  d798 <__divdf3+0x1ac>
    d6d0:	80 a4 40 09 	cmp  %l1, %o1
    d6d4:	31 04 00 00 	sethi  %hi(0x10000000), %i0
    d6d8:	b2 10 20 00 	clr  %i1
    d6dc:	a8 10 20 00 	clr  %l4
    d6e0:	aa 10 20 00 	clr  %l5
    d6e4:	9b 2e 20 1f 	sll  %i0, 0x1f, %o5
    d6e8:	83 36 60 01 	srl  %i1, 1, %g1
    d6ec:	80 a4 00 08 	cmp  %l0, %o0
    d6f0:	18 80 00 09 	bgu  d714 <__divdf3+0x128>
    d6f4:	96 13 40 01 	or  %o5, %g1, %o3
    d6f8:	80 a4 00 08 	cmp  %l0, %o0
    d6fc:	02 80 00 23 	be  d788 <__divdf3+0x19c>
    d700:	80 a4 40 09 	cmp  %l1, %o1
    d704:	92 a2 40 11 	subcc  %o1, %l1, %o1
    d708:	a8 15 00 18 	or  %l4, %i0, %l4
    d70c:	90 62 00 10 	subx  %o0, %l0, %o0
    d710:	aa 15 40 19 	or  %l5, %i1, %l5
    d714:	9b 32 60 1f 	srl  %o1, 0x1f, %o5
    d718:	82 02 00 08 	add  %o0, %o0, %g1
    d71c:	95 36 20 01 	srl  %i0, 1, %o2
    d720:	b4 13 40 01 	or  %o5, %g1, %i2
    d724:	b6 02 40 09 	add  %o1, %o1, %i3
    d728:	b0 10 00 0a 	mov  %o2, %i0
    d72c:	b2 10 00 0b 	mov  %o3, %i1
    d730:	90 10 00 1a 	mov  %i2, %o0
    d734:	80 92 80 0b 	orcc  %o2, %o3, %g0
    d738:	12 bf ff eb 	bne  d6e4 <__divdf3+0xf8>
    d73c:	92 10 00 1b 	mov  %i3, %o1
    d740:	98 0d 20 00 	and  %l4, 0, %o4
    d744:	80 a3 20 00 	cmp  %o4, 0
    d748:	12 80 00 05 	bne  d75c <__divdf3+0x170>
    d74c:	9a 0d 60 ff 	and  %l5, 0xff, %o5
    d750:	80 a3 60 80 	cmp  %o5, 0x80
    d754:	02 80 00 04 	be  d764 <__divdf3+0x178>
    d758:	9a 0d 61 00 	and  %l5, 0x100, %o5
    d75c:	10 bf ff c4 	b  d66c <__divdf3+0x80>
    d760:	e8 3c a0 10 	std  %l4, [ %l2 + 0x10 ]
    d764:	80 93 00 0d 	orcc  %o4, %o5, %g0
    d768:	32 80 00 06 	bne,a   d780 <__divdf3+0x194>
    d76c:	aa 85 60 80 	addcc  %l5, 0x80, %l5
    d770:	80 96 80 1b 	orcc  %i2, %i3, %g0
    d774:	22 bf ff be 	be,a   d66c <__divdf3+0x80>
    d778:	e8 3c a0 10 	std  %l4, [ %l2 + 0x10 ]
    d77c:	aa 85 60 80 	addcc  %l5, 0x80, %l5
    d780:	10 bf ff f7 	b  d75c <__divdf3+0x170>
    d784:	a8 45 20 00 	addx  %l4, 0, %l4
    d788:	18 bf ff e4 	bgu  d718 <__divdf3+0x12c>
    d78c:	9b 32 60 1f 	srl  %o1, 0x1f, %o5
    d790:	10 bf ff de 	b  d708 <__divdf3+0x11c>
    d794:	92 a2 40 11 	subcc  %o1, %l1, %o1
    d798:	08 bf ff d0 	bleu  d6d8 <__divdf3+0xec>
    d79c:	31 04 00 00 	sethi  %hi(0x10000000), %i0
    d7a0:	c2 04 a0 08 	ld  [ %l2 + 8 ], %g1
    d7a4:	95 32 60 1f 	srl  %o1, 0x1f, %o2
    d7a8:	96 02 00 08 	add  %o0, %o0, %o3
    d7ac:	82 00 7f ff 	add  %g1, -1, %g1
    d7b0:	98 12 80 0b 	or  %o2, %o3, %o4
    d7b4:	9a 02 40 09 	add  %o1, %o1, %o5
    d7b8:	c2 24 a0 08 	st  %g1, [ %l2 + 8 ]
    d7bc:	90 10 00 0c 	mov  %o4, %o0
    d7c0:	10 bf ff c5 	b  d6d4 <__divdf3+0xe8>
    d7c4:	92 10 00 0d 	mov  %o5, %o1
    d7c8:	40 00 01 3c 	call  dcb8 <__pack_d>
    d7cc:	01 00 00 00 	nop 
    d7d0:	b0 10 00 08 	mov  %o0, %i0
    d7d4:	81 c7 e0 08 	ret 
    d7d8:	93 e8 00 09 	restore  %g0, %o1, %o1

0000d7dc <__eqdf2>:
    d7dc:	9d e3 bf 58 	save  %sp, -168, %sp
    d7e0:	90 07 bf c0 	add  %fp, -64, %o0
    d7e4:	f0 3f bf c0 	std  %i0, [ %fp + -64 ]
    d7e8:	f4 3f bf b8 	std  %i2, [ %fp + -72 ]
    d7ec:	a0 07 bf e0 	add  %fp, -32, %l0
    d7f0:	40 00 01 b3 	call  debc <__unpack_d>
    d7f4:	92 10 00 10 	mov  %l0, %o1
    d7f8:	b6 07 bf c8 	add  %fp, -56, %i3
    d7fc:	90 07 bf b8 	add  %fp, -72, %o0
    d800:	40 00 01 af 	call  debc <__unpack_d>
    d804:	92 10 00 1b 	mov  %i3, %o1
    d808:	c2 07 bf e0 	ld  [ %fp + -32 ], %g1
    d80c:	80 a0 60 01 	cmp  %g1, 1
    d810:	08 80 00 0a 	bleu  d838 <__eqdf2+0x5c>
    d814:	b0 10 20 01 	mov  1, %i0
    d818:	c2 07 bf c8 	ld  [ %fp + -56 ], %g1
    d81c:	90 10 00 10 	mov  %l0, %o0
    d820:	80 a0 60 01 	cmp  %g1, 1
    d824:	08 80 00 05 	bleu  d838 <__eqdf2+0x5c>
    d828:	92 10 00 1b 	mov  %i3, %o1
    d82c:	40 00 01 f4 	call  dffc <__fpcmp_parts_d>
    d830:	01 00 00 00 	nop 
    d834:	b0 10 00 08 	mov  %o0, %i0
    d838:	81 c7 e0 08 	ret 
    d83c:	81 e8 00 00 	restore 

0000d840 <__nedf2>:
    d840:	9d e3 bf 58 	save  %sp, -168, %sp
    d844:	90 07 bf c0 	add  %fp, -64, %o0
    d848:	f0 3f bf c0 	std  %i0, [ %fp + -64 ]
    d84c:	f4 3f bf b8 	std  %i2, [ %fp + -72 ]
    d850:	a0 07 bf e0 	add  %fp, -32, %l0
    d854:	40 00 01 9a 	call  debc <__unpack_d>
    d858:	92 10 00 10 	mov  %l0, %o1
    d85c:	b6 07 bf c8 	add  %fp, -56, %i3
    d860:	90 07 bf b8 	add  %fp, -72, %o0
    d864:	40 00 01 96 	call  debc <__unpack_d>
    d868:	92 10 00 1b 	mov  %i3, %o1
    d86c:	c2 07 bf e0 	ld  [ %fp + -32 ], %g1
    d870:	80 a0 60 01 	cmp  %g1, 1
    d874:	08 80 00 0a 	bleu  d89c <__nedf2+0x5c>
    d878:	b0 10 20 01 	mov  1, %i0
    d87c:	c2 07 bf c8 	ld  [ %fp + -56 ], %g1
    d880:	90 10 00 10 	mov  %l0, %o0
    d884:	80 a0 60 01 	cmp  %g1, 1
    d888:	08 80 00 05 	bleu  d89c <__nedf2+0x5c>
    d88c:	92 10 00 1b 	mov  %i3, %o1
    d890:	40 00 01 db 	call  dffc <__fpcmp_parts_d>
    d894:	01 00 00 00 	nop 
    d898:	b0 10 00 08 	mov  %o0, %i0
    d89c:	81 c7 e0 08 	ret 
    d8a0:	81 e8 00 00 	restore 

0000d8a4 <__gtdf2>:
    d8a4:	9d e3 bf 58 	save  %sp, -168, %sp
    d8a8:	90 07 bf c0 	add  %fp, -64, %o0
    d8ac:	f0 3f bf c0 	std  %i0, [ %fp + -64 ]
    d8b0:	f4 3f bf b8 	std  %i2, [ %fp + -72 ]
    d8b4:	a0 07 bf e0 	add  %fp, -32, %l0
    d8b8:	40 00 01 81 	call  debc <__unpack_d>
    d8bc:	92 10 00 10 	mov  %l0, %o1
    d8c0:	b6 07 bf c8 	add  %fp, -56, %i3
    d8c4:	90 07 bf b8 	add  %fp, -72, %o0
    d8c8:	40 00 01 7d 	call  debc <__unpack_d>
    d8cc:	92 10 00 1b 	mov  %i3, %o1
    d8d0:	c2 07 bf e0 	ld  [ %fp + -32 ], %g1
    d8d4:	80 a0 60 01 	cmp  %g1, 1
    d8d8:	08 80 00 0a 	bleu  d900 <__gtdf2+0x5c>
    d8dc:	b0 10 3f ff 	mov  -1, %i0
    d8e0:	c2 07 bf c8 	ld  [ %fp + -56 ], %g1
    d8e4:	90 10 00 10 	mov  %l0, %o0
    d8e8:	80 a0 60 01 	cmp  %g1, 1
    d8ec:	08 80 00 05 	bleu  d900 <__gtdf2+0x5c>
    d8f0:	92 10 00 1b 	mov  %i3, %o1
    d8f4:	40 00 01 c2 	call  dffc <__fpcmp_parts_d>
    d8f8:	01 00 00 00 	nop 
    d8fc:	b0 10 00 08 	mov  %o0, %i0
    d900:	81 c7 e0 08 	ret 
    d904:	81 e8 00 00 	restore 

0000d908 <__gedf2>:
    d908:	9d e3 bf 58 	save  %sp, -168, %sp
    d90c:	90 07 bf c0 	add  %fp, -64, %o0
    d910:	f0 3f bf c0 	std  %i0, [ %fp + -64 ]
    d914:	f4 3f bf b8 	std  %i2, [ %fp + -72 ]
    d918:	a0 07 bf e0 	add  %fp, -32, %l0
    d91c:	40 00 01 68 	call  debc <__unpack_d>
    d920:	92 10 00 10 	mov  %l0, %o1
    d924:	b6 07 bf c8 	add  %fp, -56, %i3
    d928:	90 07 bf b8 	add  %fp, -72, %o0
    d92c:	40 00 01 64 	call  debc <__unpack_d>
    d930:	92 10 00 1b 	mov  %i3, %o1
    d934:	c2 07 bf e0 	ld  [ %fp + -32 ], %g1
    d938:	80 a0 60 01 	cmp  %g1, 1
    d93c:	08 80 00 0a 	bleu  d964 <__gedf2+0x5c>
    d940:	b0 10 3f ff 	mov  -1, %i0
    d944:	c2 07 bf c8 	ld  [ %fp + -56 ], %g1
    d948:	90 10 00 10 	mov  %l0, %o0
    d94c:	80 a0 60 01 	cmp  %g1, 1
    d950:	08 80 00 05 	bleu  d964 <__gedf2+0x5c>
    d954:	92 10 00 1b 	mov  %i3, %o1
    d958:	40 00 01 a9 	call  dffc <__fpcmp_parts_d>
    d95c:	01 00 00 00 	nop 
    d960:	b0 10 00 08 	mov  %o0, %i0
    d964:	81 c7 e0 08 	ret 
    d968:	81 e8 00 00 	restore 

0000d96c <__ltdf2>:
    d96c:	9d e3 bf 58 	save  %sp, -168, %sp
    d970:	90 07 bf c0 	add  %fp, -64, %o0
    d974:	f0 3f bf c0 	std  %i0, [ %fp + -64 ]
    d978:	f4 3f bf b8 	std  %i2, [ %fp + -72 ]
    d97c:	a0 07 bf e0 	add  %fp, -32, %l0
    d980:	40 00 01 4f 	call  debc <__unpack_d>
    d984:	92 10 00 10 	mov  %l0, %o1
    d988:	b6 07 bf c8 	add  %fp, -56, %i3
    d98c:	90 07 bf b8 	add  %fp, -72, %o0
    d990:	40 00 01 4b 	call  debc <__unpack_d>
    d994:	92 10 00 1b 	mov  %i3, %o1
    d998:	c2 07 bf e0 	ld  [ %fp + -32 ], %g1
    d99c:	80 a0 60 01 	cmp  %g1, 1
    d9a0:	08 80 00 0a 	bleu  d9c8 <__ltdf2+0x5c>
    d9a4:	b0 10 20 01 	mov  1, %i0
    d9a8:	c2 07 bf c8 	ld  [ %fp + -56 ], %g1
    d9ac:	90 10 00 10 	mov  %l0, %o0
    d9b0:	80 a0 60 01 	cmp  %g1, 1
    d9b4:	08 80 00 05 	bleu  d9c8 <__ltdf2+0x5c>
    d9b8:	92 10 00 1b 	mov  %i3, %o1
    d9bc:	40 00 01 90 	call  dffc <__fpcmp_parts_d>
    d9c0:	01 00 00 00 	nop 
    d9c4:	b0 10 00 08 	mov  %o0, %i0
    d9c8:	81 c7 e0 08 	ret 
    d9cc:	81 e8 00 00 	restore 

0000d9d0 <__ledf2>:
    d9d0:	9d e3 bf 58 	save  %sp, -168, %sp
    d9d4:	90 07 bf c0 	add  %fp, -64, %o0
    d9d8:	f0 3f bf c0 	std  %i0, [ %fp + -64 ]
    d9dc:	f4 3f bf b8 	std  %i2, [ %fp + -72 ]
    d9e0:	a0 07 bf e0 	add  %fp, -32, %l0
    d9e4:	40 00 01 36 	call  debc <__unpack_d>
    d9e8:	92 10 00 10 	mov  %l0, %o1
    d9ec:	b6 07 bf c8 	add  %fp, -56, %i3
    d9f0:	90 07 bf b8 	add  %fp, -72, %o0
    d9f4:	40 00 01 32 	call  debc <__unpack_d>
    d9f8:	92 10 00 1b 	mov  %i3, %o1
    d9fc:	c2 07 bf e0 	ld  [ %fp + -32 ], %g1
    da00:	80 a0 60 01 	cmp  %g1, 1
    da04:	08 80 00 0a 	bleu  da2c <__ledf2+0x5c>
    da08:	b0 10 20 01 	mov  1, %i0
    da0c:	c2 07 bf c8 	ld  [ %fp + -56 ], %g1
    da10:	90 10 00 10 	mov  %l0, %o0
    da14:	80 a0 60 01 	cmp  %g1, 1
    da18:	08 80 00 05 	bleu  da2c <__ledf2+0x5c>
    da1c:	92 10 00 1b 	mov  %i3, %o1
    da20:	40 00 01 77 	call  dffc <__fpcmp_parts_d>
    da24:	01 00 00 00 	nop 
    da28:	b0 10 00 08 	mov  %o0, %i0
    da2c:	81 c7 e0 08 	ret 
    da30:	81 e8 00 00 	restore 

0000da34 <__floatsidf>:
    da34:	9d e3 bf 80 	save  %sp, -128, %sp
    da38:	82 10 20 03 	mov  3, %g1
    da3c:	80 a6 20 00 	cmp  %i0, 0
    da40:	c2 27 bf e0 	st  %g1, [ %fp + -32 ]
    da44:	83 36 20 1f 	srl  %i0, 0x1f, %g1
    da48:	12 80 00 08 	bne  da68 <__floatsidf+0x34>
    da4c:	c2 27 bf e4 	st  %g1, [ %fp + -28 ]
    da50:	82 10 20 02 	mov  2, %g1
    da54:	c2 27 bf e0 	st  %g1, [ %fp + -32 ]
    da58:	40 00 00 98 	call  dcb8 <__pack_d>
    da5c:	90 07 bf e0 	add  %fp, -32, %o0
    da60:	10 80 00 28 	b  db00 <__floatsidf+0xcc>
    da64:	b0 10 00 08 	mov  %o0, %i0
    da68:	80 a0 60 00 	cmp  %g1, 0
    da6c:	82 10 20 3c 	mov  0x3c, %g1
    da70:	02 80 00 20 	be  daf0 <__floatsidf+0xbc>
    da74:	c2 27 bf e8 	st  %g1, [ %fp + -24 ]
    da78:	03 20 00 00 	sethi  %hi(0x80000000), %g1
    da7c:	80 a6 00 01 	cmp  %i0, %g1
    da80:	03 00 00 3a 	sethi  %hi(0xe800), %g1
    da84:	02 80 00 1e 	be  dafc <__floatsidf+0xc8>
    da88:	d0 18 63 f0 	ldd  [ %g1 + 0x3f0 ], %o0	! ebf0 <__infinity+0x8>
    da8c:	98 20 00 18 	neg  %i0, %o4
    da90:	9a 10 00 0c 	mov  %o4, %o5
    da94:	99 3b 20 1f 	sra  %o4, 0x1f, %o4
    da98:	d8 3f bf f0 	std  %o4, [ %fp + -16 ]
    da9c:	da 07 bf f0 	ld  [ %fp + -16 ], %o5
    daa0:	03 03 ff ff 	sethi  %hi(0xffffc00), %g1
    daa4:	82 10 63 ff 	or  %g1, 0x3ff, %g1	! fffffff <_RAM_SIZE+0xdffffff>
    daa8:	80 a3 40 01 	cmp  %o5, %g1
    daac:	18 bf ff eb 	bgu  da58 <__floatsidf+0x24>
    dab0:	d8 1f bf f0 	ldd  [ %fp + -16 ], %o4
    dab4:	82 03 00 0c 	add  %o4, %o4, %g1
    dab8:	97 33 60 1f 	srl  %o5, 0x1f, %o3
    dabc:	9a 03 40 0d 	add  %o5, %o5, %o5
    dac0:	98 12 c0 01 	or  %o3, %g1, %o4
    dac4:	c2 07 bf e8 	ld  [ %fp + -24 ], %g1
    dac8:	d8 3f bf f0 	std  %o4, [ %fp + -16 ]
    dacc:	da 07 bf f0 	ld  [ %fp + -16 ], %o5
    dad0:	82 00 7f ff 	add  %g1, -1, %g1
    dad4:	c2 27 bf e8 	st  %g1, [ %fp + -24 ]
    dad8:	03 03 ff ff 	sethi  %hi(0xffffc00), %g1
    dadc:	82 10 63 ff 	or  %g1, 0x3ff, %g1	! fffffff <_RAM_SIZE+0xdffffff>
    dae0:	80 a3 40 01 	cmp  %o5, %g1
    dae4:	08 bf ff f4 	bleu  dab4 <__floatsidf+0x80>
    dae8:	d8 1f bf f0 	ldd  [ %fp + -16 ], %o4
    daec:	30 bf ff db 	b,a   da58 <__floatsidf+0x24>
    daf0:	9a 10 00 18 	mov  %i0, %o5
    daf4:	10 bf ff e9 	b  da98 <__floatsidf+0x64>
    daf8:	99 3e 20 1f 	sra  %i0, 0x1f, %o4
    dafc:	b0 10 00 08 	mov  %o0, %i0
    db00:	81 c7 e0 08 	ret 
    db04:	93 e8 00 09 	restore  %g0, %o1, %o1

0000db08 <__fixdfsi>:
    db08:	9d e3 bf 78 	save  %sp, -136, %sp
    db0c:	f0 3f bf d8 	std  %i0, [ %fp + -40 ]
    db10:	92 07 bf e0 	add  %fp, -32, %o1
    db14:	40 00 00 ea 	call  debc <__unpack_d>
    db18:	90 07 bf d8 	add  %fp, -40, %o0
    db1c:	da 07 bf e0 	ld  [ %fp + -32 ], %o5
    db20:	80 a3 60 02 	cmp  %o5, 2
    db24:	02 80 00 22 	be  dbac <__fixdfsi+0xa4>
    db28:	b0 10 20 00 	clr  %i0
    db2c:	80 a3 60 01 	cmp  %o5, 1
    db30:	08 80 00 1f 	bleu  dbac <__fixdfsi+0xa4>
    db34:	80 a3 60 04 	cmp  %o5, 4
    db38:	32 80 00 09 	bne,a   db5c <__fixdfsi+0x54>
    db3c:	da 07 bf e8 	ld  [ %fp + -24 ], %o5
    db40:	c2 07 bf e4 	ld  [ %fp + -28 ], %g1
    db44:	80 a0 60 00 	cmp  %g1, 0
    db48:	12 80 00 19 	bne  dbac <__fixdfsi+0xa4>
    db4c:	31 20 00 00 	sethi  %hi(0x80000000), %i0
    db50:	03 1f ff ff 	sethi  %hi(0x7ffffc00), %g1
    db54:	10 80 00 16 	b  dbac <__fixdfsi+0xa4>
    db58:	b0 10 63 ff 	or  %g1, 0x3ff, %i0	! 7fffffff <_RAM_SIZE+0x7dffffff>
    db5c:	80 a3 60 00 	cmp  %o5, 0
    db60:	06 80 00 13 	bl  dbac <__fixdfsi+0xa4>
    db64:	b0 10 20 00 	clr  %i0
    db68:	80 a3 60 1e 	cmp  %o5, 0x1e
    db6c:	04 80 00 08 	ble  db8c <__fixdfsi+0x84>
    db70:	d0 1f bf f0 	ldd  [ %fp + -16 ], %o0
    db74:	c2 07 bf e4 	ld  [ %fp + -28 ], %g1
    db78:	80 a0 60 00 	cmp  %g1, 0
    db7c:	12 80 00 0c 	bne  dbac <__fixdfsi+0xa4>
    db80:	31 20 00 00 	sethi  %hi(0x80000000), %i0
    db84:	10 bf ff f4 	b  db54 <__fixdfsi+0x4c>
    db88:	03 1f ff ff 	sethi  %hi(0x7ffffc00), %g1
    db8c:	94 10 20 3c 	mov  0x3c, %o2
    db90:	40 00 00 30 	call  dc50 <__lshrdi3>
    db94:	94 22 80 0d 	sub  %o2, %o5, %o2
    db98:	c2 07 bf e4 	ld  [ %fp + -28 ], %g1
    db9c:	80 a0 60 00 	cmp  %g1, 0
    dba0:	02 80 00 03 	be  dbac <__fixdfsi+0xa4>
    dba4:	b0 10 00 09 	mov  %o1, %i0
    dba8:	b0 20 00 09 	neg  %o1, %i0
    dbac:	81 c7 e0 08 	ret 
    dbb0:	81 e8 00 00 	restore 

0000dbb4 <__negdf2>:
    dbb4:	9d e3 bf 78 	save  %sp, -136, %sp
    dbb8:	f0 3f bf d8 	std  %i0, [ %fp + -40 ]
    dbbc:	a0 07 bf e0 	add  %fp, -32, %l0
    dbc0:	90 07 bf d8 	add  %fp, -40, %o0
    dbc4:	40 00 00 be 	call  debc <__unpack_d>
    dbc8:	92 10 00 10 	mov  %l0, %o1
    dbcc:	c2 07 bf e4 	ld  [ %fp + -28 ], %g1
    dbd0:	90 10 00 10 	mov  %l0, %o0
    dbd4:	80 a0 00 01 	cmp  %g0, %g1
    dbd8:	9a 60 3f ff 	subx  %g0, -1, %o5
    dbdc:	40 00 00 37 	call  dcb8 <__pack_d>
    dbe0:	da 27 bf e4 	st  %o5, [ %fp + -28 ]
    dbe4:	b0 10 00 08 	mov  %o0, %i0
    dbe8:	81 c7 e0 08 	ret 
    dbec:	93 e8 00 09 	restore  %g0, %o1, %o1

0000dbf0 <__truncdfsf2>:
    dbf0:	9d e3 bf 78 	save  %sp, -136, %sp
    dbf4:	90 07 bf d8 	add  %fp, -40, %o0
    dbf8:	92 07 bf e0 	add  %fp, -32, %o1
    dbfc:	40 00 00 b0 	call  debc <__unpack_d>
    dc00:	f0 3f bf d8 	std  %i0, [ %fp + -40 ]
    dc04:	e0 1f bf f0 	ldd  [ %fp + -16 ], %l0
    dc08:	98 10 20 00 	clr  %o4
    dc0c:	97 2c 20 02 	sll  %l0, 2, %o3
    dc10:	83 34 60 1e 	srl  %l1, 0x1e, %g1
    dc14:	1b 0f ff ff 	sethi  %hi(0x3ffffc00), %o5
    dc18:	98 0c 00 0c 	and  %l0, %o4, %o4
    dc1c:	9a 13 63 ff 	or  %o5, 0x3ff, %o5
    dc20:	d0 1f bf e0 	ldd  [ %fp + -32 ], %o0
    dc24:	9a 0c 40 0d 	and  %l1, %o5, %o5
    dc28:	d4 07 bf e8 	ld  [ %fp + -24 ], %o2
    dc2c:	a2 12 c0 01 	or  %o3, %g1, %l1
    dc30:	80 93 00 0d 	orcc  %o4, %o5, %g0
    dc34:	02 80 00 03 	be  dc40 <__truncdfsf2+0x50>
    dc38:	96 10 00 11 	mov  %l1, %o3
    dc3c:	96 14 60 01 	or  %l1, 1, %o3
    dc40:	40 00 00 17 	call  dc9c <__make_fp>
    dc44:	01 00 00 00 	nop 
    dc48:	81 c7 e0 08 	ret 
    dc4c:	91 e8 00 08 	restore  %g0, %o0, %o0

0000dc50 <__lshrdi3>:
    dc50:	9d e3 bf 98 	save  %sp, -104, %sp
    dc54:	9e 96 a0 00 	orcc  %i2, 0, %o7
    dc58:	02 80 00 0f 	be  dc94 <__lshrdi3+0x44>
    dc5c:	b8 10 00 18 	mov  %i0, %i4
    dc60:	b1 36 40 0f 	srl  %i1, %o7, %i0
    dc64:	82 10 20 20 	mov  0x20, %g1
    dc68:	b4 10 20 00 	clr  %i2
    dc6c:	82 20 40 0f 	sub  %g1, %o7, %g1
    dc70:	9a 20 00 01 	neg  %g1, %o5
    dc74:	b3 2f 00 01 	sll  %i4, %g1, %i1
    dc78:	80 a0 60 00 	cmp  %g1, 0
    dc7c:	04 80 00 04 	ble  dc8c <__lshrdi3+0x3c>
    dc80:	b7 37 00 0d 	srl  %i4, %o5, %i3
    dc84:	b5 37 00 0f 	srl  %i4, %o7, %i2
    dc88:	b6 16 00 19 	or  %i0, %i1, %i3
    dc8c:	b0 10 00 1a 	mov  %i2, %i0
    dc90:	b2 10 00 1b 	mov  %i3, %i1
    dc94:	81 c7 e0 08 	ret 
    dc98:	81 e8 00 00 	restore 

0000dc9c <__make_fp>:
    dc9c:	9d e3 bf 88 	save  %sp, -120, %sp
    dca0:	f0 3f bf e8 	std  %i0, [ %fp + -24 ]
    dca4:	f4 3f bf f0 	std  %i2, [ %fp + -16 ]
    dca8:	40 00 01 41 	call  e1ac <__pack_f>
    dcac:	90 07 bf e8 	add  %fp, -24, %o0
    dcb0:	81 c7 e0 08 	ret 
    dcb4:	91 e8 00 08 	restore  %g0, %o0, %o0

0000dcb8 <__pack_d>:
    dcb8:	9d e3 bf 98 	save  %sp, -104, %sp
    dcbc:	c2 06 00 00 	ld  [ %i0 ], %g1
    dcc0:	e0 1e 20 10 	ldd  [ %i0 + 0x10 ], %l0
    dcc4:	80 a0 60 01 	cmp  %g1, 1
    dcc8:	e4 06 20 04 	ld  [ %i0 + 4 ], %l2
    dccc:	18 80 00 08 	bgu  dcec <__pack_d+0x34>
    dcd0:	b2 10 20 00 	clr  %i1
    dcd4:	19 00 02 00 	sethi  %hi(0x80000), %o4
    dcd8:	9a 10 20 00 	clr  %o5
    dcdc:	a0 14 00 0c 	or  %l0, %o4, %l0
    dce0:	a2 14 40 0d 	or  %l1, %o5, %l1
    dce4:	10 80 00 65 	b  de78 <__pack_d+0x1c0>
    dce8:	b2 10 27 ff 	mov  0x7ff, %i1
    dcec:	80 a0 60 04 	cmp  %g1, 4
    dcf0:	22 80 00 43 	be,a   ddfc <__pack_d+0x144>
    dcf4:	b2 10 27 ff 	mov  0x7ff, %i1
    dcf8:	80 a0 60 02 	cmp  %g1, 2
    dcfc:	22 80 00 41 	be,a   de00 <__pack_d+0x148>
    dd00:	a0 10 20 00 	clr  %l0
    dd04:	80 94 00 11 	orcc  %l0, %l1, %g0
    dd08:	02 80 00 5d 	be  de7c <__pack_d+0x1c4>
    dd0c:	9a 0e 67 ff 	and  %i1, 0x7ff, %o5
    dd10:	d4 06 20 08 	ld  [ %i0 + 8 ], %o2
    dd14:	80 a2 bc 02 	cmp  %o2, -1022
    dd18:	16 80 00 36 	bge  ddf0 <__pack_d+0x138>
    dd1c:	80 a2 a3 ff 	cmp  %o2, 0x3ff
    dd20:	82 10 3c 02 	mov  -1022, %g1
    dd24:	b0 20 40 0a 	sub  %g1, %o2, %i0
    dd28:	80 a6 20 38 	cmp  %i0, 0x38
    dd2c:	04 80 00 1e 	ble  dda4 <__pack_d+0xec>
    dd30:	90 10 20 00 	clr  %o0
    dd34:	a0 10 20 00 	clr  %l0
    dd38:	a2 10 20 00 	clr  %l1
    dd3c:	98 0c 20 00 	and  %l0, 0, %o4
    dd40:	80 a3 20 00 	cmp  %o4, 0
    dd44:	12 80 00 05 	bne  dd58 <__pack_d+0xa0>
    dd48:	9a 0c 60 ff 	and  %l1, 0xff, %o5
    dd4c:	80 a3 60 80 	cmp  %o5, 0x80
    dd50:	02 80 00 10 	be  dd90 <__pack_d+0xd8>
    dd54:	9a 0c 61 00 	and  %l1, 0x100, %o5
    dd58:	a2 84 60 7f 	addcc  %l1, 0x7f, %l1
    dd5c:	a0 44 20 00 	addx  %l0, 0, %l0
    dd60:	03 03 ff ff 	sethi  %hi(0xffffc00), %g1
    dd64:	82 10 63 ff 	or  %g1, 0x3ff, %g1	! fffffff <_RAM_SIZE+0xdffffff>
    dd68:	80 a4 00 01 	cmp  %l0, %g1
    dd6c:	38 80 00 02 	bgu,a   dd74 <__pack_d+0xbc>
    dd70:	b2 10 20 01 	mov  1, %i1
    dd74:	97 2c 20 18 	sll  %l0, 0x18, %o3
    dd78:	83 34 60 08 	srl  %l1, 8, %g1
    dd7c:	99 34 20 08 	srl  %l0, 8, %o4
    dd80:	9a 12 c0 01 	or  %o3, %g1, %o5
    dd84:	a0 10 00 0c 	mov  %o4, %l0
    dd88:	10 80 00 3c 	b  de78 <__pack_d+0x1c0>
    dd8c:	a2 10 00 0d 	mov  %o5, %l1
    dd90:	80 93 00 0d 	orcc  %o4, %o5, %g0
    dd94:	02 bf ff f4 	be  dd64 <__pack_d+0xac>
    dd98:	03 03 ff ff 	sethi  %hi(0xffffc00), %g1
    dd9c:	10 bf ff f0 	b  dd5c <__pack_d+0xa4>
    dda0:	a2 84 60 80 	addcc  %l1, 0x80, %l1
    dda4:	92 10 20 01 	mov  1, %o1
    dda8:	40 00 00 ee 	call  e160 <__ashldi3>
    ddac:	94 10 00 18 	mov  %i0, %o2
    ddb0:	92 82 7f ff 	addcc  %o1, -1, %o1
    ddb4:	90 42 3f ff 	addx  %o0, -1, %o0
    ddb8:	92 0c 40 09 	and  %l1, %o1, %o1
    ddbc:	90 0c 00 08 	and  %l0, %o0, %o0
    ddc0:	80 92 00 09 	orcc  %o0, %o1, %g0
    ddc4:	02 80 00 03 	be  ddd0 <__pack_d+0x118>
    ddc8:	a6 10 20 00 	clr  %l3
    ddcc:	a6 10 20 01 	mov  1, %l3
    ddd0:	90 10 00 10 	mov  %l0, %o0
    ddd4:	92 10 00 11 	mov  %l1, %o1
    ddd8:	7f ff ff 9e 	call  dc50 <__lshrdi3>
    dddc:	94 10 00 18 	mov  %i0, %o2
    dde0:	98 10 20 00 	clr  %o4
    dde4:	a2 12 40 13 	or  %o1, %l3, %l1
    dde8:	10 bf ff d5 	b  dd3c <__pack_d+0x84>
    ddec:	a0 12 00 0c 	or  %o0, %o4, %l0
    ddf0:	04 80 00 06 	ble  de08 <__pack_d+0x150>
    ddf4:	98 0c 20 00 	and  %l0, 0, %o4
    ddf8:	b2 10 27 ff 	mov  0x7ff, %i1
    ddfc:	a0 10 20 00 	clr  %l0
    de00:	10 80 00 1e 	b  de78 <__pack_d+0x1c0>
    de04:	a2 10 20 00 	clr  %l1
    de08:	b2 02 a3 ff 	add  %o2, 0x3ff, %i1
    de0c:	80 a3 20 00 	cmp  %o4, 0
    de10:	12 80 00 05 	bne  de24 <__pack_d+0x16c>
    de14:	9a 0c 60 ff 	and  %l1, 0xff, %o5
    de18:	80 a3 60 80 	cmp  %o5, 0x80
    de1c:	02 80 00 11 	be  de60 <__pack_d+0x1a8>
    de20:	98 0c 20 00 	and  %l0, 0, %o4
    de24:	a2 84 60 7f 	addcc  %l1, 0x7f, %l1
    de28:	a0 44 20 00 	addx  %l0, 0, %l0
    de2c:	03 07 ff ff 	sethi  %hi(0x1ffffc00), %g1
    de30:	82 10 63 ff 	or  %g1, 0x3ff, %g1	! 1fffffff <_RAM_SIZE+0x1dffffff>
    de34:	80 a4 00 01 	cmp  %l0, %g1
    de38:	08 bf ff d0 	bleu  dd78 <__pack_d+0xc0>
    de3c:	97 2c 20 18 	sll  %l0, 0x18, %o3
    de40:	97 2c 20 1f 	sll  %l0, 0x1f, %o3
    de44:	83 34 60 01 	srl  %l1, 1, %g1
    de48:	99 34 20 01 	srl  %l0, 1, %o4
    de4c:	9a 12 c0 01 	or  %o3, %g1, %o5
    de50:	b2 06 60 01 	inc  %i1
    de54:	a0 10 00 0c 	mov  %o4, %l0
    de58:	10 bf ff c7 	b  dd74 <__pack_d+0xbc>
    de5c:	a2 10 00 0d 	mov  %o5, %l1
    de60:	9a 0c 61 00 	and  %l1, 0x100, %o5
    de64:	80 93 00 0d 	orcc  %o4, %o5, %g0
    de68:	02 bf ff f2 	be  de30 <__pack_d+0x178>
    de6c:	03 07 ff ff 	sethi  %hi(0x1ffffc00), %g1
    de70:	10 bf ff ee 	b  de28 <__pack_d+0x170>
    de74:	a2 84 60 80 	addcc  %l1, 0x80, %l1
    de78:	9a 0e 67 ff 	and  %i1, 0x7ff, %o5
    de7c:	96 0c a0 01 	and  %l2, 1, %o3
    de80:	99 2b 60 14 	sll  %o5, 0x14, %o4
    de84:	95 2a e0 1f 	sll  %o3, 0x1f, %o2
    de88:	11 00 03 ff 	sethi  %hi(0xffc00), %o0
    de8c:	92 10 3f ff 	mov  -1, %o1
    de90:	90 12 23 ff 	or  %o0, 0x3ff, %o0
    de94:	92 0c 40 09 	and  %l1, %o1, %o1
    de98:	90 0c 00 08 	and  %l0, %o0, %o0
    de9c:	9a 10 20 00 	clr  %o5
    dea0:	90 12 00 0c 	or  %o0, %o4, %o0
    dea4:	92 12 40 0d 	or  %o1, %o5, %o1
    dea8:	96 10 20 00 	clr  %o3
    deac:	b0 12 00 0a 	or  %o0, %o2, %i0
    deb0:	b2 12 40 0b 	or  %o1, %o3, %i1
    deb4:	81 c7 e0 08 	ret 
    deb8:	81 e8 00 00 	restore 

0000debc <__unpack_d>:
    debc:	9d e3 bf 98 	save  %sp, -104, %sp
    dec0:	d8 1e 00 00 	ldd  [ %i0 ], %o4
    dec4:	b6 10 3f ff 	mov  -1, %i3
    dec8:	9e 10 00 19 	mov  %i1, %o7
    decc:	35 00 03 ff 	sethi  %hi(0xffc00), %i2
    ded0:	b2 0b 40 1b 	and  %o5, %i3, %i1
    ded4:	b4 16 a3 ff 	or  %i2, 0x3ff, %i2
    ded8:	bb 33 20 14 	srl  %o4, 0x14, %i5
    dedc:	b7 33 20 1f 	srl  %o4, 0x1f, %i3
    dee0:	b0 0b 00 1a 	and  %o4, %i2, %i0
    dee4:	82 0e e0 01 	and  %i3, 1, %g1
    dee8:	ba 8f 67 ff 	andcc  %i5, 0x7ff, %i5
    deec:	12 80 00 24 	bne  df7c <__unpack_d+0xc0>
    def0:	c2 23 e0 04 	st  %g1, [ %o7 + 4 ]
    def4:	80 96 00 19 	orcc  %i0, %i1, %g0
    def8:	02 80 00 1f 	be  df74 <__unpack_d+0xb8>
    defc:	82 10 20 02 	mov  2, %g1
    df00:	b7 2e 20 08 	sll  %i0, 8, %i3
    df04:	82 10 3c 02 	mov  -1022, %g1
    df08:	b5 36 60 18 	srl  %i1, 0x18, %i2
    df0c:	c2 23 e0 08 	st  %g1, [ %o7 + 8 ]
    df10:	b8 16 80 1b 	or  %i2, %i3, %i4
    df14:	bb 2e 60 08 	sll  %i1, 8, %i5
    df18:	b6 10 20 03 	mov  3, %i3
    df1c:	03 03 ff ff 	sethi  %hi(0xffffc00), %g1
    df20:	b0 10 00 1c 	mov  %i4, %i0
    df24:	82 10 63 ff 	or  %g1, 0x3ff, %g1
    df28:	b2 10 00 1d 	mov  %i5, %i1
    df2c:	80 a7 00 01 	cmp  %i4, %g1
    df30:	18 80 00 0f 	bgu  df6c <__unpack_d+0xb0>
    df34:	f6 23 c0 00 	st  %i3, [ %o7 ]
    df38:	c2 03 e0 08 	ld  [ %o7 + 8 ], %g1
    df3c:	b5 36 60 1f 	srl  %i1, 0x1f, %i2
    df40:	82 00 7f ff 	add  %g1, -1, %g1
    df44:	b6 06 00 18 	add  %i0, %i0, %i3
    df48:	c2 23 e0 08 	st  %g1, [ %o7 + 8 ]
    df4c:	b8 16 80 1b 	or  %i2, %i3, %i4
    df50:	ba 06 40 19 	add  %i1, %i1, %i5
    df54:	03 03 ff ff 	sethi  %hi(0xffffc00), %g1
    df58:	b0 10 00 1c 	mov  %i4, %i0
    df5c:	82 10 63 ff 	or  %g1, 0x3ff, %g1
    df60:	80 a7 00 01 	cmp  %i4, %g1
    df64:	08 bf ff f5 	bleu  df38 <__unpack_d+0x7c>
    df68:	b2 10 00 1d 	mov  %i5, %i1
    df6c:	10 80 00 22 	b  dff4 <__unpack_d+0x138>
    df70:	f0 3b e0 10 	std  %i0, [ %o7 + 0x10 ]
    df74:	10 80 00 20 	b  dff4 <__unpack_d+0x138>
    df78:	c2 23 c0 00 	st  %g1, [ %o7 ]
    df7c:	80 a7 67 ff 	cmp  %i5, 0x7ff
    df80:	02 80 00 0f 	be  dfbc <__unpack_d+0x100>
    df84:	82 07 7c 01 	add  %i5, -1023, %g1
    df88:	b7 36 60 18 	srl  %i1, 0x18, %i3
    df8c:	ba 10 20 03 	mov  3, %i5
    df90:	c2 23 e0 08 	st  %g1, [ %o7 + 8 ]
    df94:	fa 23 c0 00 	st  %i5, [ %o7 ]
    df98:	83 2e 20 08 	sll  %i0, 8, %g1
    df9c:	bb 2e 60 08 	sll  %i1, 8, %i5
    dfa0:	b8 16 c0 01 	or  %i3, %g1, %i4
    dfa4:	35 04 00 00 	sethi  %hi(0x10000000), %i2
    dfa8:	b6 10 20 00 	clr  %i3
    dfac:	b8 17 00 1a 	or  %i4, %i2, %i4
    dfb0:	ba 17 40 1b 	or  %i5, %i3, %i5
    dfb4:	10 80 00 10 	b  dff4 <__unpack_d+0x138>
    dfb8:	f8 3b e0 10 	std  %i4, [ %o7 + 0x10 ]
    dfbc:	80 96 00 19 	orcc  %i0, %i1, %g0
    dfc0:	12 80 00 04 	bne  dfd0 <__unpack_d+0x114>
    dfc4:	39 00 02 00 	sethi  %hi(0x80000), %i4
    dfc8:	10 bf ff eb 	b  df74 <__unpack_d+0xb8>
    dfcc:	82 10 20 04 	mov  4, %g1
    dfd0:	ba 10 20 00 	clr  %i5
    dfd4:	b8 0e 00 1c 	and  %i0, %i4, %i4
    dfd8:	ba 0e 40 1d 	and  %i1, %i5, %i5
    dfdc:	80 97 00 1d 	orcc  %i4, %i5, %g0
    dfe0:	22 bf ff e3 	be,a   df6c <__unpack_d+0xb0>
    dfe4:	c0 23 c0 00 	clr  [ %o7 ]
    dfe8:	82 10 20 01 	mov  1, %g1
    dfec:	10 bf ff e0 	b  df6c <__unpack_d+0xb0>
    dff0:	c2 23 c0 00 	st  %g1, [ %o7 ]
    dff4:	81 c7 e0 08 	ret 
    dff8:	81 e8 00 00 	restore 

0000dffc <__fpcmp_parts_d>:
    dffc:	d8 02 00 00 	ld  [ %o0 ], %o4
    e000:	80 a3 20 01 	cmp  %o4, 1
    e004:	08 80 00 06 	bleu  e01c <__fpcmp_parts_d+0x20>
    e008:	94 10 00 08 	mov  %o0, %o2
    e00c:	d6 02 40 00 	ld  [ %o1 ], %o3
    e010:	80 a2 e0 01 	cmp  %o3, 1
    e014:	18 80 00 04 	bgu  e024 <__fpcmp_parts_d+0x28>
    e018:	80 a3 20 04 	cmp  %o4, 4
    e01c:	10 80 00 4f 	b  e158 <__fpcmp_parts_d+0x15c>
    e020:	90 10 20 01 	mov  1, %o0
    e024:	12 80 00 09 	bne  e048 <__fpcmp_parts_d+0x4c>
    e028:	80 a3 20 04 	cmp  %o4, 4
    e02c:	80 a2 e0 04 	cmp  %o3, 4
    e030:	12 80 00 06 	bne  e048 <__fpcmp_parts_d+0x4c>
    e034:	80 a3 20 04 	cmp  %o4, 4
    e038:	da 02 60 04 	ld  [ %o1 + 4 ], %o5
    e03c:	c2 02 20 04 	ld  [ %o0 + 4 ], %g1
    e040:	10 80 00 46 	b  e158 <__fpcmp_parts_d+0x15c>
    e044:	90 23 40 01 	sub  %o5, %g1, %o0
    e048:	22 80 00 15 	be,a   e09c <__fpcmp_parts_d+0xa0>
    e04c:	c2 02 a0 04 	ld  [ %o2 + 4 ], %g1
    e050:	80 a2 e0 04 	cmp  %o3, 4
    e054:	22 80 00 0b 	be,a   e080 <__fpcmp_parts_d+0x84>
    e058:	c2 02 60 04 	ld  [ %o1 + 4 ], %g1
    e05c:	80 a3 20 02 	cmp  %o4, 2
    e060:	12 80 00 0c 	bne  e090 <__fpcmp_parts_d+0x94>
    e064:	80 a2 e0 02 	cmp  %o3, 2
    e068:	02 80 00 3c 	be  e158 <__fpcmp_parts_d+0x15c>
    e06c:	90 10 20 00 	clr  %o0
    e070:	80 a3 20 02 	cmp  %o4, 2
    e074:	12 80 00 07 	bne  e090 <__fpcmp_parts_d+0x94>
    e078:	80 a2 e0 02 	cmp  %o3, 2
    e07c:	c2 02 60 04 	ld  [ %o1 + 4 ], %g1
    e080:	80 a0 00 01 	cmp  %g0, %g1
    e084:	9a 40 3f ff 	addx  %g0, -1, %o5
    e088:	10 80 00 34 	b  e158 <__fpcmp_parts_d+0x15c>
    e08c:	90 13 60 01 	or  %o5, 1, %o0
    e090:	32 80 00 06 	bne,a   e0a8 <__fpcmp_parts_d+0xac>
    e094:	d8 02 a0 04 	ld  [ %o2 + 4 ], %o4
    e098:	c2 02 a0 04 	ld  [ %o2 + 4 ], %g1
    e09c:	80 a0 00 01 	cmp  %g0, %g1
    e0a0:	10 bf ff fa 	b  e088 <__fpcmp_parts_d+0x8c>
    e0a4:	9a 60 20 00 	subx  %g0, 0, %o5
    e0a8:	c2 02 60 04 	ld  [ %o1 + 4 ], %g1
    e0ac:	80 a3 00 01 	cmp  %o4, %g1
    e0b0:	22 80 00 06 	be,a   e0c8 <__fpcmp_parts_d+0xcc>
    e0b4:	da 02 a0 08 	ld  [ %o2 + 8 ], %o5
    e0b8:	80 a0 00 0c 	cmp  %g0, %o4
    e0bc:	82 60 20 00 	subx  %g0, 0, %g1
    e0c0:	10 80 00 26 	b  e158 <__fpcmp_parts_d+0x15c>
    e0c4:	90 10 60 01 	or  %g1, 1, %o0
    e0c8:	c2 02 60 08 	ld  [ %o1 + 8 ], %g1
    e0cc:	80 a3 40 01 	cmp  %o5, %g1
    e0d0:	14 bf ff fb 	bg  e0bc <__fpcmp_parts_d+0xc0>
    e0d4:	80 a0 00 0c 	cmp  %g0, %o4
    e0d8:	80 a3 40 01 	cmp  %o5, %g1
    e0dc:	06 80 00 17 	bl  e138 <__fpcmp_parts_d+0x13c>
    e0e0:	80 a0 00 0c 	cmp  %g0, %o4
    e0e4:	d0 02 a0 10 	ld  [ %o2 + 0x10 ], %o0
    e0e8:	d6 02 60 10 	ld  [ %o1 + 0x10 ], %o3
    e0ec:	80 a2 00 0b 	cmp  %o0, %o3
    e0f0:	18 bf ff f3 	bgu  e0bc <__fpcmp_parts_d+0xc0>
    e0f4:	80 a0 00 0c 	cmp  %g0, %o4
    e0f8:	80 a2 00 0b 	cmp  %o0, %o3
    e0fc:	22 80 00 11 	be,a   e140 <__fpcmp_parts_d+0x144>
    e100:	da 02 a0 14 	ld  [ %o2 + 0x14 ], %o5
    e104:	80 a2 c0 08 	cmp  %o3, %o0
    e108:	18 80 00 0c 	bgu  e138 <__fpcmp_parts_d+0x13c>
    e10c:	80 a0 00 0c 	cmp  %g0, %o4
    e110:	80 a2 c0 08 	cmp  %o3, %o0
    e114:	22 80 00 04 	be,a   e124 <__fpcmp_parts_d+0x128>
    e118:	da 02 60 14 	ld  [ %o1 + 0x14 ], %o5
    e11c:	10 80 00 0f 	b  e158 <__fpcmp_parts_d+0x15c>
    e120:	90 10 20 00 	clr  %o0
    e124:	c2 02 a0 14 	ld  [ %o2 + 0x14 ], %g1
    e128:	80 a3 40 01 	cmp  %o5, %g1
    e12c:	28 80 00 0b 	bleu,a   e158 <__fpcmp_parts_d+0x15c>
    e130:	90 10 20 00 	clr  %o0
    e134:	80 a0 00 0c 	cmp  %g0, %o4
    e138:	10 bf ff e2 	b  e0c0 <__fpcmp_parts_d+0xc4>
    e13c:	82 40 3f ff 	addx  %g0, -1, %g1
    e140:	c2 02 60 14 	ld  [ %o1 + 0x14 ], %g1
    e144:	80 a3 40 01 	cmp  %o5, %g1
    e148:	28 bf ff f0 	bleu,a   e108 <__fpcmp_parts_d+0x10c>
    e14c:	80 a2 c0 08 	cmp  %o3, %o0
    e150:	10 bf ff db 	b  e0bc <__fpcmp_parts_d+0xc0>
    e154:	80 a0 00 0c 	cmp  %g0, %o4
    e158:	81 c3 e0 08 	retl 
    e15c:	01 00 00 00 	nop 

0000e160 <__ashldi3>:
    e160:	9d e3 bf 98 	save  %sp, -104, %sp
    e164:	9e 96 a0 00 	orcc  %i2, 0, %o7
    e168:	02 80 00 0f 	be  e1a4 <__ashldi3+0x44>
    e16c:	ba 10 00 19 	mov  %i1, %i5
    e170:	82 10 20 20 	mov  0x20, %g1
    e174:	b1 2e 00 0f 	sll  %i0, %o7, %i0
    e178:	82 20 40 0f 	sub  %g1, %o7, %g1
    e17c:	b6 10 20 00 	clr  %i3
    e180:	9a 20 00 01 	neg  %g1, %o5
    e184:	b3 36 40 01 	srl  %i1, %g1, %i1
    e188:	80 a0 60 00 	cmp  %g1, 0
    e18c:	04 80 00 04 	ble  e19c <__ashldi3+0x3c>
    e190:	b5 2f 40 0d 	sll  %i5, %o5, %i2
    e194:	b7 2f 40 0f 	sll  %i5, %o7, %i3
    e198:	b4 16 00 19 	or  %i0, %i1, %i2
    e19c:	b0 10 00 1a 	mov  %i2, %i0
    e1a0:	b2 10 00 1b 	mov  %i3, %i1
    e1a4:	81 c7 e0 08 	ret 
    e1a8:	81 e8 00 00 	restore 

0000e1ac <__pack_f>:
    e1ac:	c2 02 00 00 	ld  [ %o0 ], %g1
    e1b0:	d6 02 20 0c 	ld  [ %o0 + 0xc ], %o3
    e1b4:	80 a0 60 01 	cmp  %g1, 1
    e1b8:	d2 02 20 04 	ld  [ %o0 + 4 ], %o1
    e1bc:	18 80 00 06 	bgu  e1d4 <__pack_f+0x28>
    e1c0:	94 10 20 00 	clr  %o2
    e1c4:	03 00 04 00 	sethi  %hi(0x100000), %g1
    e1c8:	94 10 20 ff 	mov  0xff, %o2
    e1cc:	10 80 00 41 	b  e2d0 <__pack_f+0x124>
    e1d0:	96 12 c0 01 	or  %o3, %g1, %o3
    e1d4:	80 a0 60 04 	cmp  %g1, 4
    e1d8:	22 80 00 2d 	be,a   e28c <__pack_f+0xe0>
    e1dc:	94 10 20 ff 	mov  0xff, %o2
    e1e0:	80 a0 60 02 	cmp  %g1, 2
    e1e4:	22 80 00 3b 	be,a   e2d0 <__pack_f+0x124>
    e1e8:	96 10 20 00 	clr  %o3
    e1ec:	80 a2 e0 00 	cmp  %o3, 0
    e1f0:	02 80 00 39 	be  e2d4 <__pack_f+0x128>
    e1f4:	9a 0a a0 ff 	and  %o2, 0xff, %o5
    e1f8:	d0 02 20 08 	ld  [ %o0 + 8 ], %o0
    e1fc:	80 a2 3f 82 	cmp  %o0, -126
    e200:	16 80 00 20 	bge  e280 <__pack_f+0xd4>
    e204:	80 a2 20 7f 	cmp  %o0, 0x7f
    e208:	82 10 3f 82 	mov  -126, %g1
    e20c:	90 20 40 08 	sub  %g1, %o0, %o0
    e210:	80 a2 20 19 	cmp  %o0, 0x19
    e214:	04 80 00 13 	ble  e260 <__pack_f+0xb4>
    e218:	83 32 c0 08 	srl  %o3, %o0, %g1
    e21c:	96 10 20 00 	clr  %o3
    e220:	82 0a e0 7f 	and  %o3, 0x7f, %g1
    e224:	80 a0 60 40 	cmp  %g1, 0x40
    e228:	02 80 00 0a 	be  e250 <__pack_f+0xa4>
    e22c:	80 8a e0 80 	btst  0x80, %o3
    e230:	96 02 e0 3f 	add  %o3, 0x3f, %o3
    e234:	03 0f ff ff 	sethi  %hi(0x3ffffc00), %g1
    e238:	82 10 63 ff 	or  %g1, 0x3ff, %g1	! 3fffffff <_RAM_SIZE+0x3dffffff>
    e23c:	80 a2 c0 01 	cmp  %o3, %g1
    e240:	38 80 00 02 	bgu,a   e248 <__pack_f+0x9c>
    e244:	94 10 20 01 	mov  1, %o2
    e248:	10 80 00 22 	b  e2d0 <__pack_f+0x124>
    e24c:	97 32 e0 07 	srl  %o3, 7, %o3
    e250:	32 bf ff f9 	bne,a   e234 <__pack_f+0x88>
    e254:	96 02 e0 40 	add  %o3, 0x40, %o3
    e258:	10 bf ff f8 	b  e238 <__pack_f+0x8c>
    e25c:	03 0f ff ff 	sethi  %hi(0x3ffffc00), %g1
    e260:	9a 10 20 01 	mov  1, %o5
    e264:	9b 2b 40 08 	sll  %o5, %o0, %o5
    e268:	9a 03 7f ff 	add  %o5, -1, %o5
    e26c:	9a 0a c0 0d 	and  %o3, %o5, %o5
    e270:	80 a0 00 0d 	cmp  %g0, %o5
    e274:	98 40 20 00 	addx  %g0, 0, %o4
    e278:	10 bf ff ea 	b  e220 <__pack_f+0x74>
    e27c:	96 10 40 0c 	or  %g1, %o4, %o3
    e280:	04 80 00 05 	ble  e294 <__pack_f+0xe8>
    e284:	82 0a e0 7f 	and  %o3, 0x7f, %g1
    e288:	94 10 20 ff 	mov  0xff, %o2
    e28c:	10 80 00 11 	b  e2d0 <__pack_f+0x124>
    e290:	96 10 20 00 	clr  %o3
    e294:	80 a0 60 40 	cmp  %g1, 0x40
    e298:	02 80 00 09 	be  e2bc <__pack_f+0x110>
    e29c:	94 02 20 7f 	add  %o0, 0x7f, %o2
    e2a0:	96 02 e0 3f 	add  %o3, 0x3f, %o3
    e2a4:	80 a2 e0 00 	cmp  %o3, 0
    e2a8:	36 80 00 0a 	bge,a   e2d0 <__pack_f+0x124>
    e2ac:	97 32 e0 07 	srl  %o3, 7, %o3
    e2b0:	97 32 e0 01 	srl  %o3, 1, %o3
    e2b4:	10 bf ff e5 	b  e248 <__pack_f+0x9c>
    e2b8:	94 02 a0 01 	inc  %o2
    e2bc:	80 8a e0 80 	btst  0x80, %o3
    e2c0:	32 bf ff f9 	bne,a   e2a4 <__pack_f+0xf8>
    e2c4:	96 02 e0 40 	add  %o3, 0x40, %o3
    e2c8:	10 bf ff f8 	b  e2a8 <__pack_f+0xfc>
    e2cc:	80 a2 e0 00 	cmp  %o3, 0
    e2d0:	9a 0a a0 ff 	and  %o2, 0xff, %o5
    e2d4:	99 2a 60 1f 	sll  %o1, 0x1f, %o4
    e2d8:	9b 2b 60 17 	sll  %o5, 0x17, %o5
    e2dc:	03 3f e0 00 	sethi  %hi(0xff800000), %g1
    e2e0:	82 2a c0 01 	andn  %o3, %g1, %g1
    e2e4:	82 10 40 0d 	or  %g1, %o5, %g1
    e2e8:	81 c3 e0 08 	retl 
    e2ec:	90 10 40 0c 	or  %g1, %o4, %o0
    e2f0:	00 00 00 0c 	unimp  0xc
    e2f4:	00 00 00 00 	unimp  0
    e2f8:	01 00 01 7c 	sethi  %hi(0x5f000), %g0
    e2fc:	0f 0c 0e 00 	sethi  %hi(0x30380000), %g7
    e300:	00 00 00 14 	unimp  0x14
    e304:	00 00 00 14 	unimp  0x14
    e308:	00 00 c8 18 	unimp  0xc818
    e30c:	00 00 03 44 	unimp  0x344
    e310:	44 0d 1e 2d 	call  10355bc4 <_RAM_SIZE+0xe355bc4>
    e314:	09 0f 1f 00 	sethi  %hi(0x3c7c0000), %g4
    e318:	00 00 00 14 	unimp  0x14
    e31c:	00 00 00 2c 	unimp  0x2c
    e320:	00 00 cb 5c 	unimp  0xcb5c
    e324:	00 00 03 98 	unimp  0x398
    e328:	44 0d 1e 2d 	call  10355bdc <_RAM_SIZE+0xe355bdc>
    e32c:	09 0f 1f 00 	sethi  %hi(0x3c7c0000), %g4
Disassembly of section .data:

0000e330 <_rodata_start>:
    e330:	0a 70 74 68 	desconhecido
    e334:	72 65 61 64 	call  c99668c4 <LEON_REG+0x499668c4>
    e338:	5f 6e 5f 77 	call  7dba6114 <_RAM_SIZE+0x7bba6114>
    e33c:	6f 72 6b 65 	call  bdca90d0 <LEON_REG+0x3dca90d0>
    e340:	72 73 3a 25 	call  c9cdcbd4 <LEON_REG+0x49cdcbd4>
    e344:	64 00 00 00 	call  9000e344 <LEON_REG+0x1000e344>
    e348:	2e 2e 2f 2e 	desconhecido
    e34c:	2e 2f 73 77 	desconhecido
    e350:	2f 64 69 6a 	desconhecido
    e354:	6b 73 74 72 	call  adceb51c <LEON_REG+0x2dceb51c>
    e358:	61 2f 69 6e 	call  84be8910 <LEON_REG+0x4be8910>
    e35c:	70 75 74 5f 	call  c1d6b4d8 <LEON_REG+0x41d6b4d8>
    e360:	73 6d 61 6c 	call  cdb66910 <LEON_REG+0x4db66910>
    e364:	6c 2e 64 61 	call  b0ba74e8 <LEON_REG+0x30ba74e8>
    e368:	74 00 00 00 	call  d000e368 <LEON_REG+0x5000e368>
    e36c:	00 00 00 00 	unimp  0
    e370:	6f 75 74 70 	call  bdd6b530 <LEON_REG+0x3dd6b530>
    e374:	75 74 00 00 	call  d5d0e374 <LEON_REG+0x55d0e374>
    e378:	77 00 00 00 	call  dc00e378 <LEON_REG+0x5c00e378>
    e37c:	00 00 00 00 	unimp  0
    e380:	45 72 72 6f 	call  15caad3c <_RAM_SIZE+0x13caad3c>
    e384:	72 3a 20 66 	call  c8e9651c <LEON_REG+0x48e9651c>
    e388:	6f 70 65 6e 	call  bdc27940 <LEON_REG+0x3dc27940>
    e38c:	28 29 0a 00 	desconhecido
    e390:	0a 00 00 00 	desconhecido
    e394:	00 00 00 00 	unimp  0
    e398:	2d 2d 2d 2d 	sethi  %hi(0xb4b4b400), %l6
    e39c:	2d 2d 2d 2d 	sethi  %hi(0xb4b4b400), %l6
    e3a0:	2d 2d 2d 2d 	sethi  %hi(0xb4b4b400), %l6
    e3a4:	2d 2d 2d 2d 	sethi  %hi(0xb4b4b400), %l6
    e3a8:	2d 2d 2d 2d 	sethi  %hi(0xb4b4b400), %l6
    e3ac:	2d 2d 2d 2d 	sethi  %hi(0xb4b4b400), %l6
    e3b0:	2d 2d 2d 2d 	sethi  %hi(0xb4b4b400), %l6
    e3b4:	2d 2d 2d 2d 	sethi  %hi(0xb4b4b400), %l6
    e3b8:	2d 2d 2d 2d 	sethi  %hi(0xb4b4b400), %l6
    e3bc:	2d 2d 2d 2d 	sethi  %hi(0xb4b4b400), %l6
    e3c0:	2d 2d 2d 2d 	sethi  %hi(0xb4b4b400), %l6
    e3c4:	2d 2d 2d 2d 	sethi  %hi(0xb4b4b400), %l6
    e3c8:	2d 2d 2d 2d 	sethi  %hi(0xb4b4b400), %l6
    e3cc:	2d 2d 2d 2d 	sethi  %hi(0xb4b4b400), %l6
    e3d0:	2d 2d 2d 2d 	sethi  %hi(0xb4b4b400), %l6
    e3d4:	2d 2d 2d 2d 	sethi  %hi(0xb4b4b400), %l6
    e3d8:	2d 2d 2d 2d 	sethi  %hi(0xb4b4b400), %l6
    e3dc:	0a 00 00 00 	desconhecido
    e3e0:	2d 2d 2d 2d 	sethi  %hi(0xb4b4b400), %l6
    e3e4:	2d 2d 2d 2d 	sethi  %hi(0xb4b4b400), %l6
    e3e8:	2d 2d 2d 2d 	sethi  %hi(0xb4b4b400), %l6
    e3ec:	2d 2d 2d 2d 	sethi  %hi(0xb4b4b400), %l6
    e3f0:	2d 2d 2d 2d 	sethi  %hi(0xb4b4b400), %l6
    e3f4:	2d 2d 2d 2d 	sethi  %hi(0xb4b4b400), %l6
    e3f8:	2d 20 20 4d 	sethi  %hi(0x80813400), %l6
    e3fc:	50 53 6f 43 	call  414ea108 <_RAM_SIZE+0x3f4ea108>
    e400:	42 65 6e 63 	call  9969d8c <_RAM_SIZE+0x7969d8c>
    e404:	68 20 20 2d 	call  a08164b8 <LEON_REG+0x208164b8>
    e408:	2d 2d 2d 2d 	sethi  %hi(0xb4b4b400), %l6
    e40c:	2d 2d 2d 2d 	sethi  %hi(0xb4b4b400), %l6
    e410:	2d 2d 2d 2d 	sethi  %hi(0xb4b4b400), %l6
    e414:	2d 2d 2d 2d 	sethi  %hi(0xb4b4b400), %l6
    e418:	2d 2d 2d 2d 	sethi  %hi(0xb4b4b400), %l6
    e41c:	2d 2d 2d 2d 	sethi  %hi(0xb4b4b400), %l6
    e420:	2d 2d 2d 2d 	sethi  %hi(0xb4b4b400), %l6
    e424:	0a 00 00 00 	desconhecido
    e428:	2d 2d 2d 2d 	sethi  %hi(0xb4b4b400), %l6
    e42c:	2d 2d 2d 2d 	sethi  %hi(0xb4b4b400), %l6
    e430:	2d 2d 2d 2d 	sethi  %hi(0xb4b4b400), %l6
    e434:	2d 2d 2d 2d 	sethi  %hi(0xb4b4b400), %l6
    e438:	2d 2d 2d 2d 	sethi  %hi(0xb4b4b400), %l6
    e43c:	2d 2d 20 52 	sethi  %hi(0xb4814800), %l6
    e440:	75 6e 6e 69 	call  d5ba9de4 <LEON_REG+0x55ba9de4>
    e444:	6e 67 3a 20 	call  b99dccc4 <LEON_REG+0x399dccc4>
    e448:	64 69 6a 6b 	call  91a68df4 <LEON_REG+0x11a68df4>
    e44c:	73 74 72 61 	call  cdd2add0 <LEON_REG+0x4dd2add0>
    e450:	20 2d 2d 2d 	desconhecido
    e454:	2d 2d 2d 2d 	sethi  %hi(0xb4b4b400), %l6
    e458:	2d 2d 2d 2d 	sethi  %hi(0xb4b4b400), %l6
    e45c:	2d 2d 2d 2d 	sethi  %hi(0xb4b4b400), %l6
    e460:	2d 2d 2d 2d 	sethi  %hi(0xb4b4b400), %l6
    e464:	2d 2d 2d 2d 	sethi  %hi(0xb4b4b400), %l6
    e468:	2d 2d 2d 2d 	sethi  %hi(0xb4b4b400), %l6
    e46c:	0a 00 00 00 	desconhecido
    e470:	2d 2d 2d 2d 	sethi  %hi(0xb4b4b400), %l6
    e474:	2d 2d 2d 2d 	sethi  %hi(0xb4b4b400), %l6
    e478:	2d 2d 2d 2d 	sethi  %hi(0xb4b4b400), %l6
    e47c:	2d 2d 2d 20 	sethi  %hi(0xb4b48000), %l6
    e480:	54 68 65 20 	call  51a27900 <_RAM_SIZE+0x4fa27900>
    e484:	72 65 73 75 	call  c996b258 <LEON_REG+0x4996b258>
    e488:	6c 74 73 20 	call  b1d2b108 <LEON_REG+0x31d2b108>
    e48c:	77 69 6c 6c 	call  dda6963c <LEON_REG+0x5da6963c>
    e490:	20 62 65 20 	desconhecido
    e494:	61 76 61 69 	call  85da6a38 <LEON_REG+0x5da6a38>
    e498:	6c 61 62 6c 	call  b1866e48 <LEON_REG+0x31866e48>
    e49c:	65 20 69 6e 	call  94828a54 <LEON_REG+0x14828a54>
    e4a0:	20 2d 2d 2d 	desconhecido
    e4a4:	2d 2d 2d 2d 	sethi  %hi(0xb4b4b400), %l6
    e4a8:	2d 2d 2d 2d 	sethi  %hi(0xb4b4b400), %l6
    e4ac:	2d 2d 2d 2d 	sethi  %hi(0xb4b4b400), %l6
    e4b0:	2d 2d 2d 2d 	sethi  %hi(0xb4b4b400), %l6
    e4b4:	0a 00 00 00 	desconhecido
    e4b8:	2d 2d 2d 2d 	sethi  %hi(0xb4b4b400), %l6
    e4bc:	2d 2d 2d 2d 	sethi  %hi(0xb4b4b400), %l6
    e4c0:	2d 2d 2d 2d 	sethi  %hi(0xb4b4b400), %l6
    e4c4:	2d 2d 2d 2d 	sethi  %hi(0xb4b4b400), %l6
    e4c8:	2d 2d 2d 2d 	sethi  %hi(0xb4b4b400), %l6
    e4cc:	2d 20 74 68 	sethi  %hi(0x81d1a000), %l6
    e4d0:	65 20 6f 75 	call  9482a2a4 <LEON_REG+0x1482a2a4>
    e4d4:	74 70 75 74 	call  d1c2baa4 <LEON_REG+0x51c2baa4>
    e4d8:	2e 64 61 74 	desconhecido
    e4dc:	20 66 69 6c 	desconhecido
    e4e0:	65 20 2d 2d 	call  94819994 <LEON_REG+0x14819994>
    e4e4:	2d 2d 2d 2d 	sethi  %hi(0xb4b4b400), %l6
    e4e8:	2d 2d 2d 2d 	sethi  %hi(0xb4b4b400), %l6
    e4ec:	2d 2d 2d 2d 	sethi  %hi(0xb4b4b400), %l6
    e4f0:	2d 2d 2d 2d 	sethi  %hi(0xb4b4b400), %l6
    e4f4:	2d 2d 2d 2d 	sethi  %hi(0xb4b4b400), %l6
    e4f8:	2d 2d 2d 2d 	sethi  %hi(0xb4b4b400), %l6
    e4fc:	0a 00 00 00 	desconhecido
    e500:	76 6f 75 20 	call  d9beb980 <LEON_REG+0x59beb980>
    e504:	74 65 6e 74 	call  d1969ed4 <LEON_REG+0x51969ed4>
    e508:	61 72 20 70 	call  85c966c8 <LEON_REG+0x5c966c8>
    e50c:	65 67 61 72 	call  959e6ad4 <LEON_REG+0x159e6ad4>
    e510:	20 6c 6f 63 	desconhecido
    e514:	6b 00 00 00 	call  ac00e514 <LEON_REG+0x2c00e514>
    e518:	6c 69 62 65 	call  b1a66eac <LEON_REG+0x31a66eac>
    e51c:	72 61 6e 64 	call  c9869eac <LEON_REG+0x49869eac>
    e520:	6f 20 61 20 	call  bc8269a0 <LEON_REG+0x3c8269a0>
    e524:	62 61 72 72 	call  8986aeec <LEON_REG+0x986aeec>
    e528:	65 69 72 61 	call  95a6aeac <LEON_REG+0x15a6aeac>
    e52c:	00 00 00 00 	unimp  0
    e530:	20 25 64 00 	desconhecido
    e534:	00 00 00 00 	unimp  0
    e538:	46 72 6f 6d 	call  19caa2ec <_RAM_SIZE+0x17caa2ec>
    e53c:	20 25 64 20 	desconhecido
    e540:	74 6f 20 25 	call  d1bd65d4 <LEON_REG+0x51bd65d4>
    e544:	64 2c 20 73 	call  90b16710 <LEON_REG+0x10b16710>
    e548:	68 6f 72 74 	call  a1beaf18 <LEON_REG+0x21beaf18>
    e54c:	65 73 74 20 	call  95ceb5cc <LEON_REG+0x15ceb5cc>
    e550:	70 61 74 68 	call  c186b6f0 <LEON_REG+0x4186b6f0>
    e554:	20 69 73 20 	desconhecido
    e558:	25 64 20 69 	desconhecido
    e55c:	6e 20 63 6f 	call  b8827318 <LEON_REG+0x38827318>
    e560:	73 74 2e 20 	call  cdd19de0 <LEON_REG+0x4dd19de0>
    e564:	00 00 00 00 	unimp  0
    e568:	50 61 74 68 	call  4186b708 <_RAM_SIZE+0x3f86b708>
    e56c:	20 69 73 3a 	desconhecido
    e570:	20 20 25 64 	desconhecido
    e574:	00 00 00 00 	unimp  0
    e578:	4f 75 74 20 	call  3dd6b5f8 <_RAM_SIZE+0x3bd6b5f8>
    e57c:	6f 66 20 6d 	call  bd996730 <LEON_REG+0x3d996730>
    e580:	65 6d 6f 72 	call  95b6a348 <LEON_REG+0x15b6a348>
    e584:	79 2e 0a 00 	call  e4b90d84 <LEON_REG+0x64b90d84>
    e588:	46 61 69 6c 	call  19868b38 <_RAM_SIZE+0x17868b38>
    e58c:	20 74 6f 20 	desconhecido
    e590:	63 72 65 61 	call  8dca7b14 <LEON_REG+0xdca7b14>
    e594:	74 65 20 74 	call  d1956764 <LEON_REG+0x51956764>
    e598:	68 72 65 61 	call  a1ca7b1c <LEON_REG+0x21ca7b1c>
    e59c:	64 73 21 00 	call  91cd699c <LEON_REG+0x11cd699c>
    e5a0:	55 73 61 67 	call  55ce6b3c <_RAM_SIZE+0x53ce6b3c>
    e5a4:	65 3a 20 64 	call  94e96734 <LEON_REG+0x14e96734>
    e5a8:	69 6a 6b 73 	call  a5aa9374 <LEON_REG+0x25aa9374>
    e5ac:	74 72 61 20 	call  d1ca6a2c <LEON_REG+0x51ca6a2c>
    e5b0:	3c 66 69 6c 	desconhecido
    e5b4:	65 6e 61 6d 	call  95ba6b68 <LEON_REG+0x15ba6b68>
    e5b8:	65 3e 0a 00 	call  94f90db8 <LEON_REG+0x14f90db8>
    e5bc:	00 00 00 00 	unimp  0
    e5c0:	4f 6e 6c 79 	call  3dba97a4 <_RAM_SIZE+0x3bba97a4>
    e5c4:	20 73 75 70 	desconhecido
    e5c8:	70 6f 72 74 	call  c1beaf98 <LEON_REG+0x41beaf98>
    e5cc:	73 20 6d 61 	call  cc829b50 <LEON_REG+0x4c829b50>
    e5d0:	74 72 69 78 	call  d1ca8bb0 <LEON_REG+0x51ca8bb0>
    e5d4:	20 73 69 7a 	desconhecido
    e5d8:	65 20 69 73 	call  94828ba4 <LEON_REG+0x14828ba4>
    e5dc:	20 23 64 65 	desconhecido
    e5e0:	66 69 6e 65 	call  99a69f74 <LEON_REG+0x19a69f74>
    e5e4:	27 64 2e 0a 	desconhecido
	...
    e5f0:	72 00 00 00 	call  c800e5f0 <LEON_REG+0x4800e5f0>
    e5f4:	00 00 00 00 	unimp  0
    e5f8:	25 64 00 00 	desconhecido
    e5fc:	00 00 00 00 	unimp  0
    e600:	0a 50 72 69 	desconhecido
    e604:	6e 74 51 75 	call  b9d22bd8 <LEON_REG+0x39d22bd8>
    e608:	65 75 65 28 	call  95d67aa8 <LEON_REG+0x15d67aa8>
    e60c:	29 3a 20 0a 	sethi  %hi(0xe8802800), %l4
	...
    e618:	0a 46 69 6c 	desconhecido
    e61c:	61 20 63 6f 	call  848273d8 <LEON_REG+0x48273d8>
    e620:	6d 20 25 64 	call  b4817bb0 <LEON_REG+0x34817bb0>
    e624:	20 74 68 72 	desconhecido
    e628:	65 61 64 73 	call  958677f4 <LEON_REG+0x158677f4>
    e62c:	3a 20 0a 00 	desconhecido
    e630:	0a 62 65 67 	desconhecido
    e634:	69 6e 3a 20 	call  a5b9ceb4 <LEON_REG+0x25b9ceb4>
    e638:	25 64 0a 00 	desconhecido
    e63c:	00 00 00 00 	unimp  0
    e640:	0a 65 6e 64 	desconhecido
    e644:	3a 20 25 64 	desconhecido
    e648:	0a 00 00 00 	desconhecido
    e64c:	00 00 00 00 	unimp  0
    e650:	0a 45 6d 70 	desconhecido
    e654:	74 79 20 51 	call  d1e56798 <LEON_REG+0x51e56798>
    e658:	75 65 75 65 	call  d596bbec <LEON_REG+0x5596bbec>
    e65c:	21 0a 00 00 	sethi  %hi(0x28000000), %l0
    e660:	0a 41 74 20 	desconhecido
    e664:	74 68 65 20 	call  d1a27ae4 <LEON_REG+0x51a27ae4>
    e668:	65 6e 64 20 	call  95ba76e8 <LEON_REG+0x15ba76e8>
    e66c:	6f 66 20 70 	call  bd99682c <LEON_REG+0x3d99682c>
    e670:	74 68 72 65 	call  d1a2b004 <LEON_REG+0x51a2b004>
    e674:	61 64 5f 6d 	call  85926428 <LEON_REG+0x5926428>
    e678:	79 5f 65 78 	call  e57e7c58 <LEON_REG+0x657e7c58>
    e67c:	69 74 2e 2e 	call  a5d19f34 <LEON_REG+0x25d19f34>
    e680:	2e 0a 00 00 	desconhecido
    e684:	00 00 00 00 	unimp  0
    e688:	0a 4a 6f 69 	desconhecido
    e68c:	6e 20 50 6f 	call  b8822848 <LEON_REG+0x38822848>
    e690:	69 6e 74 2d 	call  a5bab744 <LEON_REG+0x25bab744>
    e694:	3e 25 64 20 	desconhecido
    e698:	6f 66 20 25 	call  bd99672c <LEON_REG+0x3d99672c>
    e69c:	64 20 70 72 	call  9082a864 <LEON_REG+0x1082a864>
    e6a0:	6f 63 65 73 	call  bd8e7c6c <LEON_REG+0x3d8e7c6c>
    e6a4:	73 6f 72 73 	call  cdbeb070 <LEON_REG+0x4dbeb070>
    e6a8:	20 61 72 65 	desconhecido
    e6ac:	20 6e 6f 74 	desconhecido
    e6b0:	20 6f 76 65 	desconhecido
    e6b4:	72 20 79 65 	call  c882cc48 <LEON_REG+0x4882cc48>
    e6b8:	74 2e 2e 2e 	call  d0b99f70 <LEON_REG+0x50b99f70>
    e6bc:	00 00 00 00 	unimp  0
    e6c0:	0a 41 74 20 	desconhecido
    e6c4:	74 68 65 20 	call  d1a27b44 <LEON_REG+0x51a27b44>
    e6c8:	65 6e 64 20 	call  95ba7748 <LEON_REG+0x15ba7748>
    e6cc:	6f 66 20 6a 	call  bd996874 <LEON_REG+0x3d996874>
    e6d0:	6f 69 6e 5f 	call  bda6a04c <LEON_REG+0x3da6a04c>
    e6d4:	63 6f 6e 74 	call  8dbea0a4 <LEON_REG+0xdbea0a4>
    e6d8:	72 6f 6c 2e 	call  c9be9790 <LEON_REG+0x49be9790>
    e6dc:	2e 2e 0a 00 	desconhecido
    e6e0:	0a 41 6c 6c 	desconhecido
    e6e4:	20 25 64 20 	desconhecido
    e6e8:	74 68 72 65 	call  d1a2b07c <LEON_REG+0x51a2b07c>
    e6ec:	61 64 73 20 	call  8592b36c <LEON_REG+0x592b36c>
    e6f0:	73 74 61 72 	call  cdd26cb8 <LEON_REG+0x4dd26cb8>
    e6f4:	74 65 64 2e 	call  d19677ac <LEON_REG+0x519677ac>
    e6f8:	2e 2e 0a 00 	desconhecido
    e6fc:	00 00 00 00 	unimp  0
    e700:	0a 54 68 72 	desconhecido
    e704:	65 61 64 20 	call  95867784 <LEON_REG+0x15867784>
    e708:	77 68 6f 73 	call  dda2a4d4 <LEON_REG+0x5da2a4d4>
    e70c:	65 20 61 64 	call  94826c9c <LEON_REG+0x14826c9c>
    e710:	64 72 65 73 	call  91ca7cdc <LEON_REG+0x11ca7cdc>
    e714:	73 20 69 73 	call  cc828ce0 <LEON_REG+0x4c828ce0>
    e718:	20 25 78 20 	desconhecido
    e71c:	77 69 6c 6c 	call  dda698cc <LEON_REG+0x5da698cc>
    e720:	20 62 65 20 	desconhecido
    e724:	65 78 65 63 	call  95e27cb0 <LEON_REG+0x15e27cb0>
    e728:	75 74 65 64 	call  d5d27cb8 <LEON_REG+0x55d27cb8>
    e72c:	2e 2e 2e 0a 	desconhecido
	...
    e738:	54 68 65 20 	call  51a27bb8 <_RAM_SIZE+0x4fa27bb8>
    e73c:	61 72 67 75 	call  85ca8510 <LEON_REG+0x5ca8510>
    e740:	6d 65 6e 74 	call  b596a110 <LEON_REG+0x3596a110>
    e744:	73 20 61 64 	call  cc826cd4 <LEON_REG+0x4c826cd4>
    e748:	64 72 65 73 	call  91ca7d14 <LEON_REG+0x11ca7d14>
    e74c:	73 20 69 73 	call  cc828d18 <LEON_REG+0x4c828d18>
    e750:	20 25 78 20 	desconhecido
    e754:	2e 2e 2e 20 	desconhecido
    e758:	0a 00 00 00 	desconhecido
    e75c:	00 00 00 00 	unimp  0
    e760:	0a 54 68 72 	desconhecido
    e764:	65 61 64 20 	call  958677e4 <LEON_REG+0x158677e4>
    e768:	77 68 6f 73 	call  dda2a534 <LEON_REG+0x5da2a534>
    e76c:	65 20 61 64 	call  94826cfc <LEON_REG+0x14826cfc>
    e770:	64 72 65 73 	call  91ca7d3c <LEON_REG+0x11ca7d3c>
    e774:	73 20 69 73 	call  cc828d40 <LEON_REG+0x4c828d40>
    e778:	20 25 78 20 	desconhecido
    e77c:	65 6e 64 65 	call  95ba7910 <LEON_REG+0x15ba7910>
    e780:	64 2e 2e 2e 	call  90b9a038 <LEON_REG+0x10b9a038>
    e784:	0a 00 00 00 	desconhecido
    e788:	43 00 00 00 	call  c00e788 <_RAM_SIZE+0xa00e788>
    e78c:	00 00 00 00 	unimp  0

0000e790 <blanks.0>:
    e790:	20 20 20 20 	desconhecido
    e794:	20 20 20 20 	desconhecido
    e798:	20 20 20 20 	desconhecido
    e79c:	20 20 20 20 	desconhecido

0000e7a0 <zeroes.1>:
    e7a0:	30 30 30 30 	desconhecido
    e7a4:	30 30 30 30 	desconhecido
    e7a8:	30 30 30 30 	desconhecido
    e7ac:	30 30 30 30 	desconhecido
    e7b0:	62 75 67 20 	call  89d68430 <LEON_REG+0x9d68430>
    e7b4:	69 6e 20 76 	call  a5b9698c <LEON_REG+0x25b9698c>
    e7b8:	66 70 72 69 	call  99c2b15c <LEON_REG+0x19c2b15c>
    e7bc:	6e 74 66 3a 	call  b9d280a4 <LEON_REG+0x39d280a4>
    e7c0:	20 62 61 64 	desconhecido
    e7c4:	20 62 61 73 	desconhecido
    e7c8:	65 00 00 00 	call  9400e7c8 <LEON_REG+0x1400e7c8>
    e7cc:	00 00 00 00 	unimp  0
    e7d0:	30 00 00 00 	desconhecido
    e7d4:	00 00 00 00 	unimp  0
    e7d8:	2e 00 00 00 	desconhecido
    e7dc:	00 00 00 00 	unimp  0
    e7e0:	30 31 32 33 	desconhecido
    e7e4:	34 35 36 37 	desconhecido
    e7e8:	38 39 41 42 	desconhecido
    e7ec:	43 44 45 46 	call  d11fd04 <_RAM_SIZE+0xb11fd04>
    e7f0:	00 00 00 00 	unimp  0
    e7f4:	00 00 00 00 	unimp  0
    e7f8:	49 6e 66 00 	call  25ba7ff8 <_RAM_SIZE+0x23ba7ff8>
    e7fc:	00 00 00 00 	unimp  0
    e800:	4e 61 4e 00 	call  39862000 <_RAM_SIZE+0x37862000>
    e804:	00 00 00 00 	unimp  0
    e808:	30 31 32 33 	desconhecido
    e80c:	34 35 36 37 	desconhecido
    e810:	38 39 61 62 	desconhecido
    e814:	63 64 65 66 	call  8d927dac <LEON_REG+0xd927dac>
    e818:	00 00 00 00 	unimp  0
    e81c:	00 00 00 00 	unimp  0
    e820:	28 6e 75 6c 	desconhecido
    e824:	6c 29 00 00 	call  b0a4e824 <LEON_REG+0x30a4e824>
    e828:	00 00 00 00 	unimp  0
    e82c:	00 00 00 00 	unimp  0

0000e830 <basefix.0>:
    e830:	00 0a 00 01 	unimp  0xa0001
    e834:	00 02 00 03 	unimp  0x20003
    e838:	00 04 00 05 	unimp  0x40005
    e83c:	00 06 00 07 	unimp  0x60007
    e840:	00 08 00 09 	unimp  0x80009
    e844:	00 0a 00 0b 	unimp  0xa000b
    e848:	00 0c 00 0d 	unimp  0xc000d
    e84c:	00 0e 00 0f 	unimp  0xe000f
    e850:	00 10 00 00 	unimp  0x100000
    e854:	00 00 00 00 	unimp  0
    e858:	65 25 6c 64 	call  949699e8 <LEON_REG+0x149699e8>
    e85c:	00 00 00 00 	unimp  0

0000e860 <_ctype_b>:
	...

0000e8df <_ctype_>:
    e8df:	00 20 20 20 	unimp  0xffe02020
    e8e3:	20 20 20 20 	desconhecido
    e8e7:	20 20 28 28 	desconhecido
    e8eb:	28 28 28 20 	desconhecido
    e8ef:	20 20 20 20 	desconhecido
    e8f3:	20 20 20 20 	desconhecido
    e8f7:	20 20 20 20 	desconhecido
    e8fb:	20 20 20 20 	desconhecido
    e8ff:	20 88 10 10 	bn,a   21293f <_PROM_SIZE+0x11293f>
    e903:	10 10 10 10 	desconhecido
    e907:	10 10 10 10 	desconhecido
    e90b:	10 10 10 10 	desconhecido
    e90f:	10 04 04 04 	desconhecido
    e913:	04 04 04 04 	desconhecido
    e917:	04 04 04 10 	desconhecido
    e91b:	10 10 10 10 	desconhecido
    e91f:	10 10 41 41 	desconhecido
    e923:	41 41 41 41 	call  505ee27 <_RAM_SIZE+0x305ee27>
    e927:	01 01 01 01 	sethi  %hi(0x4040400), %g0
    e92b:	01 01 01 01 	sethi  %hi(0x4040400), %g0
    e92f:	01 01 01 01 	sethi  %hi(0x4040400), %g0
    e933:	01 01 01 01 	sethi  %hi(0x4040400), %g0
    e937:	01 01 01 01 	sethi  %hi(0x4040400), %g0
    e93b:	10 10 10 10 	desconhecido
    e93f:	10 10 42 42 	desconhecido
    e943:	42 42 42 42 	call  909f24b <_RAM_SIZE+0x709f24b>
    e947:	02 02 02 02 	desconhecido
    e94b:	02 02 02 02 	desconhecido
    e94f:	02 02 02 02 	desconhecido
    e953:	02 02 02 02 	desconhecido
    e957:	02 02 02 02 	desconhecido
    e95b:	10 10 10 10 	desconhecido
    e95f:	20 00 00 00 	desconhecido
	...
    e9df:	00 49 6e 66 	desconhecido
    e9e3:	69 6e 69 74 	call  a5ba8fb3 <LEON_REG+0x25ba8fb3>
    e9e7:	79 00 00 00 	call  e400e9e7 <LEON_REG+0x6400e9e7>
    e9eb:	00 00 00 00 	unimp  0
    e9ef:	00 41 f0 00 	desconhecido
    e9f3:	00 00 00 00 	unimp  0
    e9f7:	00 3f f8 00 	unimp  0xfffff800
    e9fb:	00 00 00 00 	unimp  0
    e9ff:	00 3f d2 87 	unimp  0xffffd287
    ea03:	a7 63 6f 43 	desconhecido
    ea07:	61 3f c6 8a 	call  8500042f <LEON_REG+0x500042f>
    ea0b:	28 8b 60 c8 	bleu,a   2e6d2b <_PROM_SIZE+0x1e6d2b>
    ea0f:	b3 3f d3 44 	desconhecido
    ea13:	13 50 9f 79 	desconhecido
    ea17:	fb 3f f0 00 	std  %f60, [ %i7 + -4096 ]
    ea1b:	00 00 00 00 	unimp  0
    ea1f:	00 40 24 00 	desconhecido
    ea23:	00 00 00 00 	unimp  0
    ea27:	00 40 1c 00 	desconhecido
    ea2b:	00 00 00 00 	unimp  0
    ea2f:	00 40 14 00 	desconhecido
    ea33:	00 00 00 00 	unimp  0
    ea37:	00 3f e0 00 	unimp  0xffffe000
	...
    ea47:	00 49 53 4f 	desconhecido
    ea4b:	2d 38 38 35 	sethi  %hi(0xe0e0d400), %l6
    ea4f:	39 2d 31 00 	sethi  %hi(0xb4c40000), %i4
	...

0000ea54 <lconv>:
    ea54:	00 00 e7 d8 	unimp  0xe7d8
    ea58:	00 00 ea 40 	unimp  0xea40
    ea5c:	00 00 ea 40 	unimp  0xea40
    ea60:	00 00 ea 40 	unimp  0xea40
    ea64:	00 00 ea 40 	unimp  0xea40
    ea68:	00 00 ea 40 	unimp  0xea40
    ea6c:	00 00 ea 40 	unimp  0xea40
    ea70:	00 00 ea 40 	unimp  0xea40
    ea74:	00 00 ea 40 	unimp  0xea40
    ea78:	00 00 ea 40 	unimp  0xea40
    ea7c:	7f 7f 7f 7f 	call  fdfee878 <LEON_REG+0x7dfee878>
    ea80:	7f 7f 7f 7f 	call  fdfee87c <LEON_REG+0x7dfee87c>
    ea84:	00 00 00 00 	unimp  0

0000ea88 <p05.0>:
    ea88:	00 00 00 05 	unimp  0x5
    ea8c:	00 00 00 19 	unimp  0x19
    ea90:	00 00 00 7d 	unimp  0x7d
    ea94:	00 00 00 00 	unimp  0

0000ea98 <__mprec_tens>:
    ea98:	3f f0 00 00 	cb012,a   ffc0ea98 <LEON_REG+0x7fc0ea98>
    ea9c:	00 00 00 00 	unimp  0
    eaa0:	40 24 00 00 	call  90eaa0 <AC_RAM_END+0x40eaa0>
    eaa4:	00 00 00 00 	unimp  0
    eaa8:	40 59 00 00 	call  164eaa8 <AC_RAM_END+0x114eaa8>
    eaac:	00 00 00 00 	unimp  0
    eab0:	40 8f 40 00 	call  23deab0 <_RAM_SIZE+0x3deab0>
    eab4:	00 00 00 00 	unimp  0
    eab8:	40 c3 88 00 	call  30f0ab8 <_RAM_SIZE+0x10f0ab8>
    eabc:	00 00 00 00 	unimp  0
    eac0:	40 f8 6a 00 	call  3e292c0 <_RAM_SIZE+0x1e292c0>
    eac4:	00 00 00 00 	unimp  0
    eac8:	41 2e 84 80 	call  4bafcc8 <_RAM_SIZE+0x2bafcc8>
    eacc:	00 00 00 00 	unimp  0
    ead0:	41 63 12 d0 	call  58d3610 <_RAM_SIZE+0x38d3610>
    ead4:	00 00 00 00 	unimp  0
    ead8:	41 97 d7 84 	call  66048e8 <_RAM_SIZE+0x46048e8>
    eadc:	00 00 00 00 	unimp  0
    eae0:	41 cd cd 65 	call  7382074 <_RAM_SIZE+0x5382074>
    eae4:	00 00 00 00 	unimp  0
    eae8:	42 02 a0 5f 	call  80b6c64 <_RAM_SIZE+0x60b6c64>
    eaec:	20 00 00 00 	desconhecido
    eaf0:	42 37 48 76 	call  8de0cc8 <_RAM_SIZE+0x6de0cc8>
    eaf4:	e8 00 00 00 	ld  [ %g0 ], %l4
    eaf8:	42 6d 1a 94 	call  9b55548 <_RAM_SIZE+0x7b55548>
    eafc:	a2 00 00 00 	add  %g0, %g0, %l1
    eb00:	42 a2 30 9c 	call  a89ad70 <_RAM_SIZE+0x889ad70>
    eb04:	e5 40 00 00 	desconhecido
    eb08:	42 d6 bc c4 	call  b5bde18 <_RAM_SIZE+0x95bde18>
    eb0c:	1e 90 00 00 	bvc  40eb0c <_PROM_SIZE+0x30eb0c>
    eb10:	43 0c 6b f5 	call  c329ae4 <_RAM_SIZE+0xa329ae4>
    eb14:	26 34 00 00 	desconhecido
    eb18:	43 41 c3 79 	call  d07f8fc <_RAM_SIZE+0xb07f8fc>
    eb1c:	37 e0 80 00 	cb02,a   ff82eb1c <LEON_REG+0x7f82eb1c>
    eb20:	43 76 34 57 	call  dd9bc7c <_RAM_SIZE+0xbd9bc7c>
    eb24:	85 d8 a0 00 	flush  %g2
    eb28:	43 ab c1 6d 	call  eaff0dc <_RAM_SIZE+0xcaff0dc>
    eb2c:	67 4e c8 00 	call  9d3c0b2c <LEON_REG+0x1d3c0b2c>
    eb30:	43 e1 58 e4 	call  f864ec0 <_RAM_SIZE+0xd864ec0>
    eb34:	60 91 3d 00 	call  8245df34 <LEON_REG+0x245df34>
    eb38:	44 15 af 1d 	call  1057a7ac <_RAM_SIZE+0xe57a7ac>
    eb3c:	78 b5 8c 40 	call  e2d71c3c <LEON_REG+0x62d71c3c>
    eb40:	44 4b 1a e4 	call  112d56d0 <_RAM_SIZE+0xf2d56d0>
    eb44:	d6 e2 ef 50 	desconhecido
    eb48:	44 80 f0 cf 	call  1204ae84 <_RAM_SIZE+0x1004ae84>
    eb4c:	06 4d d5 92 	desconhecido
    eb50:	44 b5 2d 02 	call  12d59f58 <_RAM_SIZE+0x10d59f58>
    eb54:	c7 e1 4a f6 	desconhecido
    eb58:	44 ea 78 43 	call  13aacc64 <_RAM_SIZE+0x11aacc64>
    eb5c:	79 d9 9d b4 	call  e767622c <LEON_REG+0x6767622c>

0000eb60 <__mprec_bigtens>:
    eb60:	43 41 c3 79 	call  d07f944 <_RAM_SIZE+0xb07f944>
    eb64:	37 e0 80 00 	cb02,a   ff82eb64 <LEON_REG+0x7f82eb64>
    eb68:	46 93 b8 b5 	call  1a4fce3c <_RAM_SIZE+0x184fce3c>
    eb6c:	b5 05 6e 17 	taddcc  %l5, 0xe17, %i2
    eb70:	4d 38 4f 03 	call  34e2277c <_RAM_SIZE+0x32e2277c>
    eb74:	e9 3f f9 f5 	std  %f20, [ %i7 + -1547 ]
    eb78:	5a 82 77 48 	call  6a0ac898 <_RAM_SIZE+0x680ac898>
    eb7c:	f9 30 1d 32 	desconhecido
    eb80:	75 15 4f dd 	call  d4562af4 <LEON_REG+0x54562af4>
    eb84:	7f 73 bf 3c 	call  fdcfe874 <LEON_REG+0x7dcfe874>

0000eb88 <__mprec_tinytens>:
    eb88:	3c 9c d2 b2 	bpos,a   743650 <AC_RAM_END+0x243650>
    eb8c:	97 d8 89 bc 	desconhecido
    eb90:	39 49 f6 23 	desconhecido
    eb94:	d5 a8 a7 33 	st  %csr, [ %g2 + 0x733 ]
    eb98:	32 a5 0f fd 	bne,a   ff952b8c <LEON_REG+0x7f952b8c>
    eb9c:	44 f4 a7 3d 	call  13d38890 <_RAM_SIZE+0x11d38890>
    eba0:	25 5b ba 08 	desconhecido
    eba4:	cf 8c 97 9d 	ld  [ %l2 + %i5 ], %csr
    eba8:	0a c8 06 28 	desconhecido
    ebac:	64 ac 6f 43 	call  92b2a8b8 <LEON_REG+0x12b2a8b8>
    ebb0:	00 00 00 00 	unimp  0
	...
    ebc0:	40 00 00 00 	call  ebc0 <__mprec_tinytens+0x38>
    ebc4:	00 00 00 00 	unimp  0
    ebc8:	bf f0 00 00 	desconhecido
    ebcc:	00 00 00 00 	unimp  0
    ebd0:	3f df ff ff 	cb012,a   80ebcc <AC_RAM_END+0x30ebcc>
    ebd4:	94 a0 35 95 	subcc  %g0, -2667, %o2
    ebd8:	3f e0 00 00 	cb012,a   ff80ebd8 <LEON_REG+0x7f80ebd8>
    ebdc:	35 af e5 35 	fbue,a   ffc080b0 <LEON_REG+0x7fc080b0>
    ebe0:	3f cf ff ff 	cb012,a   40ebdc <_PROM_SIZE+0x30ebdc>
    ebe4:	94 a0 35 95 	subcc  %g0, -2667, %o2

0000ebe8 <__infinity>:
    ebe8:	7f f0 00 00 	call  ffc0ebe8 <LEON_REG+0x7fc0ebe8>
    ebec:	00 00 00 00 	unimp  0
    ebf0:	c1 e0 00 00 	desconhecido
    ebf4:	00 00 00 00 	unimp  0

0000ebf8 <__thenan_df>:
	...

0000ec10 <__clz_tab>:
    ec10:	00 01 02 02 	unimp  0x10202
    ec14:	03 03 03 03 	sethi  %hi(0xc0c0c00), %g1
    ec18:	04 04 04 04 	desconhecido
    ec1c:	04 04 04 04 	desconhecido
    ec20:	05 05 05 05 	sethi  %hi(0x14141400), %g2
    ec24:	05 05 05 05 	sethi  %hi(0x14141400), %g2
    ec28:	05 05 05 05 	sethi  %hi(0x14141400), %g2
    ec2c:	05 05 05 05 	sethi  %hi(0x14141400), %g2
    ec30:	06 06 06 06 	desconhecido
    ec34:	06 06 06 06 	desconhecido
    ec38:	06 06 06 06 	desconhecido
    ec3c:	06 06 06 06 	desconhecido
    ec40:	06 06 06 06 	desconhecido
    ec44:	06 06 06 06 	desconhecido
    ec48:	06 06 06 06 	desconhecido
    ec4c:	06 06 06 06 	desconhecido
    ec50:	07 07 07 07 	sethi  %hi(0x1c1c1c00), %g3
    ec54:	07 07 07 07 	sethi  %hi(0x1c1c1c00), %g3
    ec58:	07 07 07 07 	sethi  %hi(0x1c1c1c00), %g3
    ec5c:	07 07 07 07 	sethi  %hi(0x1c1c1c00), %g3
    ec60:	07 07 07 07 	sethi  %hi(0x1c1c1c00), %g3
    ec64:	07 07 07 07 	sethi  %hi(0x1c1c1c00), %g3
    ec68:	07 07 07 07 	sethi  %hi(0x1c1c1c00), %g3
    ec6c:	07 07 07 07 	sethi  %hi(0x1c1c1c00), %g3
    ec70:	07 07 07 07 	sethi  %hi(0x1c1c1c00), %g3
    ec74:	07 07 07 07 	sethi  %hi(0x1c1c1c00), %g3
    ec78:	07 07 07 07 	sethi  %hi(0x1c1c1c00), %g3
    ec7c:	07 07 07 07 	sethi  %hi(0x1c1c1c00), %g3
    ec80:	07 07 07 07 	sethi  %hi(0x1c1c1c00), %g3
    ec84:	07 07 07 07 	sethi  %hi(0x1c1c1c00), %g3
    ec88:	07 07 07 07 	sethi  %hi(0x1c1c1c00), %g3
    ec8c:	07 07 07 07 	sethi  %hi(0x1c1c1c00), %g3
    ec90:	08 08 08 08 	desconhecido
    ec94:	08 08 08 08 	desconhecido
    ec98:	08 08 08 08 	desconhecido
    ec9c:	08 08 08 08 	desconhecido
    eca0:	08 08 08 08 	desconhecido
    eca4:	08 08 08 08 	desconhecido
    eca8:	08 08 08 08 	desconhecido
    ecac:	08 08 08 08 	desconhecido
    ecb0:	08 08 08 08 	desconhecido
    ecb4:	08 08 08 08 	desconhecido
    ecb8:	08 08 08 08 	desconhecido
    ecbc:	08 08 08 08 	desconhecido
    ecc0:	08 08 08 08 	desconhecido
    ecc4:	08 08 08 08 	desconhecido
    ecc8:	08 08 08 08 	desconhecido
    eccc:	08 08 08 08 	desconhecido
    ecd0:	08 08 08 08 	desconhecido
    ecd4:	08 08 08 08 	desconhecido
    ecd8:	08 08 08 08 	desconhecido
    ecdc:	08 08 08 08 	desconhecido
    ece0:	08 08 08 08 	desconhecido
    ece4:	08 08 08 08 	desconhecido
    ece8:	08 08 08 08 	desconhecido
    ecec:	08 08 08 08 	desconhecido
    ecf0:	08 08 08 08 	desconhecido
    ecf4:	08 08 08 08 	desconhecido
    ecf8:	08 08 08 08 	desconhecido
    ecfc:	08 08 08 08 	desconhecido
    ed00:	08 08 08 08 	desconhecido
    ed04:	08 08 08 08 	desconhecido
    ed08:	08 08 08 08 	desconhecido
    ed0c:	08 08 08 08 	desconhecido

0000ed10 <_data_start>:
    ed10:	20 00 00 00 	desconhecido
    ed14:	00 00 00 00 	unimp  0

0000ed18 <impure_data>:
    ed18:	00 00 00 00 	unimp  0
    ed1c:	00 00 ef 80 	unimp  0xef80
    ed20:	00 00 ef dc 	unimp  0xefdc
    ed24:	00 00 f0 38 	unimp  0xf038
	...
    ed4c:	00 00 e7 88 	unimp  0xe788
	...
    edc4:	00 00 00 01 	unimp  0x1
    edc8:	33 0e ab cd 	sethi  %hi(0x3aaf3400), %i1
    edcc:	12 34 e6 6d 	desconhecido
    edd0:	de ec 00 05 	ldstuba  [ %l0 + %g5 ] (0), %o7
    edd4:	00 0b 00 00 	unimp  0xb0000
	...

0000f098 <_impure_ptr>:
    f098:	00 00 ed 18 	unimp  0xed18
    f09c:	00 00 00 00 	unimp  0

0000f0a0 <__malloc_av_>:
	...
    f0a8:	00 00 f0 a0 	unimp  0xf0a0
    f0ac:	00 00 f0 a0 	unimp  0xf0a0
    f0b0:	00 00 f0 a8 	unimp  0xf0a8
    f0b4:	00 00 f0 a8 	unimp  0xf0a8
    f0b8:	00 00 f0 b0 	unimp  0xf0b0
    f0bc:	00 00 f0 b0 	unimp  0xf0b0
    f0c0:	00 00 f0 b8 	unimp  0xf0b8
    f0c4:	00 00 f0 b8 	unimp  0xf0b8
    f0c8:	00 00 f0 c0 	unimp  0xf0c0
    f0cc:	00 00 f0 c0 	unimp  0xf0c0
    f0d0:	00 00 f0 c8 	unimp  0xf0c8
    f0d4:	00 00 f0 c8 	unimp  0xf0c8
    f0d8:	00 00 f0 d0 	unimp  0xf0d0
    f0dc:	00 00 f0 d0 	unimp  0xf0d0
    f0e0:	00 00 f0 d8 	unimp  0xf0d8
    f0e4:	00 00 f0 d8 	unimp  0xf0d8
    f0e8:	00 00 f0 e0 	unimp  0xf0e0
    f0ec:	00 00 f0 e0 	unimp  0xf0e0
    f0f0:	00 00 f0 e8 	unimp  0xf0e8
    f0f4:	00 00 f0 e8 	unimp  0xf0e8
    f0f8:	00 00 f0 f0 	unimp  0xf0f0
    f0fc:	00 00 f0 f0 	unimp  0xf0f0
    f100:	00 00 f0 f8 	unimp  0xf0f8
    f104:	00 00 f0 f8 	unimp  0xf0f8
    f108:	00 00 f1 00 	unimp  0xf100
    f10c:	00 00 f1 00 	unimp  0xf100
    f110:	00 00 f1 08 	unimp  0xf108
    f114:	00 00 f1 08 	unimp  0xf108
    f118:	00 00 f1 10 	unimp  0xf110
    f11c:	00 00 f1 10 	unimp  0xf110
    f120:	00 00 f1 18 	unimp  0xf118
    f124:	00 00 f1 18 	unimp  0xf118
    f128:	00 00 f1 20 	unimp  0xf120
    f12c:	00 00 f1 20 	unimp  0xf120
    f130:	00 00 f1 28 	unimp  0xf128
    f134:	00 00 f1 28 	unimp  0xf128
    f138:	00 00 f1 30 	unimp  0xf130
    f13c:	00 00 f1 30 	unimp  0xf130
    f140:	00 00 f1 38 	unimp  0xf138
    f144:	00 00 f1 38 	unimp  0xf138
    f148:	00 00 f1 40 	unimp  0xf140
    f14c:	00 00 f1 40 	unimp  0xf140
    f150:	00 00 f1 48 	unimp  0xf148
    f154:	00 00 f1 48 	unimp  0xf148
    f158:	00 00 f1 50 	unimp  0xf150
    f15c:	00 00 f1 50 	unimp  0xf150
    f160:	00 00 f1 58 	unimp  0xf158
    f164:	00 00 f1 58 	unimp  0xf158
    f168:	00 00 f1 60 	unimp  0xf160
    f16c:	00 00 f1 60 	unimp  0xf160
    f170:	00 00 f1 68 	unimp  0xf168
    f174:	00 00 f1 68 	unimp  0xf168
    f178:	00 00 f1 70 	unimp  0xf170
    f17c:	00 00 f1 70 	unimp  0xf170
    f180:	00 00 f1 78 	unimp  0xf178
    f184:	00 00 f1 78 	unimp  0xf178
    f188:	00 00 f1 80 	unimp  0xf180
    f18c:	00 00 f1 80 	unimp  0xf180
    f190:	00 00 f1 88 	unimp  0xf188
    f194:	00 00 f1 88 	unimp  0xf188
    f198:	00 00 f1 90 	unimp  0xf190
    f19c:	00 00 f1 90 	unimp  0xf190
    f1a0:	00 00 f1 98 	unimp  0xf198
    f1a4:	00 00 f1 98 	unimp  0xf198
    f1a8:	00 00 f1 a0 	unimp  0xf1a0
    f1ac:	00 00 f1 a0 	unimp  0xf1a0
    f1b0:	00 00 f1 a8 	unimp  0xf1a8
    f1b4:	00 00 f1 a8 	unimp  0xf1a8
    f1b8:	00 00 f1 b0 	unimp  0xf1b0
    f1bc:	00 00 f1 b0 	unimp  0xf1b0
    f1c0:	00 00 f1 b8 	unimp  0xf1b8
    f1c4:	00 00 f1 b8 	unimp  0xf1b8
    f1c8:	00 00 f1 c0 	unimp  0xf1c0
    f1cc:	00 00 f1 c0 	unimp  0xf1c0
    f1d0:	00 00 f1 c8 	unimp  0xf1c8
    f1d4:	00 00 f1 c8 	unimp  0xf1c8
    f1d8:	00 00 f1 d0 	unimp  0xf1d0
    f1dc:	00 00 f1 d0 	unimp  0xf1d0
    f1e0:	00 00 f1 d8 	unimp  0xf1d8
    f1e4:	00 00 f1 d8 	unimp  0xf1d8
    f1e8:	00 00 f1 e0 	unimp  0xf1e0
    f1ec:	00 00 f1 e0 	unimp  0xf1e0
    f1f0:	00 00 f1 e8 	unimp  0xf1e8
    f1f4:	00 00 f1 e8 	unimp  0xf1e8
    f1f8:	00 00 f1 f0 	unimp  0xf1f0
    f1fc:	00 00 f1 f0 	unimp  0xf1f0
    f200:	00 00 f1 f8 	unimp  0xf1f8
    f204:	00 00 f1 f8 	unimp  0xf1f8
    f208:	00 00 f2 00 	unimp  0xf200
    f20c:	00 00 f2 00 	unimp  0xf200
    f210:	00 00 f2 08 	unimp  0xf208
    f214:	00 00 f2 08 	unimp  0xf208
    f218:	00 00 f2 10 	unimp  0xf210
    f21c:	00 00 f2 10 	unimp  0xf210
    f220:	00 00 f2 18 	unimp  0xf218
    f224:	00 00 f2 18 	unimp  0xf218
    f228:	00 00 f2 20 	unimp  0xf220
    f22c:	00 00 f2 20 	unimp  0xf220
    f230:	00 00 f2 28 	unimp  0xf228
    f234:	00 00 f2 28 	unimp  0xf228
    f238:	00 00 f2 30 	unimp  0xf230
    f23c:	00 00 f2 30 	unimp  0xf230
    f240:	00 00 f2 38 	unimp  0xf238
    f244:	00 00 f2 38 	unimp  0xf238
    f248:	00 00 f2 40 	unimp  0xf240
    f24c:	00 00 f2 40 	unimp  0xf240
    f250:	00 00 f2 48 	unimp  0xf248
    f254:	00 00 f2 48 	unimp  0xf248
    f258:	00 00 f2 50 	unimp  0xf250
    f25c:	00 00 f2 50 	unimp  0xf250
    f260:	00 00 f2 58 	unimp  0xf258
    f264:	00 00 f2 58 	unimp  0xf258
    f268:	00 00 f2 60 	unimp  0xf260
    f26c:	00 00 f2 60 	unimp  0xf260
    f270:	00 00 f2 68 	unimp  0xf268
    f274:	00 00 f2 68 	unimp  0xf268
    f278:	00 00 f2 70 	unimp  0xf270
    f27c:	00 00 f2 70 	unimp  0xf270
    f280:	00 00 f2 78 	unimp  0xf278
    f284:	00 00 f2 78 	unimp  0xf278
    f288:	00 00 f2 80 	unimp  0xf280
    f28c:	00 00 f2 80 	unimp  0xf280
    f290:	00 00 f2 88 	unimp  0xf288
    f294:	00 00 f2 88 	unimp  0xf288
    f298:	00 00 f2 90 	unimp  0xf290
    f29c:	00 00 f2 90 	unimp  0xf290
    f2a0:	00 00 f2 98 	unimp  0xf298
    f2a4:	00 00 f2 98 	unimp  0xf298
    f2a8:	00 00 f2 a0 	unimp  0xf2a0
    f2ac:	00 00 f2 a0 	unimp  0xf2a0
    f2b0:	00 00 f2 a8 	unimp  0xf2a8
    f2b4:	00 00 f2 a8 	unimp  0xf2a8
    f2b8:	00 00 f2 b0 	unimp  0xf2b0
    f2bc:	00 00 f2 b0 	unimp  0xf2b0
    f2c0:	00 00 f2 b8 	unimp  0xf2b8
    f2c4:	00 00 f2 b8 	unimp  0xf2b8
    f2c8:	00 00 f2 c0 	unimp  0xf2c0
    f2cc:	00 00 f2 c0 	unimp  0xf2c0
    f2d0:	00 00 f2 c8 	unimp  0xf2c8
    f2d4:	00 00 f2 c8 	unimp  0xf2c8
    f2d8:	00 00 f2 d0 	unimp  0xf2d0
    f2dc:	00 00 f2 d0 	unimp  0xf2d0
    f2e0:	00 00 f2 d8 	unimp  0xf2d8
    f2e4:	00 00 f2 d8 	unimp  0xf2d8
    f2e8:	00 00 f2 e0 	unimp  0xf2e0
    f2ec:	00 00 f2 e0 	unimp  0xf2e0
    f2f0:	00 00 f2 e8 	unimp  0xf2e8
    f2f4:	00 00 f2 e8 	unimp  0xf2e8
    f2f8:	00 00 f2 f0 	unimp  0xf2f0
    f2fc:	00 00 f2 f0 	unimp  0xf2f0
    f300:	00 00 f2 f8 	unimp  0xf2f8
    f304:	00 00 f2 f8 	unimp  0xf2f8
    f308:	00 00 f3 00 	unimp  0xf300
    f30c:	00 00 f3 00 	unimp  0xf300
    f310:	00 00 f3 08 	unimp  0xf308
    f314:	00 00 f3 08 	unimp  0xf308
    f318:	00 00 f3 10 	unimp  0xf310
    f31c:	00 00 f3 10 	unimp  0xf310
    f320:	00 00 f3 18 	unimp  0xf318
    f324:	00 00 f3 18 	unimp  0xf318
    f328:	00 00 f3 20 	unimp  0xf320
    f32c:	00 00 f3 20 	unimp  0xf320
    f330:	00 00 f3 28 	unimp  0xf328
    f334:	00 00 f3 28 	unimp  0xf328
    f338:	00 00 f3 30 	unimp  0xf330
    f33c:	00 00 f3 30 	unimp  0xf330
    f340:	00 00 f3 38 	unimp  0xf338
    f344:	00 00 f3 38 	unimp  0xf338
    f348:	00 00 f3 40 	unimp  0xf340
    f34c:	00 00 f3 40 	unimp  0xf340
    f350:	00 00 f3 48 	unimp  0xf348
    f354:	00 00 f3 48 	unimp  0xf348
    f358:	00 00 f3 50 	unimp  0xf350
    f35c:	00 00 f3 50 	unimp  0xf350
    f360:	00 00 f3 58 	unimp  0xf358
    f364:	00 00 f3 58 	unimp  0xf358
    f368:	00 00 f3 60 	unimp  0xf360
    f36c:	00 00 f3 60 	unimp  0xf360
    f370:	00 00 f3 68 	unimp  0xf368
    f374:	00 00 f3 68 	unimp  0xf368
    f378:	00 00 f3 70 	unimp  0xf370
    f37c:	00 00 f3 70 	unimp  0xf370
    f380:	00 00 f3 78 	unimp  0xf378
    f384:	00 00 f3 78 	unimp  0xf378
    f388:	00 00 f3 80 	unimp  0xf380
    f38c:	00 00 f3 80 	unimp  0xf380
    f390:	00 00 f3 88 	unimp  0xf388
    f394:	00 00 f3 88 	unimp  0xf388
    f398:	00 00 f3 90 	unimp  0xf390
    f39c:	00 00 f3 90 	unimp  0xf390
    f3a0:	00 00 f3 98 	unimp  0xf398
    f3a4:	00 00 f3 98 	unimp  0xf398
    f3a8:	00 00 f3 a0 	unimp  0xf3a0
    f3ac:	00 00 f3 a0 	unimp  0xf3a0
    f3b0:	00 00 f3 a8 	unimp  0xf3a8
    f3b4:	00 00 f3 a8 	unimp  0xf3a8
    f3b8:	00 00 f3 b0 	unimp  0xf3b0
    f3bc:	00 00 f3 b0 	unimp  0xf3b0
    f3c0:	00 00 f3 b8 	unimp  0xf3b8
    f3c4:	00 00 f3 b8 	unimp  0xf3b8
    f3c8:	00 00 f3 c0 	unimp  0xf3c0
    f3cc:	00 00 f3 c0 	unimp  0xf3c0
    f3d0:	00 00 f3 c8 	unimp  0xf3c8
    f3d4:	00 00 f3 c8 	unimp  0xf3c8
    f3d8:	00 00 f3 d0 	unimp  0xf3d0
    f3dc:	00 00 f3 d0 	unimp  0xf3d0
    f3e0:	00 00 f3 d8 	unimp  0xf3d8
    f3e4:	00 00 f3 d8 	unimp  0xf3d8
    f3e8:	00 00 f3 e0 	unimp  0xf3e0
    f3ec:	00 00 f3 e0 	unimp  0xf3e0
    f3f0:	00 00 f3 e8 	unimp  0xf3e8
    f3f4:	00 00 f3 e8 	unimp  0xf3e8
    f3f8:	00 00 f3 f0 	unimp  0xf3f0
    f3fc:	00 00 f3 f0 	unimp  0xf3f0
    f400:	00 00 f3 f8 	unimp  0xf3f8
    f404:	00 00 f3 f8 	unimp  0xf3f8
    f408:	00 00 f4 00 	unimp  0xf400
    f40c:	00 00 f4 00 	unimp  0xf400
    f410:	00 00 f4 08 	unimp  0xf408
    f414:	00 00 f4 08 	unimp  0xf408
    f418:	00 00 f4 10 	unimp  0xf410
    f41c:	00 00 f4 10 	unimp  0xf410
    f420:	00 00 f4 18 	unimp  0xf418
    f424:	00 00 f4 18 	unimp  0xf418
    f428:	00 00 f4 20 	unimp  0xf420
    f42c:	00 00 f4 20 	unimp  0xf420
    f430:	00 00 f4 28 	unimp  0xf428
    f434:	00 00 f4 28 	unimp  0xf428
    f438:	00 00 f4 30 	unimp  0xf430
    f43c:	00 00 f4 30 	unimp  0xf430
    f440:	00 00 f4 38 	unimp  0xf438
    f444:	00 00 f4 38 	unimp  0xf438
    f448:	00 00 f4 40 	unimp  0xf440
    f44c:	00 00 f4 40 	unimp  0xf440
    f450:	00 00 f4 48 	unimp  0xf448
    f454:	00 00 f4 48 	unimp  0xf448
    f458:	00 00 f4 50 	unimp  0xf450
    f45c:	00 00 f4 50 	unimp  0xf450
    f460:	00 00 f4 58 	unimp  0xf458
    f464:	00 00 f4 58 	unimp  0xf458
    f468:	00 00 f4 60 	unimp  0xf460
    f46c:	00 00 f4 60 	unimp  0xf460
    f470:	00 00 f4 68 	unimp  0xf468
    f474:	00 00 f4 68 	unimp  0xf468
    f478:	00 00 f4 70 	unimp  0xf470
    f47c:	00 00 f4 70 	unimp  0xf470
    f480:	00 00 f4 78 	unimp  0xf478
    f484:	00 00 f4 78 	unimp  0xf478
    f488:	00 00 f4 80 	unimp  0xf480
    f48c:	00 00 f4 80 	unimp  0xf480
    f490:	00 00 f4 88 	unimp  0xf488
    f494:	00 00 f4 88 	unimp  0xf488
    f498:	00 00 f4 90 	unimp  0xf490
    f49c:	00 00 f4 90 	unimp  0xf490
    f4a0:	00 00 f4 98 	unimp  0xf498
    f4a4:	00 00 f4 98 	unimp  0xf498

0000f4a8 <__malloc_trim_threshold>:
    f4a8:	00 02 00 00 	unimp  0x20000

0000f4ac <__malloc_sbrk_base>:
    f4ac:	ff ff ff ff 	desconhecido

0000f4b0 <__ctype_ptr>:
    f4b0:	00 00 e8 e0 	unimp  0xe8e0
    f4b4:	00 00 00 00 	unimp  0

0000f4b8 <__mb_cur_max>:
    f4b8:	00 00 00 01 	unimp  0x1

0000f4bc <charset>:
    f4bc:	00 00 ea 48 	unimp  0xea48

0000f4c0 <__lc_ctype>:
    f4c0:	43 00 00 00 	call  c00f4c0 <_RAM_SIZE+0xa00f4c0>
    f4c4:	00 00 00 00 	unimp  0
	...
